ARM GAS  C:\Users\lovelesh\AppData\Local\Temp\ccDxuV7s.s 			page 1


   1              		.cpu cortex-m0
   2              		.fpu softvfp
   3              		.eabi_attribute 20, 1
   4              		.eabi_attribute 21, 1
   5              		.eabi_attribute 23, 3
   6              		.eabi_attribute 24, 1
   7              		.eabi_attribute 25, 1
   8              		.eabi_attribute 26, 1
   9              		.eabi_attribute 30, 6
  10              		.eabi_attribute 34, 0
  11              		.eabi_attribute 18, 4
  12              		.code	16
  13              		.file	"CapSense_CSHL.c"
  14              		.text
  15              	.Ltext0:
  16              		.cfi_sections	.debug_frame
  17              		.comm	CapSense_rawFilterData1,16,4
  18              		.global	CapSense_sensorBaseline
  19              		.bss
  20              		.align	2
  21              		.type	CapSense_sensorBaseline, %object
  22              		.size	CapSense_sensorBaseline, 16
  23              	CapSense_sensorBaseline:
  24 0000 00000000 		.space	16
  24      00000000 
  24      00000000 
  24      00000000 
  25              		.global	CapSense_sensorBaselineLow
  26              		.align	2
  27              		.type	CapSense_sensorBaselineLow, %object
  28              		.size	CapSense_sensorBaselineLow, 8
  29              	CapSense_sensorBaselineLow:
  30 0010 00000000 		.space	8
  30      00000000 
  31              		.global	CapSense_sensorSignal
  32              		.align	2
  33              		.type	CapSense_sensorSignal, %object
  34              		.size	CapSense_sensorSignal, 8
  35              	CapSense_sensorSignal:
  36 0018 00000000 		.space	8
  36      00000000 
  37              		.global	CapSense_sensorOnMask
  38              		.align	2
  39              		.type	CapSense_sensorOnMask, %object
  40              		.size	CapSense_sensorOnMask, 1
  41              	CapSense_sensorOnMask:
  42 0020 00       		.space	1
  43              		.comm	CapSense_lowBaselineResetCnt,8,4
  44              		.global	CapSense_lowBaselineReset
  45              		.data
  46              		.align	2
  47              		.type	CapSense_lowBaselineReset, %object
  48              		.size	CapSense_lowBaselineReset, 8
  49              	CapSense_lowBaselineReset:
  50 0000 1E       		.byte	30
  51 0001 1E       		.byte	30
  52 0002 1E       		.byte	30
ARM GAS  C:\Users\lovelesh\AppData\Local\Temp\ccDxuV7s.s 			page 2


  53 0003 1E       		.byte	30
  54 0004 1E       		.byte	30
  55 0005 1E       		.byte	30
  56 0006 1E       		.byte	30
  57 0007 1E       		.byte	30
  58              		.global	CapSense_enableRawFilters
  59              		.type	CapSense_enableRawFilters, %object
  60              		.size	CapSense_enableRawFilters, 1
  61              	CapSense_enableRawFilters:
  62 0008 01       		.byte	1
  63              		.comm	CapSense_fingerThreshold,4,4
  64              		.comm	CapSense_noiseThreshold,4,4
  65              		.comm	CapSense_negativeNoiseThreshold,4,4
  66              		.comm	CapSense_hysteresis,4,4
  67              		.global	CapSense_debounce
  68 0009 000000   		.align	2
  69              		.type	CapSense_debounce, %object
  70              		.size	CapSense_debounce, 4
  71              	CapSense_debounce:
  72 000c 01       		.byte	1
  73 000d 05       		.byte	5
  74 000e 05       		.byte	5
  75 000f 05       		.byte	5
  76              		.bss
  77 0021 000000   		.align	2
  78              	CapSense_debounceCounter:
  79 0024 00000000 		.space	4
  80              		.global	CapSense_rawDataIndex
  81              		.section	.rodata
  82              		.align	2
  83              		.type	CapSense_rawDataIndex, %object
  84              		.size	CapSense_rawDataIndex, 4
  85              	CapSense_rawDataIndex:
  86 0000 00       		.byte	0
  87 0001 05       		.byte	5
  88 0002 06       		.byte	6
  89 0003 07       		.byte	7
  90              		.global	CapSense_numberOfSensors
  91              		.align	2
  92              		.type	CapSense_numberOfSensors, %object
  93              		.size	CapSense_numberOfSensors, 4
  94              	CapSense_numberOfSensors:
  95 0004 05       		.byte	5
  96 0005 01       		.byte	1
  97 0006 01       		.byte	1
  98 0007 00       		.byte	0
  99              		.align	2
 100              		.type	CapSense_centroidMult, %object
 101              		.size	CapSense_centroidMult, 2
 102              	CapSense_centroidMult:
 103 0008 0019     		.short	6400
 104 000a 0000     		.data
 105              		.align	2
 106              		.type	CapSense_posFiltersMask, %object
 107              		.size	CapSense_posFiltersMask, 1
 108              	CapSense_posFiltersMask:
 109 0010 10       		.byte	16
ARM GAS  C:\Users\lovelesh\AppData\Local\Temp\ccDxuV7s.s 			page 3


 110 0011 000000   		.align	2
 111              		.type	CapSense_posFiltersData, %object
 112              		.size	CapSense_posFiltersData, 3
 113              	CapSense_posFiltersData:
 114 0014 01       		.byte	1
 115 0015 00       		.byte	0
 116 0016 00       		.byte	0
 117 0017 00       		.section	.text.CapSense_BaseInit,"ax",%progbits
 118              		.align	2
 119              		.global	CapSense_BaseInit
 120              		.code	16
 121              		.thumb_func
 122              		.type	CapSense_BaseInit, %function
 123              	CapSense_BaseInit:
 124              	.LFB34:
 125              		.file 1 ".\\Generated_Source\\PSoC4\\CapSense_CSHL.c"
   1:.\Generated_Source\PSoC4/CapSense_CSHL.c **** /*******************************************************************************
   2:.\Generated_Source\PSoC4/CapSense_CSHL.c **** * File Name: CapSense_CSHL.c
   3:.\Generated_Source\PSoC4/CapSense_CSHL.c **** * Version 2.40
   4:.\Generated_Source\PSoC4/CapSense_CSHL.c **** *
   5:.\Generated_Source\PSoC4/CapSense_CSHL.c **** * Description:
   6:.\Generated_Source\PSoC4/CapSense_CSHL.c **** *  This file provides the source code to the High Level APIs for the CapSesne
   7:.\Generated_Source\PSoC4/CapSense_CSHL.c **** *  CSD component.
   8:.\Generated_Source\PSoC4/CapSense_CSHL.c **** *
   9:.\Generated_Source\PSoC4/CapSense_CSHL.c **** * Note:
  10:.\Generated_Source\PSoC4/CapSense_CSHL.c **** *
  11:.\Generated_Source\PSoC4/CapSense_CSHL.c **** ********************************************************************************
  12:.\Generated_Source\PSoC4/CapSense_CSHL.c **** * Copyright 2013-2015, Cypress Semiconductor Corporation.  All rights reserved.
  13:.\Generated_Source\PSoC4/CapSense_CSHL.c **** * You may use this file only in accordance with the license, terms, conditions,
  14:.\Generated_Source\PSoC4/CapSense_CSHL.c **** * disclaimers, and limitations in the end user license agreement accompanying
  15:.\Generated_Source\PSoC4/CapSense_CSHL.c **** * the software package with which this file was provided.
  16:.\Generated_Source\PSoC4/CapSense_CSHL.c **** *******************************************************************************/
  17:.\Generated_Source\PSoC4/CapSense_CSHL.c **** 
  18:.\Generated_Source\PSoC4/CapSense_CSHL.c **** #include "CapSense_CSHL.h"
  19:.\Generated_Source\PSoC4/CapSense_CSHL.c **** #include "CapSense_PVT.h"
  20:.\Generated_Source\PSoC4/CapSense_CSHL.c **** 
  21:.\Generated_Source\PSoC4/CapSense_CSHL.c **** /* SmartSense functions */
  22:.\Generated_Source\PSoC4/CapSense_CSHL.c **** #if (CapSense_TUNING_METHOD == CapSense__TUNING_AUTO)
  23:.\Generated_Source\PSoC4/CapSense_CSHL.c ****     extern void CapSense_UpdateThresholds(uint32 sensor);
  24:.\Generated_Source\PSoC4/CapSense_CSHL.c **** #endif /* (CapSense_TUNING_METHOD == CapSense__TUNING_AUTO) */
  25:.\Generated_Source\PSoC4/CapSense_CSHL.c **** 
  26:.\Generated_Source\PSoC4/CapSense_CSHL.c **** /* Storage of filters data */
  27:.\Generated_Source\PSoC4/CapSense_CSHL.c **** #if ( (0u != (CapSense_RAW_FILTER_MASK & CapSense_MEDIAN_FILTER)) || \
  28:.\Generated_Source\PSoC4/CapSense_CSHL.c ****       (0u != (CapSense_RAW_FILTER_MASK & CapSense_AVERAGING_FILTER)) )
  29:.\Generated_Source\PSoC4/CapSense_CSHL.c **** 
  30:.\Generated_Source\PSoC4/CapSense_CSHL.c ****     uint16 CapSense_rawFilterData1[CapSense_TOTAL_SENSOR_COUNT];
  31:.\Generated_Source\PSoC4/CapSense_CSHL.c ****     uint16 CapSense_rawFilterData2[CapSense_TOTAL_SENSOR_COUNT];
  32:.\Generated_Source\PSoC4/CapSense_CSHL.c **** 
  33:.\Generated_Source\PSoC4/CapSense_CSHL.c **** #elif ( (0u != (CapSense_RAW_FILTER_MASK & CapSense_IIR2_FILTER))   || \
  34:.\Generated_Source\PSoC4/CapSense_CSHL.c ****         (0u != (CapSense_RAW_FILTER_MASK & CapSense_IIR4_FILTER))   || \
  35:.\Generated_Source\PSoC4/CapSense_CSHL.c ****         (0u != (CapSense_RAW_FILTER_MASK & CapSense_JITTER_FILTER)) || \
  36:.\Generated_Source\PSoC4/CapSense_CSHL.c ****         (0u != (CapSense_RAW_FILTER_MASK & CapSense_IIR8_FILTER))   || \
  37:.\Generated_Source\PSoC4/CapSense_CSHL.c ****         (0u != (CapSense_RAW_FILTER_MASK & CapSense_IIR16_FILTER)) )
  38:.\Generated_Source\PSoC4/CapSense_CSHL.c **** 
  39:.\Generated_Source\PSoC4/CapSense_CSHL.c ****     uint16 CapSense_rawFilterData1[CapSense_TOTAL_SENSOR_COUNT];
  40:.\Generated_Source\PSoC4/CapSense_CSHL.c **** #endif  /* ( (CapSense_RAW_FILTER_MASK & CapSense_MEDIAN_FILTER) || \
  41:.\Generated_Source\PSoC4/CapSense_CSHL.c ****         *    (CapSense_RAW_FILTER_MASK & CapSense_AVERAGING_FILTER) )
ARM GAS  C:\Users\lovelesh\AppData\Local\Temp\ccDxuV7s.s 			page 4


  42:.\Generated_Source\PSoC4/CapSense_CSHL.c ****         */
  43:.\Generated_Source\PSoC4/CapSense_CSHL.c **** 
  44:.\Generated_Source\PSoC4/CapSense_CSHL.c **** extern uint16 CapSense_sensorRaw[CapSense_TOTAL_SENSOR_COUNT];
  45:.\Generated_Source\PSoC4/CapSense_CSHL.c **** extern uint8 CapSense_sensorEnableMask[CapSense_TOTAL_SENSOR_MASK];
  46:.\Generated_Source\PSoC4/CapSense_CSHL.c **** extern const uint8 CapSense_widgetNumber[CapSense_TOTAL_SENSOR_COUNT];
  47:.\Generated_Source\PSoC4/CapSense_CSHL.c **** 
  48:.\Generated_Source\PSoC4/CapSense_CSHL.c **** #if (CapSense_TUNING_METHOD != CapSense__TUNING_NONE)
  49:.\Generated_Source\PSoC4/CapSense_CSHL.c ****     extern uint32 CapSense_widgetResolution[CapSense_RESOLUTIONS_TBL_SIZE];
  50:.\Generated_Source\PSoC4/CapSense_CSHL.c **** #endif /* (CapSense_TUNING_METHOD != CapSense__TUNING_NONE) */
  51:.\Generated_Source\PSoC4/CapSense_CSHL.c **** 
  52:.\Generated_Source\PSoC4/CapSense_CSHL.c **** uint16 CapSense_sensorBaseline[CapSense_TOTAL_SENSOR_COUNT] = {0u};
  53:.\Generated_Source\PSoC4/CapSense_CSHL.c **** uint8 CapSense_sensorBaselineLow[CapSense_TOTAL_SENSOR_COUNT] = {0u};
  54:.\Generated_Source\PSoC4/CapSense_CSHL.c **** uint8 CapSense_sensorSignal[CapSense_TOTAL_SENSOR_COUNT] = {0u};
  55:.\Generated_Source\PSoC4/CapSense_CSHL.c **** uint8 CapSense_sensorOnMask[CapSense_TOTAL_SENSOR_MASK] = {0u};
  56:.\Generated_Source\PSoC4/CapSense_CSHL.c **** 
  57:.\Generated_Source\PSoC4/CapSense_CSHL.c **** uint8 CapSense_lowBaselineResetCnt[CapSense_TOTAL_SENSOR_COUNT];
  58:.\Generated_Source\PSoC4/CapSense_CSHL.c **** uint8 CapSense_lowBaselineReset[CapSense_TOTAL_SENSOR_COUNT] = {
  59:.\Generated_Source\PSoC4/CapSense_CSHL.c ****     30u, 30u, 30u, 30u, 30u, 30u, 30u, 30u, 
  60:.\Generated_Source\PSoC4/CapSense_CSHL.c **** };
  61:.\Generated_Source\PSoC4/CapSense_CSHL.c **** 
  62:.\Generated_Source\PSoC4/CapSense_CSHL.c **** 
  63:.\Generated_Source\PSoC4/CapSense_CSHL.c **** 
  64:.\Generated_Source\PSoC4/CapSense_CSHL.c **** #if (CapSense_TUNING_METHOD == CapSense__TUNING_AUTO)
  65:.\Generated_Source\PSoC4/CapSense_CSHL.c ****     extern CapSense_CONFIG_TYPE_P4_v2_40 CapSense_config;
  66:.\Generated_Source\PSoC4/CapSense_CSHL.c **** #endif  /* (CapSense_TUNING_METHOD == CapSense__TUNING_AUTO) */
  67:.\Generated_Source\PSoC4/CapSense_CSHL.c **** 
  68:.\Generated_Source\PSoC4/CapSense_CSHL.c **** #if (CapSense_RAW_FILTER_MASK != 0u)
  69:.\Generated_Source\PSoC4/CapSense_CSHL.c **** uint8 CapSense_enableRawFilters = CapSense_RAW_FILTERS_ENABLED;
  70:.\Generated_Source\PSoC4/CapSense_CSHL.c **** #endif  /* (CapSense_RAW_FILTER_MASK != 0u) */
  71:.\Generated_Source\PSoC4/CapSense_CSHL.c **** 
  72:.\Generated_Source\PSoC4/CapSense_CSHL.c **** /* Generated by Customizer */
  73:.\Generated_Source\PSoC4/CapSense_CSHL.c **** uint8 CapSense_fingerThreshold[CapSense_THRESHOLD_TBL_SIZE];
  74:.\Generated_Source\PSoC4/CapSense_CSHL.c **** 
  75:.\Generated_Source\PSoC4/CapSense_CSHL.c **** uint8 CapSense_noiseThreshold[CapSense_THRESHOLD_TBL_SIZE];
  76:.\Generated_Source\PSoC4/CapSense_CSHL.c **** 
  77:.\Generated_Source\PSoC4/CapSense_CSHL.c **** uint8 CapSense_negativeNoiseThreshold[CapSense_THRESHOLD_TBL_SIZE];
  78:.\Generated_Source\PSoC4/CapSense_CSHL.c **** 
  79:.\Generated_Source\PSoC4/CapSense_CSHL.c **** uint8 CapSense_hysteresis[CapSense_WIDGET_PARAM_TBL_SIZE];
  80:.\Generated_Source\PSoC4/CapSense_CSHL.c **** 
  81:.\Generated_Source\PSoC4/CapSense_CSHL.c **** uint8 CapSense_debounce[] = {
  82:.\Generated_Source\PSoC4/CapSense_CSHL.c ****     1u, 5u, 5u, 5u, 
  83:.\Generated_Source\PSoC4/CapSense_CSHL.c **** };
  84:.\Generated_Source\PSoC4/CapSense_CSHL.c **** 
  85:.\Generated_Source\PSoC4/CapSense_CSHL.c **** static uint8 CapSense_debounceCounter[] = {
  86:.\Generated_Source\PSoC4/CapSense_CSHL.c ****     0u, 0u, 0u, 0u, 
  87:.\Generated_Source\PSoC4/CapSense_CSHL.c **** };
  88:.\Generated_Source\PSoC4/CapSense_CSHL.c **** 
  89:.\Generated_Source\PSoC4/CapSense_CSHL.c **** const uint8 CapSense_rawDataIndex[] = {
  90:.\Generated_Source\PSoC4/CapSense_CSHL.c ****     0u, /* LinearSlider0__LS */
  91:.\Generated_Source\PSoC4/CapSense_CSHL.c ****     5u, /* Button0__BTN */
  92:.\Generated_Source\PSoC4/CapSense_CSHL.c ****     6u, /* Button1__BTN */
  93:.\Generated_Source\PSoC4/CapSense_CSHL.c ****     7u, /* ProximitySensor0__PROX */
  94:.\Generated_Source\PSoC4/CapSense_CSHL.c **** };
  95:.\Generated_Source\PSoC4/CapSense_CSHL.c **** 
  96:.\Generated_Source\PSoC4/CapSense_CSHL.c **** const uint8 CapSense_numberOfSensors[] = {
  97:.\Generated_Source\PSoC4/CapSense_CSHL.c ****     5u, /* LinearSlider0__LS */
  98:.\Generated_Source\PSoC4/CapSense_CSHL.c ****     1u, /* Button0__BTN */
ARM GAS  C:\Users\lovelesh\AppData\Local\Temp\ccDxuV7s.s 			page 5


  99:.\Generated_Source\PSoC4/CapSense_CSHL.c ****     1u, /* Button1__BTN */
 100:.\Generated_Source\PSoC4/CapSense_CSHL.c ****     0u, /* ProximitySensor0__PROX */
 101:.\Generated_Source\PSoC4/CapSense_CSHL.c **** };
 102:.\Generated_Source\PSoC4/CapSense_CSHL.c **** 
 103:.\Generated_Source\PSoC4/CapSense_CSHL.c **** static const uint16 CapSense_centroidMult[] = {
 104:.\Generated_Source\PSoC4/CapSense_CSHL.c ****     6400u, 
 105:.\Generated_Source\PSoC4/CapSense_CSHL.c **** };
 106:.\Generated_Source\PSoC4/CapSense_CSHL.c **** 
 107:.\Generated_Source\PSoC4/CapSense_CSHL.c **** static uint8 CapSense_posFiltersMask[] = {
 108:.\Generated_Source\PSoC4/CapSense_CSHL.c ****     0x10u, 
 109:.\Generated_Source\PSoC4/CapSense_CSHL.c **** };
 110:.\Generated_Source\PSoC4/CapSense_CSHL.c **** 
 111:.\Generated_Source\PSoC4/CapSense_CSHL.c **** static uint8 CapSense_posFiltersData[] = {
 112:.\Generated_Source\PSoC4/CapSense_CSHL.c ****     1u, 0u, 0u, 
 113:.\Generated_Source\PSoC4/CapSense_CSHL.c **** };
 114:.\Generated_Source\PSoC4/CapSense_CSHL.c **** 
 115:.\Generated_Source\PSoC4/CapSense_CSHL.c **** 
 116:.\Generated_Source\PSoC4/CapSense_CSHL.c **** 
 117:.\Generated_Source\PSoC4/CapSense_CSHL.c **** 
 118:.\Generated_Source\PSoC4/CapSense_CSHL.c **** /*******************************************************************************
 119:.\Generated_Source\PSoC4/CapSense_CSHL.c **** * Function Name: CapSense_BaseInit
 120:.\Generated_Source\PSoC4/CapSense_CSHL.c **** ********************************************************************************
 121:.\Generated_Source\PSoC4/CapSense_CSHL.c **** *
 122:.\Generated_Source\PSoC4/CapSense_CSHL.c **** * Summary:
 123:.\Generated_Source\PSoC4/CapSense_CSHL.c **** *  Loads the CapSense_sensorBaseline[sensor] array element with an
 124:.\Generated_Source\PSoC4/CapSense_CSHL.c **** *  initial value which is equal to the raw count value.
 125:.\Generated_Source\PSoC4/CapSense_CSHL.c **** *  Resets to zero CapSense_sensorBaselineLow[sensor] and
 126:.\Generated_Source\PSoC4/CapSense_CSHL.c **** *  CapSense_sensorSignal[sensor] array element.
 127:.\Generated_Source\PSoC4/CapSense_CSHL.c **** *  Loads the CapSense_rawFilterData2[sensor] and
 128:.\Generated_Source\PSoC4/CapSense_CSHL.c **** *  CapSense_rawFilterData2[sensor] array element with an
 129:.\Generated_Source\PSoC4/CapSense_CSHL.c **** *  initial value which is equal to the raw count value if the raw data filter is enabled.
 130:.\Generated_Source\PSoC4/CapSense_CSHL.c **** *
 131:.\Generated_Source\PSoC4/CapSense_CSHL.c **** * Parameters:
 132:.\Generated_Source\PSoC4/CapSense_CSHL.c **** *  sensor:  Sensor number.
 133:.\Generated_Source\PSoC4/CapSense_CSHL.c **** *
 134:.\Generated_Source\PSoC4/CapSense_CSHL.c **** * Return:
 135:.\Generated_Source\PSoC4/CapSense_CSHL.c **** *  None
 136:.\Generated_Source\PSoC4/CapSense_CSHL.c **** *
 137:.\Generated_Source\PSoC4/CapSense_CSHL.c **** * Global Variables:
 138:.\Generated_Source\PSoC4/CapSense_CSHL.c **** *  CapSense_sensorBaseline[]    - used to store the baseline value.
 139:.\Generated_Source\PSoC4/CapSense_CSHL.c **** *  CapSense_sensorBaselineLow[] - used to store the fraction byte of
 140:.\Generated_Source\PSoC4/CapSense_CSHL.c **** *  the baseline value.
 141:.\Generated_Source\PSoC4/CapSense_CSHL.c **** *  CapSense_sensorSignal[]      - used to store a difference between
 142:.\Generated_Source\PSoC4/CapSense_CSHL.c **** *  the current value of raw data and the previous value of the baseline.
 143:.\Generated_Source\PSoC4/CapSense_CSHL.c **** *  CapSense_rawFilterData1[]    - used to store a previous sample of
 144:.\Generated_Source\PSoC4/CapSense_CSHL.c **** *  any enabled raw data filter.
 145:.\Generated_Source\PSoC4/CapSense_CSHL.c **** *  CapSense_rawFilterData2[]    - used to store before a previous sample
 146:.\Generated_Source\PSoC4/CapSense_CSHL.c **** *  of the enabled raw data filter. Required only for median or average filters.
 147:.\Generated_Source\PSoC4/CapSense_CSHL.c **** *
 148:.\Generated_Source\PSoC4/CapSense_CSHL.c **** * Side Effects:
 149:.\Generated_Source\PSoC4/CapSense_CSHL.c **** *  None
 150:.\Generated_Source\PSoC4/CapSense_CSHL.c **** *
 151:.\Generated_Source\PSoC4/CapSense_CSHL.c **** *******************************************************************************/
 152:.\Generated_Source\PSoC4/CapSense_CSHL.c **** void CapSense_BaseInit(uint32 sensor)
 153:.\Generated_Source\PSoC4/CapSense_CSHL.c **** {
 126              		.loc 1 153 0
 127              		.cfi_startproc
ARM GAS  C:\Users\lovelesh\AppData\Local\Temp\ccDxuV7s.s 			page 6


 128 0000 80B5     		push	{r7, lr}
 129              		.cfi_def_cfa_offset 8
 130              		.cfi_offset 7, -8
 131              		.cfi_offset 14, -4
 132 0002 84B0     		sub	sp, sp, #16
 133              		.cfi_def_cfa_offset 24
 134 0004 00AF     		add	r7, sp, #0
 135              		.cfi_def_cfa_register 7
 136 0006 7860     		str	r0, [r7, #4]
 154:.\Generated_Source\PSoC4/CapSense_CSHL.c ****     #if ((CapSense_TOTAL_BUTTONS_COUNT) || (CapSense_TOTAL_MATRIX_BUTTONS_COUNT) || \
 155:.\Generated_Source\PSoC4/CapSense_CSHL.c ****          (CapSense_TOTAL_GENERICS_COUNT))
 156:.\Generated_Source\PSoC4/CapSense_CSHL.c ****         uint8 widget = CapSense_widgetNumber[sensor];
 137              		.loc 1 156 0
 138 0008 0F23     		mov	r3, #15
 139 000a FB18     		add	r3, r7, r3
 140 000c 1849     		ldr	r1, .L3
 141 000e 7A68     		ldr	r2, [r7, #4]
 142 0010 8A18     		add	r2, r1, r2
 143 0012 1278     		ldrb	r2, [r2]
 144 0014 1A70     		strb	r2, [r3]
 157:.\Generated_Source\PSoC4/CapSense_CSHL.c ****     #endif /* ((CapSense_TOTAL_MATRIX_BUTTONS_COUNT) || (CapSense_TOTAL_MATRIX_BUTTONS_COUNT)) */
 158:.\Generated_Source\PSoC4/CapSense_CSHL.c **** 
 159:.\Generated_Source\PSoC4/CapSense_CSHL.c ****     #if (CapSense_TOTAL_MATRIX_BUTTONS_COUNT)
 160:.\Generated_Source\PSoC4/CapSense_CSHL.c ****         uint8 debounceIndex;
 161:.\Generated_Source\PSoC4/CapSense_CSHL.c ****     #endif  /* (CapSense_TOTAL_MATRIX_BUTTONS_COUNT) */
 162:.\Generated_Source\PSoC4/CapSense_CSHL.c **** 
 163:.\Generated_Source\PSoC4/CapSense_CSHL.c ****     #if (CapSense_TOTAL_GENERICS_COUNT)
 164:.\Generated_Source\PSoC4/CapSense_CSHL.c ****         /* Exclude generic widget */
 165:.\Generated_Source\PSoC4/CapSense_CSHL.c ****         if(widget < CapSense_END_OF_WIDGETS_INDEX)
 166:.\Generated_Source\PSoC4/CapSense_CSHL.c ****         {
 167:.\Generated_Source\PSoC4/CapSense_CSHL.c ****     #endif  /* CapSense_TOTAL_GENERICS_COUNT */
 168:.\Generated_Source\PSoC4/CapSense_CSHL.c **** 
 169:.\Generated_Source\PSoC4/CapSense_CSHL.c ****     /* Initialize Baseline */
 170:.\Generated_Source\PSoC4/CapSense_CSHL.c ****     CapSense_sensorBaseline[sensor] = CapSense_sensorRaw[sensor];
 145              		.loc 1 170 0
 146 0016 174B     		ldr	r3, .L3+4
 147 0018 7A68     		ldr	r2, [r7, #4]
 148 001a 5200     		lsl	r2, r2, #1
 149 001c D15A     		ldrh	r1, [r2, r3]
 150 001e 164B     		ldr	r3, .L3+8
 151 0020 7A68     		ldr	r2, [r7, #4]
 152 0022 5200     		lsl	r2, r2, #1
 153 0024 D152     		strh	r1, [r2, r3]
 171:.\Generated_Source\PSoC4/CapSense_CSHL.c ****     CapSense_sensorBaselineLow[sensor] = 0u;
 154              		.loc 1 171 0
 155 0026 154A     		ldr	r2, .L3+12
 156 0028 7B68     		ldr	r3, [r7, #4]
 157 002a D318     		add	r3, r2, r3
 158 002c 0022     		mov	r2, #0
 159 002e 1A70     		strb	r2, [r3]
 172:.\Generated_Source\PSoC4/CapSense_CSHL.c ****     CapSense_sensorSignal[sensor] = 0u;
 160              		.loc 1 172 0
 161 0030 134A     		ldr	r2, .L3+16
 162 0032 7B68     		ldr	r3, [r7, #4]
 163 0034 D318     		add	r3, r2, r3
 164 0036 0022     		mov	r2, #0
 165 0038 1A70     		strb	r2, [r3]
ARM GAS  C:\Users\lovelesh\AppData\Local\Temp\ccDxuV7s.s 			page 7


 173:.\Generated_Source\PSoC4/CapSense_CSHL.c **** 
 174:.\Generated_Source\PSoC4/CapSense_CSHL.c ****     if(widget > CapSense_END_OF_TOUCH_PAD_INDEX)
 166              		.loc 1 174 0
 167 003a 0F23     		mov	r3, #15
 168 003c FB18     		add	r3, r7, r3
 169 003e 1B78     		ldrb	r3, [r3]
 170 0040 002B     		cmp	r3, #0
 171 0042 0AD0     		beq	.L2
 175:.\Generated_Source\PSoC4/CapSense_CSHL.c ****     {
 176:.\Generated_Source\PSoC4/CapSense_CSHL.c ****         CapSense_debounceCounter[widget - (CapSense_END_OF_TOUCH_PAD_INDEX + 1u)] =  CapSense_debou
 172              		.loc 1 176 0
 173 0044 0F23     		mov	r3, #15
 174 0046 FB18     		add	r3, r7, r3
 175 0048 1B78     		ldrb	r3, [r3]
 176 004a 013B     		sub	r3, r3, #1
 177 004c 0F22     		mov	r2, #15
 178 004e BA18     		add	r2, r7, r2
 179 0050 1278     		ldrb	r2, [r2]
 180 0052 0C49     		ldr	r1, .L3+20
 181 0054 895C     		ldrb	r1, [r1, r2]
 182 0056 0C4A     		ldr	r2, .L3+24
 183 0058 D154     		strb	r1, [r2, r3]
 184              	.L2:
 177:.\Generated_Source\PSoC4/CapSense_CSHL.c ****     }
 178:.\Generated_Source\PSoC4/CapSense_CSHL.c **** 
 179:.\Generated_Source\PSoC4/CapSense_CSHL.c **** 
 180:.\Generated_Source\PSoC4/CapSense_CSHL.c ****     #if ((0u != (CapSense_RAW_FILTER_MASK & CapSense_MEDIAN_FILTER)) ||\
 181:.\Generated_Source\PSoC4/CapSense_CSHL.c ****          (0u != (CapSense_RAW_FILTER_MASK & CapSense_AVERAGING_FILTER)))
 182:.\Generated_Source\PSoC4/CapSense_CSHL.c **** 
 183:.\Generated_Source\PSoC4/CapSense_CSHL.c ****         CapSense_rawFilterData1[sensor] = CapSense_sensorRaw[sensor];
 184:.\Generated_Source\PSoC4/CapSense_CSHL.c ****         CapSense_rawFilterData2[sensor] = CapSense_sensorRaw[sensor];
 185:.\Generated_Source\PSoC4/CapSense_CSHL.c **** 
 186:.\Generated_Source\PSoC4/CapSense_CSHL.c ****     #elif ((CapSense_RAW_FILTER_MASK & CapSense_IIR2_FILTER) ||\
 187:.\Generated_Source\PSoC4/CapSense_CSHL.c ****            (CapSense_RAW_FILTER_MASK & CapSense_IIR4_FILTER) ||\
 188:.\Generated_Source\PSoC4/CapSense_CSHL.c ****            (CapSense_RAW_FILTER_MASK & CapSense_JITTER_FILTER) ||\
 189:.\Generated_Source\PSoC4/CapSense_CSHL.c ****            (CapSense_RAW_FILTER_MASK & CapSense_IIR8_FILTER) ||\
 190:.\Generated_Source\PSoC4/CapSense_CSHL.c ****            (CapSense_RAW_FILTER_MASK & CapSense_IIR16_FILTER))
 191:.\Generated_Source\PSoC4/CapSense_CSHL.c **** 
 192:.\Generated_Source\PSoC4/CapSense_CSHL.c ****         CapSense_rawFilterData1[sensor] = CapSense_sensorRaw[sensor];
 185              		.loc 1 192 0
 186 005a 064B     		ldr	r3, .L3+4
 187 005c 7A68     		ldr	r2, [r7, #4]
 188 005e 5200     		lsl	r2, r2, #1
 189 0060 D15A     		ldrh	r1, [r2, r3]
 190 0062 0A4B     		ldr	r3, .L3+28
 191 0064 7A68     		ldr	r2, [r7, #4]
 192 0066 5200     		lsl	r2, r2, #1
 193 0068 D152     		strh	r1, [r2, r3]
 193:.\Generated_Source\PSoC4/CapSense_CSHL.c **** 
 194:.\Generated_Source\PSoC4/CapSense_CSHL.c ****     #else
 195:.\Generated_Source\PSoC4/CapSense_CSHL.c ****         /* No Raw filters */
 196:.\Generated_Source\PSoC4/CapSense_CSHL.c ****     #endif  /* ((CapSense_RAW_FILTER_MASK & CapSense_MEDIAN_FILTER) || \
 197:.\Generated_Source\PSoC4/CapSense_CSHL.c ****             *   (CapSense_RAW_FILTER_MASK & CapSense_AVERAGING_FILTER))
 198:.\Generated_Source\PSoC4/CapSense_CSHL.c ****             */
 199:.\Generated_Source\PSoC4/CapSense_CSHL.c **** 
 200:.\Generated_Source\PSoC4/CapSense_CSHL.c ****     #if (CapSense_TOTAL_GENERICS_COUNT)
 201:.\Generated_Source\PSoC4/CapSense_CSHL.c ****         /* Exclude generic widget */
ARM GAS  C:\Users\lovelesh\AppData\Local\Temp\ccDxuV7s.s 			page 8


 202:.\Generated_Source\PSoC4/CapSense_CSHL.c ****         }
 203:.\Generated_Source\PSoC4/CapSense_CSHL.c ****     #endif  /* CapSense_TOTAL_GENERICS_COUNT */
 204:.\Generated_Source\PSoC4/CapSense_CSHL.c **** }
 194              		.loc 1 204 0
 195 006a BD46     		mov	sp, r7
 196 006c 04B0     		add	sp, sp, #16
 197              		@ sp needed
 198 006e 80BD     		pop	{r7, pc}
 199              	.L4:
 200              		.align	2
 201              	.L3:
 202 0070 00000000 		.word	CapSense_widgetNumber
 203 0074 00000000 		.word	CapSense_sensorRaw
 204 0078 00000000 		.word	CapSense_sensorBaseline
 205 007c 00000000 		.word	CapSense_sensorBaselineLow
 206 0080 00000000 		.word	CapSense_sensorSignal
 207 0084 00000000 		.word	CapSense_debounce
 208 0088 24000000 		.word	CapSense_debounceCounter
 209 008c 00000000 		.word	CapSense_rawFilterData1
 210              		.cfi_endproc
 211              	.LFE34:
 212              		.size	CapSense_BaseInit, .-CapSense_BaseInit
 213              		.section	.text.CapSense_InitializeSensorBaseline,"ax",%progbits
 214              		.align	2
 215              		.global	CapSense_InitializeSensorBaseline
 216              		.code	16
 217              		.thumb_func
 218              		.type	CapSense_InitializeSensorBaseline, %function
 219              	CapSense_InitializeSensorBaseline:
 220              	.LFB35:
 205:.\Generated_Source\PSoC4/CapSense_CSHL.c **** 
 206:.\Generated_Source\PSoC4/CapSense_CSHL.c **** 
 207:.\Generated_Source\PSoC4/CapSense_CSHL.c **** /*******************************************************************************
 208:.\Generated_Source\PSoC4/CapSense_CSHL.c **** * Function Name: CapSense_InitializeSensorBaseline
 209:.\Generated_Source\PSoC4/CapSense_CSHL.c **** ********************************************************************************
 210:.\Generated_Source\PSoC4/CapSense_CSHL.c **** *
 211:.\Generated_Source\PSoC4/CapSense_CSHL.c **** * Summary:
 212:.\Generated_Source\PSoC4/CapSense_CSHL.c **** *  Loads the CapSense_sensorBaseline[sensor] array element with an
 213:.\Generated_Source\PSoC4/CapSense_CSHL.c **** *  initial value by scanning the selected sensor (one channel design) or a pair
 214:.\Generated_Source\PSoC4/CapSense_CSHL.c **** *  of sensors (two channels designs). The raw count value is copied into the
 215:.\Generated_Source\PSoC4/CapSense_CSHL.c **** *  baseline array for each sensor. The raw data filters are initialized if
 216:.\Generated_Source\PSoC4/CapSense_CSHL.c **** *  enabled.
 217:.\Generated_Source\PSoC4/CapSense_CSHL.c **** *
 218:.\Generated_Source\PSoC4/CapSense_CSHL.c **** * Parameters:
 219:.\Generated_Source\PSoC4/CapSense_CSHL.c **** *  sensor:  Sensor number.
 220:.\Generated_Source\PSoC4/CapSense_CSHL.c **** *
 221:.\Generated_Source\PSoC4/CapSense_CSHL.c **** * Return:
 222:.\Generated_Source\PSoC4/CapSense_CSHL.c **** *  None
 223:.\Generated_Source\PSoC4/CapSense_CSHL.c **** *
 224:.\Generated_Source\PSoC4/CapSense_CSHL.c **** * Global Variables:
 225:.\Generated_Source\PSoC4/CapSense_CSHL.c **** *  None
 226:.\Generated_Source\PSoC4/CapSense_CSHL.c **** *
 227:.\Generated_Source\PSoC4/CapSense_CSHL.c **** * Side Effects:
 228:.\Generated_Source\PSoC4/CapSense_CSHL.c **** *  None
 229:.\Generated_Source\PSoC4/CapSense_CSHL.c **** *
 230:.\Generated_Source\PSoC4/CapSense_CSHL.c **** *******************************************************************************/
 231:.\Generated_Source\PSoC4/CapSense_CSHL.c **** void CapSense_InitializeSensorBaseline(uint32 sensor)
ARM GAS  C:\Users\lovelesh\AppData\Local\Temp\ccDxuV7s.s 			page 9


 232:.\Generated_Source\PSoC4/CapSense_CSHL.c **** {
 221              		.loc 1 232 0
 222              		.cfi_startproc
 223 0000 80B5     		push	{r7, lr}
 224              		.cfi_def_cfa_offset 8
 225              		.cfi_offset 7, -8
 226              		.cfi_offset 14, -4
 227 0002 82B0     		sub	sp, sp, #8
 228              		.cfi_def_cfa_offset 16
 229 0004 00AF     		add	r7, sp, #0
 230              		.cfi_def_cfa_register 7
 231 0006 7860     		str	r0, [r7, #4]
 233:.\Generated_Source\PSoC4/CapSense_CSHL.c ****     /* Scan sensor */
 234:.\Generated_Source\PSoC4/CapSense_CSHL.c ****     CapSense_ScanSensor(sensor);
 232              		.loc 1 234 0
 233 0008 7B68     		ldr	r3, [r7, #4]
 234 000a 181C     		mov	r0, r3
 235 000c FFF7FEFF 		bl	CapSense_ScanSensor
 235:.\Generated_Source\PSoC4/CapSense_CSHL.c ****     while(CapSense_IsBusy() != 0u)
 236              		.loc 1 235 0
 237 0010 C046     		mov	r8, r8
 238              	.L6:
 239              		.loc 1 235 0 is_stmt 0 discriminator 1
 240 0012 FFF7FEFF 		bl	CapSense_IsBusy
 241 0016 031E     		sub	r3, r0, #0
 242 0018 FBD1     		bne	.L6
 236:.\Generated_Source\PSoC4/CapSense_CSHL.c ****     {
 237:.\Generated_Source\PSoC4/CapSense_CSHL.c ****         /* Wait while sensor is busy */
 238:.\Generated_Source\PSoC4/CapSense_CSHL.c ****     }
 239:.\Generated_Source\PSoC4/CapSense_CSHL.c **** 
 240:.\Generated_Source\PSoC4/CapSense_CSHL.c ****     /* Initialize Baseline, Signal and debounce counters */
 241:.\Generated_Source\PSoC4/CapSense_CSHL.c ****     CapSense_BaseInit(sensor);
 243              		.loc 1 241 0 is_stmt 1
 244 001a 7B68     		ldr	r3, [r7, #4]
 245 001c 181C     		mov	r0, r3
 246 001e FFF7FEFF 		bl	CapSense_BaseInit
 242:.\Generated_Source\PSoC4/CapSense_CSHL.c **** }
 247              		.loc 1 242 0
 248 0022 BD46     		mov	sp, r7
 249 0024 02B0     		add	sp, sp, #8
 250              		@ sp needed
 251 0026 80BD     		pop	{r7, pc}
 252              		.cfi_endproc
 253              	.LFE35:
 254              		.size	CapSense_InitializeSensorBaseline, .-CapSense_InitializeSensorBaseline
 255              		.section	.text.CapSense_InitializeAllBaselines,"ax",%progbits
 256              		.align	2
 257              		.global	CapSense_InitializeAllBaselines
 258              		.code	16
 259              		.thumb_func
 260              		.type	CapSense_InitializeAllBaselines, %function
 261              	CapSense_InitializeAllBaselines:
 262              	.LFB36:
 243:.\Generated_Source\PSoC4/CapSense_CSHL.c **** 
 244:.\Generated_Source\PSoC4/CapSense_CSHL.c **** 
 245:.\Generated_Source\PSoC4/CapSense_CSHL.c **** /*******************************************************************************
 246:.\Generated_Source\PSoC4/CapSense_CSHL.c **** * Function Name: CapSense_InitializeAllBaselines
ARM GAS  C:\Users\lovelesh\AppData\Local\Temp\ccDxuV7s.s 			page 10


 247:.\Generated_Source\PSoC4/CapSense_CSHL.c **** ********************************************************************************
 248:.\Generated_Source\PSoC4/CapSense_CSHL.c **** *
 249:.\Generated_Source\PSoC4/CapSense_CSHL.c **** * Summary:
 250:.\Generated_Source\PSoC4/CapSense_CSHL.c **** *  Uses the CapSense_InitializeSensorBaseline function to load the
 251:.\Generated_Source\PSoC4/CapSense_CSHL.c **** *  CapSense_sensorBaseline[] array with an initial values by scanning
 252:.\Generated_Source\PSoC4/CapSense_CSHL.c **** *  all the sensors. The raw count values are copied into the baseline array for
 253:.\Generated_Source\PSoC4/CapSense_CSHL.c **** *  all the sensors. The raw data filters are initialized if enabled.
 254:.\Generated_Source\PSoC4/CapSense_CSHL.c **** *
 255:.\Generated_Source\PSoC4/CapSense_CSHL.c **** * Parameters:
 256:.\Generated_Source\PSoC4/CapSense_CSHL.c **** *  None
 257:.\Generated_Source\PSoC4/CapSense_CSHL.c **** *
 258:.\Generated_Source\PSoC4/CapSense_CSHL.c **** * Return:
 259:.\Generated_Source\PSoC4/CapSense_CSHL.c **** *  None
 260:.\Generated_Source\PSoC4/CapSense_CSHL.c **** *
 261:.\Generated_Source\PSoC4/CapSense_CSHL.c **** * Global Variables:
 262:.\Generated_Source\PSoC4/CapSense_CSHL.c **** *  None
 263:.\Generated_Source\PSoC4/CapSense_CSHL.c **** *
 264:.\Generated_Source\PSoC4/CapSense_CSHL.c **** * Side Effects:
 265:.\Generated_Source\PSoC4/CapSense_CSHL.c **** *  None
 266:.\Generated_Source\PSoC4/CapSense_CSHL.c **** *
 267:.\Generated_Source\PSoC4/CapSense_CSHL.c **** *******************************************************************************/
 268:.\Generated_Source\PSoC4/CapSense_CSHL.c **** void CapSense_InitializeAllBaselines(void)
 269:.\Generated_Source\PSoC4/CapSense_CSHL.c **** {
 263              		.loc 1 269 0
 264              		.cfi_startproc
 265 0000 80B5     		push	{r7, lr}
 266              		.cfi_def_cfa_offset 8
 267              		.cfi_offset 7, -8
 268              		.cfi_offset 14, -4
 269 0002 82B0     		sub	sp, sp, #8
 270              		.cfi_def_cfa_offset 16
 271 0004 00AF     		add	r7, sp, #0
 272              		.cfi_def_cfa_register 7
 270:.\Generated_Source\PSoC4/CapSense_CSHL.c ****     uint32 i;
 271:.\Generated_Source\PSoC4/CapSense_CSHL.c **** 
 272:.\Generated_Source\PSoC4/CapSense_CSHL.c ****     for(i = 0u; i < CapSense_TOTAL_SCANSLOT_COUNT; i++)
 273              		.loc 1 272 0
 274 0006 0023     		mov	r3, #0
 275 0008 7B60     		str	r3, [r7, #4]
 276 000a 06E0     		b	.L8
 277              	.L9:
 273:.\Generated_Source\PSoC4/CapSense_CSHL.c ****     {
 274:.\Generated_Source\PSoC4/CapSense_CSHL.c ****         CapSense_InitializeSensorBaseline(i);
 278              		.loc 1 274 0 discriminator 3
 279 000c 7B68     		ldr	r3, [r7, #4]
 280 000e 181C     		mov	r0, r3
 281 0010 FFF7FEFF 		bl	CapSense_InitializeSensorBaseline
 272:.\Generated_Source\PSoC4/CapSense_CSHL.c ****     {
 282              		.loc 1 272 0 discriminator 3
 283 0014 7B68     		ldr	r3, [r7, #4]
 284 0016 0133     		add	r3, r3, #1
 285 0018 7B60     		str	r3, [r7, #4]
 286              	.L8:
 272:.\Generated_Source\PSoC4/CapSense_CSHL.c ****     {
 287              		.loc 1 272 0 is_stmt 0 discriminator 1
 288 001a 7B68     		ldr	r3, [r7, #4]
 289 001c 072B     		cmp	r3, #7
ARM GAS  C:\Users\lovelesh\AppData\Local\Temp\ccDxuV7s.s 			page 11


 290 001e F5D9     		bls	.L9
 275:.\Generated_Source\PSoC4/CapSense_CSHL.c ****     }
 276:.\Generated_Source\PSoC4/CapSense_CSHL.c **** }
 291              		.loc 1 276 0 is_stmt 1
 292 0020 BD46     		mov	sp, r7
 293 0022 02B0     		add	sp, sp, #8
 294              		@ sp needed
 295 0024 80BD     		pop	{r7, pc}
 296              		.cfi_endproc
 297              	.LFE36:
 298              		.size	CapSense_InitializeAllBaselines, .-CapSense_InitializeAllBaselines
 299 0026 C046     		.section	.text.CapSense_InitializeEnabledBaselines,"ax",%progbits
 300              		.align	2
 301              		.global	CapSense_InitializeEnabledBaselines
 302              		.code	16
 303              		.thumb_func
 304              		.type	CapSense_InitializeEnabledBaselines, %function
 305              	CapSense_InitializeEnabledBaselines:
 306              	.LFB37:
 277:.\Generated_Source\PSoC4/CapSense_CSHL.c **** 
 278:.\Generated_Source\PSoC4/CapSense_CSHL.c **** 
 279:.\Generated_Source\PSoC4/CapSense_CSHL.c **** /*******************************************************************************
 280:.\Generated_Source\PSoC4/CapSense_CSHL.c **** * Function Name: CapSense_InitializeEnabledBaselines
 281:.\Generated_Source\PSoC4/CapSense_CSHL.c **** ********************************************************************************
 282:.\Generated_Source\PSoC4/CapSense_CSHL.c **** *
 283:.\Generated_Source\PSoC4/CapSense_CSHL.c **** * Summary:
 284:.\Generated_Source\PSoC4/CapSense_CSHL.c **** *  Scans all the enabled widgets and the raw count values are copied into the
 285:.\Generated_Source\PSoC4/CapSense_CSHL.c **** *  baseline array for all the sensors enabled in the scanning process. The baselines
 286:.\Generated_Source\PSoC4/CapSense_CSHL.c **** *  are initialized with zero values for sensors disabled from the scanning process.
 287:.\Generated_Source\PSoC4/CapSense_CSHL.c **** *  The raw data filters are initialized if enabled.
 288:.\Generated_Source\PSoC4/CapSense_CSHL.c **** *
 289:.\Generated_Source\PSoC4/CapSense_CSHL.c **** * Parameters:
 290:.\Generated_Source\PSoC4/CapSense_CSHL.c **** *  None
 291:.\Generated_Source\PSoC4/CapSense_CSHL.c **** *
 292:.\Generated_Source\PSoC4/CapSense_CSHL.c **** * Return:
 293:.\Generated_Source\PSoC4/CapSense_CSHL.c **** *  None
 294:.\Generated_Source\PSoC4/CapSense_CSHL.c **** *
 295:.\Generated_Source\PSoC4/CapSense_CSHL.c **** * Global Variables:
 296:.\Generated_Source\PSoC4/CapSense_CSHL.c **** *  CapSense_sensorRaw[] - used to store the sensors raw data.
 297:.\Generated_Source\PSoC4/CapSense_CSHL.c **** *  CapSense_sensorEnableMask[ ] - used to store bit masks of the enabled sensors.
 298:.\Generated_Source\PSoC4/CapSense_CSHL.c **** *
 299:.\Generated_Source\PSoC4/CapSense_CSHL.c **** * Side Effects:
 300:.\Generated_Source\PSoC4/CapSense_CSHL.c **** *  None
 301:.\Generated_Source\PSoC4/CapSense_CSHL.c **** *
 302:.\Generated_Source\PSoC4/CapSense_CSHL.c **** *******************************************************************************/
 303:.\Generated_Source\PSoC4/CapSense_CSHL.c **** void CapSense_InitializeEnabledBaselines(void)
 304:.\Generated_Source\PSoC4/CapSense_CSHL.c **** {
 307              		.loc 1 304 0
 308              		.cfi_startproc
 309 0000 80B5     		push	{r7, lr}
 310              		.cfi_def_cfa_offset 8
 311              		.cfi_offset 7, -8
 312              		.cfi_offset 14, -4
 313 0002 82B0     		sub	sp, sp, #8
 314              		.cfi_def_cfa_offset 16
 315 0004 00AF     		add	r7, sp, #0
 316              		.cfi_def_cfa_register 7
ARM GAS  C:\Users\lovelesh\AppData\Local\Temp\ccDxuV7s.s 			page 12


 305:.\Generated_Source\PSoC4/CapSense_CSHL.c ****     uint32 i;
 306:.\Generated_Source\PSoC4/CapSense_CSHL.c ****     uint32 isSensorEnabled;
 307:.\Generated_Source\PSoC4/CapSense_CSHL.c **** 
 308:.\Generated_Source\PSoC4/CapSense_CSHL.c ****     CapSense_ScanEnabledWidgets();
 317              		.loc 1 308 0
 318 0006 FFF7FEFF 		bl	CapSense_ScanEnabledWidgets
 309:.\Generated_Source\PSoC4/CapSense_CSHL.c ****     while(CapSense_IsBusy() != 0u)
 319              		.loc 1 309 0
 320 000a C046     		mov	r8, r8
 321              	.L11:
 322              		.loc 1 309 0 is_stmt 0 discriminator 1
 323 000c FFF7FEFF 		bl	CapSense_IsBusy
 324 0010 031E     		sub	r3, r0, #0
 325 0012 FBD1     		bne	.L11
 310:.\Generated_Source\PSoC4/CapSense_CSHL.c ****     {
 311:.\Generated_Source\PSoC4/CapSense_CSHL.c ****         /* Wait while sensor is busy */
 312:.\Generated_Source\PSoC4/CapSense_CSHL.c ****     }
 313:.\Generated_Source\PSoC4/CapSense_CSHL.c **** 
 314:.\Generated_Source\PSoC4/CapSense_CSHL.c ****     for(i = 0u; i < CapSense_TOTAL_SENSOR_COUNT; i++)
 326              		.loc 1 314 0 is_stmt 1
 327 0014 0023     		mov	r3, #0
 328 0016 7B60     		str	r3, [r7, #4]
 329 0018 11E0     		b	.L12
 330              	.L14:
 315:.\Generated_Source\PSoC4/CapSense_CSHL.c ****     {
 316:.\Generated_Source\PSoC4/CapSense_CSHL.c ****         isSensorEnabled = CapSense_GetBitValue(CapSense_sensorEnableMask, i);
 331              		.loc 1 316 0
 332 001a 0C4A     		ldr	r2, .L15
 333 001c 7B68     		ldr	r3, [r7, #4]
 334 001e 101C     		mov	r0, r2
 335 0020 191C     		mov	r1, r3
 336 0022 FFF7FEFF 		bl	CapSense_GetBitValue
 337 0026 031C     		mov	r3, r0
 338 0028 3B60     		str	r3, [r7]
 317:.\Generated_Source\PSoC4/CapSense_CSHL.c **** 
 318:.\Generated_Source\PSoC4/CapSense_CSHL.c ****         /* Clear raw data if sensor is disabled from scanning process */
 319:.\Generated_Source\PSoC4/CapSense_CSHL.c ****         if(isSensorEnabled != 0u)
 339              		.loc 1 319 0
 340 002a 3B68     		ldr	r3, [r7]
 341 002c 002B     		cmp	r3, #0
 342 002e 03D0     		beq	.L13
 320:.\Generated_Source\PSoC4/CapSense_CSHL.c ****         {
 321:.\Generated_Source\PSoC4/CapSense_CSHL.c ****             /* Initialize baselines */
 322:.\Generated_Source\PSoC4/CapSense_CSHL.c ****             CapSense_BaseInit(i);
 343              		.loc 1 322 0
 344 0030 7B68     		ldr	r3, [r7, #4]
 345 0032 181C     		mov	r0, r3
 346 0034 FFF7FEFF 		bl	CapSense_BaseInit
 347              	.L13:
 314:.\Generated_Source\PSoC4/CapSense_CSHL.c ****     {
 348              		.loc 1 314 0 discriminator 2
 349 0038 7B68     		ldr	r3, [r7, #4]
 350 003a 0133     		add	r3, r3, #1
 351 003c 7B60     		str	r3, [r7, #4]
 352              	.L12:
 314:.\Generated_Source\PSoC4/CapSense_CSHL.c ****     {
 353              		.loc 1 314 0 is_stmt 0 discriminator 1
ARM GAS  C:\Users\lovelesh\AppData\Local\Temp\ccDxuV7s.s 			page 13


 354 003e 7B68     		ldr	r3, [r7, #4]
 355 0040 072B     		cmp	r3, #7
 356 0042 EAD9     		bls	.L14
 323:.\Generated_Source\PSoC4/CapSense_CSHL.c ****         }
 324:.\Generated_Source\PSoC4/CapSense_CSHL.c ****     }
 325:.\Generated_Source\PSoC4/CapSense_CSHL.c **** }
 357              		.loc 1 325 0 is_stmt 1
 358 0044 BD46     		mov	sp, r7
 359 0046 02B0     		add	sp, sp, #8
 360              		@ sp needed
 361 0048 80BD     		pop	{r7, pc}
 362              	.L16:
 363 004a C046     		.align	2
 364              	.L15:
 365 004c 00000000 		.word	CapSense_sensorEnableMask
 366              		.cfi_endproc
 367              	.LFE37:
 368              		.size	CapSense_InitializeEnabledBaselines, .-CapSense_InitializeEnabledBaselines
 369              		.section	.text.CapSense_UpdateBaselineNoThreshold,"ax",%progbits
 370              		.align	2
 371              		.global	CapSense_UpdateBaselineNoThreshold
 372              		.code	16
 373              		.thumb_func
 374              		.type	CapSense_UpdateBaselineNoThreshold, %function
 375              	CapSense_UpdateBaselineNoThreshold:
 376              	.LFB38:
 326:.\Generated_Source\PSoC4/CapSense_CSHL.c **** 
 327:.\Generated_Source\PSoC4/CapSense_CSHL.c **** 
 328:.\Generated_Source\PSoC4/CapSense_CSHL.c **** /*******************************************************************************
 329:.\Generated_Source\PSoC4/CapSense_CSHL.c **** * Function Name: CapSense_UpdateBaselineNoThreshold
 330:.\Generated_Source\PSoC4/CapSense_CSHL.c **** ********************************************************************************
 331:.\Generated_Source\PSoC4/CapSense_CSHL.c **** *
 332:.\Generated_Source\PSoC4/CapSense_CSHL.c **** * Summary:
 333:.\Generated_Source\PSoC4/CapSense_CSHL.c **** *  Updates the CapSense_sensorBaseline[sensor] array element using the
 334:.\Generated_Source\PSoC4/CapSense_CSHL.c **** *  LP filter with k = 256. The signal calculates the difference of count by
 335:.\Generated_Source\PSoC4/CapSense_CSHL.c **** *  subtracting the previous baseline from the current raw count value and stores
 336:.\Generated_Source\PSoC4/CapSense_CSHL.c **** *  it in CapSense_sensorSignal[sensor].
 337:.\Generated_Source\PSoC4/CapSense_CSHL.c **** *  If the auto reset option is enabled, the baseline updated regards the noise threshold.
 338:.\Generated_Source\PSoC4/CapSense_CSHL.c **** *  If the auto reset option is disabled, the baseline stops updating; baseline is loaded
 339:.\Generated_Source\PSoC4/CapSense_CSHL.c **** *  with a raw count value if a signal is greater than zero and if signal is less
 340:.\Generated_Source\PSoC4/CapSense_CSHL.c **** *  than noise threshold.
 341:.\Generated_Source\PSoC4/CapSense_CSHL.c **** *  Raw data filters are applied to the values if enabled before baseline
 342:.\Generated_Source\PSoC4/CapSense_CSHL.c **** *  calculation.
 343:.\Generated_Source\PSoC4/CapSense_CSHL.c **** *
 344:.\Generated_Source\PSoC4/CapSense_CSHL.c **** *  This API does not update the thresholds in the Smartsense Mode.
 345:.\Generated_Source\PSoC4/CapSense_CSHL.c **** *
 346:.\Generated_Source\PSoC4/CapSense_CSHL.c **** * Parameters:
 347:.\Generated_Source\PSoC4/CapSense_CSHL.c **** *  sensor:  Sensor number.
 348:.\Generated_Source\PSoC4/CapSense_CSHL.c **** *
 349:.\Generated_Source\PSoC4/CapSense_CSHL.c **** * Return:
 350:.\Generated_Source\PSoC4/CapSense_CSHL.c **** *  None
 351:.\Generated_Source\PSoC4/CapSense_CSHL.c **** *
 352:.\Generated_Source\PSoC4/CapSense_CSHL.c **** * Global Variables:
 353:.\Generated_Source\PSoC4/CapSense_CSHL.c **** *  CapSense_widgetNumber[]  - stores widget numbers.
 354:.\Generated_Source\PSoC4/CapSense_CSHL.c **** *  CapSense_sensorBaseline[]    - used to store baseline value.
 355:.\Generated_Source\PSoC4/CapSense_CSHL.c **** *  CapSense_sensorBaselineLow[] - used to store fraction byte of
 356:.\Generated_Source\PSoC4/CapSense_CSHL.c **** *  baseline value.
ARM GAS  C:\Users\lovelesh\AppData\Local\Temp\ccDxuV7s.s 			page 14


 357:.\Generated_Source\PSoC4/CapSense_CSHL.c **** *  CapSense_sensorSignal[]      - used to store difference between
 358:.\Generated_Source\PSoC4/CapSense_CSHL.c **** *  current value of raw data and previous value of baseline.
 359:.\Generated_Source\PSoC4/CapSense_CSHL.c **** *  CapSense_rawFilterData1[]    - used to store previous sample of
 360:.\Generated_Source\PSoC4/CapSense_CSHL.c **** *  any enabled raw data filter.
 361:.\Generated_Source\PSoC4/CapSense_CSHL.c **** *  CapSense_rawFilterData2[]    - used to store before previous sample
 362:.\Generated_Source\PSoC4/CapSense_CSHL.c **** *  of enabled raw data filter. Only required for median or average filters.
 363:.\Generated_Source\PSoC4/CapSense_CSHL.c **** *
 364:.\Generated_Source\PSoC4/CapSense_CSHL.c **** * Side Effects:
 365:.\Generated_Source\PSoC4/CapSense_CSHL.c **** *  None
 366:.\Generated_Source\PSoC4/CapSense_CSHL.c **** *
 367:.\Generated_Source\PSoC4/CapSense_CSHL.c **** *******************************************************************************/
 368:.\Generated_Source\PSoC4/CapSense_CSHL.c **** void CapSense_UpdateBaselineNoThreshold(uint32 sensor)
 369:.\Generated_Source\PSoC4/CapSense_CSHL.c **** {
 377              		.loc 1 369 0
 378              		.cfi_startproc
 379 0000 90B5     		push	{r4, r7, lr}
 380              		.cfi_def_cfa_offset 12
 381              		.cfi_offset 4, -12
 382              		.cfi_offset 7, -8
 383              		.cfi_offset 14, -4
 384 0002 87B0     		sub	sp, sp, #28
 385              		.cfi_def_cfa_offset 40
 386 0004 00AF     		add	r7, sp, #0
 387              		.cfi_def_cfa_register 7
 388 0006 7860     		str	r0, [r7, #4]
 370:.\Generated_Source\PSoC4/CapSense_CSHL.c ****     uint32 calc;
 371:.\Generated_Source\PSoC4/CapSense_CSHL.c ****     uint32 sign;
 372:.\Generated_Source\PSoC4/CapSense_CSHL.c ****     uint16 tempRaw;
 373:.\Generated_Source\PSoC4/CapSense_CSHL.c ****     uint16 filteredRawData;
 374:.\Generated_Source\PSoC4/CapSense_CSHL.c ****     uint8 widget = CapSense_widgetNumber[sensor];
 389              		.loc 1 374 0
 390 0008 0F23     		mov	r3, #15
 391 000a FB18     		add	r3, r7, r3
 392 000c 7E49     		ldr	r1, .L30
 393 000e 7A68     		ldr	r2, [r7, #4]
 394 0010 8A18     		add	r2, r1, r2
 395 0012 1278     		ldrb	r2, [r2]
 396 0014 1A70     		strb	r2, [r3]
 375:.\Generated_Source\PSoC4/CapSense_CSHL.c ****     uint8 noiseThreshold;
 376:.\Generated_Source\PSoC4/CapSense_CSHL.c **** 
 377:.\Generated_Source\PSoC4/CapSense_CSHL.c ****     #if (CapSense_TOTAL_GENERICS_COUNT)
 378:.\Generated_Source\PSoC4/CapSense_CSHL.c ****         /* Exclude generic widget */
 379:.\Generated_Source\PSoC4/CapSense_CSHL.c ****         if(widget < CapSense_END_OF_WIDGETS_INDEX)
 380:.\Generated_Source\PSoC4/CapSense_CSHL.c ****         {
 381:.\Generated_Source\PSoC4/CapSense_CSHL.c ****     #endif  /* CapSense_TOTAL_GENERICS_COUNT */
 382:.\Generated_Source\PSoC4/CapSense_CSHL.c **** 
 383:.\Generated_Source\PSoC4/CapSense_CSHL.c ****     noiseThreshold = CapSense_noiseThreshold[widget];
 397              		.loc 1 383 0
 398 0016 0F23     		mov	r3, #15
 399 0018 FB18     		add	r3, r7, r3
 400 001a 1A78     		ldrb	r2, [r3]
 401 001c 0E23     		mov	r3, #14
 402 001e FB18     		add	r3, r7, r3
 403 0020 7A49     		ldr	r1, .L30+4
 404 0022 8A5C     		ldrb	r2, [r1, r2]
 405 0024 1A70     		strb	r2, [r3]
 384:.\Generated_Source\PSoC4/CapSense_CSHL.c ****     filteredRawData = CapSense_sensorRaw[sensor];
ARM GAS  C:\Users\lovelesh\AppData\Local\Temp\ccDxuV7s.s 			page 15


 406              		.loc 1 384 0
 407 0026 1023     		mov	r3, #16
 408 0028 FB18     		add	r3, r7, r3
 409 002a 794A     		ldr	r2, .L30+8
 410 002c 7968     		ldr	r1, [r7, #4]
 411 002e 4900     		lsl	r1, r1, #1
 412 0030 8A5A     		ldrh	r2, [r1, r2]
 413 0032 1A80     		strh	r2, [r3]
 385:.\Generated_Source\PSoC4/CapSense_CSHL.c **** 
 386:.\Generated_Source\PSoC4/CapSense_CSHL.c ****     #if (CapSense_RAW_FILTER_MASK != 0u)
 387:.\Generated_Source\PSoC4/CapSense_CSHL.c ****     if(CapSense_enableRawFilters != 0u)
 414              		.loc 1 387 0
 415 0034 774B     		ldr	r3, .L30+12
 416 0036 1B78     		ldrb	r3, [r3]
 417 0038 002B     		cmp	r3, #0
 418 003a 15D0     		beq	.L18
 388:.\Generated_Source\PSoC4/CapSense_CSHL.c ****     {
 389:.\Generated_Source\PSoC4/CapSense_CSHL.c ****         #if (CapSense_RAW_FILTER_MASK & CapSense_MEDIAN_FILTER)
 390:.\Generated_Source\PSoC4/CapSense_CSHL.c ****             tempRaw = filteredRawData;
 391:.\Generated_Source\PSoC4/CapSense_CSHL.c ****             filteredRawData = CapSense_MedianFilter(filteredRawData, CapSense_rawFilterData1[sensor
 392:.\Generated_Source\PSoC4/CapSense_CSHL.c ****                                                             CapSense_rawFilterData2[sensor]);
 393:.\Generated_Source\PSoC4/CapSense_CSHL.c ****             CapSense_rawFilterData2[sensor] = CapSense_rawFilterData1[sensor];
 394:.\Generated_Source\PSoC4/CapSense_CSHL.c ****             CapSense_rawFilterData1[sensor] = tempRaw;
 395:.\Generated_Source\PSoC4/CapSense_CSHL.c **** 
 396:.\Generated_Source\PSoC4/CapSense_CSHL.c ****         #elif (CapSense_RAW_FILTER_MASK & CapSense_AVERAGING_FILTER)
 397:.\Generated_Source\PSoC4/CapSense_CSHL.c ****             tempRaw = filteredRawData;
 398:.\Generated_Source\PSoC4/CapSense_CSHL.c ****             filteredRawData = CapSense_AveragingFilter(filteredRawData, CapSense_rawFilterData1[sen
 399:.\Generated_Source\PSoC4/CapSense_CSHL.c ****                                                                CapSense_rawFilterData2[sensor]);
 400:.\Generated_Source\PSoC4/CapSense_CSHL.c ****             CapSense_rawFilterData2[sensor] = CapSense_rawFilterData1[sensor];
 401:.\Generated_Source\PSoC4/CapSense_CSHL.c ****             CapSense_rawFilterData1[sensor] = tempRaw;
 402:.\Generated_Source\PSoC4/CapSense_CSHL.c **** 
 403:.\Generated_Source\PSoC4/CapSense_CSHL.c ****         #elif (CapSense_RAW_FILTER_MASK & CapSense_IIR2_FILTER)
 404:.\Generated_Source\PSoC4/CapSense_CSHL.c ****             filteredRawData = CapSense_IIR2Filter(filteredRawData, CapSense_rawFilterData1[sensor])
 405:.\Generated_Source\PSoC4/CapSense_CSHL.c ****             CapSense_rawFilterData1[sensor] = filteredRawData;
 406:.\Generated_Source\PSoC4/CapSense_CSHL.c **** 
 407:.\Generated_Source\PSoC4/CapSense_CSHL.c ****         #elif (CapSense_RAW_FILTER_MASK & CapSense_IIR4_FILTER)
 408:.\Generated_Source\PSoC4/CapSense_CSHL.c ****             filteredRawData = CapSense_IIR4Filter(filteredRawData, CapSense_rawFilterData1[sensor])
 419              		.loc 1 408 0
 420 003c 764B     		ldr	r3, .L30+16
 421 003e 7A68     		ldr	r2, [r7, #4]
 422 0040 5200     		lsl	r2, r2, #1
 423 0042 D25A     		ldrh	r2, [r2, r3]
 424 0044 1023     		mov	r3, #16
 425 0046 FC18     		add	r4, r7, r3
 426 0048 1023     		mov	r3, #16
 427 004a FB18     		add	r3, r7, r3
 428 004c 1B88     		ldrh	r3, [r3]
 429 004e 181C     		mov	r0, r3
 430 0050 111C     		mov	r1, r2
 431 0052 FFF7FEFF 		bl	CapSense_IIR4Filter
 432 0056 031C     		mov	r3, r0
 433 0058 2380     		strh	r3, [r4]
 409:.\Generated_Source\PSoC4/CapSense_CSHL.c ****             CapSense_rawFilterData1[sensor] = filteredRawData;
 434              		.loc 1 409 0
 435 005a 6F4B     		ldr	r3, .L30+16
 436 005c 7A68     		ldr	r2, [r7, #4]
 437 005e 5200     		lsl	r2, r2, #1
ARM GAS  C:\Users\lovelesh\AppData\Local\Temp\ccDxuV7s.s 			page 16


 438 0060 1021     		mov	r1, #16
 439 0062 7918     		add	r1, r7, r1
 440 0064 0988     		ldrh	r1, [r1]
 441 0066 D152     		strh	r1, [r2, r3]
 442              	.L18:
 410:.\Generated_Source\PSoC4/CapSense_CSHL.c **** 
 411:.\Generated_Source\PSoC4/CapSense_CSHL.c ****         #elif (CapSense_RAW_FILTER_MASK & CapSense_JITTER_FILTER)
 412:.\Generated_Source\PSoC4/CapSense_CSHL.c ****             filteredRawData = CapSense_JitterFilter(filteredRawData, CapSense_rawFilterData1[sensor
 413:.\Generated_Source\PSoC4/CapSense_CSHL.c ****             CapSense_rawFilterData1[sensor] = filteredRawData;
 414:.\Generated_Source\PSoC4/CapSense_CSHL.c **** 
 415:.\Generated_Source\PSoC4/CapSense_CSHL.c ****         #elif (CapSense_RAW_FILTER_MASK & CapSense_IIR8_FILTER)
 416:.\Generated_Source\PSoC4/CapSense_CSHL.c ****             filteredRawData = CapSense_IIR8Filter(filteredRawData, CapSense_rawFilterData1[sensor])
 417:.\Generated_Source\PSoC4/CapSense_CSHL.c ****             CapSense_rawFilterData1[sensor] = filteredRawData;
 418:.\Generated_Source\PSoC4/CapSense_CSHL.c **** 
 419:.\Generated_Source\PSoC4/CapSense_CSHL.c ****         #elif (CapSense_RAW_FILTER_MASK & CapSense_IIR16_FILTER)
 420:.\Generated_Source\PSoC4/CapSense_CSHL.c ****             filteredRawData = CapSense_IIR16Filter(filteredRawData, CapSense_rawFilterData1[sensor]
 421:.\Generated_Source\PSoC4/CapSense_CSHL.c ****             CapSense_rawFilterData1[sensor] = filteredRawData;
 422:.\Generated_Source\PSoC4/CapSense_CSHL.c **** 
 423:.\Generated_Source\PSoC4/CapSense_CSHL.c ****         #else
 424:.\Generated_Source\PSoC4/CapSense_CSHL.c ****             /* No Raw filters */
 425:.\Generated_Source\PSoC4/CapSense_CSHL.c ****         #endif  /* (CapSense_RAW_FILTER_MASK & CapSense_MEDIAN_FILTER) */
 426:.\Generated_Source\PSoC4/CapSense_CSHL.c ****     }
 427:.\Generated_Source\PSoC4/CapSense_CSHL.c ****     #endif  /* (CapSense_RAW_FILTER_MASK != 0u) */
 428:.\Generated_Source\PSoC4/CapSense_CSHL.c **** 
 429:.\Generated_Source\PSoC4/CapSense_CSHL.c ****     #if (CapSense_TUNING_METHOD == CapSense__TUNING_AUTO)
 430:.\Generated_Source\PSoC4/CapSense_CSHL.c ****         MeasureNoiseEnvelope_P4_v2_40(&CapSense_config, (uint8)sensor, CapSense_sensorRaw);
 443              		.loc 1 430 0
 444 0068 7B68     		ldr	r3, [r7, #4]
 445 006a DAB2     		uxtb	r2, r3
 446 006c 6B49     		ldr	r1, .L30+20
 447 006e 684B     		ldr	r3, .L30+8
 448 0070 081C     		mov	r0, r1
 449 0072 111C     		mov	r1, r2
 450 0074 1A1C     		mov	r2, r3
 451 0076 FFF7FEFF 		bl	MeasureNoiseEnvelope_P4_v2_40
 431:.\Generated_Source\PSoC4/CapSense_CSHL.c ****     #endif /* (CapSense_TUNING_METHOD == CapSense__TUNING_AUTO) */
 432:.\Generated_Source\PSoC4/CapSense_CSHL.c **** 
 433:.\Generated_Source\PSoC4/CapSense_CSHL.c ****     /* Baseline calculation */
 434:.\Generated_Source\PSoC4/CapSense_CSHL.c ****     /* Calculate difference RawData[cur] - Baseline[prev] */
 435:.\Generated_Source\PSoC4/CapSense_CSHL.c ****     if(filteredRawData >= CapSense_sensorBaseline[sensor])
 452              		.loc 1 435 0
 453 007a 694B     		ldr	r3, .L30+24
 454 007c 7A68     		ldr	r2, [r7, #4]
 455 007e 5200     		lsl	r2, r2, #1
 456 0080 D35A     		ldrh	r3, [r2, r3]
 457 0082 1022     		mov	r2, #16
 458 0084 BA18     		add	r2, r7, r2
 459 0086 1288     		ldrh	r2, [r2]
 460 0088 9A42     		cmp	r2, r3
 461 008a 12D3     		bcc	.L19
 436:.\Generated_Source\PSoC4/CapSense_CSHL.c ****     {
 437:.\Generated_Source\PSoC4/CapSense_CSHL.c ****         CapSense_lowBaselineResetCnt[sensor] = 0u;
 462              		.loc 1 437 0
 463 008c 654A     		ldr	r2, .L30+28
 464 008e 7B68     		ldr	r3, [r7, #4]
 465 0090 D318     		add	r3, r2, r3
 466 0092 0022     		mov	r2, #0
ARM GAS  C:\Users\lovelesh\AppData\Local\Temp\ccDxuV7s.s 			page 17


 467 0094 1A70     		strb	r2, [r3]
 438:.\Generated_Source\PSoC4/CapSense_CSHL.c ****         tempRaw = filteredRawData - CapSense_sensorBaseline[sensor];
 468              		.loc 1 438 0
 469 0096 624B     		ldr	r3, .L30+24
 470 0098 7A68     		ldr	r2, [r7, #4]
 471 009a 5200     		lsl	r2, r2, #1
 472 009c D25A     		ldrh	r2, [r2, r3]
 473 009e 1223     		mov	r3, #18
 474 00a0 FB18     		add	r3, r7, r3
 475 00a2 1021     		mov	r1, #16
 476 00a4 7918     		add	r1, r7, r1
 477 00a6 0988     		ldrh	r1, [r1]
 478 00a8 8A1A     		sub	r2, r1, r2
 479 00aa 1A80     		strh	r2, [r3]
 439:.\Generated_Source\PSoC4/CapSense_CSHL.c ****         sign = 1u;    /* Positive difference - Calculate the Signal */
 480              		.loc 1 439 0
 481 00ac 0123     		mov	r3, #1
 482 00ae 7B61     		str	r3, [r7, #20]
 483 00b0 0CE0     		b	.L20
 484              	.L19:
 440:.\Generated_Source\PSoC4/CapSense_CSHL.c ****     }
 441:.\Generated_Source\PSoC4/CapSense_CSHL.c ****     else
 442:.\Generated_Source\PSoC4/CapSense_CSHL.c ****     {
 443:.\Generated_Source\PSoC4/CapSense_CSHL.c ****         tempRaw = CapSense_sensorBaseline[sensor] - filteredRawData;
 485              		.loc 1 443 0
 486 00b2 5B4B     		ldr	r3, .L30+24
 487 00b4 7A68     		ldr	r2, [r7, #4]
 488 00b6 5200     		lsl	r2, r2, #1
 489 00b8 D15A     		ldrh	r1, [r2, r3]
 490 00ba 1223     		mov	r3, #18
 491 00bc FB18     		add	r3, r7, r3
 492 00be 1022     		mov	r2, #16
 493 00c0 BA18     		add	r2, r7, r2
 494 00c2 1288     		ldrh	r2, [r2]
 495 00c4 8A1A     		sub	r2, r1, r2
 496 00c6 1A80     		strh	r2, [r3]
 444:.\Generated_Source\PSoC4/CapSense_CSHL.c ****         sign = 0u;    /* Negative difference - Do NOT calculate the Signal */
 497              		.loc 1 444 0
 498 00c8 0023     		mov	r3, #0
 499 00ca 7B61     		str	r3, [r7, #20]
 500              	.L20:
 445:.\Generated_Source\PSoC4/CapSense_CSHL.c ****     }
 446:.\Generated_Source\PSoC4/CapSense_CSHL.c **** 
 447:.\Generated_Source\PSoC4/CapSense_CSHL.c ****     #if (CapSense_TUNING_METHOD != CapSense__TUNING_NONE)
 448:.\Generated_Source\PSoC4/CapSense_CSHL.c ****     if((sign == 0u) && (tempRaw > (uint16) CapSense_negativeNoiseThreshold[widget]))
 501              		.loc 1 448 0
 502 00cc 7B69     		ldr	r3, [r7, #20]
 503 00ce 002B     		cmp	r3, #0
 504 00d0 2AD1     		bne	.L21
 505              		.loc 1 448 0 is_stmt 0 discriminator 1
 506 00d2 0F23     		mov	r3, #15
 507 00d4 FB18     		add	r3, r7, r3
 508 00d6 1B78     		ldrb	r3, [r3]
 509 00d8 534A     		ldr	r2, .L30+32
 510 00da D35C     		ldrb	r3, [r2, r3]
 511 00dc 9BB2     		uxth	r3, r3
 512 00de 1222     		mov	r2, #18
ARM GAS  C:\Users\lovelesh\AppData\Local\Temp\ccDxuV7s.s 			page 18


 513 00e0 BA18     		add	r2, r7, r2
 514 00e2 1288     		ldrh	r2, [r2]
 515 00e4 9A42     		cmp	r2, r3
 516 00e6 1FD9     		bls	.L21
 449:.\Generated_Source\PSoC4/CapSense_CSHL.c ****     #else
 450:.\Generated_Source\PSoC4/CapSense_CSHL.c ****     if((sign == 0u) && (tempRaw > (uint16) CapSense_NEGATIVE_NOISE_THRESHOLD))
 451:.\Generated_Source\PSoC4/CapSense_CSHL.c ****     #endif /* (CapSense_TUNING_METHOD != CapSense__TUNING_NONE) */
 452:.\Generated_Source\PSoC4/CapSense_CSHL.c ****     {
 453:.\Generated_Source\PSoC4/CapSense_CSHL.c ****         if(CapSense_lowBaselineResetCnt[sensor] >= CapSense_lowBaselineReset[sensor])
 517              		.loc 1 453 0 is_stmt 1
 518 00e8 4E4A     		ldr	r2, .L30+28
 519 00ea 7B68     		ldr	r3, [r7, #4]
 520 00ec D318     		add	r3, r2, r3
 521 00ee 1A78     		ldrb	r2, [r3]
 522 00f0 4E49     		ldr	r1, .L30+36
 523 00f2 7B68     		ldr	r3, [r7, #4]
 524 00f4 CB18     		add	r3, r1, r3
 525 00f6 1B78     		ldrb	r3, [r3]
 526 00f8 9A42     		cmp	r2, r3
 527 00fa 09D3     		bcc	.L22
 454:.\Generated_Source\PSoC4/CapSense_CSHL.c ****         {
 455:.\Generated_Source\PSoC4/CapSense_CSHL.c ****             CapSense_BaseInit(sensor);
 528              		.loc 1 455 0
 529 00fc 7B68     		ldr	r3, [r7, #4]
 530 00fe 181C     		mov	r0, r3
 531 0100 FFF7FEFF 		bl	CapSense_BaseInit
 456:.\Generated_Source\PSoC4/CapSense_CSHL.c ****             CapSense_lowBaselineResetCnt[sensor] = 0u;
 532              		.loc 1 456 0
 533 0104 474A     		ldr	r2, .L30+28
 534 0106 7B68     		ldr	r3, [r7, #4]
 535 0108 D318     		add	r3, r2, r3
 536 010a 0022     		mov	r2, #0
 537 010c 1A70     		strb	r2, [r3]
 453:.\Generated_Source\PSoC4/CapSense_CSHL.c ****         {
 538              		.loc 1 453 0
 539 010e 51E0     		b	.L24
 540              	.L22:
 457:.\Generated_Source\PSoC4/CapSense_CSHL.c ****         }
 458:.\Generated_Source\PSoC4/CapSense_CSHL.c ****         else
 459:.\Generated_Source\PSoC4/CapSense_CSHL.c ****         {
 460:.\Generated_Source\PSoC4/CapSense_CSHL.c ****             CapSense_lowBaselineResetCnt[sensor]++;
 541              		.loc 1 460 0
 542 0110 444A     		ldr	r2, .L30+28
 543 0112 7B68     		ldr	r3, [r7, #4]
 544 0114 D318     		add	r3, r2, r3
 545 0116 1B78     		ldrb	r3, [r3]
 546 0118 0133     		add	r3, r3, #1
 547 011a D9B2     		uxtb	r1, r3
 548 011c 414A     		ldr	r2, .L30+28
 549 011e 7B68     		ldr	r3, [r7, #4]
 550 0120 D318     		add	r3, r2, r3
 551 0122 0A1C     		add	r2, r1, #0
 552 0124 1A70     		strb	r2, [r3]
 453:.\Generated_Source\PSoC4/CapSense_CSHL.c ****         {
 553              		.loc 1 453 0
 554 0126 45E0     		b	.L24
 555              	.L21:
ARM GAS  C:\Users\lovelesh\AppData\Local\Temp\ccDxuV7s.s 			page 19


 461:.\Generated_Source\PSoC4/CapSense_CSHL.c ****         }
 462:.\Generated_Source\PSoC4/CapSense_CSHL.c ****     }
 463:.\Generated_Source\PSoC4/CapSense_CSHL.c ****     else
 464:.\Generated_Source\PSoC4/CapSense_CSHL.c ****     {
 465:.\Generated_Source\PSoC4/CapSense_CSHL.c ****         #if (CapSense_AUTO_RESET == CapSense_AUTO_RESET_DISABLE)
 466:.\Generated_Source\PSoC4/CapSense_CSHL.c ****         #if (CapSense_TUNING_METHOD != CapSense__TUNING_NONE)
 467:.\Generated_Source\PSoC4/CapSense_CSHL.c ****             /* Update Baseline if lower than noiseThreshold */
 468:.\Generated_Source\PSoC4/CapSense_CSHL.c ****             if ( (tempRaw <= noiseThreshold) ||
 556              		.loc 1 468 0
 557 0128 0E23     		mov	r3, #14
 558 012a FB18     		add	r3, r7, r3
 559 012c 1B78     		ldrb	r3, [r3]
 560 012e 9BB2     		uxth	r3, r3
 561 0130 1222     		mov	r2, #18
 562 0132 BA18     		add	r2, r7, r2
 563 0134 1288     		ldrh	r2, [r2]
 564 0136 9A42     		cmp	r2, r3
 565 0138 0DD9     		bls	.L25
 469:.\Generated_Source\PSoC4/CapSense_CSHL.c ****              ((tempRaw < (uint16) CapSense_negativeNoiseThreshold[widget])
 566              		.loc 1 469 0 discriminator 1
 567 013a 0F23     		mov	r3, #15
 568 013c FB18     		add	r3, r7, r3
 569 013e 1B78     		ldrb	r3, [r3]
 570 0140 394A     		ldr	r2, .L30+32
 571 0142 D35C     		ldrb	r3, [r2, r3]
 572 0144 9BB2     		uxth	r3, r3
 468:.\Generated_Source\PSoC4/CapSense_CSHL.c ****              ((tempRaw < (uint16) CapSense_negativeNoiseThreshold[widget])
 573              		.loc 1 468 0 discriminator 1
 574 0146 1222     		mov	r2, #18
 575 0148 BA18     		add	r2, r7, r2
 576 014a 1288     		ldrh	r2, [r2]
 577 014c 9A42     		cmp	r2, r3
 578 014e 31D2     		bcs	.L24
 470:.\Generated_Source\PSoC4/CapSense_CSHL.c ****                && (sign == 0u)))
 579              		.loc 1 470 0
 580 0150 7B69     		ldr	r3, [r7, #20]
 581 0152 002B     		cmp	r3, #0
 582 0154 2ED1     		bne	.L24
 583              	.L25:
 471:.\Generated_Source\PSoC4/CapSense_CSHL.c ****             {
 472:.\Generated_Source\PSoC4/CapSense_CSHL.c ****         #else
 473:.\Generated_Source\PSoC4/CapSense_CSHL.c ****             /* Update Baseline if lower than noiseThreshold */
 474:.\Generated_Source\PSoC4/CapSense_CSHL.c ****             if ( (tempRaw <= noiseThreshold) ||
 475:.\Generated_Source\PSoC4/CapSense_CSHL.c ****                  ((tempRaw < (uint16) CapSense_NEGATIVE_NOISE_THRESHOLD)
 476:.\Generated_Source\PSoC4/CapSense_CSHL.c ****                    && (sign == 0u)))
 477:.\Generated_Source\PSoC4/CapSense_CSHL.c ****             {
 478:.\Generated_Source\PSoC4/CapSense_CSHL.c ****         #endif /* (CapSense_TUNING_METHOD != CapSense__TUNING_NONE) */
 479:.\Generated_Source\PSoC4/CapSense_CSHL.c ****         #endif /* (CapSense_AUTO_RESET == CapSense_AUTO_RESET_DISABLE) */
 480:.\Generated_Source\PSoC4/CapSense_CSHL.c ****                 /* Make full Baseline 23 bits */
 481:.\Generated_Source\PSoC4/CapSense_CSHL.c ****                 calc = (uint32) CapSense_sensorBaseline[sensor] << 8u;
 584              		.loc 1 481 0
 585 0156 324B     		ldr	r3, .L30+24
 586 0158 7A68     		ldr	r2, [r7, #4]
 587 015a 5200     		lsl	r2, r2, #1
 588 015c D35A     		ldrh	r3, [r2, r3]
 589 015e 1B02     		lsl	r3, r3, #8
 590 0160 BB60     		str	r3, [r7, #8]
ARM GAS  C:\Users\lovelesh\AppData\Local\Temp\ccDxuV7s.s 			page 20


 482:.\Generated_Source\PSoC4/CapSense_CSHL.c ****                 calc |= (uint32) CapSense_sensorBaselineLow[sensor];
 591              		.loc 1 482 0
 592 0162 334A     		ldr	r2, .L30+40
 593 0164 7B68     		ldr	r3, [r7, #4]
 594 0166 D318     		add	r3, r2, r3
 595 0168 1B78     		ldrb	r3, [r3]
 596 016a 1A1C     		mov	r2, r3
 597 016c BB68     		ldr	r3, [r7, #8]
 598 016e 1343     		orr	r3, r2
 599 0170 BB60     		str	r3, [r7, #8]
 483:.\Generated_Source\PSoC4/CapSense_CSHL.c **** 
 484:.\Generated_Source\PSoC4/CapSense_CSHL.c ****                 /* Add Raw Data to Baseline */
 485:.\Generated_Source\PSoC4/CapSense_CSHL.c ****                 calc += filteredRawData;
 600              		.loc 1 485 0
 601 0172 1023     		mov	r3, #16
 602 0174 FB18     		add	r3, r7, r3
 603 0176 1B88     		ldrh	r3, [r3]
 604 0178 BA68     		ldr	r2, [r7, #8]
 605 017a D318     		add	r3, r2, r3
 606 017c BB60     		str	r3, [r7, #8]
 486:.\Generated_Source\PSoC4/CapSense_CSHL.c **** 
 487:.\Generated_Source\PSoC4/CapSense_CSHL.c ****                 /* Sub the high Baseline */
 488:.\Generated_Source\PSoC4/CapSense_CSHL.c ****                 calc -= CapSense_sensorBaseline[sensor];
 607              		.loc 1 488 0
 608 017e 284B     		ldr	r3, .L30+24
 609 0180 7A68     		ldr	r2, [r7, #4]
 610 0182 5200     		lsl	r2, r2, #1
 611 0184 D35A     		ldrh	r3, [r2, r3]
 612 0186 1A1C     		mov	r2, r3
 613 0188 BB68     		ldr	r3, [r7, #8]
 614 018a 9B1A     		sub	r3, r3, r2
 615 018c BB60     		str	r3, [r7, #8]
 489:.\Generated_Source\PSoC4/CapSense_CSHL.c **** 
 490:.\Generated_Source\PSoC4/CapSense_CSHL.c ****                 /* Put Baseline and BaselineLow */
 491:.\Generated_Source\PSoC4/CapSense_CSHL.c ****                 CapSense_sensorBaseline[sensor] = ((uint16) (calc >> 8u));
 616              		.loc 1 491 0
 617 018e BB68     		ldr	r3, [r7, #8]
 618 0190 1B0A     		lsr	r3, r3, #8
 619 0192 99B2     		uxth	r1, r3
 620 0194 224B     		ldr	r3, .L30+24
 621 0196 7A68     		ldr	r2, [r7, #4]
 622 0198 5200     		lsl	r2, r2, #1
 623 019a D152     		strh	r1, [r2, r3]
 492:.\Generated_Source\PSoC4/CapSense_CSHL.c ****                 CapSense_sensorBaselineLow[sensor] = ((uint8) calc);
 624              		.loc 1 492 0
 625 019c BB68     		ldr	r3, [r7, #8]
 626 019e D9B2     		uxtb	r1, r3
 627 01a0 234A     		ldr	r2, .L30+40
 628 01a2 7B68     		ldr	r3, [r7, #4]
 629 01a4 D318     		add	r3, r2, r3
 630 01a6 0A1C     		add	r2, r1, #0
 631 01a8 1A70     		strb	r2, [r3]
 493:.\Generated_Source\PSoC4/CapSense_CSHL.c **** 
 494:.\Generated_Source\PSoC4/CapSense_CSHL.c ****                 CapSense_lowBaselineResetCnt[sensor] = 0u;
 632              		.loc 1 494 0
 633 01aa 1E4A     		ldr	r2, .L30+28
 634 01ac 7B68     		ldr	r3, [r7, #4]
ARM GAS  C:\Users\lovelesh\AppData\Local\Temp\ccDxuV7s.s 			page 21


 635 01ae D318     		add	r3, r2, r3
 636 01b0 0022     		mov	r2, #0
 637 01b2 1A70     		strb	r2, [r3]
 638              	.L24:
 495:.\Generated_Source\PSoC4/CapSense_CSHL.c ****         #if (CapSense_AUTO_RESET == CapSense_AUTO_RESET_DISABLE)
 496:.\Generated_Source\PSoC4/CapSense_CSHL.c ****             }
 497:.\Generated_Source\PSoC4/CapSense_CSHL.c ****         #endif /* (CapSense_AUTO_RESET == CapSense_AUTO_RESET_DISABLE) */
 498:.\Generated_Source\PSoC4/CapSense_CSHL.c ****     }
 499:.\Generated_Source\PSoC4/CapSense_CSHL.c **** 
 500:.\Generated_Source\PSoC4/CapSense_CSHL.c ****     /* Calculate Signal if positive difference > noiseThreshold */
 501:.\Generated_Source\PSoC4/CapSense_CSHL.c ****     if((tempRaw > (uint16) noiseThreshold) && (sign != 0u))
 639              		.loc 1 501 0
 640 01b4 0E23     		mov	r3, #14
 641 01b6 FB18     		add	r3, r7, r3
 642 01b8 1B78     		ldrb	r3, [r3]
 643 01ba 9BB2     		uxth	r3, r3
 644 01bc 1222     		mov	r2, #18
 645 01be BA18     		add	r2, r7, r2
 646 01c0 1288     		ldrh	r2, [r2]
 647 01c2 9A42     		cmp	r2, r3
 648 01c4 17D9     		bls	.L26
 649              		.loc 1 501 0 is_stmt 0 discriminator 1
 650 01c6 7B69     		ldr	r3, [r7, #20]
 651 01c8 002B     		cmp	r3, #0
 652 01ca 14D0     		beq	.L26
 502:.\Generated_Source\PSoC4/CapSense_CSHL.c ****     {
 503:.\Generated_Source\PSoC4/CapSense_CSHL.c ****         #if (CapSense_SIGNAL_SIZE == CapSense_SIGNAL_SIZE_UINT8)
 504:.\Generated_Source\PSoC4/CapSense_CSHL.c ****             /* Over flow defence for uint8 */
 505:.\Generated_Source\PSoC4/CapSense_CSHL.c ****             if (tempRaw > 0xFFu)
 653              		.loc 1 505 0 is_stmt 1
 654 01cc 1223     		mov	r3, #18
 655 01ce FB18     		add	r3, r7, r3
 656 01d0 1B88     		ldrh	r3, [r3]
 657 01d2 FF2B     		cmp	r3, #255
 658 01d4 05D9     		bls	.L27
 506:.\Generated_Source\PSoC4/CapSense_CSHL.c ****             {
 507:.\Generated_Source\PSoC4/CapSense_CSHL.c ****                 CapSense_sensorSignal[sensor] = 0xFFu;
 659              		.loc 1 507 0
 660 01d6 174A     		ldr	r2, .L30+44
 661 01d8 7B68     		ldr	r3, [r7, #4]
 662 01da D318     		add	r3, r2, r3
 663 01dc FF22     		mov	r2, #255
 664 01de 1A70     		strb	r2, [r3]
 505:.\Generated_Source\PSoC4/CapSense_CSHL.c ****             {
 665              		.loc 1 505 0
 666 01e0 0EE0     		b	.L17
 667              	.L27:
 508:.\Generated_Source\PSoC4/CapSense_CSHL.c ****             }
 509:.\Generated_Source\PSoC4/CapSense_CSHL.c ****             else
 510:.\Generated_Source\PSoC4/CapSense_CSHL.c ****             {
 511:.\Generated_Source\PSoC4/CapSense_CSHL.c ****                 CapSense_sensorSignal[sensor] = ((uint8) tempRaw);
 668              		.loc 1 511 0
 669 01e2 1223     		mov	r3, #18
 670 01e4 FB18     		add	r3, r7, r3
 671 01e6 1B88     		ldrh	r3, [r3]
 672 01e8 D9B2     		uxtb	r1, r3
 673 01ea 124A     		ldr	r2, .L30+44
ARM GAS  C:\Users\lovelesh\AppData\Local\Temp\ccDxuV7s.s 			page 22


 674 01ec 7B68     		ldr	r3, [r7, #4]
 675 01ee D318     		add	r3, r2, r3
 676 01f0 0A1C     		add	r2, r1, #0
 677 01f2 1A70     		strb	r2, [r3]
 505:.\Generated_Source\PSoC4/CapSense_CSHL.c ****             {
 678              		.loc 1 505 0
 679 01f4 04E0     		b	.L17
 680              	.L26:
 512:.\Generated_Source\PSoC4/CapSense_CSHL.c ****             }
 513:.\Generated_Source\PSoC4/CapSense_CSHL.c ****         #else
 514:.\Generated_Source\PSoC4/CapSense_CSHL.c ****             CapSense_sensorSignal[sensor] = ((uint16) tempRaw);
 515:.\Generated_Source\PSoC4/CapSense_CSHL.c ****         #endif  /* (CapSense_SIGNAL_SIZE == CapSense_SIGNAL_SIZE_UINT8) */
 516:.\Generated_Source\PSoC4/CapSense_CSHL.c ****     }
 517:.\Generated_Source\PSoC4/CapSense_CSHL.c ****     else
 518:.\Generated_Source\PSoC4/CapSense_CSHL.c ****     {
 519:.\Generated_Source\PSoC4/CapSense_CSHL.c ****         /* Signal is zero */
 520:.\Generated_Source\PSoC4/CapSense_CSHL.c ****         CapSense_sensorSignal[sensor] = 0u;
 681              		.loc 1 520 0
 682 01f6 0F4A     		ldr	r2, .L30+44
 683 01f8 7B68     		ldr	r3, [r7, #4]
 684 01fa D318     		add	r3, r2, r3
 685 01fc 0022     		mov	r2, #0
 686 01fe 1A70     		strb	r2, [r3]
 687              	.L17:
 521:.\Generated_Source\PSoC4/CapSense_CSHL.c ****     }
 522:.\Generated_Source\PSoC4/CapSense_CSHL.c **** 
 523:.\Generated_Source\PSoC4/CapSense_CSHL.c ****     #if (CapSense_TOTAL_GENERICS_COUNT)
 524:.\Generated_Source\PSoC4/CapSense_CSHL.c ****         /* Exclude generic widget */
 525:.\Generated_Source\PSoC4/CapSense_CSHL.c ****         }
 526:.\Generated_Source\PSoC4/CapSense_CSHL.c ****     #endif  /* CapSense_TOTAL_GENERICS_COUNT */
 527:.\Generated_Source\PSoC4/CapSense_CSHL.c **** }
 688              		.loc 1 527 0
 689 0200 BD46     		mov	sp, r7
 690 0202 07B0     		add	sp, sp, #28
 691              		@ sp needed
 692 0204 90BD     		pop	{r4, r7, pc}
 693              	.L31:
 694 0206 C046     		.align	2
 695              	.L30:
 696 0208 00000000 		.word	CapSense_widgetNumber
 697 020c 00000000 		.word	CapSense_noiseThreshold
 698 0210 00000000 		.word	CapSense_sensorRaw
 699 0214 00000000 		.word	CapSense_enableRawFilters
 700 0218 00000000 		.word	CapSense_rawFilterData1
 701 021c 00000000 		.word	CapSense_config
 702 0220 00000000 		.word	CapSense_sensorBaseline
 703 0224 00000000 		.word	CapSense_lowBaselineResetCnt
 704 0228 00000000 		.word	CapSense_negativeNoiseThreshold
 705 022c 00000000 		.word	CapSense_lowBaselineReset
 706 0230 00000000 		.word	CapSense_sensorBaselineLow
 707 0234 00000000 		.word	CapSense_sensorSignal
 708              		.cfi_endproc
 709              	.LFE38:
 710              		.size	CapSense_UpdateBaselineNoThreshold, .-CapSense_UpdateBaselineNoThreshold
 711              		.section	.text.CapSense_UpdateSensorBaseline,"ax",%progbits
 712              		.align	2
 713              		.global	CapSense_UpdateSensorBaseline
ARM GAS  C:\Users\lovelesh\AppData\Local\Temp\ccDxuV7s.s 			page 23


 714              		.code	16
 715              		.thumb_func
 716              		.type	CapSense_UpdateSensorBaseline, %function
 717              	CapSense_UpdateSensorBaseline:
 718              	.LFB39:
 528:.\Generated_Source\PSoC4/CapSense_CSHL.c **** 
 529:.\Generated_Source\PSoC4/CapSense_CSHL.c **** 
 530:.\Generated_Source\PSoC4/CapSense_CSHL.c **** /*******************************************************************************
 531:.\Generated_Source\PSoC4/CapSense_CSHL.c **** * Function Name: CapSense_UpdateSensorBaseline
 532:.\Generated_Source\PSoC4/CapSense_CSHL.c **** ********************************************************************************
 533:.\Generated_Source\PSoC4/CapSense_CSHL.c **** *
 534:.\Generated_Source\PSoC4/CapSense_CSHL.c **** * Summary:
 535:.\Generated_Source\PSoC4/CapSense_CSHL.c **** *  Updates the CapSense_sensorBaseline[sensor] array element using the
 536:.\Generated_Source\PSoC4/CapSense_CSHL.c **** *  LP filter with k = 256. The signal calculates the difference of count by
 537:.\Generated_Source\PSoC4/CapSense_CSHL.c **** *  subtracting the previous baseline from the current raw count value and stores
 538:.\Generated_Source\PSoC4/CapSense_CSHL.c **** *  it in CapSense_sensorSignal[sensor].
 539:.\Generated_Source\PSoC4/CapSense_CSHL.c **** *  If the auto reset option is enabled, the baseline updated regards the noise threshold.
 540:.\Generated_Source\PSoC4/CapSense_CSHL.c **** *  If the auto reset option is disabled, the baseline stops updating.
 541:.\Generated_Source\PSoC4/CapSense_CSHL.c **** *  Baseline is loaded with raw count value if a signal is greater than zero and
 542:.\Generated_Source\PSoC4/CapSense_CSHL.c **** *  if signal is less than noise threshold.
 543:.\Generated_Source\PSoC4/CapSense_CSHL.c **** *  Raw data filters are applied to the values if enabled before baseline
 544:.\Generated_Source\PSoC4/CapSense_CSHL.c **** *  calculation.
 545:.\Generated_Source\PSoC4/CapSense_CSHL.c **** *  This API updates the thresholds in the Smartsense Mode.
 546:.\Generated_Source\PSoC4/CapSense_CSHL.c **** *
 547:.\Generated_Source\PSoC4/CapSense_CSHL.c **** * Parameters:
 548:.\Generated_Source\PSoC4/CapSense_CSHL.c **** *  sensor:  Sensor number.
 549:.\Generated_Source\PSoC4/CapSense_CSHL.c **** *
 550:.\Generated_Source\PSoC4/CapSense_CSHL.c **** * Return:
 551:.\Generated_Source\PSoC4/CapSense_CSHL.c **** *  None
 552:.\Generated_Source\PSoC4/CapSense_CSHL.c **** *
 553:.\Generated_Source\PSoC4/CapSense_CSHL.c **** * Global Variables:
 554:.\Generated_Source\PSoC4/CapSense_CSHL.c **** *  CapSense_widgetNumber[]  - stores widget numbers.
 555:.\Generated_Source\PSoC4/CapSense_CSHL.c **** *
 556:.\Generated_Source\PSoC4/CapSense_CSHL.c **** * Side Effects:
 557:.\Generated_Source\PSoC4/CapSense_CSHL.c **** *  None
 558:.\Generated_Source\PSoC4/CapSense_CSHL.c **** *
 559:.\Generated_Source\PSoC4/CapSense_CSHL.c **** *******************************************************************************/
 560:.\Generated_Source\PSoC4/CapSense_CSHL.c ****  void CapSense_UpdateSensorBaseline(uint32 sensor)
 561:.\Generated_Source\PSoC4/CapSense_CSHL.c **** {
 719              		.loc 1 561 0
 720              		.cfi_startproc
 721 0000 80B5     		push	{r7, lr}
 722              		.cfi_def_cfa_offset 8
 723              		.cfi_offset 7, -8
 724              		.cfi_offset 14, -4
 725 0002 82B0     		sub	sp, sp, #8
 726              		.cfi_def_cfa_offset 16
 727 0004 00AF     		add	r7, sp, #0
 728              		.cfi_def_cfa_register 7
 729 0006 7860     		str	r0, [r7, #4]
 562:.\Generated_Source\PSoC4/CapSense_CSHL.c ****     #if (CapSense_TOTAL_GENERICS_COUNT)
 563:.\Generated_Source\PSoC4/CapSense_CSHL.c ****         uint32 widget;
 564:.\Generated_Source\PSoC4/CapSense_CSHL.c **** 
 565:.\Generated_Source\PSoC4/CapSense_CSHL.c ****         widget = CapSense_widgetNumber[sensor];
 566:.\Generated_Source\PSoC4/CapSense_CSHL.c **** 
 567:.\Generated_Source\PSoC4/CapSense_CSHL.c ****         /* Exclude generic widget */
 568:.\Generated_Source\PSoC4/CapSense_CSHL.c ****         if(widget < CapSense_END_OF_WIDGETS_INDEX)
ARM GAS  C:\Users\lovelesh\AppData\Local\Temp\ccDxuV7s.s 			page 24


 569:.\Generated_Source\PSoC4/CapSense_CSHL.c ****         {
 570:.\Generated_Source\PSoC4/CapSense_CSHL.c ****     #endif  /* CapSense_TOTAL_GENERICS_COUNT */
 571:.\Generated_Source\PSoC4/CapSense_CSHL.c **** 
 572:.\Generated_Source\PSoC4/CapSense_CSHL.c ****     #if (CapSense_TUNING_METHOD == CapSense__TUNING_AUTO)
 573:.\Generated_Source\PSoC4/CapSense_CSHL.c ****         CapSense_UpdateThresholds(sensor);
 730              		.loc 1 573 0
 731 0008 7B68     		ldr	r3, [r7, #4]
 732 000a 181C     		mov	r0, r3
 733 000c FFF7FEFF 		bl	CapSense_UpdateThresholds
 574:.\Generated_Source\PSoC4/CapSense_CSHL.c ****     #endif /* (CapSense_TUNING_METHOD == CapSense__TUNING_AUTO) */
 575:.\Generated_Source\PSoC4/CapSense_CSHL.c **** 
 576:.\Generated_Source\PSoC4/CapSense_CSHL.c ****     CapSense_UpdateBaselineNoThreshold(sensor);
 734              		.loc 1 576 0
 735 0010 7B68     		ldr	r3, [r7, #4]
 736 0012 181C     		mov	r0, r3
 737 0014 FFF7FEFF 		bl	CapSense_UpdateBaselineNoThreshold
 577:.\Generated_Source\PSoC4/CapSense_CSHL.c **** 
 578:.\Generated_Source\PSoC4/CapSense_CSHL.c ****     #if (CapSense_TOTAL_GENERICS_COUNT)
 579:.\Generated_Source\PSoC4/CapSense_CSHL.c ****         /* Exclude generic widget */
 580:.\Generated_Source\PSoC4/CapSense_CSHL.c ****         }
 581:.\Generated_Source\PSoC4/CapSense_CSHL.c ****     #endif  /* CapSense_TOTAL_GENERICS_COUNT */
 582:.\Generated_Source\PSoC4/CapSense_CSHL.c **** }
 738              		.loc 1 582 0
 739 0018 BD46     		mov	sp, r7
 740 001a 02B0     		add	sp, sp, #8
 741              		@ sp needed
 742 001c 80BD     		pop	{r7, pc}
 743              		.cfi_endproc
 744              	.LFE39:
 745              		.size	CapSense_UpdateSensorBaseline, .-CapSense_UpdateSensorBaseline
 746 001e C046     		.section	.text.CapSense_UpdateEnabledBaselines,"ax",%progbits
 747              		.align	2
 748              		.global	CapSense_UpdateEnabledBaselines
 749              		.code	16
 750              		.thumb_func
 751              		.type	CapSense_UpdateEnabledBaselines, %function
 752              	CapSense_UpdateEnabledBaselines:
 753              	.LFB40:
 583:.\Generated_Source\PSoC4/CapSense_CSHL.c **** 
 584:.\Generated_Source\PSoC4/CapSense_CSHL.c **** 
 585:.\Generated_Source\PSoC4/CapSense_CSHL.c **** /*******************************************************************************
 586:.\Generated_Source\PSoC4/CapSense_CSHL.c **** * Function Name: CapSense_UpdateEnabledBaselines
 587:.\Generated_Source\PSoC4/CapSense_CSHL.c **** ********************************************************************************
 588:.\Generated_Source\PSoC4/CapSense_CSHL.c **** *
 589:.\Generated_Source\PSoC4/CapSense_CSHL.c **** * Summary:
 590:.\Generated_Source\PSoC4/CapSense_CSHL.c **** *  Checks CapSense_sensorEnableMask[] array and calls the
 591:.\Generated_Source\PSoC4/CapSense_CSHL.c **** *  CapSense_UpdateSensorBaseline function to update the baselines
 592:.\Generated_Source\PSoC4/CapSense_CSHL.c **** *  for the enabled sensors.
 593:.\Generated_Source\PSoC4/CapSense_CSHL.c **** *
 594:.\Generated_Source\PSoC4/CapSense_CSHL.c **** * Parameters:
 595:.\Generated_Source\PSoC4/CapSense_CSHL.c **** *  None
 596:.\Generated_Source\PSoC4/CapSense_CSHL.c **** *
 597:.\Generated_Source\PSoC4/CapSense_CSHL.c **** * Return:
 598:.\Generated_Source\PSoC4/CapSense_CSHL.c **** *  None
 599:.\Generated_Source\PSoC4/CapSense_CSHL.c **** *
 600:.\Generated_Source\PSoC4/CapSense_CSHL.c **** * Global Variables:
 601:.\Generated_Source\PSoC4/CapSense_CSHL.c **** *  CapSense_sensorEnableMask[] - used to store the sensor scanning
ARM GAS  C:\Users\lovelesh\AppData\Local\Temp\ccDxuV7s.s 			page 25


 602:.\Generated_Source\PSoC4/CapSense_CSHL.c **** *  state.
 603:.\Generated_Source\PSoC4/CapSense_CSHL.c **** *  CapSense_sensorEnableMask[0] contains the masked bits for sensors
 604:.\Generated_Source\PSoC4/CapSense_CSHL.c **** *   0 through 7 (sensor 0 is bit 0, sensor 1 is bit 1).
 605:.\Generated_Source\PSoC4/CapSense_CSHL.c **** *  CapSense_sensorEnableMask[1] contains the masked bits for
 606:.\Generated_Source\PSoC4/CapSense_CSHL.c **** *  sensors 8 through 15 (if needed), and so on.
 607:.\Generated_Source\PSoC4/CapSense_CSHL.c **** *  0 - sensor doesn't scan by CapSense_ScanEnabledWidgets().
 608:.\Generated_Source\PSoC4/CapSense_CSHL.c **** *  1 - sensor scans by CapSense_ScanEnabledWidgets().
 609:.\Generated_Source\PSoC4/CapSense_CSHL.c **** *
 610:.\Generated_Source\PSoC4/CapSense_CSHL.c **** * Side Effects:
 611:.\Generated_Source\PSoC4/CapSense_CSHL.c **** *  None
 612:.\Generated_Source\PSoC4/CapSense_CSHL.c **** *
 613:.\Generated_Source\PSoC4/CapSense_CSHL.c **** *******************************************************************************/
 614:.\Generated_Source\PSoC4/CapSense_CSHL.c ****  void CapSense_UpdateEnabledBaselines(void)
 615:.\Generated_Source\PSoC4/CapSense_CSHL.c **** {
 754              		.loc 1 615 0
 755              		.cfi_startproc
 756 0000 80B5     		push	{r7, lr}
 757              		.cfi_def_cfa_offset 8
 758              		.cfi_offset 7, -8
 759              		.cfi_offset 14, -4
 760 0002 82B0     		sub	sp, sp, #8
 761              		.cfi_def_cfa_offset 16
 762 0004 00AF     		add	r7, sp, #0
 763              		.cfi_def_cfa_register 7
 616:.\Generated_Source\PSoC4/CapSense_CSHL.c ****     uint32 i;
 617:.\Generated_Source\PSoC4/CapSense_CSHL.c ****     uint32 isSensorEnabled;
 618:.\Generated_Source\PSoC4/CapSense_CSHL.c **** 
 619:.\Generated_Source\PSoC4/CapSense_CSHL.c ****     for(i = 0u; i < CapSense_TOTAL_SENSOR_COUNT; i++)
 764              		.loc 1 619 0
 765 0006 0023     		mov	r3, #0
 766 0008 7B60     		str	r3, [r7, #4]
 767 000a 11E0     		b	.L34
 768              	.L36:
 620:.\Generated_Source\PSoC4/CapSense_CSHL.c ****     {
 621:.\Generated_Source\PSoC4/CapSense_CSHL.c ****         isSensorEnabled = CapSense_GetBitValue(CapSense_sensorEnableMask, i);
 769              		.loc 1 621 0
 770 000c 0B4A     		ldr	r2, .L37
 771 000e 7B68     		ldr	r3, [r7, #4]
 772 0010 101C     		mov	r0, r2
 773 0012 191C     		mov	r1, r3
 774 0014 FFF7FEFF 		bl	CapSense_GetBitValue
 775 0018 031C     		mov	r3, r0
 776 001a 3B60     		str	r3, [r7]
 622:.\Generated_Source\PSoC4/CapSense_CSHL.c **** 
 623:.\Generated_Source\PSoC4/CapSense_CSHL.c ****         if(0u != isSensorEnabled)
 777              		.loc 1 623 0
 778 001c 3B68     		ldr	r3, [r7]
 779 001e 002B     		cmp	r3, #0
 780 0020 03D0     		beq	.L35
 624:.\Generated_Source\PSoC4/CapSense_CSHL.c ****         {
 625:.\Generated_Source\PSoC4/CapSense_CSHL.c ****             CapSense_UpdateSensorBaseline(i);
 781              		.loc 1 625 0
 782 0022 7B68     		ldr	r3, [r7, #4]
 783 0024 181C     		mov	r0, r3
 784 0026 FFF7FEFF 		bl	CapSense_UpdateSensorBaseline
 785              	.L35:
 619:.\Generated_Source\PSoC4/CapSense_CSHL.c ****     {
ARM GAS  C:\Users\lovelesh\AppData\Local\Temp\ccDxuV7s.s 			page 26


 786              		.loc 1 619 0 discriminator 2
 787 002a 7B68     		ldr	r3, [r7, #4]
 788 002c 0133     		add	r3, r3, #1
 789 002e 7B60     		str	r3, [r7, #4]
 790              	.L34:
 619:.\Generated_Source\PSoC4/CapSense_CSHL.c ****     {
 791              		.loc 1 619 0 is_stmt 0 discriminator 1
 792 0030 7B68     		ldr	r3, [r7, #4]
 793 0032 072B     		cmp	r3, #7
 794 0034 EAD9     		bls	.L36
 626:.\Generated_Source\PSoC4/CapSense_CSHL.c ****         }
 627:.\Generated_Source\PSoC4/CapSense_CSHL.c ****     }
 628:.\Generated_Source\PSoC4/CapSense_CSHL.c **** }
 795              		.loc 1 628 0 is_stmt 1
 796 0036 BD46     		mov	sp, r7
 797 0038 02B0     		add	sp, sp, #8
 798              		@ sp needed
 799 003a 80BD     		pop	{r7, pc}
 800              	.L38:
 801              		.align	2
 802              	.L37:
 803 003c 00000000 		.word	CapSense_sensorEnableMask
 804              		.cfi_endproc
 805              	.LFE40:
 806              		.size	CapSense_UpdateEnabledBaselines, .-CapSense_UpdateEnabledBaselines
 807              		.section	.text.CapSense_UpdateWidgetBaseline,"ax",%progbits
 808              		.align	2
 809              		.global	CapSense_UpdateWidgetBaseline
 810              		.code	16
 811              		.thumb_func
 812              		.type	CapSense_UpdateWidgetBaseline, %function
 813              	CapSense_UpdateWidgetBaseline:
 814              	.LFB41:
 629:.\Generated_Source\PSoC4/CapSense_CSHL.c **** 
 630:.\Generated_Source\PSoC4/CapSense_CSHL.c **** /*******************************************************************************
 631:.\Generated_Source\PSoC4/CapSense_CSHL.c **** * Function Name: CapSense_UpdateWidgetBaseline
 632:.\Generated_Source\PSoC4/CapSense_CSHL.c **** ********************************************************************************
 633:.\Generated_Source\PSoC4/CapSense_CSHL.c **** *
 634:.\Generated_Source\PSoC4/CapSense_CSHL.c **** * Summary:
 635:.\Generated_Source\PSoC4/CapSense_CSHL.c **** *  Checks CapSense_sensorEnableMask[] array and calls the
 636:.\Generated_Source\PSoC4/CapSense_CSHL.c **** *  CapSense_UpdateSensorBaseline function to update the baselines
 637:.\Generated_Source\PSoC4/CapSense_CSHL.c **** *  for the enabled sensors that belong to widget.
 638:.\Generated_Source\PSoC4/CapSense_CSHL.c **** *
 639:.\Generated_Source\PSoC4/CapSense_CSHL.c **** * Parameters:
 640:.\Generated_Source\PSoC4/CapSense_CSHL.c **** *  widget:  Widget number.
 641:.\Generated_Source\PSoC4/CapSense_CSHL.c **** *
 642:.\Generated_Source\PSoC4/CapSense_CSHL.c **** * Return:
 643:.\Generated_Source\PSoC4/CapSense_CSHL.c **** *  None
 644:.\Generated_Source\PSoC4/CapSense_CSHL.c **** *
 645:.\Generated_Source\PSoC4/CapSense_CSHL.c **** * Global Variables:
 646:.\Generated_Source\PSoC4/CapSense_CSHL.c **** *  CapSense_sensorEnableMask[] - used to store the sensor scanning
 647:.\Generated_Source\PSoC4/CapSense_CSHL.c **** *  state.
 648:.\Generated_Source\PSoC4/CapSense_CSHL.c **** *  CapSense_sensorEnableMask[0] contains the masked bits for sensors
 649:.\Generated_Source\PSoC4/CapSense_CSHL.c **** *   0 through 7 (sensor 0 is bit 0, sensor 1 is bit 1).
 650:.\Generated_Source\PSoC4/CapSense_CSHL.c **** *  CapSense_sensorEnableMask[1] contains the masked bits for
 651:.\Generated_Source\PSoC4/CapSense_CSHL.c **** *  sensors 8 through 15 (if needed), and so on.
 652:.\Generated_Source\PSoC4/CapSense_CSHL.c **** *  0 - sensor doesn't scan by CapSense_ScanEnabledWidgets().
ARM GAS  C:\Users\lovelesh\AppData\Local\Temp\ccDxuV7s.s 			page 27


 653:.\Generated_Source\PSoC4/CapSense_CSHL.c **** *  1 - sensor scans by CapSense_ScanEnabledWidgets().
 654:.\Generated_Source\PSoC4/CapSense_CSHL.c **** *
 655:.\Generated_Source\PSoC4/CapSense_CSHL.c **** * Side Effects:
 656:.\Generated_Source\PSoC4/CapSense_CSHL.c **** *  None
 657:.\Generated_Source\PSoC4/CapSense_CSHL.c **** *
 658:.\Generated_Source\PSoC4/CapSense_CSHL.c **** *******************************************************************************/
 659:.\Generated_Source\PSoC4/CapSense_CSHL.c **** void CapSense_UpdateWidgetBaseline(uint32 widget)
 660:.\Generated_Source\PSoC4/CapSense_CSHL.c **** {
 815              		.loc 1 660 0
 816              		.cfi_startproc
 817 0000 80B5     		push	{r7, lr}
 818              		.cfi_def_cfa_offset 8
 819              		.cfi_offset 7, -8
 820              		.cfi_offset 14, -4
 821 0002 88B0     		sub	sp, sp, #32
 822              		.cfi_def_cfa_offset 40
 823 0004 00AF     		add	r7, sp, #0
 824              		.cfi_def_cfa_register 7
 825 0006 7860     		str	r0, [r7, #4]
 661:.\Generated_Source\PSoC4/CapSense_CSHL.c ****     uint32 sensorsPerWidget;
 662:.\Generated_Source\PSoC4/CapSense_CSHL.c ****     uint32 firstSensor;
 663:.\Generated_Source\PSoC4/CapSense_CSHL.c ****     uint32 lastSensor;
 664:.\Generated_Source\PSoC4/CapSense_CSHL.c ****     uint32 i;
 665:.\Generated_Source\PSoC4/CapSense_CSHL.c ****     uint32 isSensorEnabled;
 666:.\Generated_Source\PSoC4/CapSense_CSHL.c **** 
 667:.\Generated_Source\PSoC4/CapSense_CSHL.c ****     /* Get number of sensors in widget */
 668:.\Generated_Source\PSoC4/CapSense_CSHL.c ****     sensorsPerWidget = CapSense_numberOfSensors[widget];
 826              		.loc 1 668 0
 827 0008 164A     		ldr	r2, .L43
 828 000a 7B68     		ldr	r3, [r7, #4]
 829 000c D318     		add	r3, r2, r3
 830 000e 1B78     		ldrb	r3, [r3]
 831 0010 BB61     		str	r3, [r7, #24]
 669:.\Generated_Source\PSoC4/CapSense_CSHL.c **** 
 670:.\Generated_Source\PSoC4/CapSense_CSHL.c ****     /* Get first sensor in widget */
 671:.\Generated_Source\PSoC4/CapSense_CSHL.c ****     firstSensor = CapSense_rawDataIndex[widget];
 832              		.loc 1 671 0
 833 0012 154A     		ldr	r2, .L43+4
 834 0014 7B68     		ldr	r3, [r7, #4]
 835 0016 D318     		add	r3, r2, r3
 836 0018 1B78     		ldrb	r3, [r3]
 837 001a 7B61     		str	r3, [r7, #20]
 672:.\Generated_Source\PSoC4/CapSense_CSHL.c **** 
 673:.\Generated_Source\PSoC4/CapSense_CSHL.c ****     /* Get last sensor in widget */
 674:.\Generated_Source\PSoC4/CapSense_CSHL.c ****     lastSensor = (CapSense_rawDataIndex[widget] + sensorsPerWidget);
 838              		.loc 1 674 0
 839 001c 124A     		ldr	r2, .L43+4
 840 001e 7B68     		ldr	r3, [r7, #4]
 841 0020 D318     		add	r3, r2, r3
 842 0022 1B78     		ldrb	r3, [r3]
 843 0024 1A1C     		mov	r2, r3
 844 0026 BB69     		ldr	r3, [r7, #24]
 845 0028 D318     		add	r3, r2, r3
 846 002a 3B61     		str	r3, [r7, #16]
 675:.\Generated_Source\PSoC4/CapSense_CSHL.c **** 
 676:.\Generated_Source\PSoC4/CapSense_CSHL.c ****     for(i = firstSensor; i < lastSensor; i++)
 847              		.loc 1 676 0
ARM GAS  C:\Users\lovelesh\AppData\Local\Temp\ccDxuV7s.s 			page 28


 848 002c 7B69     		ldr	r3, [r7, #20]
 849 002e FB61     		str	r3, [r7, #28]
 850 0030 11E0     		b	.L40
 851              	.L42:
 677:.\Generated_Source\PSoC4/CapSense_CSHL.c ****     {
 678:.\Generated_Source\PSoC4/CapSense_CSHL.c ****         isSensorEnabled = CapSense_GetBitValue(CapSense_sensorEnableMask, i);
 852              		.loc 1 678 0
 853 0032 0E4A     		ldr	r2, .L43+8
 854 0034 FB69     		ldr	r3, [r7, #28]
 855 0036 101C     		mov	r0, r2
 856 0038 191C     		mov	r1, r3
 857 003a FFF7FEFF 		bl	CapSense_GetBitValue
 858 003e 031C     		mov	r3, r0
 859 0040 FB60     		str	r3, [r7, #12]
 679:.\Generated_Source\PSoC4/CapSense_CSHL.c **** 
 680:.\Generated_Source\PSoC4/CapSense_CSHL.c ****         if(0u != isSensorEnabled)
 860              		.loc 1 680 0
 861 0042 FB68     		ldr	r3, [r7, #12]
 862 0044 002B     		cmp	r3, #0
 863 0046 03D0     		beq	.L41
 681:.\Generated_Source\PSoC4/CapSense_CSHL.c ****         {
 682:.\Generated_Source\PSoC4/CapSense_CSHL.c ****             CapSense_UpdateSensorBaseline(i);
 864              		.loc 1 682 0
 865 0048 FB69     		ldr	r3, [r7, #28]
 866 004a 181C     		mov	r0, r3
 867 004c FFF7FEFF 		bl	CapSense_UpdateSensorBaseline
 868              	.L41:
 676:.\Generated_Source\PSoC4/CapSense_CSHL.c ****     {
 869              		.loc 1 676 0 discriminator 2
 870 0050 FB69     		ldr	r3, [r7, #28]
 871 0052 0133     		add	r3, r3, #1
 872 0054 FB61     		str	r3, [r7, #28]
 873              	.L40:
 676:.\Generated_Source\PSoC4/CapSense_CSHL.c ****     {
 874              		.loc 1 676 0 is_stmt 0 discriminator 1
 875 0056 FA69     		ldr	r2, [r7, #28]
 876 0058 3B69     		ldr	r3, [r7, #16]
 877 005a 9A42     		cmp	r2, r3
 878 005c E9D3     		bcc	.L42
 683:.\Generated_Source\PSoC4/CapSense_CSHL.c ****         }
 684:.\Generated_Source\PSoC4/CapSense_CSHL.c ****     }
 685:.\Generated_Source\PSoC4/CapSense_CSHL.c **** }
 879              		.loc 1 685 0 is_stmt 1
 880 005e BD46     		mov	sp, r7
 881 0060 08B0     		add	sp, sp, #32
 882              		@ sp needed
 883 0062 80BD     		pop	{r7, pc}
 884              	.L44:
 885              		.align	2
 886              	.L43:
 887 0064 00000000 		.word	CapSense_numberOfSensors
 888 0068 00000000 		.word	CapSense_rawDataIndex
 889 006c 00000000 		.word	CapSense_sensorEnableMask
 890              		.cfi_endproc
 891              	.LFE41:
 892              		.size	CapSense_UpdateWidgetBaseline, .-CapSense_UpdateWidgetBaseline
 893              		.section	.text.CapSense_GetBaselineData,"ax",%progbits
ARM GAS  C:\Users\lovelesh\AppData\Local\Temp\ccDxuV7s.s 			page 29


 894              		.align	2
 895              		.global	CapSense_GetBaselineData
 896              		.code	16
 897              		.thumb_func
 898              		.type	CapSense_GetBaselineData, %function
 899              	CapSense_GetBaselineData:
 900              	.LFB42:
 686:.\Generated_Source\PSoC4/CapSense_CSHL.c **** 
 687:.\Generated_Source\PSoC4/CapSense_CSHL.c **** 
 688:.\Generated_Source\PSoC4/CapSense_CSHL.c **** /*******************************************************************************
 689:.\Generated_Source\PSoC4/CapSense_CSHL.c **** * Function Name: CapSense_GetBaselineData
 690:.\Generated_Source\PSoC4/CapSense_CSHL.c **** ********************************************************************************
 691:.\Generated_Source\PSoC4/CapSense_CSHL.c **** *
 692:.\Generated_Source\PSoC4/CapSense_CSHL.c **** * Summary:
 693:.\Generated_Source\PSoC4/CapSense_CSHL.c **** *  This function reads the sensor baseline from the component.
 694:.\Generated_Source\PSoC4/CapSense_CSHL.c **** *
 695:.\Generated_Source\PSoC4/CapSense_CSHL.c **** * Parameters:
 696:.\Generated_Source\PSoC4/CapSense_CSHL.c **** *  sensor:  Sensor number.
 697:.\Generated_Source\PSoC4/CapSense_CSHL.c **** *
 698:.\Generated_Source\PSoC4/CapSense_CSHL.c **** * Return:
 699:.\Generated_Source\PSoC4/CapSense_CSHL.c **** *  This API returns the baseline value of the sensor indicated by an argument.
 700:.\Generated_Source\PSoC4/CapSense_CSHL.c **** *
 701:.\Generated_Source\PSoC4/CapSense_CSHL.c **** * Global Variables:
 702:.\Generated_Source\PSoC4/CapSense_CSHL.c **** *  CapSense_sensorBaseline[] - the array with an initial values by scanning
 703:.\Generated_Source\PSoC4/CapSense_CSHL.c **** *
 704:.\Generated_Source\PSoC4/CapSense_CSHL.c **** * Side Effects:
 705:.\Generated_Source\PSoC4/CapSense_CSHL.c **** *  None
 706:.\Generated_Source\PSoC4/CapSense_CSHL.c **** *
 707:.\Generated_Source\PSoC4/CapSense_CSHL.c **** *******************************************************************************/
 708:.\Generated_Source\PSoC4/CapSense_CSHL.c **** uint16 CapSense_GetBaselineData(uint32 sensor)
 709:.\Generated_Source\PSoC4/CapSense_CSHL.c **** {
 901              		.loc 1 709 0
 902              		.cfi_startproc
 903 0000 80B5     		push	{r7, lr}
 904              		.cfi_def_cfa_offset 8
 905              		.cfi_offset 7, -8
 906              		.cfi_offset 14, -4
 907 0002 82B0     		sub	sp, sp, #8
 908              		.cfi_def_cfa_offset 16
 909 0004 00AF     		add	r7, sp, #0
 910              		.cfi_def_cfa_register 7
 911 0006 7860     		str	r0, [r7, #4]
 710:.\Generated_Source\PSoC4/CapSense_CSHL.c ****     return (CapSense_sensorBaseline[sensor]);
 912              		.loc 1 710 0
 913 0008 034B     		ldr	r3, .L47
 914 000a 7A68     		ldr	r2, [r7, #4]
 915 000c 5200     		lsl	r2, r2, #1
 916 000e D35A     		ldrh	r3, [r2, r3]
 711:.\Generated_Source\PSoC4/CapSense_CSHL.c **** }
 917              		.loc 1 711 0
 918 0010 181C     		mov	r0, r3
 919 0012 BD46     		mov	sp, r7
 920 0014 02B0     		add	sp, sp, #8
 921              		@ sp needed
 922 0016 80BD     		pop	{r7, pc}
 923              	.L48:
 924              		.align	2
ARM GAS  C:\Users\lovelesh\AppData\Local\Temp\ccDxuV7s.s 			page 30


 925              	.L47:
 926 0018 00000000 		.word	CapSense_sensorBaseline
 927              		.cfi_endproc
 928              	.LFE42:
 929              		.size	CapSense_GetBaselineData, .-CapSense_GetBaselineData
 930              		.section	.text.CapSense_SetBaselineData,"ax",%progbits
 931              		.align	2
 932              		.global	CapSense_SetBaselineData
 933              		.code	16
 934              		.thumb_func
 935              		.type	CapSense_SetBaselineData, %function
 936              	CapSense_SetBaselineData:
 937              	.LFB43:
 712:.\Generated_Source\PSoC4/CapSense_CSHL.c **** 
 713:.\Generated_Source\PSoC4/CapSense_CSHL.c **** 
 714:.\Generated_Source\PSoC4/CapSense_CSHL.c **** /*******************************************************************************
 715:.\Generated_Source\PSoC4/CapSense_CSHL.c **** * Function Name: CapSense_SetBaselineData
 716:.\Generated_Source\PSoC4/CapSense_CSHL.c **** ********************************************************************************
 717:.\Generated_Source\PSoC4/CapSense_CSHL.c **** *
 718:.\Generated_Source\PSoC4/CapSense_CSHL.c **** * Summary:
 719:.\Generated_Source\PSoC4/CapSense_CSHL.c **** *  This API writes the data value passed as an argument to the sensor baseline array.
 720:.\Generated_Source\PSoC4/CapSense_CSHL.c **** *
 721:.\Generated_Source\PSoC4/CapSense_CSHL.c **** * Parameters:
 722:.\Generated_Source\PSoC4/CapSense_CSHL.c **** *  sensor:  Sensor number.
 723:.\Generated_Source\PSoC4/CapSense_CSHL.c **** *  data:    Sensor baseline.
 724:.\Generated_Source\PSoC4/CapSense_CSHL.c **** *
 725:.\Generated_Source\PSoC4/CapSense_CSHL.c **** * Return:
 726:.\Generated_Source\PSoC4/CapSense_CSHL.c **** *  None.
 727:.\Generated_Source\PSoC4/CapSense_CSHL.c **** *
 728:.\Generated_Source\PSoC4/CapSense_CSHL.c **** * Global Variables:
 729:.\Generated_Source\PSoC4/CapSense_CSHL.c **** *  CapSense_sensorBaseline[] - the array with initial values by scanning
 730:.\Generated_Source\PSoC4/CapSense_CSHL.c **** *
 731:.\Generated_Source\PSoC4/CapSense_CSHL.c **** * Side Effects:
 732:.\Generated_Source\PSoC4/CapSense_CSHL.c **** *  None
 733:.\Generated_Source\PSoC4/CapSense_CSHL.c **** *
 734:.\Generated_Source\PSoC4/CapSense_CSHL.c **** *******************************************************************************/
 735:.\Generated_Source\PSoC4/CapSense_CSHL.c **** void CapSense_SetBaselineData(uint32 sensor, uint16 data)
 736:.\Generated_Source\PSoC4/CapSense_CSHL.c **** {
 938              		.loc 1 736 0
 939              		.cfi_startproc
 940 0000 80B5     		push	{r7, lr}
 941              		.cfi_def_cfa_offset 8
 942              		.cfi_offset 7, -8
 943              		.cfi_offset 14, -4
 944 0002 82B0     		sub	sp, sp, #8
 945              		.cfi_def_cfa_offset 16
 946 0004 00AF     		add	r7, sp, #0
 947              		.cfi_def_cfa_register 7
 948 0006 7860     		str	r0, [r7, #4]
 949 0008 0A1C     		mov	r2, r1
 950 000a BB1C     		add	r3, r7, #2
 951 000c 1A80     		strh	r2, [r3]
 737:.\Generated_Source\PSoC4/CapSense_CSHL.c ****     CapSense_sensorBaseline[sensor] = data;
 952              		.loc 1 737 0
 953 000e 044B     		ldr	r3, .L50
 954 0010 7A68     		ldr	r2, [r7, #4]
 955 0012 5200     		lsl	r2, r2, #1
ARM GAS  C:\Users\lovelesh\AppData\Local\Temp\ccDxuV7s.s 			page 31


 956 0014 B91C     		add	r1, r7, #2
 957 0016 0988     		ldrh	r1, [r1]
 958 0018 D152     		strh	r1, [r2, r3]
 738:.\Generated_Source\PSoC4/CapSense_CSHL.c **** }
 959              		.loc 1 738 0
 960 001a BD46     		mov	sp, r7
 961 001c 02B0     		add	sp, sp, #8
 962              		@ sp needed
 963 001e 80BD     		pop	{r7, pc}
 964              	.L51:
 965              		.align	2
 966              	.L50:
 967 0020 00000000 		.word	CapSense_sensorBaseline
 968              		.cfi_endproc
 969              	.LFE43:
 970              		.size	CapSense_SetBaselineData, .-CapSense_SetBaselineData
 971              		.section	.text.CapSense_GetDiffCountData,"ax",%progbits
 972              		.align	2
 973              		.global	CapSense_GetDiffCountData
 974              		.code	16
 975              		.thumb_func
 976              		.type	CapSense_GetDiffCountData, %function
 977              	CapSense_GetDiffCountData:
 978              	.LFB44:
 739:.\Generated_Source\PSoC4/CapSense_CSHL.c **** 
 740:.\Generated_Source\PSoC4/CapSense_CSHL.c **** 
 741:.\Generated_Source\PSoC4/CapSense_CSHL.c **** /*******************************************************************************
 742:.\Generated_Source\PSoC4/CapSense_CSHL.c **** * Function Name: CapSense_GetDiffCountData
 743:.\Generated_Source\PSoC4/CapSense_CSHL.c **** ********************************************************************************
 744:.\Generated_Source\PSoC4/CapSense_CSHL.c **** *
 745:.\Generated_Source\PSoC4/CapSense_CSHL.c **** * Summary:
 746:.\Generated_Source\PSoC4/CapSense_CSHL.c **** *  This function returns the Sensor Signal from the component.
 747:.\Generated_Source\PSoC4/CapSense_CSHL.c **** *
 748:.\Generated_Source\PSoC4/CapSense_CSHL.c **** * Parameters:
 749:.\Generated_Source\PSoC4/CapSense_CSHL.c **** *  sensor:  Sensor number.
 750:.\Generated_Source\PSoC4/CapSense_CSHL.c **** *
 751:.\Generated_Source\PSoC4/CapSense_CSHL.c **** * Return:
 752:.\Generated_Source\PSoC4/CapSense_CSHL.c **** *  This API returns the difference count value of the sensor indicated by the
 753:.\Generated_Source\PSoC4/CapSense_CSHL.c **** *  argument.
 754:.\Generated_Source\PSoC4/CapSense_CSHL.c **** *
 755:.\Generated_Source\PSoC4/CapSense_CSHL.c **** * Global Variables:
 756:.\Generated_Source\PSoC4/CapSense_CSHL.c **** *  CapSense_sensorSignal[] - the array with difference counts for sensors
 757:.\Generated_Source\PSoC4/CapSense_CSHL.c **** *
 758:.\Generated_Source\PSoC4/CapSense_CSHL.c **** * Side Effects:
 759:.\Generated_Source\PSoC4/CapSense_CSHL.c **** *  None
 760:.\Generated_Source\PSoC4/CapSense_CSHL.c **** *
 761:.\Generated_Source\PSoC4/CapSense_CSHL.c **** *******************************************************************************/
 762:.\Generated_Source\PSoC4/CapSense_CSHL.c **** uint8 CapSense_GetDiffCountData(uint32 sensor)
 763:.\Generated_Source\PSoC4/CapSense_CSHL.c **** {
 979              		.loc 1 763 0
 980              		.cfi_startproc
 981 0000 80B5     		push	{r7, lr}
 982              		.cfi_def_cfa_offset 8
 983              		.cfi_offset 7, -8
 984              		.cfi_offset 14, -4
 985 0002 82B0     		sub	sp, sp, #8
 986              		.cfi_def_cfa_offset 16
ARM GAS  C:\Users\lovelesh\AppData\Local\Temp\ccDxuV7s.s 			page 32


 987 0004 00AF     		add	r7, sp, #0
 988              		.cfi_def_cfa_register 7
 989 0006 7860     		str	r0, [r7, #4]
 764:.\Generated_Source\PSoC4/CapSense_CSHL.c ****     return (CapSense_sensorSignal[sensor]);
 990              		.loc 1 764 0
 991 0008 034A     		ldr	r2, .L54
 992 000a 7B68     		ldr	r3, [r7, #4]
 993 000c D318     		add	r3, r2, r3
 994 000e 1B78     		ldrb	r3, [r3]
 765:.\Generated_Source\PSoC4/CapSense_CSHL.c **** }
 995              		.loc 1 765 0
 996 0010 181C     		mov	r0, r3
 997 0012 BD46     		mov	sp, r7
 998 0014 02B0     		add	sp, sp, #8
 999              		@ sp needed
 1000 0016 80BD     		pop	{r7, pc}
 1001              	.L55:
 1002              		.align	2
 1003              	.L54:
 1004 0018 00000000 		.word	CapSense_sensorSignal
 1005              		.cfi_endproc
 1006              	.LFE44:
 1007              		.size	CapSense_GetDiffCountData, .-CapSense_GetDiffCountData
 1008              		.section	.text.CapSense_SetDiffCountData,"ax",%progbits
 1009              		.align	2
 1010              		.global	CapSense_SetDiffCountData
 1011              		.code	16
 1012              		.thumb_func
 1013              		.type	CapSense_SetDiffCountData, %function
 1014              	CapSense_SetDiffCountData:
 1015              	.LFB45:
 766:.\Generated_Source\PSoC4/CapSense_CSHL.c **** 
 767:.\Generated_Source\PSoC4/CapSense_CSHL.c **** 
 768:.\Generated_Source\PSoC4/CapSense_CSHL.c **** /*******************************************************************************
 769:.\Generated_Source\PSoC4/CapSense_CSHL.c **** * Function Name: CapSense_SetDiffCountData
 770:.\Generated_Source\PSoC4/CapSense_CSHL.c **** ********************************************************************************
 771:.\Generated_Source\PSoC4/CapSense_CSHL.c **** *
 772:.\Generated_Source\PSoC4/CapSense_CSHL.c **** * Summary:
 773:.\Generated_Source\PSoC4/CapSense_CSHL.c **** *  This API writes the data value passed as an argument to the sensor signal array.
 774:.\Generated_Source\PSoC4/CapSense_CSHL.c **** *
 775:.\Generated_Source\PSoC4/CapSense_CSHL.c **** * Parameters:
 776:.\Generated_Source\PSoC4/CapSense_CSHL.c **** *  sensor:  Sensor number.
 777:.\Generated_Source\PSoC4/CapSense_CSHL.c **** *  value:   Sensor signal.
 778:.\Generated_Source\PSoC4/CapSense_CSHL.c **** *
 779:.\Generated_Source\PSoC4/CapSense_CSHL.c **** * Return:
 780:.\Generated_Source\PSoC4/CapSense_CSHL.c **** *  None.
 781:.\Generated_Source\PSoC4/CapSense_CSHL.c **** *
 782:.\Generated_Source\PSoC4/CapSense_CSHL.c **** * Global Variables:
 783:.\Generated_Source\PSoC4/CapSense_CSHL.c **** *  CapSense_sensorSignal[] - the array with difference counts for sensors
 784:.\Generated_Source\PSoC4/CapSense_CSHL.c **** *
 785:.\Generated_Source\PSoC4/CapSense_CSHL.c **** * Side Effects:
 786:.\Generated_Source\PSoC4/CapSense_CSHL.c **** *  None
 787:.\Generated_Source\PSoC4/CapSense_CSHL.c **** *
 788:.\Generated_Source\PSoC4/CapSense_CSHL.c **** *******************************************************************************/
 789:.\Generated_Source\PSoC4/CapSense_CSHL.c **** void CapSense_SetDiffCountData(uint32 sensor, uint8 value)
 790:.\Generated_Source\PSoC4/CapSense_CSHL.c **** {
 1016              		.loc 1 790 0
ARM GAS  C:\Users\lovelesh\AppData\Local\Temp\ccDxuV7s.s 			page 33


 1017              		.cfi_startproc
 1018 0000 80B5     		push	{r7, lr}
 1019              		.cfi_def_cfa_offset 8
 1020              		.cfi_offset 7, -8
 1021              		.cfi_offset 14, -4
 1022 0002 82B0     		sub	sp, sp, #8
 1023              		.cfi_def_cfa_offset 16
 1024 0004 00AF     		add	r7, sp, #0
 1025              		.cfi_def_cfa_register 7
 1026 0006 7860     		str	r0, [r7, #4]
 1027 0008 0A1C     		mov	r2, r1
 1028 000a FB1C     		add	r3, r7, #3
 1029 000c 1A70     		strb	r2, [r3]
 791:.\Generated_Source\PSoC4/CapSense_CSHL.c ****     CapSense_sensorSignal[sensor] = value;
 1030              		.loc 1 791 0
 1031 000e 044A     		ldr	r2, .L57
 1032 0010 7B68     		ldr	r3, [r7, #4]
 1033 0012 D318     		add	r3, r2, r3
 1034 0014 FA1C     		add	r2, r7, #3
 1035 0016 1278     		ldrb	r2, [r2]
 1036 0018 1A70     		strb	r2, [r3]
 792:.\Generated_Source\PSoC4/CapSense_CSHL.c **** }
 1037              		.loc 1 792 0
 1038 001a BD46     		mov	sp, r7
 1039 001c 02B0     		add	sp, sp, #8
 1040              		@ sp needed
 1041 001e 80BD     		pop	{r7, pc}
 1042              	.L58:
 1043              		.align	2
 1044              	.L57:
 1045 0020 00000000 		.word	CapSense_sensorSignal
 1046              		.cfi_endproc
 1047              	.LFE45:
 1048              		.size	CapSense_SetDiffCountData, .-CapSense_SetDiffCountData
 1049              		.section	.text.CapSense_GetFingerThreshold,"ax",%progbits
 1050              		.align	2
 1051              		.global	CapSense_GetFingerThreshold
 1052              		.code	16
 1053              		.thumb_func
 1054              		.type	CapSense_GetFingerThreshold, %function
 1055              	CapSense_GetFingerThreshold:
 1056              	.LFB46:
 793:.\Generated_Source\PSoC4/CapSense_CSHL.c **** 
 794:.\Generated_Source\PSoC4/CapSense_CSHL.c **** 
 795:.\Generated_Source\PSoC4/CapSense_CSHL.c **** /*******************************************************************************
 796:.\Generated_Source\PSoC4/CapSense_CSHL.c **** * Function Name: CapSense_GetFingerThreshold
 797:.\Generated_Source\PSoC4/CapSense_CSHL.c **** ********************************************************************************
 798:.\Generated_Source\PSoC4/CapSense_CSHL.c **** *
 799:.\Generated_Source\PSoC4/CapSense_CSHL.c **** * Summary:
 800:.\Generated_Source\PSoC4/CapSense_CSHL.c **** *  This function reads the finger threshold from the component.
 801:.\Generated_Source\PSoC4/CapSense_CSHL.c **** *
 802:.\Generated_Source\PSoC4/CapSense_CSHL.c **** * Parameters:
 803:.\Generated_Source\PSoC4/CapSense_CSHL.c **** *  widget:  widget number.
 804:.\Generated_Source\PSoC4/CapSense_CSHL.c **** *
 805:.\Generated_Source\PSoC4/CapSense_CSHL.c **** * Return:
 806:.\Generated_Source\PSoC4/CapSense_CSHL.c **** *  This API returns the finger threshold of the widget indicated by the argument.
 807:.\Generated_Source\PSoC4/CapSense_CSHL.c **** *
ARM GAS  C:\Users\lovelesh\AppData\Local\Temp\ccDxuV7s.s 			page 34


 808:.\Generated_Source\PSoC4/CapSense_CSHL.c **** * Global Variables:
 809:.\Generated_Source\PSoC4/CapSense_CSHL.c **** *  CapSense_fingerThreshold[] - This array contains the level of signal
 810:.\Generated_Source\PSoC4/CapSense_CSHL.c **** *  for each widget that is determined if a finger is present on the widget.
 811:.\Generated_Source\PSoC4/CapSense_CSHL.c **** *
 812:.\Generated_Source\PSoC4/CapSense_CSHL.c **** * Side Effects:
 813:.\Generated_Source\PSoC4/CapSense_CSHL.c **** *  None
 814:.\Generated_Source\PSoC4/CapSense_CSHL.c **** *
 815:.\Generated_Source\PSoC4/CapSense_CSHL.c **** *******************************************************************************/
 816:.\Generated_Source\PSoC4/CapSense_CSHL.c **** uint8 CapSense_GetFingerThreshold(uint32 widget)
 817:.\Generated_Source\PSoC4/CapSense_CSHL.c **** {
 1057              		.loc 1 817 0
 1058              		.cfi_startproc
 1059 0000 80B5     		push	{r7, lr}
 1060              		.cfi_def_cfa_offset 8
 1061              		.cfi_offset 7, -8
 1062              		.cfi_offset 14, -4
 1063 0002 82B0     		sub	sp, sp, #8
 1064              		.cfi_def_cfa_offset 16
 1065 0004 00AF     		add	r7, sp, #0
 1066              		.cfi_def_cfa_register 7
 1067 0006 7860     		str	r0, [r7, #4]
 818:.\Generated_Source\PSoC4/CapSense_CSHL.c ****     return(CapSense_fingerThreshold[widget]);
 1068              		.loc 1 818 0
 1069 0008 034A     		ldr	r2, .L61
 1070 000a 7B68     		ldr	r3, [r7, #4]
 1071 000c D318     		add	r3, r2, r3
 1072 000e 1B78     		ldrb	r3, [r3]
 819:.\Generated_Source\PSoC4/CapSense_CSHL.c **** }
 1073              		.loc 1 819 0
 1074 0010 181C     		mov	r0, r3
 1075 0012 BD46     		mov	sp, r7
 1076 0014 02B0     		add	sp, sp, #8
 1077              		@ sp needed
 1078 0016 80BD     		pop	{r7, pc}
 1079              	.L62:
 1080              		.align	2
 1081              	.L61:
 1082 0018 00000000 		.word	CapSense_fingerThreshold
 1083              		.cfi_endproc
 1084              	.LFE46:
 1085              		.size	CapSense_GetFingerThreshold, .-CapSense_GetFingerThreshold
 1086              		.section	.text.CapSense_GetNoiseThreshold,"ax",%progbits
 1087              		.align	2
 1088              		.global	CapSense_GetNoiseThreshold
 1089              		.code	16
 1090              		.thumb_func
 1091              		.type	CapSense_GetNoiseThreshold, %function
 1092              	CapSense_GetNoiseThreshold:
 1093              	.LFB47:
 820:.\Generated_Source\PSoC4/CapSense_CSHL.c **** 
 821:.\Generated_Source\PSoC4/CapSense_CSHL.c **** 
 822:.\Generated_Source\PSoC4/CapSense_CSHL.c **** /*******************************************************************************
 823:.\Generated_Source\PSoC4/CapSense_CSHL.c **** * Function Name: CapSense_GetNoiseThreshold
 824:.\Generated_Source\PSoC4/CapSense_CSHL.c **** ********************************************************************************
 825:.\Generated_Source\PSoC4/CapSense_CSHL.c **** *
 826:.\Generated_Source\PSoC4/CapSense_CSHL.c **** * Summary:
 827:.\Generated_Source\PSoC4/CapSense_CSHL.c **** *  This function reads the noise threshold from the component.
ARM GAS  C:\Users\lovelesh\AppData\Local\Temp\ccDxuV7s.s 			page 35


 828:.\Generated_Source\PSoC4/CapSense_CSHL.c **** *
 829:.\Generated_Source\PSoC4/CapSense_CSHL.c **** * Parameters:
 830:.\Generated_Source\PSoC4/CapSense_CSHL.c **** *  widget:  widget number.
 831:.\Generated_Source\PSoC4/CapSense_CSHL.c **** *
 832:.\Generated_Source\PSoC4/CapSense_CSHL.c **** * Return:
 833:.\Generated_Source\PSoC4/CapSense_CSHL.c **** *  This API returns the noise threshold of the widget indicated by the argument.
 834:.\Generated_Source\PSoC4/CapSense_CSHL.c **** *
 835:.\Generated_Source\PSoC4/CapSense_CSHL.c **** * Global Variables:
 836:.\Generated_Source\PSoC4/CapSense_CSHL.c **** *  CapSense_noiseThreshold[] - This array contains the level of signal
 837:.\Generated_Source\PSoC4/CapSense_CSHL.c **** *  for each widget that determines the level of noise in the capacitive scan.
 838:.\Generated_Source\PSoC4/CapSense_CSHL.c **** *
 839:.\Generated_Source\PSoC4/CapSense_CSHL.c **** * Side Effects:
 840:.\Generated_Source\PSoC4/CapSense_CSHL.c **** *  None
 841:.\Generated_Source\PSoC4/CapSense_CSHL.c **** *
 842:.\Generated_Source\PSoC4/CapSense_CSHL.c **** *******************************************************************************/
 843:.\Generated_Source\PSoC4/CapSense_CSHL.c **** uint8 CapSense_GetNoiseThreshold(uint32 widget)
 844:.\Generated_Source\PSoC4/CapSense_CSHL.c **** {
 1094              		.loc 1 844 0
 1095              		.cfi_startproc
 1096 0000 80B5     		push	{r7, lr}
 1097              		.cfi_def_cfa_offset 8
 1098              		.cfi_offset 7, -8
 1099              		.cfi_offset 14, -4
 1100 0002 82B0     		sub	sp, sp, #8
 1101              		.cfi_def_cfa_offset 16
 1102 0004 00AF     		add	r7, sp, #0
 1103              		.cfi_def_cfa_register 7
 1104 0006 7860     		str	r0, [r7, #4]
 845:.\Generated_Source\PSoC4/CapSense_CSHL.c ****     return (CapSense_noiseThreshold[widget]);
 1105              		.loc 1 845 0
 1106 0008 034A     		ldr	r2, .L65
 1107 000a 7B68     		ldr	r3, [r7, #4]
 1108 000c D318     		add	r3, r2, r3
 1109 000e 1B78     		ldrb	r3, [r3]
 846:.\Generated_Source\PSoC4/CapSense_CSHL.c **** }
 1110              		.loc 1 846 0
 1111 0010 181C     		mov	r0, r3
 1112 0012 BD46     		mov	sp, r7
 1113 0014 02B0     		add	sp, sp, #8
 1114              		@ sp needed
 1115 0016 80BD     		pop	{r7, pc}
 1116              	.L66:
 1117              		.align	2
 1118              	.L65:
 1119 0018 00000000 		.word	CapSense_noiseThreshold
 1120              		.cfi_endproc
 1121              	.LFE47:
 1122              		.size	CapSense_GetNoiseThreshold, .-CapSense_GetNoiseThreshold
 1123              		.section	.text.CapSense_GetFingerHysteresis,"ax",%progbits
 1124              		.align	2
 1125              		.global	CapSense_GetFingerHysteresis
 1126              		.code	16
 1127              		.thumb_func
 1128              		.type	CapSense_GetFingerHysteresis, %function
 1129              	CapSense_GetFingerHysteresis:
 1130              	.LFB48:
 847:.\Generated_Source\PSoC4/CapSense_CSHL.c **** 
ARM GAS  C:\Users\lovelesh\AppData\Local\Temp\ccDxuV7s.s 			page 36


 848:.\Generated_Source\PSoC4/CapSense_CSHL.c **** 
 849:.\Generated_Source\PSoC4/CapSense_CSHL.c **** /*******************************************************************************
 850:.\Generated_Source\PSoC4/CapSense_CSHL.c **** * Function Name: CapSense_GetFingerHysteresis
 851:.\Generated_Source\PSoC4/CapSense_CSHL.c **** ********************************************************************************
 852:.\Generated_Source\PSoC4/CapSense_CSHL.c **** *
 853:.\Generated_Source\PSoC4/CapSense_CSHL.c **** * Summary:
 854:.\Generated_Source\PSoC4/CapSense_CSHL.c **** *  This function reads the Hysteresis value from the component.
 855:.\Generated_Source\PSoC4/CapSense_CSHL.c **** *
 856:.\Generated_Source\PSoC4/CapSense_CSHL.c **** * Parameters:
 857:.\Generated_Source\PSoC4/CapSense_CSHL.c **** *  widget:  widget number.
 858:.\Generated_Source\PSoC4/CapSense_CSHL.c **** *
 859:.\Generated_Source\PSoC4/CapSense_CSHL.c **** * Return:
 860:.\Generated_Source\PSoC4/CapSense_CSHL.c **** *  This API returns the Hysteresis of the widget indicated by the argument.
 861:.\Generated_Source\PSoC4/CapSense_CSHL.c **** *
 862:.\Generated_Source\PSoC4/CapSense_CSHL.c **** * Global Variables:
 863:.\Generated_Source\PSoC4/CapSense_CSHL.c **** *  CapSense_hysteresis[] - This array contains the hysteresis value
 864:.\Generated_Source\PSoC4/CapSense_CSHL.c **** *   for each widget.
 865:.\Generated_Source\PSoC4/CapSense_CSHL.c **** *  CapSense_widgetNumberSld - structure with dynamic sliders' parameters.
 866:.\Generated_Source\PSoC4/CapSense_CSHL.c **** *
 867:.\Generated_Source\PSoC4/CapSense_CSHL.c **** * Side Effects:
 868:.\Generated_Source\PSoC4/CapSense_CSHL.c **** *  None
 869:.\Generated_Source\PSoC4/CapSense_CSHL.c **** *
 870:.\Generated_Source\PSoC4/CapSense_CSHL.c **** *******************************************************************************/
 871:.\Generated_Source\PSoC4/CapSense_CSHL.c **** uint8 CapSense_GetFingerHysteresis(uint32 widget)
 872:.\Generated_Source\PSoC4/CapSense_CSHL.c **** {
 1131              		.loc 1 872 0
 1132              		.cfi_startproc
 1133 0000 80B5     		push	{r7, lr}
 1134              		.cfi_def_cfa_offset 8
 1135              		.cfi_offset 7, -8
 1136              		.cfi_offset 14, -4
 1137 0002 82B0     		sub	sp, sp, #8
 1138              		.cfi_def_cfa_offset 16
 1139 0004 00AF     		add	r7, sp, #0
 1140              		.cfi_def_cfa_register 7
 1141 0006 7860     		str	r0, [r7, #4]
 873:.\Generated_Source\PSoC4/CapSense_CSHL.c ****     return(CapSense_hysteresis[widget]);
 1142              		.loc 1 873 0
 1143 0008 034A     		ldr	r2, .L69
 1144 000a 7B68     		ldr	r3, [r7, #4]
 1145 000c D318     		add	r3, r2, r3
 1146 000e 1B78     		ldrb	r3, [r3]
 874:.\Generated_Source\PSoC4/CapSense_CSHL.c **** }
 1147              		.loc 1 874 0
 1148 0010 181C     		mov	r0, r3
 1149 0012 BD46     		mov	sp, r7
 1150 0014 02B0     		add	sp, sp, #8
 1151              		@ sp needed
 1152 0016 80BD     		pop	{r7, pc}
 1153              	.L70:
 1154              		.align	2
 1155              	.L69:
 1156 0018 00000000 		.word	CapSense_hysteresis
 1157              		.cfi_endproc
 1158              	.LFE48:
 1159              		.size	CapSense_GetFingerHysteresis, .-CapSense_GetFingerHysteresis
 1160              		.section	.text.CapSense_GetNegativeNoiseThreshold,"ax",%progbits
ARM GAS  C:\Users\lovelesh\AppData\Local\Temp\ccDxuV7s.s 			page 37


 1161              		.align	2
 1162              		.global	CapSense_GetNegativeNoiseThreshold
 1163              		.code	16
 1164              		.thumb_func
 1165              		.type	CapSense_GetNegativeNoiseThreshold, %function
 1166              	CapSense_GetNegativeNoiseThreshold:
 1167              	.LFB49:
 875:.\Generated_Source\PSoC4/CapSense_CSHL.c **** 
 876:.\Generated_Source\PSoC4/CapSense_CSHL.c **** 
 877:.\Generated_Source\PSoC4/CapSense_CSHL.c **** /*******************************************************************************
 878:.\Generated_Source\PSoC4/CapSense_CSHL.c **** * Function Name: CapSense_GetNegativeNoiseThreshold
 879:.\Generated_Source\PSoC4/CapSense_CSHL.c **** ********************************************************************************
 880:.\Generated_Source\PSoC4/CapSense_CSHL.c **** *
 881:.\Generated_Source\PSoC4/CapSense_CSHL.c **** * Summary:
 882:.\Generated_Source\PSoC4/CapSense_CSHL.c **** *  This function reads the negative noise threshold from the component.
 883:.\Generated_Source\PSoC4/CapSense_CSHL.c **** *
 884:.\Generated_Source\PSoC4/CapSense_CSHL.c **** * Parameters:
 885:.\Generated_Source\PSoC4/CapSense_CSHL.c **** *  None.
 886:.\Generated_Source\PSoC4/CapSense_CSHL.c **** *
 887:.\Generated_Source\PSoC4/CapSense_CSHL.c **** * Return Value:
 888:.\Generated_Source\PSoC4/CapSense_CSHL.c **** *  This API returns the negative noise threshold
 889:.\Generated_Source\PSoC4/CapSense_CSHL.c **** *
 890:.\Generated_Source\PSoC4/CapSense_CSHL.c **** * Global Variables:
 891:.\Generated_Source\PSoC4/CapSense_CSHL.c **** *  CapSense_negativeNoiseThreshold - This variable specifies the negative
 892:.\Generated_Source\PSoC4/CapSense_CSHL.c **** *   difference between the raw count and baseline levels for Baseline resetting
 893:.\Generated_Source\PSoC4/CapSense_CSHL.c **** *   to the raw count level.
 894:.\Generated_Source\PSoC4/CapSense_CSHL.c **** *
 895:.\Generated_Source\PSoC4/CapSense_CSHL.c **** * Side Effects:
 896:.\Generated_Source\PSoC4/CapSense_CSHL.c **** *  None
 897:.\Generated_Source\PSoC4/CapSense_CSHL.c **** *
 898:.\Generated_Source\PSoC4/CapSense_CSHL.c **** *******************************************************************************/
 899:.\Generated_Source\PSoC4/CapSense_CSHL.c **** uint8 CapSense_GetNegativeNoiseThreshold(uint32 widget)
 900:.\Generated_Source\PSoC4/CapSense_CSHL.c **** {
 1168              		.loc 1 900 0
 1169              		.cfi_startproc
 1170 0000 80B5     		push	{r7, lr}
 1171              		.cfi_def_cfa_offset 8
 1172              		.cfi_offset 7, -8
 1173              		.cfi_offset 14, -4
 1174 0002 82B0     		sub	sp, sp, #8
 1175              		.cfi_def_cfa_offset 16
 1176 0004 00AF     		add	r7, sp, #0
 1177              		.cfi_def_cfa_register 7
 1178 0006 7860     		str	r0, [r7, #4]
 901:.\Generated_Source\PSoC4/CapSense_CSHL.c **** #if (CapSense_TUNING_METHOD != CapSense__TUNING_NONE)
 902:.\Generated_Source\PSoC4/CapSense_CSHL.c ****     return(CapSense_negativeNoiseThreshold[widget]);
 1179              		.loc 1 902 0
 1180 0008 034A     		ldr	r2, .L73
 1181 000a 7B68     		ldr	r3, [r7, #4]
 1182 000c D318     		add	r3, r2, r3
 1183 000e 1B78     		ldrb	r3, [r3]
 903:.\Generated_Source\PSoC4/CapSense_CSHL.c **** #else
 904:.\Generated_Source\PSoC4/CapSense_CSHL.c ****     return(CapSense_NEGATIVE_NOISE_THRESHOLD);
 905:.\Generated_Source\PSoC4/CapSense_CSHL.c **** #endif /* (CapSense_TUNING_METHOD != CapSense__TUNING_NONE) */
 906:.\Generated_Source\PSoC4/CapSense_CSHL.c **** }
 1184              		.loc 1 906 0
 1185 0010 181C     		mov	r0, r3
ARM GAS  C:\Users\lovelesh\AppData\Local\Temp\ccDxuV7s.s 			page 38


 1186 0012 BD46     		mov	sp, r7
 1187 0014 02B0     		add	sp, sp, #8
 1188              		@ sp needed
 1189 0016 80BD     		pop	{r7, pc}
 1190              	.L74:
 1191              		.align	2
 1192              	.L73:
 1193 0018 00000000 		.word	CapSense_negativeNoiseThreshold
 1194              		.cfi_endproc
 1195              	.LFE49:
 1196              		.size	CapSense_GetNegativeNoiseThreshold, .-CapSense_GetNegativeNoiseThreshold
 1197              		.section	.text.CapSense_SetFingerThreshold,"ax",%progbits
 1198              		.align	2
 1199              		.global	CapSense_SetFingerThreshold
 1200              		.code	16
 1201              		.thumb_func
 1202              		.type	CapSense_SetFingerThreshold, %function
 1203              	CapSense_SetFingerThreshold:
 1204              	.LFB50:
 907:.\Generated_Source\PSoC4/CapSense_CSHL.c **** 
 908:.\Generated_Source\PSoC4/CapSense_CSHL.c **** 
 909:.\Generated_Source\PSoC4/CapSense_CSHL.c **** #if(CapSense_TUNING_METHOD != CapSense__TUNING_NONE)
 910:.\Generated_Source\PSoC4/CapSense_CSHL.c ****     /*******************************************************************************
 911:.\Generated_Source\PSoC4/CapSense_CSHL.c ****     * Function Name: CapSense_SetFingerThreshold
 912:.\Generated_Source\PSoC4/CapSense_CSHL.c ****     ********************************************************************************
 913:.\Generated_Source\PSoC4/CapSense_CSHL.c ****     *
 914:.\Generated_Source\PSoC4/CapSense_CSHL.c ****     * Summary:
 915:.\Generated_Source\PSoC4/CapSense_CSHL.c ****     *  This API sets the finger threshold value for a widget.
 916:.\Generated_Source\PSoC4/CapSense_CSHL.c ****     *
 917:.\Generated_Source\PSoC4/CapSense_CSHL.c ****     * Parameters:
 918:.\Generated_Source\PSoC4/CapSense_CSHL.c ****     *  sensorNumber:  widget index.
 919:.\Generated_Source\PSoC4/CapSense_CSHL.c ****     *  value:  Finger threshold value for the widget.
 920:.\Generated_Source\PSoC4/CapSense_CSHL.c ****     *
 921:.\Generated_Source\PSoC4/CapSense_CSHL.c ****     * Return Value:
 922:.\Generated_Source\PSoC4/CapSense_CSHL.c ****     *  None
 923:.\Generated_Source\PSoC4/CapSense_CSHL.c ****     *
 924:.\Generated_Source\PSoC4/CapSense_CSHL.c ****     * Global Variables:
 925:.\Generated_Source\PSoC4/CapSense_CSHL.c ****     *  CapSense_fingerThreshold[] - This array contains the level of signal
 926:.\Generated_Source\PSoC4/CapSense_CSHL.c ****     *   for each widget that determines if a finger is present on the widget.
 927:.\Generated_Source\PSoC4/CapSense_CSHL.c ****     *
 928:.\Generated_Source\PSoC4/CapSense_CSHL.c ****     * Side Effects:
 929:.\Generated_Source\PSoC4/CapSense_CSHL.c ****     *  None
 930:.\Generated_Source\PSoC4/CapSense_CSHL.c ****     *
 931:.\Generated_Source\PSoC4/CapSense_CSHL.c ****     *******************************************************************************/
 932:.\Generated_Source\PSoC4/CapSense_CSHL.c ****     void CapSense_SetFingerThreshold(uint32 widget, uint8 value)
 933:.\Generated_Source\PSoC4/CapSense_CSHL.c ****     {
 1205              		.loc 1 933 0
 1206              		.cfi_startproc
 1207 0000 80B5     		push	{r7, lr}
 1208              		.cfi_def_cfa_offset 8
 1209              		.cfi_offset 7, -8
 1210              		.cfi_offset 14, -4
 1211 0002 82B0     		sub	sp, sp, #8
 1212              		.cfi_def_cfa_offset 16
 1213 0004 00AF     		add	r7, sp, #0
 1214              		.cfi_def_cfa_register 7
 1215 0006 7860     		str	r0, [r7, #4]
ARM GAS  C:\Users\lovelesh\AppData\Local\Temp\ccDxuV7s.s 			page 39


 1216 0008 0A1C     		mov	r2, r1
 1217 000a FB1C     		add	r3, r7, #3
 1218 000c 1A70     		strb	r2, [r3]
 934:.\Generated_Source\PSoC4/CapSense_CSHL.c ****         CapSense_fingerThreshold[widget] = value;
 1219              		.loc 1 934 0
 1220 000e 044A     		ldr	r2, .L76
 1221 0010 7B68     		ldr	r3, [r7, #4]
 1222 0012 D318     		add	r3, r2, r3
 1223 0014 FA1C     		add	r2, r7, #3
 1224 0016 1278     		ldrb	r2, [r2]
 1225 0018 1A70     		strb	r2, [r3]
 935:.\Generated_Source\PSoC4/CapSense_CSHL.c ****     }
 1226              		.loc 1 935 0
 1227 001a BD46     		mov	sp, r7
 1228 001c 02B0     		add	sp, sp, #8
 1229              		@ sp needed
 1230 001e 80BD     		pop	{r7, pc}
 1231              	.L77:
 1232              		.align	2
 1233              	.L76:
 1234 0020 00000000 		.word	CapSense_fingerThreshold
 1235              		.cfi_endproc
 1236              	.LFE50:
 1237              		.size	CapSense_SetFingerThreshold, .-CapSense_SetFingerThreshold
 1238              		.section	.text.CapSense_SetNoiseThreshold,"ax",%progbits
 1239              		.align	2
 1240              		.global	CapSense_SetNoiseThreshold
 1241              		.code	16
 1242              		.thumb_func
 1243              		.type	CapSense_SetNoiseThreshold, %function
 1244              	CapSense_SetNoiseThreshold:
 1245              	.LFB51:
 936:.\Generated_Source\PSoC4/CapSense_CSHL.c **** 
 937:.\Generated_Source\PSoC4/CapSense_CSHL.c **** 
 938:.\Generated_Source\PSoC4/CapSense_CSHL.c ****     /*******************************************************************************
 939:.\Generated_Source\PSoC4/CapSense_CSHL.c ****     * Function Name: CapSense_SetNoiseThreshold
 940:.\Generated_Source\PSoC4/CapSense_CSHL.c ****     ********************************************************************************
 941:.\Generated_Source\PSoC4/CapSense_CSHL.c ****     *
 942:.\Generated_Source\PSoC4/CapSense_CSHL.c ****     * Summary:
 943:.\Generated_Source\PSoC4/CapSense_CSHL.c ****     *  This API sets the Noise Threshold value for each widget.
 944:.\Generated_Source\PSoC4/CapSense_CSHL.c ****     *
 945:.\Generated_Source\PSoC4/CapSense_CSHL.c ****     * Parameters:
 946:.\Generated_Source\PSoC4/CapSense_CSHL.c ****     *  widget:  Sensor index number.
 947:.\Generated_Source\PSoC4/CapSense_CSHL.c ****     *  value:   Noise Threshold value for widget.
 948:.\Generated_Source\PSoC4/CapSense_CSHL.c ****     *
 949:.\Generated_Source\PSoC4/CapSense_CSHL.c ****     * Return Value:
 950:.\Generated_Source\PSoC4/CapSense_CSHL.c ****     *  None
 951:.\Generated_Source\PSoC4/CapSense_CSHL.c ****     *
 952:.\Generated_Source\PSoC4/CapSense_CSHL.c ****     * Global Variables:
 953:.\Generated_Source\PSoC4/CapSense_CSHL.c ****     *  CapSense_noiseThreshold[] - This array contains the level of signal
 954:.\Generated_Source\PSoC4/CapSense_CSHL.c ****     *   for each widget that determines the level of noise in the capacitive scan.
 955:.\Generated_Source\PSoC4/CapSense_CSHL.c ****     *
 956:.\Generated_Source\PSoC4/CapSense_CSHL.c ****     * Side Effects:
 957:.\Generated_Source\PSoC4/CapSense_CSHL.c ****     *  None
 958:.\Generated_Source\PSoC4/CapSense_CSHL.c ****     *
 959:.\Generated_Source\PSoC4/CapSense_CSHL.c ****     *******************************************************************************/
 960:.\Generated_Source\PSoC4/CapSense_CSHL.c ****     void CapSense_SetNoiseThreshold(uint32 widget, uint8 value)
ARM GAS  C:\Users\lovelesh\AppData\Local\Temp\ccDxuV7s.s 			page 40


 961:.\Generated_Source\PSoC4/CapSense_CSHL.c ****     {
 1246              		.loc 1 961 0
 1247              		.cfi_startproc
 1248 0000 80B5     		push	{r7, lr}
 1249              		.cfi_def_cfa_offset 8
 1250              		.cfi_offset 7, -8
 1251              		.cfi_offset 14, -4
 1252 0002 82B0     		sub	sp, sp, #8
 1253              		.cfi_def_cfa_offset 16
 1254 0004 00AF     		add	r7, sp, #0
 1255              		.cfi_def_cfa_register 7
 1256 0006 7860     		str	r0, [r7, #4]
 1257 0008 0A1C     		mov	r2, r1
 1258 000a FB1C     		add	r3, r7, #3
 1259 000c 1A70     		strb	r2, [r3]
 962:.\Generated_Source\PSoC4/CapSense_CSHL.c ****         CapSense_noiseThreshold[widget] = value;
 1260              		.loc 1 962 0
 1261 000e 044A     		ldr	r2, .L79
 1262 0010 7B68     		ldr	r3, [r7, #4]
 1263 0012 D318     		add	r3, r2, r3
 1264 0014 FA1C     		add	r2, r7, #3
 1265 0016 1278     		ldrb	r2, [r2]
 1266 0018 1A70     		strb	r2, [r3]
 963:.\Generated_Source\PSoC4/CapSense_CSHL.c ****     }
 1267              		.loc 1 963 0
 1268 001a BD46     		mov	sp, r7
 1269 001c 02B0     		add	sp, sp, #8
 1270              		@ sp needed
 1271 001e 80BD     		pop	{r7, pc}
 1272              	.L80:
 1273              		.align	2
 1274              	.L79:
 1275 0020 00000000 		.word	CapSense_noiseThreshold
 1276              		.cfi_endproc
 1277              	.LFE51:
 1278              		.size	CapSense_SetNoiseThreshold, .-CapSense_SetNoiseThreshold
 1279              		.section	.text.CapSense_SetFingerHysteresis,"ax",%progbits
 1280              		.align	2
 1281              		.global	CapSense_SetFingerHysteresis
 1282              		.code	16
 1283              		.thumb_func
 1284              		.type	CapSense_SetFingerHysteresis, %function
 1285              	CapSense_SetFingerHysteresis:
 1286              	.LFB52:
 964:.\Generated_Source\PSoC4/CapSense_CSHL.c **** 
 965:.\Generated_Source\PSoC4/CapSense_CSHL.c **** 
 966:.\Generated_Source\PSoC4/CapSense_CSHL.c ****     /*******************************************************************************
 967:.\Generated_Source\PSoC4/CapSense_CSHL.c ****     * Function Name: CapSense_SetFingerHysteresis
 968:.\Generated_Source\PSoC4/CapSense_CSHL.c ****     ********************************************************************************
 969:.\Generated_Source\PSoC4/CapSense_CSHL.c ****     *
 970:.\Generated_Source\PSoC4/CapSense_CSHL.c ****     * Summary:
 971:.\Generated_Source\PSoC4/CapSense_CSHL.c ****     *  This API sets the Hysteresis value of a widget
 972:.\Generated_Source\PSoC4/CapSense_CSHL.c ****     *
 973:.\Generated_Source\PSoC4/CapSense_CSHL.c ****     * Parameters:
 974:.\Generated_Source\PSoC4/CapSense_CSHL.c ****     *  value:  Hysteresis value for widgets.
 975:.\Generated_Source\PSoC4/CapSense_CSHL.c ****     *  widget:  widget number
 976:.\Generated_Source\PSoC4/CapSense_CSHL.c ****     *
ARM GAS  C:\Users\lovelesh\AppData\Local\Temp\ccDxuV7s.s 			page 41


 977:.\Generated_Source\PSoC4/CapSense_CSHL.c ****     * Return Value:
 978:.\Generated_Source\PSoC4/CapSense_CSHL.c ****     *  None
 979:.\Generated_Source\PSoC4/CapSense_CSHL.c ****     *
 980:.\Generated_Source\PSoC4/CapSense_CSHL.c ****     * Global Variables:
 981:.\Generated_Source\PSoC4/CapSense_CSHL.c ****     *  CapSense_hysteresis[] - This array contains the hysteresis value for each widget.
 982:.\Generated_Source\PSoC4/CapSense_CSHL.c ****     *  CapSense_widgetNumberSld - structure with dynamic sliders' parameters.
 983:.\Generated_Source\PSoC4/CapSense_CSHL.c ****     *
 984:.\Generated_Source\PSoC4/CapSense_CSHL.c ****     * Side Effects:
 985:.\Generated_Source\PSoC4/CapSense_CSHL.c ****     *  None
 986:.\Generated_Source\PSoC4/CapSense_CSHL.c ****     *
 987:.\Generated_Source\PSoC4/CapSense_CSHL.c ****     *******************************************************************************/
 988:.\Generated_Source\PSoC4/CapSense_CSHL.c ****     void CapSense_SetFingerHysteresis(uint32 widget, uint8 value)
 989:.\Generated_Source\PSoC4/CapSense_CSHL.c ****     {
 1287              		.loc 1 989 0
 1288              		.cfi_startproc
 1289 0000 80B5     		push	{r7, lr}
 1290              		.cfi_def_cfa_offset 8
 1291              		.cfi_offset 7, -8
 1292              		.cfi_offset 14, -4
 1293 0002 82B0     		sub	sp, sp, #8
 1294              		.cfi_def_cfa_offset 16
 1295 0004 00AF     		add	r7, sp, #0
 1296              		.cfi_def_cfa_register 7
 1297 0006 7860     		str	r0, [r7, #4]
 1298 0008 0A1C     		mov	r2, r1
 1299 000a FB1C     		add	r3, r7, #3
 1300 000c 1A70     		strb	r2, [r3]
 990:.\Generated_Source\PSoC4/CapSense_CSHL.c ****         CapSense_hysteresis[widget] = value;
 1301              		.loc 1 990 0
 1302 000e 044A     		ldr	r2, .L82
 1303 0010 7B68     		ldr	r3, [r7, #4]
 1304 0012 D318     		add	r3, r2, r3
 1305 0014 FA1C     		add	r2, r7, #3
 1306 0016 1278     		ldrb	r2, [r2]
 1307 0018 1A70     		strb	r2, [r3]
 991:.\Generated_Source\PSoC4/CapSense_CSHL.c ****     }
 1308              		.loc 1 991 0
 1309 001a BD46     		mov	sp, r7
 1310 001c 02B0     		add	sp, sp, #8
 1311              		@ sp needed
 1312 001e 80BD     		pop	{r7, pc}
 1313              	.L83:
 1314              		.align	2
 1315              	.L82:
 1316 0020 00000000 		.word	CapSense_hysteresis
 1317              		.cfi_endproc
 1318              	.LFE52:
 1319              		.size	CapSense_SetFingerHysteresis, .-CapSense_SetFingerHysteresis
 1320              		.section	.text.CapSense_SetNegativeNoiseThreshold,"ax",%progbits
 1321              		.align	2
 1322              		.global	CapSense_SetNegativeNoiseThreshold
 1323              		.code	16
 1324              		.thumb_func
 1325              		.type	CapSense_SetNegativeNoiseThreshold, %function
 1326              	CapSense_SetNegativeNoiseThreshold:
 1327              	.LFB53:
 992:.\Generated_Source\PSoC4/CapSense_CSHL.c **** 
ARM GAS  C:\Users\lovelesh\AppData\Local\Temp\ccDxuV7s.s 			page 42


 993:.\Generated_Source\PSoC4/CapSense_CSHL.c **** 
 994:.\Generated_Source\PSoC4/CapSense_CSHL.c ****     /*******************************************************************************
 995:.\Generated_Source\PSoC4/CapSense_CSHL.c ****     * Function Name: CapSense_SetNegativeNoiseThreshold
 996:.\Generated_Source\PSoC4/CapSense_CSHL.c ****     ********************************************************************************
 997:.\Generated_Source\PSoC4/CapSense_CSHL.c ****     *
 998:.\Generated_Source\PSoC4/CapSense_CSHL.c ****     * Summary:
 999:.\Generated_Source\PSoC4/CapSense_CSHL.c ****     *  This API sets the Negative Noise Threshold value of a widget
1000:.\Generated_Source\PSoC4/CapSense_CSHL.c ****     *
1001:.\Generated_Source\PSoC4/CapSense_CSHL.c ****     * Parameters:
1002:.\Generated_Source\PSoC4/CapSense_CSHL.c ****     *  value:  Negative Noise Threshold value for widgets.
1003:.\Generated_Source\PSoC4/CapSense_CSHL.c ****     *  widget: widget number
1004:.\Generated_Source\PSoC4/CapSense_CSHL.c ****     *
1005:.\Generated_Source\PSoC4/CapSense_CSHL.c ****     * Return Value:
1006:.\Generated_Source\PSoC4/CapSense_CSHL.c ****     *  None
1007:.\Generated_Source\PSoC4/CapSense_CSHL.c ****     *
1008:.\Generated_Source\PSoC4/CapSense_CSHL.c ****     * Global Variables:
1009:.\Generated_Source\PSoC4/CapSense_CSHL.c ****     *  CapSense_negativeNoiseThreshold  - This parameter specifies the negative
1010:.\Generated_Source\PSoC4/CapSense_CSHL.c ****     *   difference between the raw count and baseline levels for Baseline resetting to
1011:.\Generated_Source\PSoC4/CapSense_CSHL.c ****     *   the raw count level.
1012:.\Generated_Source\PSoC4/CapSense_CSHL.c ****     *
1013:.\Generated_Source\PSoC4/CapSense_CSHL.c ****     * Side Effects:
1014:.\Generated_Source\PSoC4/CapSense_CSHL.c ****     *  None
1015:.\Generated_Source\PSoC4/CapSense_CSHL.c ****     *
1016:.\Generated_Source\PSoC4/CapSense_CSHL.c ****     *******************************************************************************/
1017:.\Generated_Source\PSoC4/CapSense_CSHL.c ****     void CapSense_SetNegativeNoiseThreshold(uint32 widget, uint8 value)
1018:.\Generated_Source\PSoC4/CapSense_CSHL.c ****     {
 1328              		.loc 1 1018 0
 1329              		.cfi_startproc
 1330 0000 80B5     		push	{r7, lr}
 1331              		.cfi_def_cfa_offset 8
 1332              		.cfi_offset 7, -8
 1333              		.cfi_offset 14, -4
 1334 0002 82B0     		sub	sp, sp, #8
 1335              		.cfi_def_cfa_offset 16
 1336 0004 00AF     		add	r7, sp, #0
 1337              		.cfi_def_cfa_register 7
 1338 0006 7860     		str	r0, [r7, #4]
 1339 0008 0A1C     		mov	r2, r1
 1340 000a FB1C     		add	r3, r7, #3
 1341 000c 1A70     		strb	r2, [r3]
1019:.\Generated_Source\PSoC4/CapSense_CSHL.c ****         CapSense_negativeNoiseThreshold[widget] = value;
 1342              		.loc 1 1019 0
 1343 000e 044A     		ldr	r2, .L85
 1344 0010 7B68     		ldr	r3, [r7, #4]
 1345 0012 D318     		add	r3, r2, r3
 1346 0014 FA1C     		add	r2, r7, #3
 1347 0016 1278     		ldrb	r2, [r2]
 1348 0018 1A70     		strb	r2, [r3]
1020:.\Generated_Source\PSoC4/CapSense_CSHL.c ****     }
 1349              		.loc 1 1020 0
 1350 001a BD46     		mov	sp, r7
 1351 001c 02B0     		add	sp, sp, #8
 1352              		@ sp needed
 1353 001e 80BD     		pop	{r7, pc}
 1354              	.L86:
 1355              		.align	2
 1356              	.L85:
ARM GAS  C:\Users\lovelesh\AppData\Local\Temp\ccDxuV7s.s 			page 43


 1357 0020 00000000 		.word	CapSense_negativeNoiseThreshold
 1358              		.cfi_endproc
 1359              	.LFE53:
 1360              		.size	CapSense_SetNegativeNoiseThreshold, .-CapSense_SetNegativeNoiseThreshold
 1361              		.section	.text.CapSense_SetDebounce,"ax",%progbits
 1362              		.align	2
 1363              		.global	CapSense_SetDebounce
 1364              		.code	16
 1365              		.thumb_func
 1366              		.type	CapSense_SetDebounce, %function
 1367              	CapSense_SetDebounce:
 1368              	.LFB54:
1021:.\Generated_Source\PSoC4/CapSense_CSHL.c **** 
1022:.\Generated_Source\PSoC4/CapSense_CSHL.c **** 
1023:.\Generated_Source\PSoC4/CapSense_CSHL.c ****     /*******************************************************************************
1024:.\Generated_Source\PSoC4/CapSense_CSHL.c ****     * Function Name: CapSense_SetDebounce
1025:.\Generated_Source\PSoC4/CapSense_CSHL.c ****     ********************************************************************************
1026:.\Generated_Source\PSoC4/CapSense_CSHL.c ****     *
1027:.\Generated_Source\PSoC4/CapSense_CSHL.c ****     * Summary:
1028:.\Generated_Source\PSoC4/CapSense_CSHL.c ****     *  This API sets the debounce value for a widget.
1029:.\Generated_Source\PSoC4/CapSense_CSHL.c ****     *
1030:.\Generated_Source\PSoC4/CapSense_CSHL.c ****     * Parameters:
1031:.\Generated_Source\PSoC4/CapSense_CSHL.c ****     *  value:  Debounce value for widget.
1032:.\Generated_Source\PSoC4/CapSense_CSHL.c ****     *  widget: widget index.
1033:.\Generated_Source\PSoC4/CapSense_CSHL.c ****     *
1034:.\Generated_Source\PSoC4/CapSense_CSHL.c ****     * Return Value:
1035:.\Generated_Source\PSoC4/CapSense_CSHL.c ****     *  None
1036:.\Generated_Source\PSoC4/CapSense_CSHL.c ****     *
1037:.\Generated_Source\PSoC4/CapSense_CSHL.c ****     * Global Variables:
1038:.\Generated_Source\PSoC4/CapSense_CSHL.c ****     *  CapSense_debounce[] - This array contains the debounce value for each widget.
1039:.\Generated_Source\PSoC4/CapSense_CSHL.c ****     *  CapSense_widgetNumberSld - structure with dynamic sliders' parameters.
1040:.\Generated_Source\PSoC4/CapSense_CSHL.c ****     *
1041:.\Generated_Source\PSoC4/CapSense_CSHL.c ****     * Side Effects:
1042:.\Generated_Source\PSoC4/CapSense_CSHL.c ****     *  None
1043:.\Generated_Source\PSoC4/CapSense_CSHL.c ****     *
1044:.\Generated_Source\PSoC4/CapSense_CSHL.c ****     *******************************************************************************/
1045:.\Generated_Source\PSoC4/CapSense_CSHL.c ****     void CapSense_SetDebounce(uint32 widget, uint8 value)
1046:.\Generated_Source\PSoC4/CapSense_CSHL.c ****     {
 1369              		.loc 1 1046 0
 1370              		.cfi_startproc
 1371 0000 80B5     		push	{r7, lr}
 1372              		.cfi_def_cfa_offset 8
 1373              		.cfi_offset 7, -8
 1374              		.cfi_offset 14, -4
 1375 0002 82B0     		sub	sp, sp, #8
 1376              		.cfi_def_cfa_offset 16
 1377 0004 00AF     		add	r7, sp, #0
 1378              		.cfi_def_cfa_register 7
 1379 0006 7860     		str	r0, [r7, #4]
 1380 0008 0A1C     		mov	r2, r1
 1381 000a FB1C     		add	r3, r7, #3
 1382 000c 1A70     		strb	r2, [r3]
1047:.\Generated_Source\PSoC4/CapSense_CSHL.c ****         CapSense_debounce[widget] = value;
 1383              		.loc 1 1047 0
 1384 000e 044A     		ldr	r2, .L88
 1385 0010 7B68     		ldr	r3, [r7, #4]
 1386 0012 D318     		add	r3, r2, r3
ARM GAS  C:\Users\lovelesh\AppData\Local\Temp\ccDxuV7s.s 			page 44


 1387 0014 FA1C     		add	r2, r7, #3
 1388 0016 1278     		ldrb	r2, [r2]
 1389 0018 1A70     		strb	r2, [r3]
1048:.\Generated_Source\PSoC4/CapSense_CSHL.c ****     }
 1390              		.loc 1 1048 0
 1391 001a BD46     		mov	sp, r7
 1392 001c 02B0     		add	sp, sp, #8
 1393              		@ sp needed
 1394 001e 80BD     		pop	{r7, pc}
 1395              	.L89:
 1396              		.align	2
 1397              	.L88:
 1398 0020 00000000 		.word	CapSense_debounce
 1399              		.cfi_endproc
 1400              	.LFE54:
 1401              		.size	CapSense_SetDebounce, .-CapSense_SetDebounce
 1402              		.section	.text.CapSense_SetLowBaselineReset,"ax",%progbits
 1403              		.align	2
 1404              		.global	CapSense_SetLowBaselineReset
 1405              		.code	16
 1406              		.thumb_func
 1407              		.type	CapSense_SetLowBaselineReset, %function
 1408              	CapSense_SetLowBaselineReset:
 1409              	.LFB55:
1049:.\Generated_Source\PSoC4/CapSense_CSHL.c **** 
1050:.\Generated_Source\PSoC4/CapSense_CSHL.c **** 
1051:.\Generated_Source\PSoC4/CapSense_CSHL.c ****     /*******************************************************************************
1052:.\Generated_Source\PSoC4/CapSense_CSHL.c ****     * Function Name: CapSense_SetLowBaselineReset
1053:.\Generated_Source\PSoC4/CapSense_CSHL.c ****     ********************************************************************************
1054:.\Generated_Source\PSoC4/CapSense_CSHL.c ****     *
1055:.\Generated_Source\PSoC4/CapSense_CSHL.c ****     * Summary:
1056:.\Generated_Source\PSoC4/CapSense_CSHL.c ****     *  This API sets the low baseline reset threshold value for the sensor.
1057:.\Generated_Source\PSoC4/CapSense_CSHL.c ****     *
1058:.\Generated_Source\PSoC4/CapSense_CSHL.c ****     * Parameters:
1059:.\Generated_Source\PSoC4/CapSense_CSHL.c ****     *  value: low baseline reset threshold value.
1060:.\Generated_Source\PSoC4/CapSense_CSHL.c ****     *  sensor: Sensor index.
1061:.\Generated_Source\PSoC4/CapSense_CSHL.c ****     *
1062:.\Generated_Source\PSoC4/CapSense_CSHL.c ****     * Return Value:
1063:.\Generated_Source\PSoC4/CapSense_CSHL.c ****     *  None
1064:.\Generated_Source\PSoC4/CapSense_CSHL.c ****     *
1065:.\Generated_Source\PSoC4/CapSense_CSHL.c ****     * Global Variables:
1066:.\Generated_Source\PSoC4/CapSense_CSHL.c ****     *  CapSense_lowBaselineReset[] - This array contains the Baseline update
1067:.\Generated_Source\PSoC4/CapSense_CSHL.c ****     *  threshold value for each sensor.
1068:.\Generated_Source\PSoC4/CapSense_CSHL.c ****     *
1069:.\Generated_Source\PSoC4/CapSense_CSHL.c ****     * Side Effects:
1070:.\Generated_Source\PSoC4/CapSense_CSHL.c ****     *  None
1071:.\Generated_Source\PSoC4/CapSense_CSHL.c ****     *
1072:.\Generated_Source\PSoC4/CapSense_CSHL.c ****     *******************************************************************************/
1073:.\Generated_Source\PSoC4/CapSense_CSHL.c ****     void CapSense_SetLowBaselineReset(uint32 sensor, uint8 value)
1074:.\Generated_Source\PSoC4/CapSense_CSHL.c ****     {
 1410              		.loc 1 1074 0
 1411              		.cfi_startproc
 1412 0000 80B5     		push	{r7, lr}
 1413              		.cfi_def_cfa_offset 8
 1414              		.cfi_offset 7, -8
 1415              		.cfi_offset 14, -4
 1416 0002 82B0     		sub	sp, sp, #8
ARM GAS  C:\Users\lovelesh\AppData\Local\Temp\ccDxuV7s.s 			page 45


 1417              		.cfi_def_cfa_offset 16
 1418 0004 00AF     		add	r7, sp, #0
 1419              		.cfi_def_cfa_register 7
 1420 0006 7860     		str	r0, [r7, #4]
 1421 0008 0A1C     		mov	r2, r1
 1422 000a FB1C     		add	r3, r7, #3
 1423 000c 1A70     		strb	r2, [r3]
1075:.\Generated_Source\PSoC4/CapSense_CSHL.c ****         CapSense_lowBaselineReset[sensor] = value;
 1424              		.loc 1 1075 0
 1425 000e 044A     		ldr	r2, .L91
 1426 0010 7B68     		ldr	r3, [r7, #4]
 1427 0012 D318     		add	r3, r2, r3
 1428 0014 FA1C     		add	r2, r7, #3
 1429 0016 1278     		ldrb	r2, [r2]
 1430 0018 1A70     		strb	r2, [r3]
1076:.\Generated_Source\PSoC4/CapSense_CSHL.c ****     }
 1431              		.loc 1 1076 0
 1432 001a BD46     		mov	sp, r7
 1433 001c 02B0     		add	sp, sp, #8
 1434              		@ sp needed
 1435 001e 80BD     		pop	{r7, pc}
 1436              	.L92:
 1437              		.align	2
 1438              	.L91:
 1439 0020 00000000 		.word	CapSense_lowBaselineReset
 1440              		.cfi_endproc
 1441              	.LFE55:
 1442              		.size	CapSense_SetLowBaselineReset, .-CapSense_SetLowBaselineReset
 1443              		.section	.text.CapSense_CheckIsSensorActive,"ax",%progbits
 1444              		.align	2
 1445              		.global	CapSense_CheckIsSensorActive
 1446              		.code	16
 1447              		.thumb_func
 1448              		.type	CapSense_CheckIsSensorActive, %function
 1449              	CapSense_CheckIsSensorActive:
 1450              	.LFB56:
1077:.\Generated_Source\PSoC4/CapSense_CSHL.c **** #endif /* (CapSense_TUNING_METHOD != CapSense__TUNING_NONE) */
1078:.\Generated_Source\PSoC4/CapSense_CSHL.c **** 
1079:.\Generated_Source\PSoC4/CapSense_CSHL.c **** 
1080:.\Generated_Source\PSoC4/CapSense_CSHL.c **** /*******************************************************************************
1081:.\Generated_Source\PSoC4/CapSense_CSHL.c **** * Function Name: CapSense_CheckIsSensorActive
1082:.\Generated_Source\PSoC4/CapSense_CSHL.c **** ********************************************************************************
1083:.\Generated_Source\PSoC4/CapSense_CSHL.c **** *
1084:.\Generated_Source\PSoC4/CapSense_CSHL.c **** * Summary:
1085:.\Generated_Source\PSoC4/CapSense_CSHL.c **** *  Compares the CapSense_sensorSignal[sensor] array element to the finger
1086:.\Generated_Source\PSoC4/CapSense_CSHL.c **** *  threshold of the widget it belongs to. The hysteresis and debounce are taken into
1087:.\Generated_Source\PSoC4/CapSense_CSHL.c **** *  account. The hysteresis is added or subtracted from the finger threshold
1088:.\Generated_Source\PSoC4/CapSense_CSHL.c **** *  based on whether the sensor is currently active.
1089:.\Generated_Source\PSoC4/CapSense_CSHL.c **** *  If the sensor is active, the threshold is lowered by the hysteresis amount.
1090:.\Generated_Source\PSoC4/CapSense_CSHL.c **** *  If the sensor is inactive, the threshold is raised by the hysteresis amount.
1091:.\Generated_Source\PSoC4/CapSense_CSHL.c **** *  The debounce counter is added to the sensor active transition.
1092:.\Generated_Source\PSoC4/CapSense_CSHL.c **** *  This function updates the CapSense_sensorOnMask[] array element.
1093:.\Generated_Source\PSoC4/CapSense_CSHL.c **** *
1094:.\Generated_Source\PSoC4/CapSense_CSHL.c **** * Parameters:
1095:.\Generated_Source\PSoC4/CapSense_CSHL.c **** *  sensor:  Sensor number.
1096:.\Generated_Source\PSoC4/CapSense_CSHL.c **** *
1097:.\Generated_Source\PSoC4/CapSense_CSHL.c **** * Return:
ARM GAS  C:\Users\lovelesh\AppData\Local\Temp\ccDxuV7s.s 			page 46


1098:.\Generated_Source\PSoC4/CapSense_CSHL.c **** *  Returns sensor state 1 if active, 0 if not active.
1099:.\Generated_Source\PSoC4/CapSense_CSHL.c **** *
1100:.\Generated_Source\PSoC4/CapSense_CSHL.c **** * Global Variables:
1101:.\Generated_Source\PSoC4/CapSense_CSHL.c **** *  CapSense_sensorSignal[] - used to store the difference between
1102:.\Generated_Source\PSoC4/CapSense_CSHL.c **** *  the current value of raw data and a previous value of the baseline.
1103:.\Generated_Source\PSoC4/CapSense_CSHL.c **** *  CapSense_debounceCounter[]   - used to store the current debounce
1104:.\Generated_Source\PSoC4/CapSense_CSHL.c **** *  counter of the sensor. the widget which have this parameter are buttons, matrix
1105:.\Generated_Source\PSoC4/CapSense_CSHL.c **** *  buttons, proximity, and guard. All other widgets don't have the  debounce parameter
1106:.\Generated_Source\PSoC4/CapSense_CSHL.c **** *  and use the last element of this array with value 0 (it means no debounce).
1107:.\Generated_Source\PSoC4/CapSense_CSHL.c **** *  CapSense_sensorOnMask[] - used to store the sensors on/off state.
1108:.\Generated_Source\PSoC4/CapSense_CSHL.c **** *  CapSense_sensorOnMask[0] contains the masked bits for sensors
1109:.\Generated_Source\PSoC4/CapSense_CSHL.c **** *   0 through 7 (sensor 0 is bit 0, sensor 1 is bit 1).
1110:.\Generated_Source\PSoC4/CapSense_CSHL.c **** *  CapSense_sensorEnableMask[1] contains the masked bits for
1111:.\Generated_Source\PSoC4/CapSense_CSHL.c **** *  sensors 8 through 15 (if needed), and so on.
1112:.\Generated_Source\PSoC4/CapSense_CSHL.c **** *  0 - sensor is inactive.
1113:.\Generated_Source\PSoC4/CapSense_CSHL.c **** *  1 - sensor is active.
1114:.\Generated_Source\PSoC4/CapSense_CSHL.c **** *
1115:.\Generated_Source\PSoC4/CapSense_CSHL.c **** * Side Effects:
1116:.\Generated_Source\PSoC4/CapSense_CSHL.c **** *  None
1117:.\Generated_Source\PSoC4/CapSense_CSHL.c **** *
1118:.\Generated_Source\PSoC4/CapSense_CSHL.c **** *******************************************************************************/
1119:.\Generated_Source\PSoC4/CapSense_CSHL.c **** uint32 CapSense_CheckIsSensorActive(uint32 sensor)
1120:.\Generated_Source\PSoC4/CapSense_CSHL.c **** {
 1451              		.loc 1 1120 0
 1452              		.cfi_startproc
 1453 0000 80B5     		push	{r7, lr}
 1454              		.cfi_def_cfa_offset 8
 1455              		.cfi_offset 7, -8
 1456              		.cfi_offset 14, -4
 1457 0002 84B0     		sub	sp, sp, #16
 1458              		.cfi_def_cfa_offset 24
 1459 0004 00AF     		add	r7, sp, #0
 1460              		.cfi_def_cfa_register 7
 1461 0006 7860     		str	r0, [r7, #4]
1121:.\Generated_Source\PSoC4/CapSense_CSHL.c ****     uint8 widget;
1122:.\Generated_Source\PSoC4/CapSense_CSHL.c ****     uint8 debounce;
1123:.\Generated_Source\PSoC4/CapSense_CSHL.c ****     uint8 debounceIndex;
1124:.\Generated_Source\PSoC4/CapSense_CSHL.c **** 
1125:.\Generated_Source\PSoC4/CapSense_CSHL.c ****     uint8 fingerThreshold;
1126:.\Generated_Source\PSoC4/CapSense_CSHL.c ****     uint8 hysteresis;
1127:.\Generated_Source\PSoC4/CapSense_CSHL.c ****     
1128:.\Generated_Source\PSoC4/CapSense_CSHL.c **** 
1129:.\Generated_Source\PSoC4/CapSense_CSHL.c ****     /* Prepare to find debounce counter index */
1130:.\Generated_Source\PSoC4/CapSense_CSHL.c ****     widget = CapSense_widgetNumber[sensor];
 1462              		.loc 1 1130 0
 1463 0008 0E23     		mov	r3, #14
 1464 000a FB18     		add	r3, r7, r3
 1465 000c 4B49     		ldr	r1, .L104
 1466 000e 7A68     		ldr	r2, [r7, #4]
 1467 0010 8A18     		add	r2, r1, r2
 1468 0012 1278     		ldrb	r2, [r2]
 1469 0014 1A70     		strb	r2, [r3]
1131:.\Generated_Source\PSoC4/CapSense_CSHL.c **** 
1132:.\Generated_Source\PSoC4/CapSense_CSHL.c ****     fingerThreshold = CapSense_fingerThreshold[widget];
 1470              		.loc 1 1132 0
 1471 0016 0E23     		mov	r3, #14
 1472 0018 FB18     		add	r3, r7, r3
ARM GAS  C:\Users\lovelesh\AppData\Local\Temp\ccDxuV7s.s 			page 47


 1473 001a 1A78     		ldrb	r2, [r3]
 1474 001c 0D23     		mov	r3, #13
 1475 001e FB18     		add	r3, r7, r3
 1476 0020 4749     		ldr	r1, .L104+4
 1477 0022 8A5C     		ldrb	r2, [r1, r2]
 1478 0024 1A70     		strb	r2, [r3]
1133:.\Generated_Source\PSoC4/CapSense_CSHL.c ****     hysteresis = CapSense_hysteresis[widget];
 1479              		.loc 1 1133 0
 1480 0026 0E23     		mov	r3, #14
 1481 0028 FB18     		add	r3, r7, r3
 1482 002a 1A78     		ldrb	r2, [r3]
 1483 002c 0C23     		mov	r3, #12
 1484 002e FB18     		add	r3, r7, r3
 1485 0030 4449     		ldr	r1, .L104+8
 1486 0032 8A5C     		ldrb	r2, [r1, r2]
 1487 0034 1A70     		strb	r2, [r3]
1134:.\Generated_Source\PSoC4/CapSense_CSHL.c ****     debounce = CapSense_debounce[widget];
 1488              		.loc 1 1134 0
 1489 0036 0E23     		mov	r3, #14
 1490 0038 FB18     		add	r3, r7, r3
 1491 003a 1A78     		ldrb	r2, [r3]
 1492 003c 0B23     		mov	r3, #11
 1493 003e FB18     		add	r3, r7, r3
 1494 0040 4149     		ldr	r1, .L104+12
 1495 0042 8A5C     		ldrb	r2, [r1, r2]
 1496 0044 1A70     		strb	r2, [r3]
1135:.\Generated_Source\PSoC4/CapSense_CSHL.c **** 
1136:.\Generated_Source\PSoC4/CapSense_CSHL.c ****         if (widget < CapSense_TOTAL_CENTROIDS_COUNT)
 1497              		.loc 1 1136 0
 1498 0046 0E23     		mov	r3, #14
 1499 0048 FB18     		add	r3, r7, r3
 1500 004a 1B78     		ldrb	r3, [r3]
 1501 004c 002B     		cmp	r3, #0
 1502 004e 0AD1     		bne	.L94
1137:.\Generated_Source\PSoC4/CapSense_CSHL.c ****     {
1138:.\Generated_Source\PSoC4/CapSense_CSHL.c ****         debounceIndex = CapSense_UNUSED_DEBOUNCE_COUNTER_INDEX;
 1503              		.loc 1 1138 0
 1504 0050 0F23     		mov	r3, #15
 1505 0052 FB18     		add	r3, r7, r3
 1506 0054 0322     		mov	r2, #3
 1507 0056 1A70     		strb	r2, [r3]
1139:.\Generated_Source\PSoC4/CapSense_CSHL.c ****         CapSense_debounceCounter[debounceIndex] = 1u;
 1508              		.loc 1 1139 0
 1509 0058 0F23     		mov	r3, #15
 1510 005a FB18     		add	r3, r7, r3
 1511 005c 1B78     		ldrb	r3, [r3]
 1512 005e 3B4A     		ldr	r2, .L104+16
 1513 0060 0121     		mov	r1, #1
 1514 0062 D154     		strb	r1, [r2, r3]
 1515 0064 06E0     		b	.L95
 1516              	.L94:
1140:.\Generated_Source\PSoC4/CapSense_CSHL.c ****     }
1141:.\Generated_Source\PSoC4/CapSense_CSHL.c ****     else
1142:.\Generated_Source\PSoC4/CapSense_CSHL.c ****     {
1143:.\Generated_Source\PSoC4/CapSense_CSHL.c ****         debounceIndex = widget - (CapSense_END_OF_TOUCH_PAD_INDEX + 1u);
 1517              		.loc 1 1143 0
 1518 0066 0F23     		mov	r3, #15
ARM GAS  C:\Users\lovelesh\AppData\Local\Temp\ccDxuV7s.s 			page 48


 1519 0068 FB18     		add	r3, r7, r3
 1520 006a 0E22     		mov	r2, #14
 1521 006c BA18     		add	r2, r7, r2
 1522 006e 1278     		ldrb	r2, [r2]
 1523 0070 013A     		sub	r2, r2, #1
 1524 0072 1A70     		strb	r2, [r3]
 1525              	.L95:
1144:.\Generated_Source\PSoC4/CapSense_CSHL.c ****     }
1145:.\Generated_Source\PSoC4/CapSense_CSHL.c **** 
1146:.\Generated_Source\PSoC4/CapSense_CSHL.c **** 
1147:.\Generated_Source\PSoC4/CapSense_CSHL.c ****     /* Was on */
1148:.\Generated_Source\PSoC4/CapSense_CSHL.c ****     if (0u != CapSense_GetBitValue(CapSense_sensorOnMask, sensor))
 1526              		.loc 1 1148 0
 1527 0074 364A     		ldr	r2, .L104+20
 1528 0076 7B68     		ldr	r3, [r7, #4]
 1529 0078 101C     		mov	r0, r2
 1530 007a 191C     		mov	r1, r3
 1531 007c FFF7FEFF 		bl	CapSense_GetBitValue
 1532 0080 031E     		sub	r3, r0, #0
 1533 0082 1DD0     		beq	.L96
1149:.\Generated_Source\PSoC4/CapSense_CSHL.c ****     {
1150:.\Generated_Source\PSoC4/CapSense_CSHL.c ****         /* Hysteresis minus */
1151:.\Generated_Source\PSoC4/CapSense_CSHL.c ****         if (CapSense_sensorSignal[sensor] < (fingerThreshold - hysteresis))
 1534              		.loc 1 1151 0
 1535 0084 334A     		ldr	r2, .L104+24
 1536 0086 7B68     		ldr	r3, [r7, #4]
 1537 0088 D318     		add	r3, r2, r3
 1538 008a 1B78     		ldrb	r3, [r3]
 1539 008c 191C     		mov	r1, r3
 1540 008e 0D23     		mov	r3, #13
 1541 0090 FB18     		add	r3, r7, r3
 1542 0092 1A78     		ldrb	r2, [r3]
 1543 0094 0C23     		mov	r3, #12
 1544 0096 FB18     		add	r3, r7, r3
 1545 0098 1B78     		ldrb	r3, [r3]
 1546 009a D31A     		sub	r3, r2, r3
 1547 009c 9942     		cmp	r1, r3
 1548 009e 3DDA     		bge	.L98
1152:.\Generated_Source\PSoC4/CapSense_CSHL.c ****         {
1153:.\Generated_Source\PSoC4/CapSense_CSHL.c ****             CapSense_SetBitValue(CapSense_sensorOnMask, sensor, 0u);
 1549              		.loc 1 1153 0
 1550 00a0 2B4A     		ldr	r2, .L104+20
 1551 00a2 7B68     		ldr	r3, [r7, #4]
 1552 00a4 101C     		mov	r0, r2
 1553 00a6 191C     		mov	r1, r3
 1554 00a8 0022     		mov	r2, #0
 1555 00aa FFF7FEFF 		bl	CapSense_SetBitValue
1154:.\Generated_Source\PSoC4/CapSense_CSHL.c ****             /* Sensor inactive - reset Debounce counter */
1155:.\Generated_Source\PSoC4/CapSense_CSHL.c ****             CapSense_debounceCounter[debounceIndex] = debounce;
 1556              		.loc 1 1155 0
 1557 00ae 0F23     		mov	r3, #15
 1558 00b0 FB18     		add	r3, r7, r3
 1559 00b2 1B78     		ldrb	r3, [r3]
 1560 00b4 254A     		ldr	r2, .L104+16
 1561 00b6 0B21     		mov	r1, #11
 1562 00b8 7918     		add	r1, r7, r1
 1563 00ba 0978     		ldrb	r1, [r1]
ARM GAS  C:\Users\lovelesh\AppData\Local\Temp\ccDxuV7s.s 			page 49


 1564 00bc D154     		strb	r1, [r2, r3]
 1565 00be 2DE0     		b	.L98
 1566              	.L96:
1156:.\Generated_Source\PSoC4/CapSense_CSHL.c ****         }
1157:.\Generated_Source\PSoC4/CapSense_CSHL.c ****     }
1158:.\Generated_Source\PSoC4/CapSense_CSHL.c ****     else    /* Was off */
1159:.\Generated_Source\PSoC4/CapSense_CSHL.c ****     {
1160:.\Generated_Source\PSoC4/CapSense_CSHL.c ****         /* Hysteresis plus */
1161:.\Generated_Source\PSoC4/CapSense_CSHL.c ****         if (CapSense_sensorSignal[sensor] >= (fingerThreshold + hysteresis))
 1567              		.loc 1 1161 0
 1568 00c0 244A     		ldr	r2, .L104+24
 1569 00c2 7B68     		ldr	r3, [r7, #4]
 1570 00c4 D318     		add	r3, r2, r3
 1571 00c6 1B78     		ldrb	r3, [r3]
 1572 00c8 191C     		mov	r1, r3
 1573 00ca 0D23     		mov	r3, #13
 1574 00cc FB18     		add	r3, r7, r3
 1575 00ce 1A78     		ldrb	r2, [r3]
 1576 00d0 0C23     		mov	r3, #12
 1577 00d2 FB18     		add	r3, r7, r3
 1578 00d4 1B78     		ldrb	r3, [r3]
 1579 00d6 D318     		add	r3, r2, r3
 1580 00d8 9942     		cmp	r1, r3
 1581 00da 17DB     		blt	.L99
1162:.\Generated_Source\PSoC4/CapSense_CSHL.c ****         {
1163:.\Generated_Source\PSoC4/CapSense_CSHL.c ****             CapSense_debounceCounter[debounceIndex]--;
 1582              		.loc 1 1163 0
 1583 00dc 0F23     		mov	r3, #15
 1584 00de FB18     		add	r3, r7, r3
 1585 00e0 1B78     		ldrb	r3, [r3]
 1586 00e2 1A4A     		ldr	r2, .L104+16
 1587 00e4 D25C     		ldrb	r2, [r2, r3]
 1588 00e6 013A     		sub	r2, r2, #1
 1589 00e8 D1B2     		uxtb	r1, r2
 1590 00ea 184A     		ldr	r2, .L104+16
 1591 00ec D154     		strb	r1, [r2, r3]
1164:.\Generated_Source\PSoC4/CapSense_CSHL.c ****             /* Sensor active, decrement debounce counter */
1165:.\Generated_Source\PSoC4/CapSense_CSHL.c ****             if(CapSense_debounceCounter[debounceIndex] == 0u)
 1592              		.loc 1 1165 0
 1593 00ee 0F23     		mov	r3, #15
 1594 00f0 FB18     		add	r3, r7, r3
 1595 00f2 1B78     		ldrb	r3, [r3]
 1596 00f4 154A     		ldr	r2, .L104+16
 1597 00f6 D35C     		ldrb	r3, [r2, r3]
 1598 00f8 002B     		cmp	r3, #0
 1599 00fa 0FD1     		bne	.L98
1166:.\Generated_Source\PSoC4/CapSense_CSHL.c ****             {
1167:.\Generated_Source\PSoC4/CapSense_CSHL.c ****                 CapSense_SetBitValue(CapSense_sensorOnMask, sensor, 1u);
 1600              		.loc 1 1167 0
 1601 00fc 144A     		ldr	r2, .L104+20
 1602 00fe 7B68     		ldr	r3, [r7, #4]
 1603 0100 101C     		mov	r0, r2
 1604 0102 191C     		mov	r1, r3
 1605 0104 0122     		mov	r2, #1
 1606 0106 FFF7FEFF 		bl	CapSense_SetBitValue
 1607 010a 07E0     		b	.L98
 1608              	.L99:
ARM GAS  C:\Users\lovelesh\AppData\Local\Temp\ccDxuV7s.s 			page 50


1168:.\Generated_Source\PSoC4/CapSense_CSHL.c ****             }
1169:.\Generated_Source\PSoC4/CapSense_CSHL.c ****         }
1170:.\Generated_Source\PSoC4/CapSense_CSHL.c ****         else
1171:.\Generated_Source\PSoC4/CapSense_CSHL.c ****         {
1172:.\Generated_Source\PSoC4/CapSense_CSHL.c ****             /* Sensor inactive - reset Debounce counter */
1173:.\Generated_Source\PSoC4/CapSense_CSHL.c ****             CapSense_debounceCounter[debounceIndex] = debounce;
 1609              		.loc 1 1173 0
 1610 010c 0F23     		mov	r3, #15
 1611 010e FB18     		add	r3, r7, r3
 1612 0110 1B78     		ldrb	r3, [r3]
 1613 0112 0E4A     		ldr	r2, .L104+16
 1614 0114 0B21     		mov	r1, #11
 1615 0116 7918     		add	r1, r7, r1
 1616 0118 0978     		ldrb	r1, [r1]
 1617 011a D154     		strb	r1, [r2, r3]
 1618              	.L98:
1174:.\Generated_Source\PSoC4/CapSense_CSHL.c ****         }
1175:.\Generated_Source\PSoC4/CapSense_CSHL.c ****     }
1176:.\Generated_Source\PSoC4/CapSense_CSHL.c **** 
1177:.\Generated_Source\PSoC4/CapSense_CSHL.c ****     return ((uint32)((0u != CapSense_GetBitValue(CapSense_sensorOnMask, sensor)) ? 1u : 0u));
 1619              		.loc 1 1177 0
 1620 011c 0C4A     		ldr	r2, .L104+20
 1621 011e 7B68     		ldr	r3, [r7, #4]
 1622 0120 101C     		mov	r0, r2
 1623 0122 191C     		mov	r1, r3
 1624 0124 FFF7FEFF 		bl	CapSense_GetBitValue
 1625 0128 031E     		sub	r3, r0, #0
 1626 012a 01D0     		beq	.L101
 1627              		.loc 1 1177 0 is_stmt 0 discriminator 1
 1628 012c 0123     		mov	r3, #1
 1629 012e 00E0     		b	.L102
 1630              	.L101:
 1631              		.loc 1 1177 0 discriminator 2
 1632 0130 0023     		mov	r3, #0
 1633              	.L102:
1178:.\Generated_Source\PSoC4/CapSense_CSHL.c **** }
 1634              		.loc 1 1178 0 is_stmt 1 discriminator 4
 1635 0132 181C     		mov	r0, r3
 1636 0134 BD46     		mov	sp, r7
 1637 0136 04B0     		add	sp, sp, #16
 1638              		@ sp needed
 1639 0138 80BD     		pop	{r7, pc}
 1640              	.L105:
 1641 013a C046     		.align	2
 1642              	.L104:
 1643 013c 00000000 		.word	CapSense_widgetNumber
 1644 0140 00000000 		.word	CapSense_fingerThreshold
 1645 0144 00000000 		.word	CapSense_hysteresis
 1646 0148 00000000 		.word	CapSense_debounce
 1647 014c 24000000 		.word	CapSense_debounceCounter
 1648 0150 00000000 		.word	CapSense_sensorOnMask
 1649 0154 00000000 		.word	CapSense_sensorSignal
 1650              		.cfi_endproc
 1651              	.LFE56:
 1652              		.size	CapSense_CheckIsSensorActive, .-CapSense_CheckIsSensorActive
 1653              		.section	.text.CapSense_CheckIsWidgetActive,"ax",%progbits
 1654              		.align	2
ARM GAS  C:\Users\lovelesh\AppData\Local\Temp\ccDxuV7s.s 			page 51


 1655              		.global	CapSense_CheckIsWidgetActive
 1656              		.code	16
 1657              		.thumb_func
 1658              		.type	CapSense_CheckIsWidgetActive, %function
 1659              	CapSense_CheckIsWidgetActive:
 1660              	.LFB57:
1179:.\Generated_Source\PSoC4/CapSense_CSHL.c **** 
1180:.\Generated_Source\PSoC4/CapSense_CSHL.c **** 
1181:.\Generated_Source\PSoC4/CapSense_CSHL.c **** /*******************************************************************************
1182:.\Generated_Source\PSoC4/CapSense_CSHL.c **** * Function Name: CapSense_CheckIsWidgetActive
1183:.\Generated_Source\PSoC4/CapSense_CSHL.c **** ********************************************************************************
1184:.\Generated_Source\PSoC4/CapSense_CSHL.c **** *
1185:.\Generated_Source\PSoC4/CapSense_CSHL.c **** * Summary:
1186:.\Generated_Source\PSoC4/CapSense_CSHL.c **** *  Compares the CapSense_sensorSignal[] array element to the finger threshold of
1187:.\Generated_Source\PSoC4/CapSense_CSHL.c **** * the widget it belongs to. The hysteresis and debounce are taken into account.
1188:.\Generated_Source\PSoC4/CapSense_CSHL.c **** * The hysteresis is added or subtracted from the finger threshold based on whether
1189:.\Generated_Source\PSoC4/CapSense_CSHL.c **** *  the sensor is currently active. If the sensor is active, the threshold is
1190:.\Generated_Source\PSoC4/CapSense_CSHL.c **** *  lowered by the hysteresis amount. If the sensor is inactive, the threshold
1191:.\Generated_Source\PSoC4/CapSense_CSHL.c **** *  is raised by the hysteresis amount.
1192:.\Generated_Source\PSoC4/CapSense_CSHL.c **** * The debounce counter added to the sensor active transition.
1193:.\Generated_Source\PSoC4/CapSense_CSHL.c **** * This function updates CapSense_sensorOnMask[] array element
1194:.\Generated_Source\PSoC4/CapSense_CSHL.c **** *
1195:.\Generated_Source\PSoC4/CapSense_CSHL.c **** * Parameters:
1196:.\Generated_Source\PSoC4/CapSense_CSHL.c **** *  widget:  widget number.
1197:.\Generated_Source\PSoC4/CapSense_CSHL.c **** *
1198:.\Generated_Source\PSoC4/CapSense_CSHL.c **** * Return:
1199:.\Generated_Source\PSoC4/CapSense_CSHL.c **** *  Returns widget sensor state 1 if one or more sensors within widget is/are
1200:.\Generated_Source\PSoC4/CapSense_CSHL.c **** *  active, 0 if all sensors within widget are inactive.
1201:.\Generated_Source\PSoC4/CapSense_CSHL.c **** *
1202:.\Generated_Source\PSoC4/CapSense_CSHL.c **** * Global Variables:
1203:.\Generated_Source\PSoC4/CapSense_CSHL.c **** *  rawDataIndex[]: Contains the  1st sensor position in the widget
1204:.\Generated_Source\PSoC4/CapSense_CSHL.c **** *
1205:.\Generated_Source\PSoC4/CapSense_CSHL.c **** * Side Effects:
1206:.\Generated_Source\PSoC4/CapSense_CSHL.c **** *  None
1207:.\Generated_Source\PSoC4/CapSense_CSHL.c **** *
1208:.\Generated_Source\PSoC4/CapSense_CSHL.c **** *******************************************************************************/
1209:.\Generated_Source\PSoC4/CapSense_CSHL.c **** uint32 CapSense_CheckIsWidgetActive(uint32 widget)
1210:.\Generated_Source\PSoC4/CapSense_CSHL.c **** {
 1661              		.loc 1 1210 0
 1662              		.cfi_startproc
 1663 0000 80B5     		push	{r7, lr}
 1664              		.cfi_def_cfa_offset 8
 1665              		.cfi_offset 7, -8
 1666              		.cfi_offset 14, -4
 1667 0002 86B0     		sub	sp, sp, #24
 1668              		.cfi_def_cfa_offset 32
 1669 0004 00AF     		add	r7, sp, #0
 1670              		.cfi_def_cfa_register 7
 1671 0006 7860     		str	r0, [r7, #4]
1211:.\Generated_Source\PSoC4/CapSense_CSHL.c ****     uint32 rawIndex = (uint32)CapSense_rawDataIndex[widget];
 1672              		.loc 1 1211 0
 1673 0008 114A     		ldr	r2, .L110
 1674 000a 7B68     		ldr	r3, [r7, #4]
 1675 000c D318     		add	r3, r2, r3
 1676 000e 1B78     		ldrb	r3, [r3]
 1677 0010 7B61     		str	r3, [r7, #20]
1212:.\Generated_Source\PSoC4/CapSense_CSHL.c ****     uint32 numOfSensors = (uint32)CapSense_numberOfSensors[widget] + rawIndex;
ARM GAS  C:\Users\lovelesh\AppData\Local\Temp\ccDxuV7s.s 			page 52


 1678              		.loc 1 1212 0
 1679 0012 104A     		ldr	r2, .L110+4
 1680 0014 7B68     		ldr	r3, [r7, #4]
 1681 0016 D318     		add	r3, r2, r3
 1682 0018 1B78     		ldrb	r3, [r3]
 1683 001a 1A1C     		mov	r2, r3
 1684 001c 7B69     		ldr	r3, [r7, #20]
 1685 001e D318     		add	r3, r2, r3
 1686 0020 FB60     		str	r3, [r7, #12]
1213:.\Generated_Source\PSoC4/CapSense_CSHL.c ****     uint32 state = 0u;
 1687              		.loc 1 1213 0
 1688 0022 0023     		mov	r3, #0
 1689 0024 3B61     		str	r3, [r7, #16]
 1690              	.L108:
1214:.\Generated_Source\PSoC4/CapSense_CSHL.c **** 
1215:.\Generated_Source\PSoC4/CapSense_CSHL.c ****     /* Check all sensors of widget */
1216:.\Generated_Source\PSoC4/CapSense_CSHL.c ****     do
1217:.\Generated_Source\PSoC4/CapSense_CSHL.c ****     {
1218:.\Generated_Source\PSoC4/CapSense_CSHL.c ****         if(CapSense_CheckIsSensorActive((uint32)rawIndex) != 0u)
 1691              		.loc 1 1218 0
 1692 0026 7B69     		ldr	r3, [r7, #20]
 1693 0028 181C     		mov	r0, r3
 1694 002a FFF7FEFF 		bl	CapSense_CheckIsSensorActive
 1695 002e 031E     		sub	r3, r0, #0
 1696 0030 01D0     		beq	.L107
1219:.\Generated_Source\PSoC4/CapSense_CSHL.c ****         {
1220:.\Generated_Source\PSoC4/CapSense_CSHL.c ****             state = CapSense_SENSOR_IS_ACTIVE;
 1697              		.loc 1 1220 0
 1698 0032 0123     		mov	r3, #1
 1699 0034 3B61     		str	r3, [r7, #16]
 1700              	.L107:
1221:.\Generated_Source\PSoC4/CapSense_CSHL.c ****         }
1222:.\Generated_Source\PSoC4/CapSense_CSHL.c ****         rawIndex++;
 1701              		.loc 1 1222 0
 1702 0036 7B69     		ldr	r3, [r7, #20]
 1703 0038 0133     		add	r3, r3, #1
 1704 003a 7B61     		str	r3, [r7, #20]
1223:.\Generated_Source\PSoC4/CapSense_CSHL.c ****     }
1224:.\Generated_Source\PSoC4/CapSense_CSHL.c ****     while(rawIndex < numOfSensors);
 1705              		.loc 1 1224 0
 1706 003c 7A69     		ldr	r2, [r7, #20]
 1707 003e FB68     		ldr	r3, [r7, #12]
 1708 0040 9A42     		cmp	r2, r3
 1709 0042 F0D3     		bcc	.L108
1225:.\Generated_Source\PSoC4/CapSense_CSHL.c **** 
1226:.\Generated_Source\PSoC4/CapSense_CSHL.c **** 
1227:.\Generated_Source\PSoC4/CapSense_CSHL.c **** 
1228:.\Generated_Source\PSoC4/CapSense_CSHL.c ****     return state;
 1710              		.loc 1 1228 0
 1711 0044 3B69     		ldr	r3, [r7, #16]
1229:.\Generated_Source\PSoC4/CapSense_CSHL.c **** }
 1712              		.loc 1 1229 0
 1713 0046 181C     		mov	r0, r3
 1714 0048 BD46     		mov	sp, r7
 1715 004a 06B0     		add	sp, sp, #24
 1716              		@ sp needed
 1717 004c 80BD     		pop	{r7, pc}
ARM GAS  C:\Users\lovelesh\AppData\Local\Temp\ccDxuV7s.s 			page 53


 1718              	.L111:
 1719 004e C046     		.align	2
 1720              	.L110:
 1721 0050 00000000 		.word	CapSense_rawDataIndex
 1722 0054 00000000 		.word	CapSense_numberOfSensors
 1723              		.cfi_endproc
 1724              	.LFE57:
 1725              		.size	CapSense_CheckIsWidgetActive, .-CapSense_CheckIsWidgetActive
 1726              		.section	.text.CapSense_CheckIsAnyWidgetActive,"ax",%progbits
 1727              		.align	2
 1728              		.global	CapSense_CheckIsAnyWidgetActive
 1729              		.code	16
 1730              		.thumb_func
 1731              		.type	CapSense_CheckIsAnyWidgetActive, %function
 1732              	CapSense_CheckIsAnyWidgetActive:
 1733              	.LFB58:
1230:.\Generated_Source\PSoC4/CapSense_CSHL.c **** 
1231:.\Generated_Source\PSoC4/CapSense_CSHL.c **** 
1232:.\Generated_Source\PSoC4/CapSense_CSHL.c **** /*******************************************************************************
1233:.\Generated_Source\PSoC4/CapSense_CSHL.c **** * Function Name: CapSense_CheckIsAnyWidgetActive
1234:.\Generated_Source\PSoC4/CapSense_CSHL.c **** ********************************************************************************
1235:.\Generated_Source\PSoC4/CapSense_CSHL.c **** *
1236:.\Generated_Source\PSoC4/CapSense_CSHL.c **** * Summary:
1237:.\Generated_Source\PSoC4/CapSense_CSHL.c **** *  Compares all the sensors of the CapSense_Signal[] array to their finger
1238:.\Generated_Source\PSoC4/CapSense_CSHL.c **** *  threshold. Calls CapSense_CheckIsWidgetActive() for each widget so
1239:.\Generated_Source\PSoC4/CapSense_CSHL.c **** *  the CapSense_sensorOnMask[] array is up to date after calling this
1240:.\Generated_Source\PSoC4/CapSense_CSHL.c **** *  function.
1241:.\Generated_Source\PSoC4/CapSense_CSHL.c **** *
1242:.\Generated_Source\PSoC4/CapSense_CSHL.c **** * Parameters:
1243:.\Generated_Source\PSoC4/CapSense_CSHL.c **** *  widget:  widget number.
1244:.\Generated_Source\PSoC4/CapSense_CSHL.c **** *
1245:.\Generated_Source\PSoC4/CapSense_CSHL.c **** * Return:
1246:.\Generated_Source\PSoC4/CapSense_CSHL.c **** *  Returns 1 if any widget is active, 0 none of widgets are active.
1247:.\Generated_Source\PSoC4/CapSense_CSHL.c **** *
1248:.\Generated_Source\PSoC4/CapSense_CSHL.c **** * Global Variables:
1249:.\Generated_Source\PSoC4/CapSense_CSHL.c **** *  None
1250:.\Generated_Source\PSoC4/CapSense_CSHL.c **** *
1251:.\Generated_Source\PSoC4/CapSense_CSHL.c **** * Side Effects:
1252:.\Generated_Source\PSoC4/CapSense_CSHL.c **** *  None
1253:.\Generated_Source\PSoC4/CapSense_CSHL.c **** *
1254:.\Generated_Source\PSoC4/CapSense_CSHL.c **** *******************************************************************************/
1255:.\Generated_Source\PSoC4/CapSense_CSHL.c **** uint32 CapSense_CheckIsAnyWidgetActive(void)
1256:.\Generated_Source\PSoC4/CapSense_CSHL.c **** {
 1734              		.loc 1 1256 0
 1735              		.cfi_startproc
 1736 0000 80B5     		push	{r7, lr}
 1737              		.cfi_def_cfa_offset 8
 1738              		.cfi_offset 7, -8
 1739              		.cfi_offset 14, -4
 1740 0002 82B0     		sub	sp, sp, #8
 1741              		.cfi_def_cfa_offset 16
 1742 0004 00AF     		add	r7, sp, #0
 1743              		.cfi_def_cfa_register 7
1257:.\Generated_Source\PSoC4/CapSense_CSHL.c **** 
1258:.\Generated_Source\PSoC4/CapSense_CSHL.c ****         uint32 i;
1259:.\Generated_Source\PSoC4/CapSense_CSHL.c ****     uint32 state = 0u;
 1744              		.loc 1 1259 0
ARM GAS  C:\Users\lovelesh\AppData\Local\Temp\ccDxuV7s.s 			page 54


 1745 0006 0023     		mov	r3, #0
 1746 0008 3B60     		str	r3, [r7]
1260:.\Generated_Source\PSoC4/CapSense_CSHL.c ****     
1261:.\Generated_Source\PSoC4/CapSense_CSHL.c ****     for(i = 0u; i < CapSense_TOTAL_WIDGET_COUNT; i++)
 1747              		.loc 1 1261 0
 1748 000a 0023     		mov	r3, #0
 1749 000c 7B60     		str	r3, [r7, #4]
 1750 000e 0AE0     		b	.L113
 1751              	.L115:
1262:.\Generated_Source\PSoC4/CapSense_CSHL.c ****     {
1263:.\Generated_Source\PSoC4/CapSense_CSHL.c ****         if (CapSense_CheckIsWidgetActive(i) != 0u)
 1752              		.loc 1 1263 0
 1753 0010 7B68     		ldr	r3, [r7, #4]
 1754 0012 181C     		mov	r0, r3
 1755 0014 FFF7FEFF 		bl	CapSense_CheckIsWidgetActive
 1756 0018 031E     		sub	r3, r0, #0
 1757 001a 01D0     		beq	.L114
1264:.\Generated_Source\PSoC4/CapSense_CSHL.c ****         {
1265:.\Generated_Source\PSoC4/CapSense_CSHL.c ****             state = CapSense_WIDGET_IS_ACTIVE;
 1758              		.loc 1 1265 0
 1759 001c 0123     		mov	r3, #1
 1760 001e 3B60     		str	r3, [r7]
 1761              	.L114:
1261:.\Generated_Source\PSoC4/CapSense_CSHL.c ****     {
 1762              		.loc 1 1261 0 discriminator 2
 1763 0020 7B68     		ldr	r3, [r7, #4]
 1764 0022 0133     		add	r3, r3, #1
 1765 0024 7B60     		str	r3, [r7, #4]
 1766              	.L113:
1261:.\Generated_Source\PSoC4/CapSense_CSHL.c ****     {
 1767              		.loc 1 1261 0 is_stmt 0 discriminator 1
 1768 0026 7B68     		ldr	r3, [r7, #4]
 1769 0028 032B     		cmp	r3, #3
 1770 002a F1D9     		bls	.L115
1266:.\Generated_Source\PSoC4/CapSense_CSHL.c ****         }
1267:.\Generated_Source\PSoC4/CapSense_CSHL.c ****     }
1268:.\Generated_Source\PSoC4/CapSense_CSHL.c ****     
1269:.\Generated_Source\PSoC4/CapSense_CSHL.c **** 
1270:.\Generated_Source\PSoC4/CapSense_CSHL.c **** 
1271:.\Generated_Source\PSoC4/CapSense_CSHL.c ****     return state;
 1771              		.loc 1 1271 0 is_stmt 1
 1772 002c 3B68     		ldr	r3, [r7]
1272:.\Generated_Source\PSoC4/CapSense_CSHL.c **** }
 1773              		.loc 1 1272 0
 1774 002e 181C     		mov	r0, r3
 1775 0030 BD46     		mov	sp, r7
 1776 0032 02B0     		add	sp, sp, #8
 1777              		@ sp needed
 1778 0034 80BD     		pop	{r7, pc}
 1779              		.cfi_endproc
 1780              	.LFE58:
 1781              		.size	CapSense_CheckIsAnyWidgetActive, .-CapSense_CheckIsAnyWidgetActive
 1782 0036 C046     		.section	.text.CapSense_EnableWidget,"ax",%progbits
 1783              		.align	2
 1784              		.global	CapSense_EnableWidget
 1785              		.code	16
 1786              		.thumb_func
ARM GAS  C:\Users\lovelesh\AppData\Local\Temp\ccDxuV7s.s 			page 55


 1787              		.type	CapSense_EnableWidget, %function
 1788              	CapSense_EnableWidget:
 1789              	.LFB59:
1273:.\Generated_Source\PSoC4/CapSense_CSHL.c **** 
1274:.\Generated_Source\PSoC4/CapSense_CSHL.c **** 
1275:.\Generated_Source\PSoC4/CapSense_CSHL.c **** /*******************************************************************************
1276:.\Generated_Source\PSoC4/CapSense_CSHL.c **** * Function Name: CapSense_EnableWidget
1277:.\Generated_Source\PSoC4/CapSense_CSHL.c **** ********************************************************************************
1278:.\Generated_Source\PSoC4/CapSense_CSHL.c **** *
1279:.\Generated_Source\PSoC4/CapSense_CSHL.c **** * Summary:
1280:.\Generated_Source\PSoC4/CapSense_CSHL.c **** *  Enables all the widget elements (sensors) to the scanning process.
1281:.\Generated_Source\PSoC4/CapSense_CSHL.c **** *
1282:.\Generated_Source\PSoC4/CapSense_CSHL.c **** * Parameters:
1283:.\Generated_Source\PSoC4/CapSense_CSHL.c **** *  widget:  widget number.
1284:.\Generated_Source\PSoC4/CapSense_CSHL.c **** *
1285:.\Generated_Source\PSoC4/CapSense_CSHL.c **** * Return:
1286:.\Generated_Source\PSoC4/CapSense_CSHL.c **** *  None
1287:.\Generated_Source\PSoC4/CapSense_CSHL.c **** *
1288:.\Generated_Source\PSoC4/CapSense_CSHL.c **** * Global Variables:
1289:.\Generated_Source\PSoC4/CapSense_CSHL.c **** *  CapSense_sensorEnableMask[] - used to store the sensor scanning
1290:.\Generated_Source\PSoC4/CapSense_CSHL.c **** *  state.
1291:.\Generated_Source\PSoC4/CapSense_CSHL.c **** *  CapSense_sensorEnableMask[0] contains the masked bits for sensors
1292:.\Generated_Source\PSoC4/CapSense_CSHL.c **** *  0 through 7 (sensor 0 is bit 0, sensor 1 is bit 1).
1293:.\Generated_Source\PSoC4/CapSense_CSHL.c **** *  CapSense_sensorEnableMask[1] contains the masked bits for
1294:.\Generated_Source\PSoC4/CapSense_CSHL.c **** *  sensors 8 through 15 (if needed), and so on.
1295:.\Generated_Source\PSoC4/CapSense_CSHL.c **** *  0 - sensor doesn't scan by CapSense_ScanEnabledWidgets().
1296:.\Generated_Source\PSoC4/CapSense_CSHL.c **** *  1 - sensor scans by CapSense_ScanEnabledWidgets().
1297:.\Generated_Source\PSoC4/CapSense_CSHL.c **** *
1298:.\Generated_Source\PSoC4/CapSense_CSHL.c **** * Side Effects:
1299:.\Generated_Source\PSoC4/CapSense_CSHL.c **** *  None
1300:.\Generated_Source\PSoC4/CapSense_CSHL.c **** *
1301:.\Generated_Source\PSoC4/CapSense_CSHL.c **** *******************************************************************************/
1302:.\Generated_Source\PSoC4/CapSense_CSHL.c **** void CapSense_EnableWidget(uint32 widget)
1303:.\Generated_Source\PSoC4/CapSense_CSHL.c **** {
 1790              		.loc 1 1303 0
 1791              		.cfi_startproc
 1792 0000 80B5     		push	{r7, lr}
 1793              		.cfi_def_cfa_offset 8
 1794              		.cfi_offset 7, -8
 1795              		.cfi_offset 14, -4
 1796 0002 84B0     		sub	sp, sp, #16
 1797              		.cfi_def_cfa_offset 24
 1798 0004 00AF     		add	r7, sp, #0
 1799              		.cfi_def_cfa_register 7
 1800 0006 7860     		str	r0, [r7, #4]
1304:.\Generated_Source\PSoC4/CapSense_CSHL.c **** 
1305:.\Generated_Source\PSoC4/CapSense_CSHL.c ****     uint8 rawIndex = CapSense_rawDataIndex[widget];
 1801              		.loc 1 1305 0
 1802 0008 0F23     		mov	r3, #15
 1803 000a FB18     		add	r3, r7, r3
 1804 000c 1549     		ldr	r1, .L119
 1805 000e 7A68     		ldr	r2, [r7, #4]
 1806 0010 8A18     		add	r2, r1, r2
 1807 0012 1278     		ldrb	r2, [r2]
 1808 0014 1A70     		strb	r2, [r3]
1306:.\Generated_Source\PSoC4/CapSense_CSHL.c ****     uint8 numOfSensors = CapSense_numberOfSensors[widget] + rawIndex;
 1809              		.loc 1 1306 0
ARM GAS  C:\Users\lovelesh\AppData\Local\Temp\ccDxuV7s.s 			page 56


 1810 0016 144A     		ldr	r2, .L119+4
 1811 0018 7B68     		ldr	r3, [r7, #4]
 1812 001a D318     		add	r3, r2, r3
 1813 001c 1978     		ldrb	r1, [r3]
 1814 001e 0E23     		mov	r3, #14
 1815 0020 FB18     		add	r3, r7, r3
 1816 0022 0F22     		mov	r2, #15
 1817 0024 BA18     		add	r2, r7, r2
 1818 0026 1278     		ldrb	r2, [r2]
 1819 0028 8A18     		add	r2, r1, r2
 1820 002a 1A70     		strb	r2, [r3]
 1821              	.L118:
1307:.\Generated_Source\PSoC4/CapSense_CSHL.c **** 
1308:.\Generated_Source\PSoC4/CapSense_CSHL.c ****     /* Enable all sensors of widget */
1309:.\Generated_Source\PSoC4/CapSense_CSHL.c ****     do
1310:.\Generated_Source\PSoC4/CapSense_CSHL.c ****     {
1311:.\Generated_Source\PSoC4/CapSense_CSHL.c ****         CapSense_SetBitValue(CapSense_sensorEnableMask, (uint32)rawIndex, 1u);
 1822              		.loc 1 1311 0 discriminator 1
 1823 002c 0F23     		mov	r3, #15
 1824 002e FB18     		add	r3, r7, r3
 1825 0030 1B78     		ldrb	r3, [r3]
 1826 0032 0E4A     		ldr	r2, .L119+8
 1827 0034 101C     		mov	r0, r2
 1828 0036 191C     		mov	r1, r3
 1829 0038 0122     		mov	r2, #1
 1830 003a FFF7FEFF 		bl	CapSense_SetBitValue
1312:.\Generated_Source\PSoC4/CapSense_CSHL.c ****         rawIndex++;
 1831              		.loc 1 1312 0 discriminator 1
 1832 003e 0F23     		mov	r3, #15
 1833 0040 FB18     		add	r3, r7, r3
 1834 0042 1A78     		ldrb	r2, [r3]
 1835 0044 0F23     		mov	r3, #15
 1836 0046 FB18     		add	r3, r7, r3
 1837 0048 0132     		add	r2, r2, #1
 1838 004a 1A70     		strb	r2, [r3]
1313:.\Generated_Source\PSoC4/CapSense_CSHL.c ****     }
1314:.\Generated_Source\PSoC4/CapSense_CSHL.c ****     while(rawIndex < numOfSensors);
 1839              		.loc 1 1314 0 discriminator 1
 1840 004c 0F23     		mov	r3, #15
 1841 004e FA18     		add	r2, r7, r3
 1842 0050 0E23     		mov	r3, #14
 1843 0052 FB18     		add	r3, r7, r3
 1844 0054 1278     		ldrb	r2, [r2]
 1845 0056 1B78     		ldrb	r3, [r3]
 1846 0058 9A42     		cmp	r2, r3
 1847 005a E7D3     		bcc	.L118
1315:.\Generated_Source\PSoC4/CapSense_CSHL.c **** }
 1848              		.loc 1 1315 0
 1849 005c BD46     		mov	sp, r7
 1850 005e 04B0     		add	sp, sp, #16
 1851              		@ sp needed
 1852 0060 80BD     		pop	{r7, pc}
 1853              	.L120:
 1854 0062 C046     		.align	2
 1855              	.L119:
 1856 0064 00000000 		.word	CapSense_rawDataIndex
 1857 0068 00000000 		.word	CapSense_numberOfSensors
ARM GAS  C:\Users\lovelesh\AppData\Local\Temp\ccDxuV7s.s 			page 57


 1858 006c 00000000 		.word	CapSense_sensorEnableMask
 1859              		.cfi_endproc
 1860              	.LFE59:
 1861              		.size	CapSense_EnableWidget, .-CapSense_EnableWidget
 1862              		.section	.text.CapSense_DisableWidget,"ax",%progbits
 1863              		.align	2
 1864              		.global	CapSense_DisableWidget
 1865              		.code	16
 1866              		.thumb_func
 1867              		.type	CapSense_DisableWidget, %function
 1868              	CapSense_DisableWidget:
 1869              	.LFB60:
1316:.\Generated_Source\PSoC4/CapSense_CSHL.c **** 
1317:.\Generated_Source\PSoC4/CapSense_CSHL.c **** 
1318:.\Generated_Source\PSoC4/CapSense_CSHL.c **** /*******************************************************************************
1319:.\Generated_Source\PSoC4/CapSense_CSHL.c **** * Function Name: CapSense_DisableWidget
1320:.\Generated_Source\PSoC4/CapSense_CSHL.c **** ********************************************************************************
1321:.\Generated_Source\PSoC4/CapSense_CSHL.c **** *
1322:.\Generated_Source\PSoC4/CapSense_CSHL.c **** * Summary:
1323:.\Generated_Source\PSoC4/CapSense_CSHL.c **** *  Disables all the widget elements (sensors) from the scanning process.
1324:.\Generated_Source\PSoC4/CapSense_CSHL.c **** *
1325:.\Generated_Source\PSoC4/CapSense_CSHL.c **** * Parameters:
1326:.\Generated_Source\PSoC4/CapSense_CSHL.c **** *  widget:  widget number.
1327:.\Generated_Source\PSoC4/CapSense_CSHL.c **** *
1328:.\Generated_Source\PSoC4/CapSense_CSHL.c **** * Return:
1329:.\Generated_Source\PSoC4/CapSense_CSHL.c **** *  None
1330:.\Generated_Source\PSoC4/CapSense_CSHL.c **** *
1331:.\Generated_Source\PSoC4/CapSense_CSHL.c **** * Global Variables:
1332:.\Generated_Source\PSoC4/CapSense_CSHL.c **** *  CapSense_sensorEnableMask[] - used to store the sensor scanning
1333:.\Generated_Source\PSoC4/CapSense_CSHL.c **** *  state.
1334:.\Generated_Source\PSoC4/CapSense_CSHL.c **** *  CapSense_sensorEnableMask[0] contains the masked bits for sensors
1335:.\Generated_Source\PSoC4/CapSense_CSHL.c **** *  0 through 7 (sensor 0 is bit 0, sensor 1 is bit 1).
1336:.\Generated_Source\PSoC4/CapSense_CSHL.c **** *  CapSense_sensorEnableMask[1] contains the masked bits for
1337:.\Generated_Source\PSoC4/CapSense_CSHL.c **** *  sensors 8 through 15 (if needed), and so on.
1338:.\Generated_Source\PSoC4/CapSense_CSHL.c **** *  0 - sensor isn't scanned by CapSense_ScanEnabledWidgets().
1339:.\Generated_Source\PSoC4/CapSense_CSHL.c **** *  1 - sensor is scanned by CapSense_ScanEnabledWidgets().
1340:.\Generated_Source\PSoC4/CapSense_CSHL.c **** *
1341:.\Generated_Source\PSoC4/CapSense_CSHL.c **** * Side Effects:
1342:.\Generated_Source\PSoC4/CapSense_CSHL.c **** *  None
1343:.\Generated_Source\PSoC4/CapSense_CSHL.c **** *
1344:.\Generated_Source\PSoC4/CapSense_CSHL.c **** *******************************************************************************/
1345:.\Generated_Source\PSoC4/CapSense_CSHL.c **** void CapSense_DisableWidget(uint32 widget)
1346:.\Generated_Source\PSoC4/CapSense_CSHL.c **** {
 1870              		.loc 1 1346 0
 1871              		.cfi_startproc
 1872 0000 80B5     		push	{r7, lr}
 1873              		.cfi_def_cfa_offset 8
 1874              		.cfi_offset 7, -8
 1875              		.cfi_offset 14, -4
 1876 0002 84B0     		sub	sp, sp, #16
 1877              		.cfi_def_cfa_offset 24
 1878 0004 00AF     		add	r7, sp, #0
 1879              		.cfi_def_cfa_register 7
 1880 0006 7860     		str	r0, [r7, #4]
1347:.\Generated_Source\PSoC4/CapSense_CSHL.c ****     uint8 rawIndex = CapSense_rawDataIndex[widget];
 1881              		.loc 1 1347 0
 1882 0008 0F23     		mov	r3, #15
ARM GAS  C:\Users\lovelesh\AppData\Local\Temp\ccDxuV7s.s 			page 58


 1883 000a FB18     		add	r3, r7, r3
 1884 000c 1549     		ldr	r1, .L123
 1885 000e 7A68     		ldr	r2, [r7, #4]
 1886 0010 8A18     		add	r2, r1, r2
 1887 0012 1278     		ldrb	r2, [r2]
 1888 0014 1A70     		strb	r2, [r3]
1348:.\Generated_Source\PSoC4/CapSense_CSHL.c ****     uint8 numOfSensors = CapSense_numberOfSensors[widget] + rawIndex;
 1889              		.loc 1 1348 0
 1890 0016 144A     		ldr	r2, .L123+4
 1891 0018 7B68     		ldr	r3, [r7, #4]
 1892 001a D318     		add	r3, r2, r3
 1893 001c 1978     		ldrb	r1, [r3]
 1894 001e 0E23     		mov	r3, #14
 1895 0020 FB18     		add	r3, r7, r3
 1896 0022 0F22     		mov	r2, #15
 1897 0024 BA18     		add	r2, r7, r2
 1898 0026 1278     		ldrb	r2, [r2]
 1899 0028 8A18     		add	r2, r1, r2
 1900 002a 1A70     		strb	r2, [r3]
 1901              	.L122:
1349:.\Generated_Source\PSoC4/CapSense_CSHL.c **** 
1350:.\Generated_Source\PSoC4/CapSense_CSHL.c ****     /* Disable all sensors of widget */
1351:.\Generated_Source\PSoC4/CapSense_CSHL.c ****     do
1352:.\Generated_Source\PSoC4/CapSense_CSHL.c ****     {
1353:.\Generated_Source\PSoC4/CapSense_CSHL.c **** 
1354:.\Generated_Source\PSoC4/CapSense_CSHL.c ****         CapSense_SetBitValue(CapSense_sensorEnableMask, (uint32)rawIndex, 0u);
 1902              		.loc 1 1354 0 discriminator 1
 1903 002c 0F23     		mov	r3, #15
 1904 002e FB18     		add	r3, r7, r3
 1905 0030 1B78     		ldrb	r3, [r3]
 1906 0032 0E4A     		ldr	r2, .L123+8
 1907 0034 101C     		mov	r0, r2
 1908 0036 191C     		mov	r1, r3
 1909 0038 0022     		mov	r2, #0
 1910 003a FFF7FEFF 		bl	CapSense_SetBitValue
1355:.\Generated_Source\PSoC4/CapSense_CSHL.c ****         rawIndex++;
 1911              		.loc 1 1355 0 discriminator 1
 1912 003e 0F23     		mov	r3, #15
 1913 0040 FB18     		add	r3, r7, r3
 1914 0042 1A78     		ldrb	r2, [r3]
 1915 0044 0F23     		mov	r3, #15
 1916 0046 FB18     		add	r3, r7, r3
 1917 0048 0132     		add	r2, r2, #1
 1918 004a 1A70     		strb	r2, [r3]
1356:.\Generated_Source\PSoC4/CapSense_CSHL.c ****     }
1357:.\Generated_Source\PSoC4/CapSense_CSHL.c ****     while(rawIndex < numOfSensors);
 1919              		.loc 1 1357 0 discriminator 1
 1920 004c 0F23     		mov	r3, #15
 1921 004e FA18     		add	r2, r7, r3
 1922 0050 0E23     		mov	r3, #14
 1923 0052 FB18     		add	r3, r7, r3
 1924 0054 1278     		ldrb	r2, [r2]
 1925 0056 1B78     		ldrb	r3, [r3]
 1926 0058 9A42     		cmp	r2, r3
 1927 005a E7D3     		bcc	.L122
1358:.\Generated_Source\PSoC4/CapSense_CSHL.c **** }
 1928              		.loc 1 1358 0
ARM GAS  C:\Users\lovelesh\AppData\Local\Temp\ccDxuV7s.s 			page 59


 1929 005c BD46     		mov	sp, r7
 1930 005e 04B0     		add	sp, sp, #16
 1931              		@ sp needed
 1932 0060 80BD     		pop	{r7, pc}
 1933              	.L124:
 1934 0062 C046     		.align	2
 1935              	.L123:
 1936 0064 00000000 		.word	CapSense_rawDataIndex
 1937 0068 00000000 		.word	CapSense_numberOfSensors
 1938 006c 00000000 		.word	CapSense_sensorEnableMask
 1939              		.cfi_endproc
 1940              	.LFE60:
 1941              		.size	CapSense_DisableWidget, .-CapSense_DisableWidget
 1942              		.section	.text.CapSense_FindMaximum,"ax",%progbits
 1943              		.align	2
 1944              		.global	CapSense_FindMaximum
 1945              		.code	16
 1946              		.thumb_func
 1947              		.type	CapSense_FindMaximum, %function
 1948              	CapSense_FindMaximum:
 1949              	.LFB61:
1359:.\Generated_Source\PSoC4/CapSense_CSHL.c **** 
1360:.\Generated_Source\PSoC4/CapSense_CSHL.c **** 
1361:.\Generated_Source\PSoC4/CapSense_CSHL.c **** #if(CapSense_TOTAL_CENTROIDS_BASIC_COUNT)
1362:.\Generated_Source\PSoC4/CapSense_CSHL.c ****     /*******************************************************************************
1363:.\Generated_Source\PSoC4/CapSense_CSHL.c ****     * Function Name: CapSense_FindMaximum
1364:.\Generated_Source\PSoC4/CapSense_CSHL.c ****     ********************************************************************************
1365:.\Generated_Source\PSoC4/CapSense_CSHL.c ****     *
1366:.\Generated_Source\PSoC4/CapSense_CSHL.c ****     * Summary:
1367:.\Generated_Source\PSoC4/CapSense_CSHL.c ****     *  Finds the index of the maximum element within a defined centroid. Checks
1368:.\Generated_Source\PSoC4/CapSense_CSHL.c ****     *  CapSense_sensorSignal[] within a defined centroid and
1369:.\Generated_Source\PSoC4/CapSense_CSHL.c ****     *  returns the index of the maximum element. The values below the finger threshold are
1370:.\Generated_Source\PSoC4/CapSense_CSHL.c ****     *  ignored.
1371:.\Generated_Source\PSoC4/CapSense_CSHL.c ****     *  The centroid is defined by offset of the first element and a number of elements - count.
1372:.\Generated_Source\PSoC4/CapSense_CSHL.c ****     *  The diplexed centroid requires at least two consecutive elements above
1373:.\Generated_Source\PSoC4/CapSense_CSHL.c ****     *  FingerThreshold to find the index of the maximum element.
1374:.\Generated_Source\PSoC4/CapSense_CSHL.c ****     *
1375:.\Generated_Source\PSoC4/CapSense_CSHL.c ****     * Parameters:
1376:.\Generated_Source\PSoC4/CapSense_CSHL.c ****     *  offset:  Start index of centroid in CapSense_sensorSignal[] array.
1377:.\Generated_Source\PSoC4/CapSense_CSHL.c ****     *  count:   number of elements within centroid.
1378:.\Generated_Source\PSoC4/CapSense_CSHL.c ****     *  fingerThreshold:  Finger threshold.
1379:.\Generated_Source\PSoC4/CapSense_CSHL.c ****     *  diplex:   pointer to diplex table.
1380:.\Generated_Source\PSoC4/CapSense_CSHL.c ****     *
1381:.\Generated_Source\PSoC4/CapSense_CSHL.c ****     * Return:
1382:.\Generated_Source\PSoC4/CapSense_CSHL.c ****     *  Returns the index of the maximum element within a defined centroid.
1383:.\Generated_Source\PSoC4/CapSense_CSHL.c ****     *  If the index of the maximum element isn't found it returns 0xFF.
1384:.\Generated_Source\PSoC4/CapSense_CSHL.c ****     *
1385:.\Generated_Source\PSoC4/CapSense_CSHL.c ****     * Global Variables:
1386:.\Generated_Source\PSoC4/CapSense_CSHL.c ****     *  CapSense_startOfSlider[] - contains the index of the first slider element
1387:.\Generated_Source\PSoC4/CapSense_CSHL.c ****     *
1388:.\Generated_Source\PSoC4/CapSense_CSHL.c ****     * Side Effects:
1389:.\Generated_Source\PSoC4/CapSense_CSHL.c ****     *  None
1390:.\Generated_Source\PSoC4/CapSense_CSHL.c ****     *
1391:.\Generated_Source\PSoC4/CapSense_CSHL.c ****     *******************************************************************************/
1392:.\Generated_Source\PSoC4/CapSense_CSHL.c ****     #if (CapSense_IS_DIPLEX_SLIDER)
1393:.\Generated_Source\PSoC4/CapSense_CSHL.c ****         uint8 CapSense_FindMaximum(uint8 offset, uint8 count, uint8 fingerThreshold, const uint8 *d
1394:.\Generated_Source\PSoC4/CapSense_CSHL.c ****     #else
ARM GAS  C:\Users\lovelesh\AppData\Local\Temp\ccDxuV7s.s 			page 60


1395:.\Generated_Source\PSoC4/CapSense_CSHL.c ****         uint8 CapSense_FindMaximum(uint8 offset, uint8 count, uint8 fingerThreshold)
1396:.\Generated_Source\PSoC4/CapSense_CSHL.c ****     #endif /* (CapSense_IS_DIPLEX_SLIDER) */
1397:.\Generated_Source\PSoC4/CapSense_CSHL.c ****     {
 1950              		.loc 1 1397 0
 1951              		.cfi_startproc
 1952 0000 90B5     		push	{r4, r7, lr}
 1953              		.cfi_def_cfa_offset 12
 1954              		.cfi_offset 4, -12
 1955              		.cfi_offset 7, -8
 1956              		.cfi_offset 14, -4
 1957 0002 85B0     		sub	sp, sp, #20
 1958              		.cfi_def_cfa_offset 32
 1959 0004 00AF     		add	r7, sp, #0
 1960              		.cfi_def_cfa_register 7
 1961 0006 041C     		mov	r4, r0
 1962 0008 081C     		mov	r0, r1
 1963 000a 111C     		mov	r1, r2
 1964 000c FB1D     		add	r3, r7, #7
 1965 000e 221C     		add	r2, r4, #0
 1966 0010 1A70     		strb	r2, [r3]
 1967 0012 BB1D     		add	r3, r7, #6
 1968 0014 021C     		add	r2, r0, #0
 1969 0016 1A70     		strb	r2, [r3]
 1970 0018 7B1D     		add	r3, r7, #5
 1971 001a 0A1C     		add	r2, r1, #0
 1972 001c 1A70     		strb	r2, [r3]
1398:.\Generated_Source\PSoC4/CapSense_CSHL.c ****         uint8 i;
1399:.\Generated_Source\PSoC4/CapSense_CSHL.c ****         #if (CapSense_IS_DIPLEX_SLIDER)
1400:.\Generated_Source\PSoC4/CapSense_CSHL.c ****             uint8 curPos = 0u;
1401:.\Generated_Source\PSoC4/CapSense_CSHL.c ****             /* No centroid at Start */
1402:.\Generated_Source\PSoC4/CapSense_CSHL.c ****             uint8 curCntrdSize = 0u;
1403:.\Generated_Source\PSoC4/CapSense_CSHL.c ****             uint8 curCtrdStartPos = CapSense_MAXIMUM_CENTROID;
1404:.\Generated_Source\PSoC4/CapSense_CSHL.c ****             /* Biggest centroid is zero */
1405:.\Generated_Source\PSoC4/CapSense_CSHL.c ****             uint8 biggestCtrdSize = 0u;
1406:.\Generated_Source\PSoC4/CapSense_CSHL.c ****             uint8 biggestCtrdStartPos = 0u;
1407:.\Generated_Source\PSoC4/CapSense_CSHL.c ****         #endif /* (CapSense_IS_DIPLEX_SLIDER) */
1408:.\Generated_Source\PSoC4/CapSense_CSHL.c ****         uint8 maximum = CapSense_MAXIMUM_CENTROID;
 1973              		.loc 1 1408 0
 1974 001e 0E23     		mov	r3, #14
 1975 0020 FB18     		add	r3, r7, r3
 1976 0022 FF22     		mov	r2, #255
 1977 0024 1A70     		strb	r2, [r3]
1409:.\Generated_Source\PSoC4/CapSense_CSHL.c **** 
1410:.\Generated_Source\PSoC4/CapSense_CSHL.c ****         uint8 temp = 0u;
 1978              		.loc 1 1410 0
 1979 0026 0D23     		mov	r3, #13
 1980 0028 FB18     		add	r3, r7, r3
 1981 002a 0022     		mov	r2, #0
 1982 002c 1A70     		strb	r2, [r3]
1411:.\Generated_Source\PSoC4/CapSense_CSHL.c ****         uint8 *startOfSlider = &CapSense_sensorSignal[offset];
 1983              		.loc 1 1411 0
 1984 002e FB1D     		add	r3, r7, #7
 1985 0030 1A78     		ldrb	r2, [r3]
 1986 0032 204B     		ldr	r3, .L130
 1987 0034 D318     		add	r3, r2, r3
 1988 0036 BB60     		str	r3, [r7, #8]
1412:.\Generated_Source\PSoC4/CapSense_CSHL.c **** 
ARM GAS  C:\Users\lovelesh\AppData\Local\Temp\ccDxuV7s.s 			page 61


1413:.\Generated_Source\PSoC4/CapSense_CSHL.c ****         #if (CapSense_IS_DIPLEX_SLIDER)
1414:.\Generated_Source\PSoC4/CapSense_CSHL.c ****             if(diplex != 0u)
1415:.\Generated_Source\PSoC4/CapSense_CSHL.c ****             {
1416:.\Generated_Source\PSoC4/CapSense_CSHL.c ****                 /* Initialize */
1417:.\Generated_Source\PSoC4/CapSense_CSHL.c ****                 i = 0u;
1418:.\Generated_Source\PSoC4/CapSense_CSHL.c **** 
1419:.\Generated_Source\PSoC4/CapSense_CSHL.c ****                 /* Make slider x2 as Diplexed */
1420:.\Generated_Source\PSoC4/CapSense_CSHL.c ****                 count <<= 1u;
1421:.\Generated_Source\PSoC4/CapSense_CSHL.c ****                 while(1u)
1422:.\Generated_Source\PSoC4/CapSense_CSHL.c ****                 {
1423:.\Generated_Source\PSoC4/CapSense_CSHL.c ****                     if (startOfSlider[curPos] > 0u)    /* Looking for centroids */
1424:.\Generated_Source\PSoC4/CapSense_CSHL.c ****                     {
1425:.\Generated_Source\PSoC4/CapSense_CSHL.c ****                         if (curCtrdStartPos == CapSense_MAXIMUM_CENTROID)
1426:.\Generated_Source\PSoC4/CapSense_CSHL.c ****                         {
1427:.\Generated_Source\PSoC4/CapSense_CSHL.c ****                             /* Start of centroid */
1428:.\Generated_Source\PSoC4/CapSense_CSHL.c ****                             curCtrdStartPos = i;
1429:.\Generated_Source\PSoC4/CapSense_CSHL.c ****                             curCntrdSize++;
1430:.\Generated_Source\PSoC4/CapSense_CSHL.c ****                         }
1431:.\Generated_Source\PSoC4/CapSense_CSHL.c ****                         else
1432:.\Generated_Source\PSoC4/CapSense_CSHL.c ****                         {
1433:.\Generated_Source\PSoC4/CapSense_CSHL.c ****                             curCntrdSize++;
1434:.\Generated_Source\PSoC4/CapSense_CSHL.c ****                         }
1435:.\Generated_Source\PSoC4/CapSense_CSHL.c ****                     }
1436:.\Generated_Source\PSoC4/CapSense_CSHL.c ****                     else   /* Select biggest and indicate zero start */
1437:.\Generated_Source\PSoC4/CapSense_CSHL.c ****                     {
1438:.\Generated_Source\PSoC4/CapSense_CSHL.c ****                         if(curCntrdSize > 0u)
1439:.\Generated_Source\PSoC4/CapSense_CSHL.c ****                         {
1440:.\Generated_Source\PSoC4/CapSense_CSHL.c ****                             /* We are at the end of current */
1441:.\Generated_Source\PSoC4/CapSense_CSHL.c ****                             if(curCntrdSize > biggestCtrdSize)
1442:.\Generated_Source\PSoC4/CapSense_CSHL.c ****                             {
1443:.\Generated_Source\PSoC4/CapSense_CSHL.c ****                                 biggestCtrdSize = curCntrdSize;
1444:.\Generated_Source\PSoC4/CapSense_CSHL.c ****                                 biggestCtrdStartPos = curCtrdStartPos;
1445:.\Generated_Source\PSoC4/CapSense_CSHL.c ****                             }
1446:.\Generated_Source\PSoC4/CapSense_CSHL.c **** 
1447:.\Generated_Source\PSoC4/CapSense_CSHL.c ****                             curCntrdSize = 0u;
1448:.\Generated_Source\PSoC4/CapSense_CSHL.c ****                             curCtrdStartPos = CapSense_MAXIMUM_CENTROID;
1449:.\Generated_Source\PSoC4/CapSense_CSHL.c ****                         }
1450:.\Generated_Source\PSoC4/CapSense_CSHL.c ****                     }
1451:.\Generated_Source\PSoC4/CapSense_CSHL.c **** 
1452:.\Generated_Source\PSoC4/CapSense_CSHL.c ****                     i++;
1453:.\Generated_Source\PSoC4/CapSense_CSHL.c ****                     curPos = diplex[i];
1454:.\Generated_Source\PSoC4/CapSense_CSHL.c ****                     if(i == count)
1455:.\Generated_Source\PSoC4/CapSense_CSHL.c ****                     {
1456:.\Generated_Source\PSoC4/CapSense_CSHL.c ****                         break;
1457:.\Generated_Source\PSoC4/CapSense_CSHL.c ****                     }
1458:.\Generated_Source\PSoC4/CapSense_CSHL.c ****                 }
1459:.\Generated_Source\PSoC4/CapSense_CSHL.c **** 
1460:.\Generated_Source\PSoC4/CapSense_CSHL.c ****                     /* Find biggest centroid if two are same size, last one wins
1461:.\Generated_Source\PSoC4/CapSense_CSHL.c ****                        We are at the end of current */
1462:.\Generated_Source\PSoC4/CapSense_CSHL.c ****                 if (curCntrdSize >= biggestCtrdSize)
1463:.\Generated_Source\PSoC4/CapSense_CSHL.c ****                 {
1464:.\Generated_Source\PSoC4/CapSense_CSHL.c ****                     biggestCtrdSize = curCntrdSize;
1465:.\Generated_Source\PSoC4/CapSense_CSHL.c ****                     biggestCtrdStartPos = curCtrdStartPos;
1466:.\Generated_Source\PSoC4/CapSense_CSHL.c ****                 }
1467:.\Generated_Source\PSoC4/CapSense_CSHL.c ****             }
1468:.\Generated_Source\PSoC4/CapSense_CSHL.c ****             else
1469:.\Generated_Source\PSoC4/CapSense_CSHL.c ****             {
ARM GAS  C:\Users\lovelesh\AppData\Local\Temp\ccDxuV7s.s 			page 62


1470:.\Generated_Source\PSoC4/CapSense_CSHL.c ****                 /* Without diplexing */
1471:.\Generated_Source\PSoC4/CapSense_CSHL.c ****                 biggestCtrdSize = count;
1472:.\Generated_Source\PSoC4/CapSense_CSHL.c ****             }
1473:.\Generated_Source\PSoC4/CapSense_CSHL.c **** 
1474:.\Generated_Source\PSoC4/CapSense_CSHL.c **** 
1475:.\Generated_Source\PSoC4/CapSense_CSHL.c ****             /* Check centroid size */
1476:.\Generated_Source\PSoC4/CapSense_CSHL.c ****             #if (CapSense_IS_NON_DIPLEX_SLIDER)
1477:.\Generated_Source\PSoC4/CapSense_CSHL.c ****                 if((biggestCtrdSize >= 2u) || ((biggestCtrdSize == 1u) && (diplex == 0u)))
1478:.\Generated_Source\PSoC4/CapSense_CSHL.c ****             #else
1479:.\Generated_Source\PSoC4/CapSense_CSHL.c ****                 if(biggestCtrdSize >= 2u)
1480:.\Generated_Source\PSoC4/CapSense_CSHL.c ****             #endif /* (CapSense_IS_NON_DIPLEX_SLIDER) */
1481:.\Generated_Source\PSoC4/CapSense_CSHL.c ****                 {
1482:.\Generated_Source\PSoC4/CapSense_CSHL.c ****                     for (i = biggestCtrdStartPos; i < (biggestCtrdStartPos + biggestCtrdSize); i++)
1483:.\Generated_Source\PSoC4/CapSense_CSHL.c ****                     {
1484:.\Generated_Source\PSoC4/CapSense_CSHL.c ****                         #if (CapSense_IS_DIPLEX_SLIDER && CapSense_IS_NON_DIPLEX_SLIDER)
1485:.\Generated_Source\PSoC4/CapSense_CSHL.c ****                             if (diplex == 0u)
1486:.\Generated_Source\PSoC4/CapSense_CSHL.c ****                             {
1487:.\Generated_Source\PSoC4/CapSense_CSHL.c ****                                 curPos = i;
1488:.\Generated_Source\PSoC4/CapSense_CSHL.c ****                             }
1489:.\Generated_Source\PSoC4/CapSense_CSHL.c ****                             else
1490:.\Generated_Source\PSoC4/CapSense_CSHL.c ****                             {
1491:.\Generated_Source\PSoC4/CapSense_CSHL.c ****                                 curPos = diplex[i];
1492:.\Generated_Source\PSoC4/CapSense_CSHL.c ****                             }
1493:.\Generated_Source\PSoC4/CapSense_CSHL.c ****                         #elif (CapSense_IS_DIPLEX_SLIDER)
1494:.\Generated_Source\PSoC4/CapSense_CSHL.c ****                             curPos = diplex[i];
1495:.\Generated_Source\PSoC4/CapSense_CSHL.c ****                         #endif /* (CapSense_IS_DIPLEX_SLIDER && CapSense_IS_NON_DIPLEX_SLIDER) */
1496:.\Generated_Source\PSoC4/CapSense_CSHL.c ****                         /* Looking for greater element within centroid */
1497:.\Generated_Source\PSoC4/CapSense_CSHL.c ****                         if(startOfSlider[curPos] > fingerThreshold)
1498:.\Generated_Source\PSoC4/CapSense_CSHL.c ****                         {
1499:.\Generated_Source\PSoC4/CapSense_CSHL.c ****                             if(startOfSlider[curPos] > temp)
1500:.\Generated_Source\PSoC4/CapSense_CSHL.c ****                             {
1501:.\Generated_Source\PSoC4/CapSense_CSHL.c ****                                 maximum = i;
1502:.\Generated_Source\PSoC4/CapSense_CSHL.c ****                                 temp = startOfSlider[curPos];
1503:.\Generated_Source\PSoC4/CapSense_CSHL.c ****                             }
1504:.\Generated_Source\PSoC4/CapSense_CSHL.c ****                         }
1505:.\Generated_Source\PSoC4/CapSense_CSHL.c ****                     }
1506:.\Generated_Source\PSoC4/CapSense_CSHL.c ****                 }
1507:.\Generated_Source\PSoC4/CapSense_CSHL.c ****         #else
1508:.\Generated_Source\PSoC4/CapSense_CSHL.c ****             for (i = 0u; i < count; i++)
 1989              		.loc 1 1508 0
 1990 0038 0F23     		mov	r3, #15
 1991 003a FB18     		add	r3, r7, r3
 1992 003c 0022     		mov	r2, #0
 1993 003e 1A70     		strb	r2, [r3]
 1994 0040 2AE0     		b	.L126
 1995              	.L128:
1509:.\Generated_Source\PSoC4/CapSense_CSHL.c ****             {
1510:.\Generated_Source\PSoC4/CapSense_CSHL.c ****                 /* Looking for greater element within centroid */
1511:.\Generated_Source\PSoC4/CapSense_CSHL.c ****                 if(startOfSlider[i] > fingerThreshold)
 1996              		.loc 1 1511 0
 1997 0042 0F23     		mov	r3, #15
 1998 0044 FB18     		add	r3, r7, r3
 1999 0046 1B78     		ldrb	r3, [r3]
 2000 0048 BA68     		ldr	r2, [r7, #8]
 2001 004a D318     		add	r3, r2, r3
 2002 004c 1B78     		ldrb	r3, [r3]
 2003 004e 7A1D     		add	r2, r7, #5
ARM GAS  C:\Users\lovelesh\AppData\Local\Temp\ccDxuV7s.s 			page 63


 2004 0050 1278     		ldrb	r2, [r2]
 2005 0052 9A42     		cmp	r2, r3
 2006 0054 19D2     		bcs	.L127
1512:.\Generated_Source\PSoC4/CapSense_CSHL.c ****                 {
1513:.\Generated_Source\PSoC4/CapSense_CSHL.c ****                     if(startOfSlider[i] > temp)
 2007              		.loc 1 1513 0
 2008 0056 0F23     		mov	r3, #15
 2009 0058 FB18     		add	r3, r7, r3
 2010 005a 1B78     		ldrb	r3, [r3]
 2011 005c BA68     		ldr	r2, [r7, #8]
 2012 005e D318     		add	r3, r2, r3
 2013 0060 1B78     		ldrb	r3, [r3]
 2014 0062 0D22     		mov	r2, #13
 2015 0064 BA18     		add	r2, r7, r2
 2016 0066 1278     		ldrb	r2, [r2]
 2017 0068 9A42     		cmp	r2, r3
 2018 006a 0ED2     		bcs	.L127
1514:.\Generated_Source\PSoC4/CapSense_CSHL.c ****                     {
1515:.\Generated_Source\PSoC4/CapSense_CSHL.c ****                         maximum = i;
 2019              		.loc 1 1515 0
 2020 006c 0E23     		mov	r3, #14
 2021 006e FB18     		add	r3, r7, r3
 2022 0070 0F22     		mov	r2, #15
 2023 0072 BA18     		add	r2, r7, r2
 2024 0074 1278     		ldrb	r2, [r2]
 2025 0076 1A70     		strb	r2, [r3]
1516:.\Generated_Source\PSoC4/CapSense_CSHL.c ****                         temp = startOfSlider[i];
 2026              		.loc 1 1516 0
 2027 0078 0F23     		mov	r3, #15
 2028 007a FB18     		add	r3, r7, r3
 2029 007c 1B78     		ldrb	r3, [r3]
 2030 007e BA68     		ldr	r2, [r7, #8]
 2031 0080 D218     		add	r2, r2, r3
 2032 0082 0D23     		mov	r3, #13
 2033 0084 FB18     		add	r3, r7, r3
 2034 0086 1278     		ldrb	r2, [r2]
 2035 0088 1A70     		strb	r2, [r3]
 2036              	.L127:
1508:.\Generated_Source\PSoC4/CapSense_CSHL.c ****             {
 2037              		.loc 1 1508 0 discriminator 2
 2038 008a 0F23     		mov	r3, #15
 2039 008c FB18     		add	r3, r7, r3
 2040 008e 1A78     		ldrb	r2, [r3]
 2041 0090 0F23     		mov	r3, #15
 2042 0092 FB18     		add	r3, r7, r3
 2043 0094 0132     		add	r2, r2, #1
 2044 0096 1A70     		strb	r2, [r3]
 2045              	.L126:
1508:.\Generated_Source\PSoC4/CapSense_CSHL.c ****             {
 2046              		.loc 1 1508 0 is_stmt 0 discriminator 1
 2047 0098 0F23     		mov	r3, #15
 2048 009a FA18     		add	r2, r7, r3
 2049 009c BB1D     		add	r3, r7, #6
 2050 009e 1278     		ldrb	r2, [r2]
 2051 00a0 1B78     		ldrb	r3, [r3]
 2052 00a2 9A42     		cmp	r2, r3
 2053 00a4 CDD3     		bcc	.L128
ARM GAS  C:\Users\lovelesh\AppData\Local\Temp\ccDxuV7s.s 			page 64


1517:.\Generated_Source\PSoC4/CapSense_CSHL.c ****                     }
1518:.\Generated_Source\PSoC4/CapSense_CSHL.c ****                 }
1519:.\Generated_Source\PSoC4/CapSense_CSHL.c ****             }
1520:.\Generated_Source\PSoC4/CapSense_CSHL.c ****         #endif /* (CapSense_IS_DIPLEX_SLIDER) */
1521:.\Generated_Source\PSoC4/CapSense_CSHL.c ****         return (maximum);
 2054              		.loc 1 1521 0 is_stmt 1
 2055 00a6 0E23     		mov	r3, #14
 2056 00a8 FB18     		add	r3, r7, r3
 2057 00aa 1B78     		ldrb	r3, [r3]
1522:.\Generated_Source\PSoC4/CapSense_CSHL.c ****     }
 2058              		.loc 1 1522 0
 2059 00ac 181C     		mov	r0, r3
 2060 00ae BD46     		mov	sp, r7
 2061 00b0 05B0     		add	sp, sp, #20
 2062              		@ sp needed
 2063 00b2 90BD     		pop	{r4, r7, pc}
 2064              	.L131:
 2065              		.align	2
 2066              	.L130:
 2067 00b4 00000000 		.word	CapSense_sensorSignal
 2068              		.cfi_endproc
 2069              	.LFE61:
 2070              		.size	CapSense_FindMaximum, .-CapSense_FindMaximum
 2071              		.global	__aeabi_idiv
 2072              		.section	.text.CapSense_CalcCentroid,"ax",%progbits
 2073              		.align	2
 2074              		.global	CapSense_CalcCentroid
 2075              		.code	16
 2076              		.thumb_func
 2077              		.type	CapSense_CalcCentroid, %function
 2078              	CapSense_CalcCentroid:
 2079              	.LFB62:
1523:.\Generated_Source\PSoC4/CapSense_CSHL.c **** 
1524:.\Generated_Source\PSoC4/CapSense_CSHL.c **** 
1525:.\Generated_Source\PSoC4/CapSense_CSHL.c ****     /*******************************************************************************
1526:.\Generated_Source\PSoC4/CapSense_CSHL.c ****     * Function Name: CapSense_CalcCentroid
1527:.\Generated_Source\PSoC4/CapSense_CSHL.c ****     ********************************************************************************
1528:.\Generated_Source\PSoC4/CapSense_CSHL.c ****     *
1529:.\Generated_Source\PSoC4/CapSense_CSHL.c ****     * Summary:
1530:.\Generated_Source\PSoC4/CapSense_CSHL.c ****     *  Returns a position value calculated according to the index of the maximum element and API
1531:.\Generated_Source\PSoC4/CapSense_CSHL.c ****     *  resolution.
1532:.\Generated_Source\PSoC4/CapSense_CSHL.c ****     *
1533:.\Generated_Source\PSoC4/CapSense_CSHL.c ****     * Parameters:
1534:.\Generated_Source\PSoC4/CapSense_CSHL.c ****     *  type:  widget type.
1535:.\Generated_Source\PSoC4/CapSense_CSHL.c ****     *  diplex:  pointer to diplex table.
1536:.\Generated_Source\PSoC4/CapSense_CSHL.c ****     *  maximum:  Index of maximum element within centroid.
1537:.\Generated_Source\PSoC4/CapSense_CSHL.c ****     *  offset:   Start index of centroid in CapSense_sensorSignal[] array.
1538:.\Generated_Source\PSoC4/CapSense_CSHL.c ****     *  count:    Number of elements within centroid.
1539:.\Generated_Source\PSoC4/CapSense_CSHL.c ****     *  resolution:  multiplicator calculated according to centroid type and
1540:.\Generated_Source\PSoC4/CapSense_CSHL.c ****     *  API resolution.
1541:.\Generated_Source\PSoC4/CapSense_CSHL.c ****     *  noiseThreshold:  Noise threshold.
1542:.\Generated_Source\PSoC4/CapSense_CSHL.c ****     *
1543:.\Generated_Source\PSoC4/CapSense_CSHL.c ****     * Return:
1544:.\Generated_Source\PSoC4/CapSense_CSHL.c ****     *  Returns a position value of the slider.
1545:.\Generated_Source\PSoC4/CapSense_CSHL.c ****     *
1546:.\Generated_Source\PSoC4/CapSense_CSHL.c ****     * Side Effects:
1547:.\Generated_Source\PSoC4/CapSense_CSHL.c ****     *  None
ARM GAS  C:\Users\lovelesh\AppData\Local\Temp\ccDxuV7s.s 			page 65


1548:.\Generated_Source\PSoC4/CapSense_CSHL.c ****     *
1549:.\Generated_Source\PSoC4/CapSense_CSHL.c ****     *******************************************************************************/
1550:.\Generated_Source\PSoC4/CapSense_CSHL.c **** #if (CapSense_TOTAL_TRACKPAD_GESTURES_COUNT > 0u)
1551:.\Generated_Source\PSoC4/CapSense_CSHL.c ****     uint8 CapSense_CalcCentroid(uint8 maximum, uint8 offset,
1552:.\Generated_Source\PSoC4/CapSense_CSHL.c ****                                         uint8 count, uint32 resolution, uint8 noiseThreshold)
1553:.\Generated_Source\PSoC4/CapSense_CSHL.c **** #else
1554:.\Generated_Source\PSoC4/CapSense_CSHL.c ****     uint8 CapSense_CalcCentroid(uint8 maximum, uint8 offset,
1555:.\Generated_Source\PSoC4/CapSense_CSHL.c ****                                         uint8 count, uint16 resolution, uint8 noiseThreshold)
1556:.\Generated_Source\PSoC4/CapSense_CSHL.c **** #endif /* (CapSense_TOTAL_TRACKPAD_GESTURES_COUNT > 0u) */
1557:.\Generated_Source\PSoC4/CapSense_CSHL.c ****     {
 2080              		.loc 1 1557 0
 2081              		.cfi_startproc
 2082 0000 B0B5     		push	{r4, r5, r7, lr}
 2083              		.cfi_def_cfa_offset 16
 2084              		.cfi_offset 4, -16
 2085              		.cfi_offset 5, -12
 2086              		.cfi_offset 7, -8
 2087              		.cfi_offset 14, -4
 2088 0002 88B0     		sub	sp, sp, #32
 2089              		.cfi_def_cfa_offset 48
 2090 0004 00AF     		add	r7, sp, #0
 2091              		.cfi_def_cfa_register 7
 2092 0006 051C     		mov	r5, r0
 2093 0008 0C1C     		mov	r4, r1
 2094 000a 101C     		mov	r0, r2
 2095 000c 191C     		mov	r1, r3
 2096 000e FB1D     		add	r3, r7, #7
 2097 0010 2A1C     		add	r2, r5, #0
 2098 0012 1A70     		strb	r2, [r3]
 2099 0014 BB1D     		add	r3, r7, #6
 2100 0016 221C     		add	r2, r4, #0
 2101 0018 1A70     		strb	r2, [r3]
 2102 001a 7B1D     		add	r3, r7, #5
 2103 001c 021C     		add	r2, r0, #0
 2104 001e 1A70     		strb	r2, [r3]
 2105 0020 BB1C     		add	r3, r7, #2
 2106 0022 0A1C     		add	r2, r1, #0
 2107 0024 1A80     		strh	r2, [r3]
1558:.\Generated_Source\PSoC4/CapSense_CSHL.c ****         #if ((CapSense_TOTAL_LINEAR_SLIDERS_COUNT > 0u) || (CapSense_TOTAL_TOUCH_PADS_BASIC_COUNT >
1559:.\Generated_Source\PSoC4/CapSense_CSHL.c ****             uint8 posPrev;
1560:.\Generated_Source\PSoC4/CapSense_CSHL.c ****             uint8 posNext;
1561:.\Generated_Source\PSoC4/CapSense_CSHL.c ****         #endif /* ((CapSense_TOTAL_LINEAR_SLIDERS_COUNT>0u) || (CapSense_TOTAL_TOUCH_PADS_BASIC_COU
1562:.\Generated_Source\PSoC4/CapSense_CSHL.c **** 
1563:.\Generated_Source\PSoC4/CapSense_CSHL.c ****         /* Helps during centroid calculation */
1564:.\Generated_Source\PSoC4/CapSense_CSHL.c ****         #if (CapSense_TOTAL_CENTROIDS_BASIC_COUNT)
1565:.\Generated_Source\PSoC4/CapSense_CSHL.c ****             static uint8 CapSense_centroid[3u];
1566:.\Generated_Source\PSoC4/CapSense_CSHL.c ****         #endif  /* (CapSense_TOTAL_CENTROIDS_BASIC_COUNT) */
1567:.\Generated_Source\PSoC4/CapSense_CSHL.c **** 
1568:.\Generated_Source\PSoC4/CapSense_CSHL.c ****         #if (CapSense_IS_DIPLEX_SLIDER)
1569:.\Generated_Source\PSoC4/CapSense_CSHL.c ****             uint8 pos;
1570:.\Generated_Source\PSoC4/CapSense_CSHL.c ****         #endif /* (CapSense_IS_DIPLEX_SLIDER) */
1571:.\Generated_Source\PSoC4/CapSense_CSHL.c **** 
1572:.\Generated_Source\PSoC4/CapSense_CSHL.c ****         uint8 position;
1573:.\Generated_Source\PSoC4/CapSense_CSHL.c ****         uint32 numerator;
1574:.\Generated_Source\PSoC4/CapSense_CSHL.c ****         int32 denominator;
1575:.\Generated_Source\PSoC4/CapSense_CSHL.c **** 
1576:.\Generated_Source\PSoC4/CapSense_CSHL.c ****         uint8  *startOfSlider = &CapSense_sensorSignal[offset];
ARM GAS  C:\Users\lovelesh\AppData\Local\Temp\ccDxuV7s.s 			page 66


 2108              		.loc 1 1576 0
 2109 0026 BB1D     		add	r3, r7, #6
 2110 0028 1A78     		ldrb	r2, [r3]
 2111 002a 5B4B     		ldr	r3, .L142
 2112 002c D318     		add	r3, r2, r3
 2113 002e BB61     		str	r3, [r7, #24]
1577:.\Generated_Source\PSoC4/CapSense_CSHL.c **** 
1578:.\Generated_Source\PSoC4/CapSense_CSHL.c ****         #if ((CapSense_TOTAL_LINEAR_SLIDERS_COUNT > 0u) || (CapSense_TOTAL_TOUCH_PADS_BASIC_COUNT >
1579:.\Generated_Source\PSoC4/CapSense_CSHL.c ****             posPrev = 0u;
 2114              		.loc 1 1579 0
 2115 0030 1F23     		mov	r3, #31
 2116 0032 FB18     		add	r3, r7, r3
 2117 0034 0022     		mov	r2, #0
 2118 0036 1A70     		strb	r2, [r3]
1580:.\Generated_Source\PSoC4/CapSense_CSHL.c ****         #endif /* ((CapSense_TOTAL_LINEAR_SLIDERS_COUNT>0u) || (CapSense_TOTAL_TOUCH_PADS_BASIC_COU
1581:.\Generated_Source\PSoC4/CapSense_CSHL.c **** 
1582:.\Generated_Source\PSoC4/CapSense_CSHL.c ****         #if (CapSense_ADD_SLIDER_TYPE)
1583:.\Generated_Source\PSoC4/CapSense_CSHL.c ****             if(type == CapSense_TYPE_RADIAL_SLIDER)
1584:.\Generated_Source\PSoC4/CapSense_CSHL.c ****             {
1585:.\Generated_Source\PSoC4/CapSense_CSHL.c ****         #endif /* (CapSense_ADD_SLIDER_TYPE) */
1586:.\Generated_Source\PSoC4/CapSense_CSHL.c **** 
1587:.\Generated_Source\PSoC4/CapSense_CSHL.c ****             #if (CapSense_TOTAL_RADIAL_SLIDERS_COUNT > 0u)
1588:.\Generated_Source\PSoC4/CapSense_CSHL.c ****                 /* Copy Signal to the centroid array */
1589:.\Generated_Source\PSoC4/CapSense_CSHL.c ****                 CapSense_centroid[CapSense_POS] = startOfSlider[maximum];
1590:.\Generated_Source\PSoC4/CapSense_CSHL.c **** 
1591:.\Generated_Source\PSoC4/CapSense_CSHL.c ****                 /* Check borders for ROTARY Slider */
1592:.\Generated_Source\PSoC4/CapSense_CSHL.c ****                 if (maximum == 0u)                   /* Start of centroid */
1593:.\Generated_Source\PSoC4/CapSense_CSHL.c ****                 {
1594:.\Generated_Source\PSoC4/CapSense_CSHL.c ****                     CapSense_centroid[CapSense_POS_PREV] = startOfSlider[count - 1u];
1595:.\Generated_Source\PSoC4/CapSense_CSHL.c ****                     CapSense_centroid[CapSense_POS_NEXT] = startOfSlider[1u];
1596:.\Generated_Source\PSoC4/CapSense_CSHL.c ****                 }
1597:.\Generated_Source\PSoC4/CapSense_CSHL.c ****                 else if (maximum == (count - 1u))    /* End of centroid */
1598:.\Generated_Source\PSoC4/CapSense_CSHL.c ****                 {
1599:.\Generated_Source\PSoC4/CapSense_CSHL.c ****                     CapSense_centroid[CapSense_POS_PREV] = startOfSlider[maximum - 1u];
1600:.\Generated_Source\PSoC4/CapSense_CSHL.c ****                     CapSense_centroid[CapSense_POS_NEXT] = startOfSlider[0u];
1601:.\Generated_Source\PSoC4/CapSense_CSHL.c ****                 }
1602:.\Generated_Source\PSoC4/CapSense_CSHL.c ****                 else                                /* Not first Not last */
1603:.\Generated_Source\PSoC4/CapSense_CSHL.c ****                 {
1604:.\Generated_Source\PSoC4/CapSense_CSHL.c ****                     CapSense_centroid[CapSense_POS_PREV] = startOfSlider[maximum - 1u];
1605:.\Generated_Source\PSoC4/CapSense_CSHL.c ****                     CapSense_centroid[CapSense_POS_NEXT] = startOfSlider[maximum + 1u];
1606:.\Generated_Source\PSoC4/CapSense_CSHL.c ****                 }
1607:.\Generated_Source\PSoC4/CapSense_CSHL.c ****             #endif /* (CapSense_TOTAL_RADIAL_SLIDERS_COUNT > 0u) */
1608:.\Generated_Source\PSoC4/CapSense_CSHL.c **** 
1609:.\Generated_Source\PSoC4/CapSense_CSHL.c ****         #if (CapSense_ADD_SLIDER_TYPE)
1610:.\Generated_Source\PSoC4/CapSense_CSHL.c ****             }
1611:.\Generated_Source\PSoC4/CapSense_CSHL.c ****             else
1612:.\Generated_Source\PSoC4/CapSense_CSHL.c ****             {
1613:.\Generated_Source\PSoC4/CapSense_CSHL.c ****         #endif /* (CapSense_ADD_SLIDER_TYPE) */
1614:.\Generated_Source\PSoC4/CapSense_CSHL.c **** 
1615:.\Generated_Source\PSoC4/CapSense_CSHL.c ****             #if ((CapSense_TOTAL_LINEAR_SLIDERS_COUNT > 0u) || (CapSense_TOTAL_TOUCH_PADS_BASIC_COU
1616:.\Generated_Source\PSoC4/CapSense_CSHL.c ****                 #if (CapSense_IS_DIPLEX_SLIDER && CapSense_IS_NON_DIPLEX_SLIDER)
1617:.\Generated_Source\PSoC4/CapSense_CSHL.c ****                     /* Calculate next and previous near to maximum */
1618:.\Generated_Source\PSoC4/CapSense_CSHL.c ****                     if(diplex == 0u)
1619:.\Generated_Source\PSoC4/CapSense_CSHL.c ****                     {
1620:.\Generated_Source\PSoC4/CapSense_CSHL.c ****                         pos     = maximum;
1621:.\Generated_Source\PSoC4/CapSense_CSHL.c ****                         posPrev = maximum - 1u;
1622:.\Generated_Source\PSoC4/CapSense_CSHL.c ****                         posNext = maximum + 1u;
ARM GAS  C:\Users\lovelesh\AppData\Local\Temp\ccDxuV7s.s 			page 67


1623:.\Generated_Source\PSoC4/CapSense_CSHL.c ****                     }
1624:.\Generated_Source\PSoC4/CapSense_CSHL.c ****                     else
1625:.\Generated_Source\PSoC4/CapSense_CSHL.c ****                     {
1626:.\Generated_Source\PSoC4/CapSense_CSHL.c ****                         pos     = diplex[maximum];
1627:.\Generated_Source\PSoC4/CapSense_CSHL.c ****                         posPrev = diplex[maximum - 1u];
1628:.\Generated_Source\PSoC4/CapSense_CSHL.c ****                         posNext = diplex[maximum + 1u];
1629:.\Generated_Source\PSoC4/CapSense_CSHL.c ****                         count <<= 1u;
1630:.\Generated_Source\PSoC4/CapSense_CSHL.c ****                     }
1631:.\Generated_Source\PSoC4/CapSense_CSHL.c ****                 #elif (CapSense_IS_DIPLEX_SLIDER)
1632:.\Generated_Source\PSoC4/CapSense_CSHL.c ****                     /* Calculate next and previous near to maximum */
1633:.\Generated_Source\PSoC4/CapSense_CSHL.c ****                     pos     = diplex[maximum];
1634:.\Generated_Source\PSoC4/CapSense_CSHL.c ****                     posPrev = diplex[maximum - 1u];
1635:.\Generated_Source\PSoC4/CapSense_CSHL.c ****                     posNext = diplex[maximum + 1u];
1636:.\Generated_Source\PSoC4/CapSense_CSHL.c ****                     count <<= 1u;
1637:.\Generated_Source\PSoC4/CapSense_CSHL.c ****                 #else
1638:.\Generated_Source\PSoC4/CapSense_CSHL.c ****                     /* Calculate next and previous near to maximum */
1639:.\Generated_Source\PSoC4/CapSense_CSHL.c ****                     if (maximum >= 1u)
 2119              		.loc 1 1639 0
 2120 0038 FB1D     		add	r3, r7, #7
 2121 003a 1B78     		ldrb	r3, [r3]
 2122 003c 002B     		cmp	r3, #0
 2123 003e 05D0     		beq	.L133
1640:.\Generated_Source\PSoC4/CapSense_CSHL.c ****                     {
1641:.\Generated_Source\PSoC4/CapSense_CSHL.c ****                         posPrev = maximum - 1u;
 2124              		.loc 1 1641 0
 2125 0040 1F23     		mov	r3, #31
 2126 0042 FB18     		add	r3, r7, r3
 2127 0044 FA1D     		add	r2, r7, #7
 2128 0046 1278     		ldrb	r2, [r2]
 2129 0048 013A     		sub	r2, r2, #1
 2130 004a 1A70     		strb	r2, [r3]
 2131              	.L133:
1642:.\Generated_Source\PSoC4/CapSense_CSHL.c ****                     }
1643:.\Generated_Source\PSoC4/CapSense_CSHL.c ****                     posNext = maximum + 1u;
 2132              		.loc 1 1643 0
 2133 004c 1723     		mov	r3, #23
 2134 004e FB18     		add	r3, r7, r3
 2135 0050 FA1D     		add	r2, r7, #7
 2136 0052 1278     		ldrb	r2, [r2]
 2137 0054 0132     		add	r2, r2, #1
 2138 0056 1A70     		strb	r2, [r3]
1644:.\Generated_Source\PSoC4/CapSense_CSHL.c ****                 #endif /* (CapSense_IS_DIPLEX_SLIDER && CapSense_IS_NON_DIPLEX_SLIDER) */
1645:.\Generated_Source\PSoC4/CapSense_CSHL.c **** 
1646:.\Generated_Source\PSoC4/CapSense_CSHL.c ****                 /* Copy Signal to the centroid array */
1647:.\Generated_Source\PSoC4/CapSense_CSHL.c ****                 #if (CapSense_IS_DIPLEX_SLIDER)
1648:.\Generated_Source\PSoC4/CapSense_CSHL.c ****                     CapSense_centroid[CapSense_POS] = startOfSlider[pos];
1649:.\Generated_Source\PSoC4/CapSense_CSHL.c ****                 #else
1650:.\Generated_Source\PSoC4/CapSense_CSHL.c ****                     CapSense_centroid[CapSense_POS] = startOfSlider[maximum];
 2139              		.loc 1 1650 0
 2140 0058 FB1D     		add	r3, r7, #7
 2141 005a 1B78     		ldrb	r3, [r3]
 2142 005c BA69     		ldr	r2, [r7, #24]
 2143 005e D318     		add	r3, r2, r3
 2144 0060 1A78     		ldrb	r2, [r3]
 2145 0062 4E4B     		ldr	r3, .L142+4
 2146 0064 5A70     		strb	r2, [r3, #1]
1651:.\Generated_Source\PSoC4/CapSense_CSHL.c ****                 #endif /* (CapSense_IS_DIPLEX_SLIDER) */
ARM GAS  C:\Users\lovelesh\AppData\Local\Temp\ccDxuV7s.s 			page 68


1652:.\Generated_Source\PSoC4/CapSense_CSHL.c **** 
1653:.\Generated_Source\PSoC4/CapSense_CSHL.c ****                 /* Check borders for LINEAR Slider */
1654:.\Generated_Source\PSoC4/CapSense_CSHL.c ****                 if (maximum == 0u)                   /* Start of centroid */
 2147              		.loc 1 1654 0
 2148 0066 FB1D     		add	r3, r7, #7
 2149 0068 1B78     		ldrb	r3, [r3]
 2150 006a 002B     		cmp	r3, #0
 2151 006c 0BD1     		bne	.L134
1655:.\Generated_Source\PSoC4/CapSense_CSHL.c ****                 {
1656:.\Generated_Source\PSoC4/CapSense_CSHL.c ****                     CapSense_centroid[CapSense_POS_PREV] = 0u;
 2152              		.loc 1 1656 0
 2153 006e 4B4B     		ldr	r3, .L142+4
 2154 0070 0022     		mov	r2, #0
 2155 0072 1A70     		strb	r2, [r3]
1657:.\Generated_Source\PSoC4/CapSense_CSHL.c ****                     CapSense_centroid[CapSense_POS_NEXT] = startOfSlider[posNext];
 2156              		.loc 1 1657 0
 2157 0074 1723     		mov	r3, #23
 2158 0076 FB18     		add	r3, r7, r3
 2159 0078 1B78     		ldrb	r3, [r3]
 2160 007a BA69     		ldr	r2, [r7, #24]
 2161 007c D318     		add	r3, r2, r3
 2162 007e 1A78     		ldrb	r2, [r3]
 2163 0080 464B     		ldr	r3, .L142+4
 2164 0082 9A70     		strb	r2, [r3, #2]
 2165 0084 22E0     		b	.L135
 2166              	.L134:
1658:.\Generated_Source\PSoC4/CapSense_CSHL.c ****                 }
1659:.\Generated_Source\PSoC4/CapSense_CSHL.c ****                 else if (maximum == ((count) - 1u)) /* End of centroid */
 2167              		.loc 1 1659 0
 2168 0086 FB1D     		add	r3, r7, #7
 2169 0088 1A78     		ldrb	r2, [r3]
 2170 008a 7B1D     		add	r3, r7, #5
 2171 008c 1B78     		ldrb	r3, [r3]
 2172 008e 013B     		sub	r3, r3, #1
 2173 0090 9A42     		cmp	r2, r3
 2174 0092 0BD1     		bne	.L136
1660:.\Generated_Source\PSoC4/CapSense_CSHL.c ****                 {
1661:.\Generated_Source\PSoC4/CapSense_CSHL.c ****                     CapSense_centroid[CapSense_POS_PREV] = startOfSlider[posPrev];
 2175              		.loc 1 1661 0
 2176 0094 1F23     		mov	r3, #31
 2177 0096 FB18     		add	r3, r7, r3
 2178 0098 1B78     		ldrb	r3, [r3]
 2179 009a BA69     		ldr	r2, [r7, #24]
 2180 009c D318     		add	r3, r2, r3
 2181 009e 1A78     		ldrb	r2, [r3]
 2182 00a0 3E4B     		ldr	r3, .L142+4
 2183 00a2 1A70     		strb	r2, [r3]
1662:.\Generated_Source\PSoC4/CapSense_CSHL.c ****                     CapSense_centroid[CapSense_POS_NEXT] = 0u;
 2184              		.loc 1 1662 0
 2185 00a4 3D4B     		ldr	r3, .L142+4
 2186 00a6 0022     		mov	r2, #0
 2187 00a8 9A70     		strb	r2, [r3, #2]
 2188 00aa 0FE0     		b	.L135
 2189              	.L136:
1663:.\Generated_Source\PSoC4/CapSense_CSHL.c ****                 }
1664:.\Generated_Source\PSoC4/CapSense_CSHL.c ****                 else                                /* Not first Not last */
1665:.\Generated_Source\PSoC4/CapSense_CSHL.c ****                 {
ARM GAS  C:\Users\lovelesh\AppData\Local\Temp\ccDxuV7s.s 			page 69


1666:.\Generated_Source\PSoC4/CapSense_CSHL.c ****                     CapSense_centroid[CapSense_POS_PREV] = startOfSlider[posPrev];
 2190              		.loc 1 1666 0
 2191 00ac 1F23     		mov	r3, #31
 2192 00ae FB18     		add	r3, r7, r3
 2193 00b0 1B78     		ldrb	r3, [r3]
 2194 00b2 BA69     		ldr	r2, [r7, #24]
 2195 00b4 D318     		add	r3, r2, r3
 2196 00b6 1A78     		ldrb	r2, [r3]
 2197 00b8 384B     		ldr	r3, .L142+4
 2198 00ba 1A70     		strb	r2, [r3]
1667:.\Generated_Source\PSoC4/CapSense_CSHL.c ****                     CapSense_centroid[CapSense_POS_NEXT] = startOfSlider[posNext];
 2199              		.loc 1 1667 0
 2200 00bc 1723     		mov	r3, #23
 2201 00be FB18     		add	r3, r7, r3
 2202 00c0 1B78     		ldrb	r3, [r3]
 2203 00c2 BA69     		ldr	r2, [r7, #24]
 2204 00c4 D318     		add	r3, r2, r3
 2205 00c6 1A78     		ldrb	r2, [r3]
 2206 00c8 344B     		ldr	r3, .L142+4
 2207 00ca 9A70     		strb	r2, [r3, #2]
 2208              	.L135:
1668:.\Generated_Source\PSoC4/CapSense_CSHL.c ****                 }
1669:.\Generated_Source\PSoC4/CapSense_CSHL.c ****             #endif /* ((CapSense_TOTAL_LINEAR_SLIDERS_COUNT>0u)||(CapSense_TOTAL_TOUCH_PADS_BASIC_C
1670:.\Generated_Source\PSoC4/CapSense_CSHL.c **** 
1671:.\Generated_Source\PSoC4/CapSense_CSHL.c ****         #if (CapSense_ADD_SLIDER_TYPE)
1672:.\Generated_Source\PSoC4/CapSense_CSHL.c ****             }
1673:.\Generated_Source\PSoC4/CapSense_CSHL.c ****         #endif /* (CapSense_ADD_SLIDER_TYPE) */
1674:.\Generated_Source\PSoC4/CapSense_CSHL.c **** 
1675:.\Generated_Source\PSoC4/CapSense_CSHL.c ****         /* Subtract noiseThreshold */
1676:.\Generated_Source\PSoC4/CapSense_CSHL.c ****         if(CapSense_centroid[CapSense_POS_PREV] > noiseThreshold)
 2209              		.loc 1 1676 0
 2210 00cc 334B     		ldr	r3, .L142+4
 2211 00ce 1B78     		ldrb	r3, [r3]
 2212 00d0 3022     		mov	r2, #48
 2213 00d2 BA18     		add	r2, r7, r2
 2214 00d4 1278     		ldrb	r2, [r2]
 2215 00d6 9A42     		cmp	r2, r3
 2216 00d8 09D2     		bcs	.L137
1677:.\Generated_Source\PSoC4/CapSense_CSHL.c ****         {
1678:.\Generated_Source\PSoC4/CapSense_CSHL.c ****             CapSense_centroid[CapSense_POS_PREV] -= noiseThreshold;
 2217              		.loc 1 1678 0
 2218 00da 304B     		ldr	r3, .L142+4
 2219 00dc 1A78     		ldrb	r2, [r3]
 2220 00de 3023     		mov	r3, #48
 2221 00e0 FB18     		add	r3, r7, r3
 2222 00e2 1B78     		ldrb	r3, [r3]
 2223 00e4 D31A     		sub	r3, r2, r3
 2224 00e6 DAB2     		uxtb	r2, r3
 2225 00e8 2C4B     		ldr	r3, .L142+4
 2226 00ea 1A70     		strb	r2, [r3]
 2227 00ec 02E0     		b	.L138
 2228              	.L137:
1679:.\Generated_Source\PSoC4/CapSense_CSHL.c ****         }
1680:.\Generated_Source\PSoC4/CapSense_CSHL.c ****         else
1681:.\Generated_Source\PSoC4/CapSense_CSHL.c ****         {
1682:.\Generated_Source\PSoC4/CapSense_CSHL.c ****             CapSense_centroid[CapSense_POS_PREV] = 0u;
 2229              		.loc 1 1682 0
ARM GAS  C:\Users\lovelesh\AppData\Local\Temp\ccDxuV7s.s 			page 70


 2230 00ee 2B4B     		ldr	r3, .L142+4
 2231 00f0 0022     		mov	r2, #0
 2232 00f2 1A70     		strb	r2, [r3]
 2233              	.L138:
1683:.\Generated_Source\PSoC4/CapSense_CSHL.c ****         }
1684:.\Generated_Source\PSoC4/CapSense_CSHL.c **** 
1685:.\Generated_Source\PSoC4/CapSense_CSHL.c ****         /* Maximum always greater than fingerThreshold, so greater than noiseThreshold */
1686:.\Generated_Source\PSoC4/CapSense_CSHL.c ****         CapSense_centroid[CapSense_POS] -= noiseThreshold;
 2234              		.loc 1 1686 0
 2235 00f4 294B     		ldr	r3, .L142+4
 2236 00f6 5A78     		ldrb	r2, [r3, #1]
 2237 00f8 3023     		mov	r3, #48
 2238 00fa FB18     		add	r3, r7, r3
 2239 00fc 1B78     		ldrb	r3, [r3]
 2240 00fe D31A     		sub	r3, r2, r3
 2241 0100 DAB2     		uxtb	r2, r3
 2242 0102 264B     		ldr	r3, .L142+4
 2243 0104 5A70     		strb	r2, [r3, #1]
1687:.\Generated_Source\PSoC4/CapSense_CSHL.c **** 
1688:.\Generated_Source\PSoC4/CapSense_CSHL.c ****         /* Subtract noiseThreshold */
1689:.\Generated_Source\PSoC4/CapSense_CSHL.c ****         if(CapSense_centroid[CapSense_POS_NEXT] > noiseThreshold)
 2244              		.loc 1 1689 0
 2245 0106 254B     		ldr	r3, .L142+4
 2246 0108 9B78     		ldrb	r3, [r3, #2]
 2247 010a 3022     		mov	r2, #48
 2248 010c BA18     		add	r2, r7, r2
 2249 010e 1278     		ldrb	r2, [r2]
 2250 0110 9A42     		cmp	r2, r3
 2251 0112 09D2     		bcs	.L139
1690:.\Generated_Source\PSoC4/CapSense_CSHL.c ****         {
1691:.\Generated_Source\PSoC4/CapSense_CSHL.c ****             CapSense_centroid[CapSense_POS_NEXT] -= noiseThreshold;
 2252              		.loc 1 1691 0
 2253 0114 214B     		ldr	r3, .L142+4
 2254 0116 9A78     		ldrb	r2, [r3, #2]
 2255 0118 3023     		mov	r3, #48
 2256 011a FB18     		add	r3, r7, r3
 2257 011c 1B78     		ldrb	r3, [r3]
 2258 011e D31A     		sub	r3, r2, r3
 2259 0120 DAB2     		uxtb	r2, r3
 2260 0122 1E4B     		ldr	r3, .L142+4
 2261 0124 9A70     		strb	r2, [r3, #2]
 2262 0126 02E0     		b	.L140
 2263              	.L139:
1692:.\Generated_Source\PSoC4/CapSense_CSHL.c ****         }
1693:.\Generated_Source\PSoC4/CapSense_CSHL.c ****         else
1694:.\Generated_Source\PSoC4/CapSense_CSHL.c ****         {
1695:.\Generated_Source\PSoC4/CapSense_CSHL.c ****             CapSense_centroid[CapSense_POS_NEXT] = 0u;
 2264              		.loc 1 1695 0
 2265 0128 1C4B     		ldr	r3, .L142+4
 2266 012a 0022     		mov	r2, #0
 2267 012c 9A70     		strb	r2, [r3, #2]
 2268              	.L140:
1696:.\Generated_Source\PSoC4/CapSense_CSHL.c ****         }
1697:.\Generated_Source\PSoC4/CapSense_CSHL.c **** 
1698:.\Generated_Source\PSoC4/CapSense_CSHL.c **** 
1699:.\Generated_Source\PSoC4/CapSense_CSHL.c ****         /* Si+1 - Si-1 */
1700:.\Generated_Source\PSoC4/CapSense_CSHL.c ****         numerator = (uint32) CapSense_centroid[CapSense_POS_NEXT] -
ARM GAS  C:\Users\lovelesh\AppData\Local\Temp\ccDxuV7s.s 			page 71


 2269              		.loc 1 1700 0
 2270 012e 1B4B     		ldr	r3, .L142+4
 2271 0130 9B78     		ldrb	r3, [r3, #2]
 2272 0132 1A1C     		mov	r2, r3
1701:.\Generated_Source\PSoC4/CapSense_CSHL.c ****                     (uint32) CapSense_centroid[CapSense_POS_PREV];
 2273              		.loc 1 1701 0
 2274 0134 194B     		ldr	r3, .L142+4
 2275 0136 1B78     		ldrb	r3, [r3]
1700:.\Generated_Source\PSoC4/CapSense_CSHL.c ****                     (uint32) CapSense_centroid[CapSense_POS_PREV];
 2276              		.loc 1 1700 0
 2277 0138 D31A     		sub	r3, r2, r3
 2278 013a 3B61     		str	r3, [r7, #16]
1702:.\Generated_Source\PSoC4/CapSense_CSHL.c **** 
1703:.\Generated_Source\PSoC4/CapSense_CSHL.c ****         /* Si+1 + Si + Si-1 */
1704:.\Generated_Source\PSoC4/CapSense_CSHL.c ****         denominator = (int32) CapSense_centroid[CapSense_POS_PREV] +
 2279              		.loc 1 1704 0
 2280 013c 174B     		ldr	r3, .L142+4
 2281 013e 1B78     		ldrb	r3, [r3]
 2282 0140 1A1C     		mov	r2, r3
1705:.\Generated_Source\PSoC4/CapSense_CSHL.c ****                       (int32) CapSense_centroid[CapSense_POS] +
 2283              		.loc 1 1705 0
 2284 0142 164B     		ldr	r3, .L142+4
 2285 0144 5B78     		ldrb	r3, [r3, #1]
1704:.\Generated_Source\PSoC4/CapSense_CSHL.c ****                       (int32) CapSense_centroid[CapSense_POS] +
 2286              		.loc 1 1704 0
 2287 0146 D318     		add	r3, r2, r3
1706:.\Generated_Source\PSoC4/CapSense_CSHL.c ****                       (int32) CapSense_centroid[CapSense_POS_NEXT];
 2288              		.loc 1 1706 0
 2289 0148 144A     		ldr	r2, .L142+4
 2290 014a 9278     		ldrb	r2, [r2, #2]
1704:.\Generated_Source\PSoC4/CapSense_CSHL.c ****                       (int32) CapSense_centroid[CapSense_POS] +
 2291              		.loc 1 1704 0
 2292 014c 9B18     		add	r3, r3, r2
 2293 014e FB60     		str	r3, [r7, #12]
1707:.\Generated_Source\PSoC4/CapSense_CSHL.c **** 
1708:.\Generated_Source\PSoC4/CapSense_CSHL.c ****         /* (numerator/denominator) + maximum */
1709:.\Generated_Source\PSoC4/CapSense_CSHL.c ****         denominator = (((int32)(uint32)((uint32)numerator << 8u)/denominator) + (int32)(uint32)((ui
 2294              		.loc 1 1709 0
 2295 0150 3B69     		ldr	r3, [r7, #16]
 2296 0152 1B02     		lsl	r3, r3, #8
 2297 0154 181C     		mov	r0, r3
 2298 0156 F968     		ldr	r1, [r7, #12]
 2299 0158 FFF7FEFF 		bl	__aeabi_idiv
 2300 015c 031C     		mov	r3, r0
 2301 015e 1A1C     		mov	r2, r3
 2302 0160 FB1D     		add	r3, r7, #7
 2303 0162 1B78     		ldrb	r3, [r3]
 2304 0164 1B02     		lsl	r3, r3, #8
 2305 0166 D318     		add	r3, r2, r3
 2306 0168 FB60     		str	r3, [r7, #12]
1710:.\Generated_Source\PSoC4/CapSense_CSHL.c **** 
1711:.\Generated_Source\PSoC4/CapSense_CSHL.c ****         #if(CapSense_TOTAL_RADIAL_SLIDERS_COUNT > 0u)
1712:.\Generated_Source\PSoC4/CapSense_CSHL.c ****             /* Only required for RADIAL Slider */
1713:.\Generated_Source\PSoC4/CapSense_CSHL.c ****             if(denominator < 0)
1714:.\Generated_Source\PSoC4/CapSense_CSHL.c ****             {
1715:.\Generated_Source\PSoC4/CapSense_CSHL.c ****                 denominator += (int32)((uint16)((uint16) count << 8u));
1716:.\Generated_Source\PSoC4/CapSense_CSHL.c ****             }
ARM GAS  C:\Users\lovelesh\AppData\Local\Temp\ccDxuV7s.s 			page 72


1717:.\Generated_Source\PSoC4/CapSense_CSHL.c ****         #endif /* (CapSense_TOTAL_RADIAL_SLIDERS_COUNT > 0u) */
1718:.\Generated_Source\PSoC4/CapSense_CSHL.c **** 
1719:.\Generated_Source\PSoC4/CapSense_CSHL.c ****         denominator *= (int16)resolution;
 2307              		.loc 1 1719 0
 2308 016a BB1C     		add	r3, r7, #2
 2309 016c 1B88     		ldrh	r3, [r3]
 2310 016e 1AB2     		sxth	r2, r3
 2311 0170 FB68     		ldr	r3, [r7, #12]
 2312 0172 5343     		mul	r3, r2
 2313 0174 FB60     		str	r3, [r7, #12]
1720:.\Generated_Source\PSoC4/CapSense_CSHL.c **** 
1721:.\Generated_Source\PSoC4/CapSense_CSHL.c ****         /* Round result and put it to uint8 */
1722:.\Generated_Source\PSoC4/CapSense_CSHL.c ****         position = ((uint8) HI16((uint32)denominator + CapSense_CENTROID_ROUND_VALUE));
 2314              		.loc 1 1722 0
 2315 0176 FB68     		ldr	r3, [r7, #12]
 2316 0178 FE22     		mov	r2, #254
 2317 017a D201     		lsl	r2, r2, #7
 2318 017c 9446     		mov	ip, r2
 2319 017e 6344     		add	r3, r3, ip
 2320 0180 1A0C     		lsr	r2, r3, #16
 2321 0182 0B23     		mov	r3, #11
 2322 0184 FB18     		add	r3, r7, r3
 2323 0186 1A70     		strb	r2, [r3]
1723:.\Generated_Source\PSoC4/CapSense_CSHL.c **** 
1724:.\Generated_Source\PSoC4/CapSense_CSHL.c ****         return (position);
 2324              		.loc 1 1724 0
 2325 0188 0B23     		mov	r3, #11
 2326 018a FB18     		add	r3, r7, r3
 2327 018c 1B78     		ldrb	r3, [r3]
1725:.\Generated_Source\PSoC4/CapSense_CSHL.c ****     }
 2328              		.loc 1 1725 0
 2329 018e 181C     		mov	r0, r3
 2330 0190 BD46     		mov	sp, r7
 2331 0192 08B0     		add	sp, sp, #32
 2332              		@ sp needed
 2333 0194 B0BD     		pop	{r4, r5, r7, pc}
 2334              	.L143:
 2335 0196 C046     		.align	2
 2336              	.L142:
 2337 0198 00000000 		.word	CapSense_sensorSignal
 2338 019c 28000000 		.word	CapSense_centroid.5425
 2339              		.cfi_endproc
 2340              	.LFE62:
 2341              		.size	CapSense_CalcCentroid, .-CapSense_CalcCentroid
 2342              		.section	.text.CapSense_GetCentroidPos,"ax",%progbits
 2343              		.align	2
 2344              		.global	CapSense_GetCentroidPos
 2345              		.code	16
 2346              		.thumb_func
 2347              		.type	CapSense_GetCentroidPos, %function
 2348              	CapSense_GetCentroidPos:
 2349              	.LFB63:
1726:.\Generated_Source\PSoC4/CapSense_CSHL.c **** #endif /* (CapSense_TOTAL_CENTROIDS_BASIC_COUNT) */
1727:.\Generated_Source\PSoC4/CapSense_CSHL.c **** 
1728:.\Generated_Source\PSoC4/CapSense_CSHL.c **** 
1729:.\Generated_Source\PSoC4/CapSense_CSHL.c **** #if((CapSense_TOTAL_RADIAL_SLIDERS_COUNT > 0u) || (CapSense_TOTAL_LINEAR_SLIDERS_COUNT > 0u))
1730:.\Generated_Source\PSoC4/CapSense_CSHL.c ****     /*******************************************************************************
ARM GAS  C:\Users\lovelesh\AppData\Local\Temp\ccDxuV7s.s 			page 73


1731:.\Generated_Source\PSoC4/CapSense_CSHL.c ****     * Function Name: CapSense_GetCentroidPos
1732:.\Generated_Source\PSoC4/CapSense_CSHL.c ****     ********************************************************************************
1733:.\Generated_Source\PSoC4/CapSense_CSHL.c ****     *
1734:.\Generated_Source\PSoC4/CapSense_CSHL.c ****     * Summary:
1735:.\Generated_Source\PSoC4/CapSense_CSHL.c ****     *  Checks the CapSense_Signal[ ] array for a centroid within
1736:.\Generated_Source\PSoC4/CapSense_CSHL.c ****     *  a slider specified range. The centroid position is calculated according to the resolution
1737:.\Generated_Source\PSoC4/CapSense_CSHL.c ****     *  specified in the CapSense customizer. The position filters are applied to the
1738:.\Generated_Source\PSoC4/CapSense_CSHL.c ****     *  result if enabled.
1739:.\Generated_Source\PSoC4/CapSense_CSHL.c ****     *
1740:.\Generated_Source\PSoC4/CapSense_CSHL.c ****     * Parameters:
1741:.\Generated_Source\PSoC4/CapSense_CSHL.c ****     *  widget:  Widget number.
1742:.\Generated_Source\PSoC4/CapSense_CSHL.c ****     *  For every linear slider widget there are defines in this format:
1743:.\Generated_Source\PSoC4/CapSense_CSHL.c ****     *  #define CapSense_"widget_name"__LS           5
1744:.\Generated_Source\PSoC4/CapSense_CSHL.c ****     *
1745:.\Generated_Source\PSoC4/CapSense_CSHL.c ****     * Return:
1746:.\Generated_Source\PSoC4/CapSense_CSHL.c ****     *  Returns a position value of the linear slider.
1747:.\Generated_Source\PSoC4/CapSense_CSHL.c ****     *
1748:.\Generated_Source\PSoC4/CapSense_CSHL.c ****     * Global Variables:
1749:.\Generated_Source\PSoC4/CapSense_CSHL.c ****     *  None
1750:.\Generated_Source\PSoC4/CapSense_CSHL.c ****     *
1751:.\Generated_Source\PSoC4/CapSense_CSHL.c ****     * Side Effects:
1752:.\Generated_Source\PSoC4/CapSense_CSHL.c ****     *  If any sensor within the slider widget is active, the function returns values
1753:.\Generated_Source\PSoC4/CapSense_CSHL.c ****     *  from zero to the API resolution value set in the CapSense customizer. If no
1754:.\Generated_Source\PSoC4/CapSense_CSHL.c ****     *  sensors are active, the function returns 0xFFFF. If an error occurs during
1755:.\Generated_Source\PSoC4/CapSense_CSHL.c ****     *  execution of the centroid/diplexing algorithm, the function returns 0xFFFF.
1756:.\Generated_Source\PSoC4/CapSense_CSHL.c ****     *  There are no checks of the widget type argument provided to this function.
1757:.\Generated_Source\PSoC4/CapSense_CSHL.c ****     *  The unproper widget type provided will cause unexpected position calculations.
1758:.\Generated_Source\PSoC4/CapSense_CSHL.c ****     *
1759:.\Generated_Source\PSoC4/CapSense_CSHL.c ****     * Note:
1760:.\Generated_Source\PSoC4/CapSense_CSHL.c ****     *  If noise counts on the slider segments are greater than the noise
1761:.\Generated_Source\PSoC4/CapSense_CSHL.c ****     *  threshold, this subroutine may generate a false centroid result. The noise
1762:.\Generated_Source\PSoC4/CapSense_CSHL.c ****     *  threshold should be set carefully (high enough above the noise level) so
1763:.\Generated_Source\PSoC4/CapSense_CSHL.c ****     *  that noise will not generate a false centroid.
1764:.\Generated_Source\PSoC4/CapSense_CSHL.c ****     *******************************************************************************/
1765:.\Generated_Source\PSoC4/CapSense_CSHL.c ****     uint16 CapSense_GetCentroidPos(uint32 widget)
1766:.\Generated_Source\PSoC4/CapSense_CSHL.c ****     {
 2350              		.loc 1 1766 0
 2351              		.cfi_startproc
 2352 0000 90B5     		push	{r4, r7, lr}
 2353              		.cfi_def_cfa_offset 12
 2354              		.cfi_offset 4, -12
 2355              		.cfi_offset 7, -8
 2356              		.cfi_offset 14, -4
 2357 0002 87B0     		sub	sp, sp, #28
 2358              		.cfi_def_cfa_offset 40
 2359 0004 02AF     		add	r7, sp, #8
 2360              		.cfi_def_cfa 7, 32
 2361 0006 7860     		str	r0, [r7, #4]
1767:.\Generated_Source\PSoC4/CapSense_CSHL.c ****         #if (CapSense_IS_DIPLEX_SLIDER)
1768:.\Generated_Source\PSoC4/CapSense_CSHL.c ****             const uint8 *diplex;
1769:.\Generated_Source\PSoC4/CapSense_CSHL.c ****         #endif /* (CapSense_IS_DIPLEX_SLIDER) */
1770:.\Generated_Source\PSoC4/CapSense_CSHL.c **** 
1771:.\Generated_Source\PSoC4/CapSense_CSHL.c ****         #if (0u != CapSense_LINEAR_SLIDERS_POS_FILTERS_MASK)
1772:.\Generated_Source\PSoC4/CapSense_CSHL.c ****             uint8 posIndex;
1773:.\Generated_Source\PSoC4/CapSense_CSHL.c ****             uint8 firstTimeIndex = CapSense_posFiltersData[widget];
 2362              		.loc 1 1773 0
 2363 0008 0D23     		mov	r3, #13
ARM GAS  C:\Users\lovelesh\AppData\Local\Temp\ccDxuV7s.s 			page 74


 2364 000a FB18     		add	r3, r7, r3
 2365 000c 5249     		ldr	r1, .L150
 2366 000e 7A68     		ldr	r2, [r7, #4]
 2367 0010 8A18     		add	r2, r1, r2
 2368 0012 1278     		ldrb	r2, [r2]
 2369 0014 1A70     		strb	r2, [r3]
1774:.\Generated_Source\PSoC4/CapSense_CSHL.c ****             uint8 posFiltersMask = CapSense_posFiltersMask[widget];
 2370              		.loc 1 1774 0
 2371 0016 0C23     		mov	r3, #12
 2372 0018 FB18     		add	r3, r7, r3
 2373 001a 5049     		ldr	r1, .L150+4
 2374 001c 7A68     		ldr	r2, [r7, #4]
 2375 001e 8A18     		add	r2, r1, r2
 2376 0020 1278     		ldrb	r2, [r2]
 2377 0022 1A70     		strb	r2, [r3]
1775:.\Generated_Source\PSoC4/CapSense_CSHL.c ****         #endif /* (0u != CapSense_LINEAR_SLIDERS_POS_FILTERS_MASK) */
1776:.\Generated_Source\PSoC4/CapSense_CSHL.c **** 
1777:.\Generated_Source\PSoC4/CapSense_CSHL.c ****         #if ((0u != (CapSense_MEDIAN_FILTER & CapSense_LINEAR_SLIDERS_POS_FILTERS_MASK)) || \
1778:.\Generated_Source\PSoC4/CapSense_CSHL.c ****              (0u != (CapSense_AVERAGING_FILTER & CapSense_LINEAR_SLIDERS_POS_FILTERS_MASK)))
1779:.\Generated_Source\PSoC4/CapSense_CSHL.c ****             uint8 tempPos;
1780:.\Generated_Source\PSoC4/CapSense_CSHL.c ****         #endif /* ((0u != (CapSense_MEDIAN_FILTER & CapSense_LINEAR_SLIDERS_POS_FILTERS_MASK)) || \
1781:.\Generated_Source\PSoC4/CapSense_CSHL.c ****                *   (0u != (CapSense_AVERAGING_FILTER & CapSense_LINEAR_SLIDERS_POS_FILTERS_MASK)))
1782:.\Generated_Source\PSoC4/CapSense_CSHL.c ****                */
1783:.\Generated_Source\PSoC4/CapSense_CSHL.c **** 
