ARM GAS  C:\Users\poornima\AppData\Local\Temp\ccI9K5HH.s 			page 1


   1              		.cpu cortex-m0
   2              		.fpu softvfp
   3              		.eabi_attribute 20, 1
   4              		.eabi_attribute 21, 1
   5              		.eabi_attribute 23, 3
   6              		.eabi_attribute 24, 1
   7              		.eabi_attribute 25, 1
   8              		.eabi_attribute 26, 1
   9              		.eabi_attribute 30, 6
  10              		.eabi_attribute 34, 0
  11              		.eabi_attribute 18, 4
  12              		.code	16
  13              		.file	"CapSense.c"
  14              		.text
  15              	.Ltext0:
  16              		.cfi_sections	.debug_frame
  17              		.global	CapSense_lowLevelTuningDone
  18              		.bss
  19              		.type	CapSense_lowLevelTuningDone, %object
  20              		.size	CapSense_lowLevelTuningDone, 1
  21              	CapSense_lowLevelTuningDone:
  22 0000 00       		.space	1
  23              		.comm	CapSense_scanSpeedTbl,2,4
  24              		.global	CapSense_prescalersTuningDone
  25              		.type	CapSense_prescalersTuningDone, %object
  26              		.size	CapSense_prescalersTuningDone, 1
  27              	CapSense_prescalersTuningDone:
  28 0001 00       		.space	1
  29              		.global	CapSense_csdStatusVar
  30              		.type	CapSense_csdStatusVar, %object
  31              		.size	CapSense_csdStatusVar, 1
  32              	CapSense_csdStatusVar:
  33 0002 00       		.space	1
  34              		.global	CapSense_sensorIndex
  35              		.type	CapSense_sensorIndex, %object
  36              		.size	CapSense_sensorIndex, 1
  37              	CapSense_sensorIndex:
  38 0003 00       		.space	1
  39              		.global	CapSense_sensorRaw
  40              		.align	2
  41              		.type	CapSense_sensorRaw, %object
  42              		.size	CapSense_sensorRaw, 32
  43              	CapSense_sensorRaw:
  44 0004 00000000 		.space	32
  44      00000000 
  44      00000000 
  44      00000000 
  44      00000000 
  45              		.comm	CapSense_csdTrim1,1,1
  46              		.comm	CapSense_unscannedSnsDriveMode,16,4
  47              		.comm	CapSense_sensorEnableMaskBackup,2,4
  48              		.global	CapSense_sensorEnableMask
  49              		.data
  50              		.align	2
  51              		.type	CapSense_sensorEnableMask, %object
  52              		.size	CapSense_sensorEnableMask, 2
  53              	CapSense_sensorEnableMask:
ARM GAS  C:\Users\poornima\AppData\Local\Temp\ccI9K5HH.s 			page 2


  54 0000 FF       		.byte	-1
  55 0001 FF       		.byte	-1
  56              		.global	CapSense_pcTable
  57 0002 0000     		.align	2
  58              		.type	CapSense_pcTable, %object
  59              		.size	CapSense_pcTable, 64
  60              	CapSense_pcTable:
  61 0004 08030440 		.word	1074004744
  62 0008 08030440 		.word	1074004744
  63 000c 08030440 		.word	1074004744
  64 0010 08030440 		.word	1074004744
  65 0014 08030440 		.word	1074004744
  66 0018 08030440 		.word	1074004744
  67 001c 08030440 		.word	1074004744
  68 0020 08040440 		.word	1074005000
  69 0024 08040440 		.word	1074005000
  70 0028 08040440 		.word	1074005000
  71 002c 08040440 		.word	1074005000
  72 0030 08060440 		.word	1074005512
  73 0034 08060440 		.word	1074005512
  74 0038 08060440 		.word	1074005512
  75 003c 08060440 		.word	1074005512
  76 0040 08030440 		.word	1074004744
  77              		.global	CapSense_portTable
  78              		.section	.rodata
  79              		.align	2
  80              		.type	CapSense_portTable, %object
  81              		.size	CapSense_portTable, 16
  82              	CapSense_portTable:
  83 0000 03       		.byte	3
  84 0001 03       		.byte	3
  85 0002 03       		.byte	3
  86 0003 03       		.byte	3
  87 0004 03       		.byte	3
  88 0005 03       		.byte	3
  89 0006 03       		.byte	3
  90 0007 04       		.byte	4
  91 0008 04       		.byte	4
  92 0009 04       		.byte	4
  93 000a 04       		.byte	4
  94 000b 06       		.byte	6
  95 000c 06       		.byte	6
  96 000d 06       		.byte	6
  97 000e 06       		.byte	6
  98 000f 03       		.byte	3
  99              		.global	CapSense_maskTable
 100              		.align	2
 101              		.type	CapSense_maskTable, %object
 102              		.size	CapSense_maskTable, 64
 103              	CapSense_maskTable:
 104 0010 02000000 		.word	2
 105 0014 04000000 		.word	4
 106 0018 08000000 		.word	8
 107 001c 10000000 		.word	16
 108 0020 20000000 		.word	32
 109 0024 40000000 		.word	64
 110 0028 80000000 		.word	128
ARM GAS  C:\Users\poornima\AppData\Local\Temp\ccI9K5HH.s 			page 3


 111 002c 01000000 		.word	1
 112 0030 02000000 		.word	2
 113 0034 08000000 		.word	8
 114 0038 10000000 		.word	16
 115 003c 02000000 		.word	2
 116 0040 04000000 		.word	4
 117 0044 10000000 		.word	16
 118 0048 20000000 		.word	32
 119 004c 01000000 		.word	1
 120              		.global	CapSense_pinShiftTbl
 121              		.align	2
 122              		.type	CapSense_pinShiftTbl, %object
 123              		.size	CapSense_pinShiftTbl, 16
 124              	CapSense_pinShiftTbl:
 125 0050 01       		.byte	1
 126 0051 02       		.byte	2
 127 0052 03       		.byte	3
 128 0053 04       		.byte	4
 129 0054 05       		.byte	5
 130 0055 06       		.byte	6
 131 0056 07       		.byte	7
 132 0057 00       		.byte	0
 133 0058 01       		.byte	1
 134 0059 03       		.byte	3
 135 005a 04       		.byte	4
 136 005b 01       		.byte	1
 137 005c 02       		.byte	2
 138 005d 04       		.byte	4
 139 005e 05       		.byte	5
 140 005f 00       		.byte	0
 141              		.comm	CapSense_modulationIDAC,16,4
 142              		.comm	CapSense_compensationIDAC,16,4
 143              		.global	CapSense_widgetResolution
 144              		.data
 145              		.align	2
 146              		.type	CapSense_widgetResolution, %object
 147              		.size	CapSense_widgetResolution, 32
 148              	CapSense_widgetResolution:
 149 0044 0000FF0F 		.word	268369920
 150 0048 0000FF0F 		.word	268369920
 151 004c 0000FF0F 		.word	268369920
 152 0050 0000FF0F 		.word	268369920
 153 0054 0000FF0F 		.word	268369920
 154 0058 0000FF0F 		.word	268369920
 155 005c 0000FF0F 		.word	268369920
 156 0060 0000FF0F 		.word	268369920
 157              		.comm	CapSense_senseClkDividerVal,16,4
 158              		.comm	CapSense_sampleClkDividerVal,16,4
 159              		.global	CapSense_widgetNumber
 160              		.section	.rodata
 161              		.align	2
 162              		.type	CapSense_widgetNumber, %object
 163              		.size	CapSense_widgetNumber, 16
 164              	CapSense_widgetNumber:
 165 0060 02       		.byte	2
 166 0061 03       		.byte	3
 167 0062 04       		.byte	4
ARM GAS  C:\Users\poornima\AppData\Local\Temp\ccI9K5HH.s 			page 4


 168 0063 05       		.byte	5
 169 0064 06       		.byte	6
 170 0065 07       		.byte	7
 171 0066 00       		.byte	0
 172 0067 00       		.byte	0
 173 0068 00       		.byte	0
 174 0069 00       		.byte	0
 175 006a 00       		.byte	0
 176 006b 01       		.byte	1
 177 006c 01       		.byte	1
 178 006d 01       		.byte	1
 179 006e 01       		.byte	1
 180 006f 01       		.byte	1
 181              		.global	CapSense_prtSelTbl
 182              		.align	2
 183              		.type	CapSense_prtSelTbl, %object
 184              		.size	CapSense_prtSelTbl, 32
 185              	CapSense_prtSelTbl:
 186 0070 00000240 		.word	1073872896
 187 0074 00010240 		.word	1073873152
 188 0078 00020240 		.word	1073873408
 189 007c 00030240 		.word	1073873664
 190 0080 00040240 		.word	1073873920
 191 0084 00050240 		.word	1073874176
 192 0088 00060240 		.word	1073874432
 193 008c 00070240 		.word	1073874688
 194              		.global	CapSense_prtCfgTbl
 195              		.align	2
 196              		.type	CapSense_prtCfgTbl, %object
 197              		.size	CapSense_prtCfgTbl, 32
 198              	CapSense_prtCfgTbl:
 199 0090 08000440 		.word	1074003976
 200 0094 08010440 		.word	1074004232
 201 0098 08020440 		.word	1074004488
 202 009c 08030440 		.word	1074004744
 203 00a0 08040440 		.word	1074005000
 204 00a4 08050440 		.word	1074005256
 205 00a8 08060440 		.word	1074005512
 206 00ac 08070440 		.word	1074005768
 207              		.global	CapSense_prtDRTbl
 208              		.align	2
 209              		.type	CapSense_prtDRTbl, %object
 210              		.size	CapSense_prtDRTbl, 32
 211              	CapSense_prtDRTbl:
 212 00b0 00000440 		.word	1074003968
 213 00b4 00010440 		.word	1074004224
 214 00b8 00020440 		.word	1074004480
 215 00bc 00030440 		.word	1074004736
 216 00c0 00040440 		.word	1074004992
 217 00c4 00050440 		.word	1074005248
 218 00c8 00060440 		.word	1074005504
 219 00cc 00070440 		.word	1074005760
 220              		.section	.text.CapSense_Init,"ax",%progbits
 221              		.align	2
 222              		.global	CapSense_Init
 223              		.code	16
 224              		.thumb_func
ARM GAS  C:\Users\poornima\AppData\Local\Temp\ccI9K5HH.s 			page 5


 225              		.type	CapSense_Init, %function
 226              	CapSense_Init:
 227              	.LFB35:
 228              		.file 1 "Generated_Source\\PSoC4\\CapSense.c"
   1:Generated_Source\PSoC4/CapSense.c **** /*******************************************************************************
   2:Generated_Source\PSoC4/CapSense.c **** * File Name: CapSense.c
   3:Generated_Source\PSoC4/CapSense.c **** * Version 2.40
   4:Generated_Source\PSoC4/CapSense.c **** *
   5:Generated_Source\PSoC4/CapSense.c **** * Description:
   6:Generated_Source\PSoC4/CapSense.c **** *  This file provides the source code for scanning APIs for the CapSense CSD
   7:Generated_Source\PSoC4/CapSense.c **** *  component.
   8:Generated_Source\PSoC4/CapSense.c **** *
   9:Generated_Source\PSoC4/CapSense.c **** * Note:
  10:Generated_Source\PSoC4/CapSense.c **** *
  11:Generated_Source\PSoC4/CapSense.c **** ********************************************************************************
  12:Generated_Source\PSoC4/CapSense.c **** * Copyright 2013-2015, Cypress Semiconductor Corporation.  All rights reserved.
  13:Generated_Source\PSoC4/CapSense.c **** * You may use this file only in accordance with the license, terms, conditions,
  14:Generated_Source\PSoC4/CapSense.c **** * disclaimers, and limitations in the end user license agreement accompanying
  15:Generated_Source\PSoC4/CapSense.c **** * the software package with which this file was provided.
  16:Generated_Source\PSoC4/CapSense.c **** *******************************************************************************/
  17:Generated_Source\PSoC4/CapSense.c **** 
  18:Generated_Source\PSoC4/CapSense.c **** #include "CapSense.h"
  19:Generated_Source\PSoC4/CapSense.c **** #include "CapSense_PVT.h"
  20:Generated_Source\PSoC4/CapSense.c **** #include "cypins.h"
  21:Generated_Source\PSoC4/CapSense.c **** #include "cyapicallbacks.h"
  22:Generated_Source\PSoC4/CapSense.c **** 
  23:Generated_Source\PSoC4/CapSense.c **** #if(0u != CapSense_CSHL_API_GENERATE)
  24:Generated_Source\PSoC4/CapSense.c ****     #include "CapSense_CSHL.h"
  25:Generated_Source\PSoC4/CapSense.c **** #endif /* (0u != CapSense_CSHL_API_GENERATE) */
  26:Generated_Source\PSoC4/CapSense.c **** 
  27:Generated_Source\PSoC4/CapSense.c **** /* This definition is intended to prevent unexpected linker error.
  28:Generated_Source\PSoC4/CapSense.c ****    For more details please see the IAR Technical Note 49981 */
  29:Generated_Source\PSoC4/CapSense.c **** #if defined(__ICCARM__)
  30:Generated_Source\PSoC4/CapSense.c ****     extern void CapSense_EnableSensor(uint32 sensor);
  31:Generated_Source\PSoC4/CapSense.c ****     extern void CapSense_DisableSensor(uint32 sensor);
  32:Generated_Source\PSoC4/CapSense.c **** #endif /* (__ICCARM__) */
  33:Generated_Source\PSoC4/CapSense.c **** 
  34:Generated_Source\PSoC4/CapSense.c **** /* SmartSense functions */
  35:Generated_Source\PSoC4/CapSense.c **** #if (CapSense_TUNING_METHOD == CapSense__TUNING_AUTO)
  36:Generated_Source\PSoC4/CapSense.c ****     uint8 CapSense_lowLevelTuningDone = 0u;
  37:Generated_Source\PSoC4/CapSense.c ****     uint8 CapSense_scanSpeedTbl[((CapSense_TOTAL_SENSOR_COUNT - 1u) / 8u) + 1u];
  38:Generated_Source\PSoC4/CapSense.c **** #endif /* (CapSense_TUNING_METHOD == CapSense__TUNING_AUTO) */
  39:Generated_Source\PSoC4/CapSense.c **** 
  40:Generated_Source\PSoC4/CapSense.c **** #if(CapSense_PRS_OPTIONS != CapSense__PRS_NONE)
  41:Generated_Source\PSoC4/CapSense.c ****     uint8 CapSense_prescalersTuningDone = 0u;
  42:Generated_Source\PSoC4/CapSense.c **** #endif /* (CapSense_PRS_OPTIONS == CapSense__PRS_NONE) */
  43:Generated_Source\PSoC4/CapSense.c **** 
  44:Generated_Source\PSoC4/CapSense.c **** /* Global software variables */
  45:Generated_Source\PSoC4/CapSense.c **** volatile uint8 CapSense_csdStatusVar = 0u;   /* CapSense CSD status, variable */
  46:Generated_Source\PSoC4/CapSense.c **** volatile uint8 CapSense_sensorIndex = 0u;    /* Index of scannig sensor */
  47:Generated_Source\PSoC4/CapSense.c **** 
  48:Generated_Source\PSoC4/CapSense.c **** /* Global array of Raw Counts */
  49:Generated_Source\PSoC4/CapSense.c **** uint16 CapSense_sensorRaw[CapSense_TOTAL_SENSOR_COUNT] = {0u};
  50:Generated_Source\PSoC4/CapSense.c **** 
  51:Generated_Source\PSoC4/CapSense.c **** /* Backup variables for trim registers*/
  52:Generated_Source\PSoC4/CapSense.c **** #if (CapSense_IDAC1_POLARITY == CapSense__IDAC_SINK)
  53:Generated_Source\PSoC4/CapSense.c ****     uint8 CapSense_csdTrim2;
ARM GAS  C:\Users\poornima\AppData\Local\Temp\ccI9K5HH.s 			page 6


  54:Generated_Source\PSoC4/CapSense.c **** #else
  55:Generated_Source\PSoC4/CapSense.c ****     uint8 CapSense_csdTrim1;
  56:Generated_Source\PSoC4/CapSense.c **** #endif /* (CapSense_IDAC1_POLARITY == CapSense__IDAC_SINK) */
  57:Generated_Source\PSoC4/CapSense.c **** 
  58:Generated_Source\PSoC4/CapSense.c **** /* Global array of un-scanned sensors state */
  59:Generated_Source\PSoC4/CapSense.c **** uint8 CapSense_unscannedSnsDriveMode[CapSense_PORT_PIN_CONFIG_TBL_ZISE];
  60:Generated_Source\PSoC4/CapSense.c **** 
  61:Generated_Source\PSoC4/CapSense.c **** /* Backup array for CapSense_sensorEnableMask */
  62:Generated_Source\PSoC4/CapSense.c **** uint8 CapSense_sensorEnableMaskBackup[(((CapSense_TOTAL_SENSOR_COUNT - 1u) / 8u) + 1u)];
  63:Generated_Source\PSoC4/CapSense.c **** 
  64:Generated_Source\PSoC4/CapSense.c **** /* Configured constants and arrays by Customizer */
  65:Generated_Source\PSoC4/CapSense.c **** uint8 CapSense_sensorEnableMask[(((CapSense_TOTAL_SENSOR_COUNT - 1u) / 8u) + 1u)] = {
  66:Generated_Source\PSoC4/CapSense.c **** 0xFFu, 0xFFu, };
  67:Generated_Source\PSoC4/CapSense.c **** 
  68:Generated_Source\PSoC4/CapSense.c **** reg32 * CapSense_pcTable[] = {
  69:Generated_Source\PSoC4/CapSense.c ****     (reg32 *)CapSense_Sns__Button0__BTN__PC, 
  70:Generated_Source\PSoC4/CapSense.c ****     (reg32 *)CapSense_Sns__Button1__BTN__PC, 
  71:Generated_Source\PSoC4/CapSense.c ****     (reg32 *)CapSense_Sns__Button2__BTN__PC, 
  72:Generated_Source\PSoC4/CapSense.c ****     (reg32 *)CapSense_Sns__Button3__BTN__PC, 
  73:Generated_Source\PSoC4/CapSense.c ****     (reg32 *)CapSense_Sns__Button4__BTN__PC, 
  74:Generated_Source\PSoC4/CapSense.c ****     (reg32 *)CapSense_Sns__Button5__BTN__PC, 
  75:Generated_Source\PSoC4/CapSense.c ****     (reg32 *)CapSense_Sns__RadialSlider0_e0__RS__PC, 
  76:Generated_Source\PSoC4/CapSense.c ****     (reg32 *)CapSense_Sns__RadialSlider0_e1__RS__PC, 
  77:Generated_Source\PSoC4/CapSense.c ****     (reg32 *)CapSense_Sns__RadialSlider0_e2__RS__PC, 
  78:Generated_Source\PSoC4/CapSense.c ****     (reg32 *)CapSense_Sns__RadialSlider0_e3__RS__PC, 
  79:Generated_Source\PSoC4/CapSense.c ****     (reg32 *)CapSense_Sns__RadialSlider0_e4__RS__PC, 
  80:Generated_Source\PSoC4/CapSense.c ****     (reg32 *)CapSense_Sns__RadialSlider1_e0__RS__PC, 
  81:Generated_Source\PSoC4/CapSense.c ****     (reg32 *)CapSense_Sns__RadialSlider1_e1__RS__PC, 
  82:Generated_Source\PSoC4/CapSense.c ****     (reg32 *)CapSense_Sns__RadialSlider1_e2__RS__PC, 
  83:Generated_Source\PSoC4/CapSense.c ****     (reg32 *)CapSense_Sns__RadialSlider1_e3__RS__PC, 
  84:Generated_Source\PSoC4/CapSense.c ****     (reg32 *)CapSense_Sns__RadialSlider1_e4__RS__PC, 
  85:Generated_Source\PSoC4/CapSense.c **** };
  86:Generated_Source\PSoC4/CapSense.c **** 
  87:Generated_Source\PSoC4/CapSense.c **** const uint8 CapSense_portTable[] = {
  88:Generated_Source\PSoC4/CapSense.c ****     CapSense_Sns__Button0__BTN__PORT, 
  89:Generated_Source\PSoC4/CapSense.c ****     CapSense_Sns__Button1__BTN__PORT, 
  90:Generated_Source\PSoC4/CapSense.c ****     CapSense_Sns__Button2__BTN__PORT, 
  91:Generated_Source\PSoC4/CapSense.c ****     CapSense_Sns__Button3__BTN__PORT, 
  92:Generated_Source\PSoC4/CapSense.c ****     CapSense_Sns__Button4__BTN__PORT, 
  93:Generated_Source\PSoC4/CapSense.c ****     CapSense_Sns__Button5__BTN__PORT, 
  94:Generated_Source\PSoC4/CapSense.c ****     CapSense_Sns__RadialSlider0_e0__RS__PORT, 
  95:Generated_Source\PSoC4/CapSense.c ****     CapSense_Sns__RadialSlider0_e1__RS__PORT, 
  96:Generated_Source\PSoC4/CapSense.c ****     CapSense_Sns__RadialSlider0_e2__RS__PORT, 
  97:Generated_Source\PSoC4/CapSense.c ****     CapSense_Sns__RadialSlider0_e3__RS__PORT, 
  98:Generated_Source\PSoC4/CapSense.c ****     CapSense_Sns__RadialSlider0_e4__RS__PORT, 
  99:Generated_Source\PSoC4/CapSense.c ****     CapSense_Sns__RadialSlider1_e0__RS__PORT, 
 100:Generated_Source\PSoC4/CapSense.c ****     CapSense_Sns__RadialSlider1_e1__RS__PORT, 
 101:Generated_Source\PSoC4/CapSense.c ****     CapSense_Sns__RadialSlider1_e2__RS__PORT, 
 102:Generated_Source\PSoC4/CapSense.c ****     CapSense_Sns__RadialSlider1_e3__RS__PORT, 
 103:Generated_Source\PSoC4/CapSense.c ****     CapSense_Sns__RadialSlider1_e4__RS__PORT, 
 104:Generated_Source\PSoC4/CapSense.c **** };
 105:Generated_Source\PSoC4/CapSense.c **** 
 106:Generated_Source\PSoC4/CapSense.c **** const uint32 CapSense_maskTable[] = {
 107:Generated_Source\PSoC4/CapSense.c ****     CapSense_Sns__Button0__BTN__MASK, 
 108:Generated_Source\PSoC4/CapSense.c ****     CapSense_Sns__Button1__BTN__MASK, 
 109:Generated_Source\PSoC4/CapSense.c ****     CapSense_Sns__Button2__BTN__MASK, 
 110:Generated_Source\PSoC4/CapSense.c ****     CapSense_Sns__Button3__BTN__MASK, 
ARM GAS  C:\Users\poornima\AppData\Local\Temp\ccI9K5HH.s 			page 7


 111:Generated_Source\PSoC4/CapSense.c ****     CapSense_Sns__Button4__BTN__MASK, 
 112:Generated_Source\PSoC4/CapSense.c ****     CapSense_Sns__Button5__BTN__MASK, 
 113:Generated_Source\PSoC4/CapSense.c ****     CapSense_Sns__RadialSlider0_e0__RS__MASK, 
 114:Generated_Source\PSoC4/CapSense.c ****     CapSense_Sns__RadialSlider0_e1__RS__MASK, 
 115:Generated_Source\PSoC4/CapSense.c ****     CapSense_Sns__RadialSlider0_e2__RS__MASK, 
 116:Generated_Source\PSoC4/CapSense.c ****     CapSense_Sns__RadialSlider0_e3__RS__MASK, 
 117:Generated_Source\PSoC4/CapSense.c ****     CapSense_Sns__RadialSlider0_e4__RS__MASK, 
 118:Generated_Source\PSoC4/CapSense.c ****     CapSense_Sns__RadialSlider1_e0__RS__MASK, 
 119:Generated_Source\PSoC4/CapSense.c ****     CapSense_Sns__RadialSlider1_e1__RS__MASK, 
 120:Generated_Source\PSoC4/CapSense.c ****     CapSense_Sns__RadialSlider1_e2__RS__MASK, 
 121:Generated_Source\PSoC4/CapSense.c ****     CapSense_Sns__RadialSlider1_e3__RS__MASK, 
 122:Generated_Source\PSoC4/CapSense.c ****     CapSense_Sns__RadialSlider1_e4__RS__MASK, 
 123:Generated_Source\PSoC4/CapSense.c **** };
 124:Generated_Source\PSoC4/CapSense.c **** 
 125:Generated_Source\PSoC4/CapSense.c **** const uint8 CapSense_pinShiftTbl[] = {
 126:Generated_Source\PSoC4/CapSense.c ****     (uint8) CapSense_Sns__Button0__BTN__SHIFT, 
 127:Generated_Source\PSoC4/CapSense.c ****     (uint8) CapSense_Sns__Button1__BTN__SHIFT, 
 128:Generated_Source\PSoC4/CapSense.c ****     (uint8) CapSense_Sns__Button2__BTN__SHIFT, 
 129:Generated_Source\PSoC4/CapSense.c ****     (uint8) CapSense_Sns__Button3__BTN__SHIFT, 
 130:Generated_Source\PSoC4/CapSense.c ****     (uint8) CapSense_Sns__Button4__BTN__SHIFT, 
 131:Generated_Source\PSoC4/CapSense.c ****     (uint8) CapSense_Sns__Button5__BTN__SHIFT, 
 132:Generated_Source\PSoC4/CapSense.c ****     (uint8) CapSense_Sns__RadialSlider0_e0__RS__SHIFT, 
 133:Generated_Source\PSoC4/CapSense.c ****     (uint8) CapSense_Sns__RadialSlider0_e1__RS__SHIFT, 
 134:Generated_Source\PSoC4/CapSense.c ****     (uint8) CapSense_Sns__RadialSlider0_e2__RS__SHIFT, 
 135:Generated_Source\PSoC4/CapSense.c ****     (uint8) CapSense_Sns__RadialSlider0_e3__RS__SHIFT, 
 136:Generated_Source\PSoC4/CapSense.c ****     (uint8) CapSense_Sns__RadialSlider0_e4__RS__SHIFT, 
 137:Generated_Source\PSoC4/CapSense.c ****     (uint8) CapSense_Sns__RadialSlider1_e0__RS__SHIFT, 
 138:Generated_Source\PSoC4/CapSense.c ****     (uint8) CapSense_Sns__RadialSlider1_e1__RS__SHIFT, 
 139:Generated_Source\PSoC4/CapSense.c ****     (uint8) CapSense_Sns__RadialSlider1_e2__RS__SHIFT, 
 140:Generated_Source\PSoC4/CapSense.c ****     (uint8) CapSense_Sns__RadialSlider1_e3__RS__SHIFT, 
 141:Generated_Source\PSoC4/CapSense.c ****     (uint8) CapSense_Sns__RadialSlider1_e4__RS__SHIFT, 
 142:Generated_Source\PSoC4/CapSense.c **** };
 143:Generated_Source\PSoC4/CapSense.c **** 
 144:Generated_Source\PSoC4/CapSense.c **** uint8 CapSense_modulationIDAC[CapSense_TOTAL_SENSOR_COUNT];
 145:Generated_Source\PSoC4/CapSense.c **** uint8 CapSense_compensationIDAC[CapSense_TOTAL_SENSOR_COUNT];
 146:Generated_Source\PSoC4/CapSense.c **** 
 147:Generated_Source\PSoC4/CapSense.c **** uint32 CapSense_widgetResolution[CapSense_RESOLUTIONS_TBL_SIZE] = {
 148:Generated_Source\PSoC4/CapSense.c ****     CapSense_RESOLUTION_12_BITS,
 149:Generated_Source\PSoC4/CapSense.c ****     CapSense_RESOLUTION_12_BITS,
 150:Generated_Source\PSoC4/CapSense.c ****     CapSense_RESOLUTION_12_BITS,
 151:Generated_Source\PSoC4/CapSense.c ****     CapSense_RESOLUTION_12_BITS,
 152:Generated_Source\PSoC4/CapSense.c ****     CapSense_RESOLUTION_12_BITS,
 153:Generated_Source\PSoC4/CapSense.c ****     CapSense_RESOLUTION_12_BITS,
 154:Generated_Source\PSoC4/CapSense.c ****     CapSense_RESOLUTION_12_BITS,
 155:Generated_Source\PSoC4/CapSense.c ****     CapSense_RESOLUTION_12_BITS,
 156:Generated_Source\PSoC4/CapSense.c **** };
 157:Generated_Source\PSoC4/CapSense.c **** 
 158:Generated_Source\PSoC4/CapSense.c **** uint8 CapSense_senseClkDividerVal[CapSense_TOTAL_SCANSLOT_COUNT];
 159:Generated_Source\PSoC4/CapSense.c **** uint8 CapSense_sampleClkDividerVal[CapSense_TOTAL_SCANSLOT_COUNT];
 160:Generated_Source\PSoC4/CapSense.c **** 
 161:Generated_Source\PSoC4/CapSense.c **** const uint8 CapSense_widgetNumber[CapSense_TOTAL_SENSOR_COUNT] = {
 162:Generated_Source\PSoC4/CapSense.c ****     2u, /* Button0__BTN */
 163:Generated_Source\PSoC4/CapSense.c ****     3u, /* Button1__BTN */
 164:Generated_Source\PSoC4/CapSense.c ****     4u, /* Button2__BTN */
 165:Generated_Source\PSoC4/CapSense.c ****     5u, /* Button3__BTN */
 166:Generated_Source\PSoC4/CapSense.c ****     6u, /* Button4__BTN */
 167:Generated_Source\PSoC4/CapSense.c ****     7u, /* Button5__BTN */
ARM GAS  C:\Users\poornima\AppData\Local\Temp\ccI9K5HH.s 			page 8


 168:Generated_Source\PSoC4/CapSense.c ****     0u, 0u, 0u, 0u, 0u, /* RadialSlider0__RS */
 169:Generated_Source\PSoC4/CapSense.c ****     1u, 1u, 1u, 1u, 1u, /* RadialSlider1__RS */
 170:Generated_Source\PSoC4/CapSense.c **** };
 171:Generated_Source\PSoC4/CapSense.c **** 
 172:Generated_Source\PSoC4/CapSense.c **** reg32* const CapSense_prtSelTbl[CapSense_CFG_REG_TBL_SIZE] = {
 173:Generated_Source\PSoC4/CapSense.c ****     ((reg32 *) CYREG_HSIOM_PORT_SEL0),
 174:Generated_Source\PSoC4/CapSense.c ****     ((reg32 *) CYREG_HSIOM_PORT_SEL1),
 175:Generated_Source\PSoC4/CapSense.c ****     ((reg32 *) CYREG_HSIOM_PORT_SEL2),
 176:Generated_Source\PSoC4/CapSense.c ****     ((reg32 *) CYREG_HSIOM_PORT_SEL3),
 177:Generated_Source\PSoC4/CapSense.c ****     ((reg32 *) CYREG_HSIOM_PORT_SEL4),
 178:Generated_Source\PSoC4/CapSense.c ****     ((reg32 *) CYREG_HSIOM_PORT_SEL5),
 179:Generated_Source\PSoC4/CapSense.c ****     ((reg32 *) CYREG_HSIOM_PORT_SEL6),
 180:Generated_Source\PSoC4/CapSense.c ****     ((reg32 *) CYREG_HSIOM_PORT_SEL7),
 181:Generated_Source\PSoC4/CapSense.c **** };
 182:Generated_Source\PSoC4/CapSense.c **** 
 183:Generated_Source\PSoC4/CapSense.c **** reg32* const CapSense_prtCfgTbl[CapSense_CFG_REG_TBL_SIZE] = {
 184:Generated_Source\PSoC4/CapSense.c ****     ((reg32 *) CYREG_GPIO_PRT0_PC),
 185:Generated_Source\PSoC4/CapSense.c ****     ((reg32 *) CYREG_GPIO_PRT1_PC),
 186:Generated_Source\PSoC4/CapSense.c ****     ((reg32 *) CYREG_GPIO_PRT2_PC),
 187:Generated_Source\PSoC4/CapSense.c ****     ((reg32 *) CYREG_GPIO_PRT3_PC),
 188:Generated_Source\PSoC4/CapSense.c ****     ((reg32 *) CYREG_GPIO_PRT4_PC),
 189:Generated_Source\PSoC4/CapSense.c ****     ((reg32 *) CYREG_GPIO_PRT5_PC),
 190:Generated_Source\PSoC4/CapSense.c ****     ((reg32 *) CYREG_GPIO_PRT6_PC),
 191:Generated_Source\PSoC4/CapSense.c ****     ((reg32 *) CYREG_GPIO_PRT7_PC),
 192:Generated_Source\PSoC4/CapSense.c **** };
 193:Generated_Source\PSoC4/CapSense.c **** 
 194:Generated_Source\PSoC4/CapSense.c **** reg32* const CapSense_prtDRTbl[CapSense_CFG_REG_TBL_SIZE] = {
 195:Generated_Source\PSoC4/CapSense.c ****     ((reg32 *) CYREG_GPIO_PRT0_DR),
 196:Generated_Source\PSoC4/CapSense.c ****     ((reg32 *) CYREG_GPIO_PRT1_DR),
 197:Generated_Source\PSoC4/CapSense.c ****     ((reg32 *) CYREG_GPIO_PRT2_DR),
 198:Generated_Source\PSoC4/CapSense.c ****     ((reg32 *) CYREG_GPIO_PRT3_DR),
 199:Generated_Source\PSoC4/CapSense.c ****     ((reg32 *) CYREG_GPIO_PRT4_DR),
 200:Generated_Source\PSoC4/CapSense.c ****     ((reg32 *) CYREG_GPIO_PRT5_DR),
 201:Generated_Source\PSoC4/CapSense.c ****     ((reg32 *) CYREG_GPIO_PRT6_DR),
 202:Generated_Source\PSoC4/CapSense.c ****     ((reg32 *) CYREG_GPIO_PRT7_DR),
 203:Generated_Source\PSoC4/CapSense.c **** };
 204:Generated_Source\PSoC4/CapSense.c **** 
 205:Generated_Source\PSoC4/CapSense.c **** 
 206:Generated_Source\PSoC4/CapSense.c **** 
 207:Generated_Source\PSoC4/CapSense.c **** /*******************************************************************************
 208:Generated_Source\PSoC4/CapSense.c **** * Function Name: CapSense_Init
 209:Generated_Source\PSoC4/CapSense.c **** ********************************************************************************
 210:Generated_Source\PSoC4/CapSense.c **** *
 211:Generated_Source\PSoC4/CapSense.c **** * Summary:
 212:Generated_Source\PSoC4/CapSense.c **** *  API initializes default CapSense configuration provided by the customizer that defines
 213:Generated_Source\PSoC4/CapSense.c **** *  the mode of component operations and resets all the sensors to an inactive state.
 214:Generated_Source\PSoC4/CapSense.c **** *
 215:Generated_Source\PSoC4/CapSense.c **** * Parameters:
 216:Generated_Source\PSoC4/CapSense.c **** *  None
 217:Generated_Source\PSoC4/CapSense.c **** *
 218:Generated_Source\PSoC4/CapSense.c **** * Return:
 219:Generated_Source\PSoC4/CapSense.c **** *  None
 220:Generated_Source\PSoC4/CapSense.c **** *
 221:Generated_Source\PSoC4/CapSense.c **** * Global Variables:
 222:Generated_Source\PSoC4/CapSense.c **** *  CapSense_immunityIndex - defines immunity level.
 223:Generated_Source\PSoC4/CapSense.c **** *
 224:Generated_Source\PSoC4/CapSense.c **** * Side Effects:
ARM GAS  C:\Users\poornima\AppData\Local\Temp\ccI9K5HH.s 			page 9


 225:Generated_Source\PSoC4/CapSense.c **** *  None
 226:Generated_Source\PSoC4/CapSense.c **** *
 227:Generated_Source\PSoC4/CapSense.c **** *******************************************************************************/
 228:Generated_Source\PSoC4/CapSense.c **** void CapSense_Init(void)
 229:Generated_Source\PSoC4/CapSense.c **** {
 229              		.loc 1 229 0
 230              		.cfi_startproc
 231 0000 80B5     		push	{r7, lr}
 232              		.cfi_def_cfa_offset 8
 233              		.cfi_offset 7, -8
 234              		.cfi_offset 14, -4
 235 0002 82B0     		sub	sp, sp, #8
 236              		.cfi_def_cfa_offset 16
 237 0004 00AF     		add	r7, sp, #0
 238              		.cfi_def_cfa_register 7
 230:Generated_Source\PSoC4/CapSense.c ****     uint32 curSensor;
 231:Generated_Source\PSoC4/CapSense.c **** 
 232:Generated_Source\PSoC4/CapSense.c ****     #if(CapSense_IS_SHIELD_ENABLE)
 233:Generated_Source\PSoC4/CapSense.c **** 
 234:Generated_Source\PSoC4/CapSense.c ****         #if((CapSense_CSH_TANK_PREGARGE_OPTION == CapSense__CAPPRIOBUF) || (0u != CapSense_CSH_TANK
 235:Generated_Source\PSoC4/CapSense.c ****             uint32 newRegValue;
 236:Generated_Source\PSoC4/CapSense.c **** 
 237:Generated_Source\PSoC4/CapSense.c ****             newRegValue = CapSense_CTANK_CONNECTION_REG;
 238:Generated_Source\PSoC4/CapSense.c ****             newRegValue &= ~(CapSense_CSD_CTANK_CONNECTION_MASK);
 239:Generated_Source\PSoC4/CapSense.c ****             newRegValue |= CapSense_CSD_CTANK_TO_AMUXBUS_B;
 240:Generated_Source\PSoC4/CapSense.c ****             CapSense_CTANK_CONNECTION_REG = newRegValue;
 241:Generated_Source\PSoC4/CapSense.c **** 
 242:Generated_Source\PSoC4/CapSense.c ****             #if(CapSense_CSH_TANK_PREGARGE_OPTION == CapSense__CAPPRIOBUF)
 243:Generated_Source\PSoC4/CapSense.c ****                 newRegValue = CapSense_CTANK_PORT_PC_REG;
 244:Generated_Source\PSoC4/CapSense.c ****                 newRegValue &= ~(CapSense_CSD_CTANK_PC_MASK);
 245:Generated_Source\PSoC4/CapSense.c ****                 newRegValue |= CapSense_CTANK_PC_STRONG_MODE;
 246:Generated_Source\PSoC4/CapSense.c ****                 CapSense_CTANK_PORT_PC_REG = newRegValue;
 247:Generated_Source\PSoC4/CapSense.c **** 
 248:Generated_Source\PSoC4/CapSense.c ****                 newRegValue = CapSense_CTANK_PORT_DR_REG;
 249:Generated_Source\PSoC4/CapSense.c ****                 newRegValue &= ~(CapSense_CTANK_DR_MASK);
 250:Generated_Source\PSoC4/CapSense.c ****                 newRegValue |= CapSense_CTANK_DR_CONFIG;
 251:Generated_Source\PSoC4/CapSense.c ****                 CapSense_CTANK_PORT_DR_REG = newRegValue;
 252:Generated_Source\PSoC4/CapSense.c ****             #endif /* (CapSense_CSH_TANK_PREGARGE_OPTION == CapSense__CAPPRIOBUF) */
 253:Generated_Source\PSoC4/CapSense.c **** 
 254:Generated_Source\PSoC4/CapSense.c ****         #endif /* ((CapSense_CSH_TANK_PREGARGE_OPTION == CapSense__CAPPRIOBUF) || (CapSense_CSH_TAN
 255:Generated_Source\PSoC4/CapSense.c **** 
 256:Generated_Source\PSoC4/CapSense.c ****         CapSense_EnableShieldElectrode((uint32)CapSense_SHIELD_PIN_NUMBER, (uint32)CapSense_SHIELD_
 257:Generated_Source\PSoC4/CapSense.c **** 
 258:Generated_Source\PSoC4/CapSense.c ****     #endif /* (CapSense_IS_SHIELD_ENABLE) */
 259:Generated_Source\PSoC4/CapSense.c **** 
 260:Generated_Source\PSoC4/CapSense.c ****     for(curSensor = 0u; curSensor < CapSense_TOTAL_SENSOR_COUNT; curSensor++)
 239              		.loc 1 260 0
 240 0006 0023     		mov	r3, #0
 241 0008 7B60     		str	r3, [r7, #4]
 242 000a 07E0     		b	.L2
 243              	.L3:
 261:Generated_Source\PSoC4/CapSense.c ****     {
 262:Generated_Source\PSoC4/CapSense.c ****         CapSense_SetUnscannedSensorState(curSensor, CapSense_CONNECT_INACTIVE_SNS);
 244              		.loc 1 262 0 discriminator 3
 245 000c 7B68     		ldr	r3, [r7, #4]
 246 000e 181C     		mov	r0, r3
 247 0010 0021     		mov	r1, #0
ARM GAS  C:\Users\poornima\AppData\Local\Temp\ccI9K5HH.s 			page 10


 248 0012 FFF7FEFF 		bl	CapSense_SetUnscannedSensorState
 260:Generated_Source\PSoC4/CapSense.c ****     {
 249              		.loc 1 260 0 discriminator 3
 250 0016 7B68     		ldr	r3, [r7, #4]
 251 0018 0133     		add	r3, r3, #1
 252 001a 7B60     		str	r3, [r7, #4]
 253              	.L2:
 260:Generated_Source\PSoC4/CapSense.c ****     {
 254              		.loc 1 260 0 is_stmt 0 discriminator 1
 255 001c 7B68     		ldr	r3, [r7, #4]
 256 001e 0F2B     		cmp	r3, #15
 257 0020 F4D9     		bls	.L3
 263:Generated_Source\PSoC4/CapSense.c ****     }
 264:Generated_Source\PSoC4/CapSense.c **** 
 265:Generated_Source\PSoC4/CapSense.c ****     CapSense_CsdHwBlockInit();
 258              		.loc 1 265 0 is_stmt 1
 259 0022 FFF7FEFF 		bl	CapSense_CsdHwBlockInit
 266:Generated_Source\PSoC4/CapSense.c ****     CapSense_SetShieldDelay(CapSense_SHIELD_DELAY );
 260              		.loc 1 266 0
 261 0026 0020     		mov	r0, #0
 262 0028 FFF7FEFF 		bl	CapSense_SetShieldDelay
 267:Generated_Source\PSoC4/CapSense.c **** 
 268:Generated_Source\PSoC4/CapSense.c ****     /* Clear all sensors */
 269:Generated_Source\PSoC4/CapSense.c ****     CapSense_ClearSensors();
 263              		.loc 1 269 0
 264 002c FFF7FEFF 		bl	CapSense_ClearSensors
 270:Generated_Source\PSoC4/CapSense.c **** }
 265              		.loc 1 270 0
 266 0030 BD46     		mov	sp, r7
 267 0032 02B0     		add	sp, sp, #8
 268              		@ sp needed
 269 0034 80BD     		pop	{r7, pc}
 270              		.cfi_endproc
 271              	.LFE35:
 272              		.size	CapSense_Init, .-CapSense_Init
 273 0036 C046     		.section	.text.CapSense_CsdHwBlockInit,"ax",%progbits
 274              		.align	2
 275              		.global	CapSense_CsdHwBlockInit
 276              		.code	16
 277              		.thumb_func
 278              		.type	CapSense_CsdHwBlockInit, %function
 279              	CapSense_CsdHwBlockInit:
 280              	.LFB36:
 271:Generated_Source\PSoC4/CapSense.c **** 
 272:Generated_Source\PSoC4/CapSense.c **** /*******************************************************************************
 273:Generated_Source\PSoC4/CapSense.c **** * Function Name: CapSense_CsdHwBlockInit
 274:Generated_Source\PSoC4/CapSense.c **** ********************************************************************************
 275:Generated_Source\PSoC4/CapSense.c **** *
 276:Generated_Source\PSoC4/CapSense.c **** * Summary:
 277:Generated_Source\PSoC4/CapSense.c **** *  Initialises the hardware parameters of the CSD block
 278:Generated_Source\PSoC4/CapSense.c **** *
 279:Generated_Source\PSoC4/CapSense.c **** * Parameters:
 280:Generated_Source\PSoC4/CapSense.c **** *  None
 281:Generated_Source\PSoC4/CapSense.c **** *
 282:Generated_Source\PSoC4/CapSense.c **** * Return:
 283:Generated_Source\PSoC4/CapSense.c **** *  None
 284:Generated_Source\PSoC4/CapSense.c **** *
ARM GAS  C:\Users\poornima\AppData\Local\Temp\ccI9K5HH.s 			page 11


 285:Generated_Source\PSoC4/CapSense.c **** * Global Variables:
 286:Generated_Source\PSoC4/CapSense.c **** *  CapSense_csdTrim1 - Contains IDAC trim register value for Sourcing Mode.
 287:Generated_Source\PSoC4/CapSense.c **** *  CapSense_csdTrim2 - Contains IDAC trim register value for Sinking Mode.
 288:Generated_Source\PSoC4/CapSense.c **** *
 289:Generated_Source\PSoC4/CapSense.c **** * Side Effects:
 290:Generated_Source\PSoC4/CapSense.c **** *  None
 291:Generated_Source\PSoC4/CapSense.c **** *
 292:Generated_Source\PSoC4/CapSense.c **** *******************************************************************************/
 293:Generated_Source\PSoC4/CapSense.c **** void CapSense_CsdHwBlockInit(void)
 294:Generated_Source\PSoC4/CapSense.c **** {
 281              		.loc 1 294 0
 282              		.cfi_startproc
 283 0000 80B5     		push	{r7, lr}
 284              		.cfi_def_cfa_offset 8
 285              		.cfi_offset 7, -8
 286              		.cfi_offset 14, -4
 287 0002 82B0     		sub	sp, sp, #8
 288              		.cfi_def_cfa_offset 16
 289 0004 00AF     		add	r7, sp, #0
 290              		.cfi_def_cfa_register 7
 295:Generated_Source\PSoC4/CapSense.c ****     uint32 newRegValue;
 296:Generated_Source\PSoC4/CapSense.c **** 
 297:Generated_Source\PSoC4/CapSense.c ****         /* Set trim registers for CSD Mode */
 298:Generated_Source\PSoC4/CapSense.c ****     #if (CapSense_IDAC1_POLARITY == CapSense__IDAC_SINK)
 299:Generated_Source\PSoC4/CapSense.c ****         /* iDAC1 Sinking Mode */
 300:Generated_Source\PSoC4/CapSense.c ****         CapSense_csdTrim2 = (uint8)CapSense_CSD_TRIM2_REG;
 301:Generated_Source\PSoC4/CapSense.c ****         newRegValue = CapSense_csdTrim2;
 302:Generated_Source\PSoC4/CapSense.c ****         newRegValue &= CapSense_CSD_IDAC1_TRIM_MASK;
 303:Generated_Source\PSoC4/CapSense.c ****         newRegValue |= (uint32)((uint32)CapSense_SFLASH_CSD_TRIM2_REG & (uint32)CapSense_CSFLASH_TR
 304:Generated_Source\PSoC4/CapSense.c **** 
 305:Generated_Source\PSoC4/CapSense.c ****         #if (CapSense_IDAC_CNT == 2u)
 306:Generated_Source\PSoC4/CapSense.c ****             /* iDAC2 Sinking Mode */
 307:Generated_Source\PSoC4/CapSense.c ****             newRegValue &= CapSense_CSD_IDAC2_TRIM_MASK;
 308:Generated_Source\PSoC4/CapSense.c ****             newRegValue |= (uint32)((uint32)CapSense_SFLASH_CSD_TRIM2_REG & (uint32)CapSense_CSFLAS
 309:Generated_Source\PSoC4/CapSense.c ****         #endif /* (CapSense_IDAC_CNT == 2u) */
 310:Generated_Source\PSoC4/CapSense.c ****         CapSense_CSD_TRIM2_REG = newRegValue;
 311:Generated_Source\PSoC4/CapSense.c ****     #else
 312:Generated_Source\PSoC4/CapSense.c ****         /* iDAC1 Sourcing Mode */
 313:Generated_Source\PSoC4/CapSense.c ****         CapSense_csdTrim1 = (uint8)CapSense_CSD_TRIM1_REG;
 291              		.loc 1 313 0
 292 0006 244B     		ldr	r3, .L5
 293 0008 1B68     		ldr	r3, [r3]
 294 000a DAB2     		uxtb	r2, r3
 295 000c 234B     		ldr	r3, .L5+4
 296 000e 1A70     		strb	r2, [r3]
 314:Generated_Source\PSoC4/CapSense.c ****         newRegValue = CapSense_csdTrim1;
 297              		.loc 1 314 0
 298 0010 224B     		ldr	r3, .L5+4
 299 0012 1B78     		ldrb	r3, [r3]
 300 0014 7B60     		str	r3, [r7, #4]
 315:Generated_Source\PSoC4/CapSense.c ****         newRegValue &= CapSense_CSD_IDAC1_TRIM_MASK;
 301              		.loc 1 315 0
 302 0016 7B68     		ldr	r3, [r7, #4]
 303 0018 0F22     		mov	r2, #15
 304 001a 9343     		bic	r3, r2
 305 001c 7B60     		str	r3, [r7, #4]
 316:Generated_Source\PSoC4/CapSense.c ****         newRegValue |= (uint32)((uint32)CapSense_SFLASH_CSD_TRIM1_REG & (uint32)CapSense_CSFLASH_TR
ARM GAS  C:\Users\poornima\AppData\Local\Temp\ccI9K5HH.s 			page 12


 306              		.loc 1 316 0
 307 001e 204B     		ldr	r3, .L5+8
 308 0020 1B78     		ldrb	r3, [r3]
 309 0022 DBB2     		uxtb	r3, r3
 310 0024 1A1C     		mov	r2, r3
 311 0026 0F23     		mov	r3, #15
 312 0028 1340     		and	r3, r2
 313 002a 7A68     		ldr	r2, [r7, #4]
 314 002c 1343     		orr	r3, r2
 315 002e 7B60     		str	r3, [r7, #4]
 317:Generated_Source\PSoC4/CapSense.c ****         #if (CapSense_IDAC_CNT == 2u)
 318:Generated_Source\PSoC4/CapSense.c ****              /* iDAC2 Sourcing Mode */
 319:Generated_Source\PSoC4/CapSense.c ****             newRegValue &= CapSense_CSD_IDAC2_TRIM_MASK;
 316              		.loc 1 319 0
 317 0030 7B68     		ldr	r3, [r7, #4]
 318 0032 F022     		mov	r2, #240
 319 0034 9343     		bic	r3, r2
 320 0036 7B60     		str	r3, [r7, #4]
 320:Generated_Source\PSoC4/CapSense.c ****             newRegValue |= (uint32)((uint32)CapSense_SFLASH_CSD_TRIM1_REG & (uint32)CapSense_CSFLAS
 321              		.loc 1 320 0
 322 0038 194B     		ldr	r3, .L5+8
 323 003a 1B78     		ldrb	r3, [r3]
 324 003c DBB2     		uxtb	r3, r3
 325 003e 1A1C     		mov	r2, r3
 326 0040 F023     		mov	r3, #240
 327 0042 1340     		and	r3, r2
 328 0044 7A68     		ldr	r2, [r7, #4]
 329 0046 1343     		orr	r3, r2
 330 0048 7B60     		str	r3, [r7, #4]
 321:Generated_Source\PSoC4/CapSense.c ****         #endif
 322:Generated_Source\PSoC4/CapSense.c ****         CapSense_CSD_TRIM1_REG = newRegValue;
 331              		.loc 1 322 0
 332 004a 134B     		ldr	r3, .L5
 333 004c 7A68     		ldr	r2, [r7, #4]
 334 004e 1A60     		str	r2, [r3]
 323:Generated_Source\PSoC4/CapSense.c ****     #endif /* (CapSense_IDAC1_POLARITY == CapSense__IDAC_SINK) */
 324:Generated_Source\PSoC4/CapSense.c **** 
 325:Generated_Source\PSoC4/CapSense.c ****     /* Configure CSD and IDAC */
 326:Generated_Source\PSoC4/CapSense.c ****     #if (CapSense_IDAC_CNT > 1u)
 327:Generated_Source\PSoC4/CapSense.c ****         CapSense_CSD_IDAC_REG = CapSense_DEFAULT_CSD_IDAC_CONFIG;
 335              		.loc 1 327 0
 336 0050 144B     		ldr	r3, .L5+12
 337 0052 154A     		ldr	r2, .L5+16
 338 0054 1A60     		str	r2, [r3]
 328:Generated_Source\PSoC4/CapSense.c ****         CapSense_CSD_CFG_REG = CapSense_DEFAULT_CSD_CONFIG;
 339              		.loc 1 328 0
 340 0056 154B     		ldr	r3, .L5+20
 341 0058 154A     		ldr	r2, .L5+24
 342 005a 1A60     		str	r2, [r3]
 329:Generated_Source\PSoC4/CapSense.c ****     #else
 330:Generated_Source\PSoC4/CapSense.c ****         CapSense_CSD_IDAC_REG &= ~(CapSense_CSD_IDAC1_MODE_MASK  | CapSense_CSD_IDAC1_DATA_MASK);
 331:Generated_Source\PSoC4/CapSense.c ****         CapSense_CSD_IDAC_REG |= CapSense_DEFAULT_CSD_IDAC_CONFIG;
 332:Generated_Source\PSoC4/CapSense.c **** 
 333:Generated_Source\PSoC4/CapSense.c ****         CapSense_CSD_CFG_REG &= ~(CapSense_CSD_CONFIG_MASK);
 334:Generated_Source\PSoC4/CapSense.c ****         CapSense_CSD_CFG_REG |= (CapSense_DEFAULT_CSD_CONFIG);
 335:Generated_Source\PSoC4/CapSense.c ****     #endif /* (CapSense_IDAC_CNT > 1u) */
 336:Generated_Source\PSoC4/CapSense.c **** 
ARM GAS  C:\Users\poornima\AppData\Local\Temp\ccI9K5HH.s 			page 13


 337:Generated_Source\PSoC4/CapSense.c **** 
 338:Generated_Source\PSoC4/CapSense.c ****     /* Connect Cmod to AMUX bus */
 339:Generated_Source\PSoC4/CapSense.c ****     newRegValue = CapSense_CMOD_CONNECTION_REG;
 343              		.loc 1 339 0
 344 005c 154B     		ldr	r3, .L5+28
 345 005e 1B68     		ldr	r3, [r3]
 346 0060 7B60     		str	r3, [r7, #4]
 340:Generated_Source\PSoC4/CapSense.c ****     newRegValue &= ~(CapSense_CSD_CMOD_CONNECTION_MASK);
 347              		.loc 1 340 0
 348 0062 7B68     		ldr	r3, [r7, #4]
 349 0064 144A     		ldr	r2, .L5+32
 350 0066 1340     		and	r3, r2
 351 0068 7B60     		str	r3, [r7, #4]
 341:Generated_Source\PSoC4/CapSense.c ****     newRegValue |= CapSense_CSD_CMOD_TO_AMUXBUS_A;
 352              		.loc 1 341 0
 353 006a 7B68     		ldr	r3, [r7, #4]
 354 006c C022     		mov	r2, #192
 355 006e D200     		lsl	r2, r2, #3
 356 0070 1343     		orr	r3, r2
 357 0072 7B60     		str	r3, [r7, #4]
 342:Generated_Source\PSoC4/CapSense.c ****     CapSense_CMOD_CONNECTION_REG = newRegValue;
 358              		.loc 1 342 0
 359 0074 0F4B     		ldr	r3, .L5+28
 360 0076 7A68     		ldr	r2, [r7, #4]
 361 0078 1A60     		str	r2, [r3]
 343:Generated_Source\PSoC4/CapSense.c **** 
 344:Generated_Source\PSoC4/CapSense.c ****     /* Configure Dead Band PWM if it is enabled */
 345:Generated_Source\PSoC4/CapSense.c ****     #if(CapSense_CSD_4B_PWM_MODE != CapSense__PWM_OFF)
 346:Generated_Source\PSoC4/CapSense.c ****         CapSense_CSD_4B_PWM_REG = CapSense_DEFAULT_CSD_4B_PWM_CONFIG;
 347:Generated_Source\PSoC4/CapSense.c ****     #endif /* (CapSense_CSD_4B_PWM_MODE != CapSense__PWM_OFF) */
 348:Generated_Source\PSoC4/CapSense.c **** 
 349:Generated_Source\PSoC4/CapSense.c ****     /* Setup ISR */
 350:Generated_Source\PSoC4/CapSense.c ****     CyIntDisable(CapSense_ISR_NUMBER);
 362              		.loc 1 350 0
 363 007a 1120     		mov	r0, #17
 364 007c FFF7FEFF 		bl	CyIntDisable
 351:Generated_Source\PSoC4/CapSense.c ****     #if !defined(CY_EXTERNAL_INTERRUPT_CONFIG)
 352:Generated_Source\PSoC4/CapSense.c ****         (void)CyIntSetVector(CapSense_ISR_NUMBER, &CapSense_ISR);
 365              		.loc 1 352 0
 366 0080 0E4B     		ldr	r3, .L5+36
 367 0082 1120     		mov	r0, #17
 368 0084 191C     		mov	r1, r3
 369 0086 FFF7FEFF 		bl	CyIntSetVector
 353:Generated_Source\PSoC4/CapSense.c ****         CyIntSetPriority(CapSense_ISR_NUMBER, CapSense_ISR_PRIORITY);
 370              		.loc 1 353 0
 371 008a 1120     		mov	r0, #17
 372 008c 0321     		mov	r1, #3
 373 008e FFF7FEFF 		bl	CyIntSetPriority
 354:Generated_Source\PSoC4/CapSense.c ****     #endif /* (CY_EXTERNAL_INTERRUPT_CONFIG) */
 355:Generated_Source\PSoC4/CapSense.c **** }
 374              		.loc 1 355 0
 375 0092 BD46     		mov	sp, r7
 376 0094 02B0     		add	sp, sp, #8
 377              		@ sp needed
 378 0096 80BD     		pop	{r7, pc}
 379              	.L6:
 380              		.align	2
ARM GAS  C:\Users\poornima\AppData\Local\Temp\ccI9K5HH.s 			page 14


 381              	.L5:
 382 0098 00FF2840 		.word	1076428544
 383 009c 00000000 		.word	CapSense_csdTrim1
 384 00a0 62F1FF0F 		.word	268431714
 385 00a4 08002840 		.word	1076363272
 386 00a8 00020001 		.word	16777728
 387 00ac 04002840 		.word	1076363268
 388 00b0 C008A001 		.word	27265216
 389 00b4 00040240 		.word	1073873920
 390 00b8 FFF0FFFF 		.word	-3841
 391 00bc 00000000 		.word	CapSense_ISR
 392              		.cfi_endproc
 393              	.LFE36:
 394              		.size	CapSense_CsdHwBlockInit, .-CapSense_CsdHwBlockInit
 395              		.section	.text.CapSense_Enable,"ax",%progbits
 396              		.align	2
 397              		.global	CapSense_Enable
 398              		.code	16
 399              		.thumb_func
 400              		.type	CapSense_Enable, %function
 401              	CapSense_Enable:
 402              	.LFB37:
 356:Generated_Source\PSoC4/CapSense.c **** 
 357:Generated_Source\PSoC4/CapSense.c **** 
 358:Generated_Source\PSoC4/CapSense.c **** /*******************************************************************************
 359:Generated_Source\PSoC4/CapSense.c **** * Function Name: CapSense_Enable
 360:Generated_Source\PSoC4/CapSense.c **** ********************************************************************************
 361:Generated_Source\PSoC4/CapSense.c **** *
 362:Generated_Source\PSoC4/CapSense.c **** * Summary:
 363:Generated_Source\PSoC4/CapSense.c **** *  Enables the CSD block and related resources to an active mode.
 364:Generated_Source\PSoC4/CapSense.c **** *
 365:Generated_Source\PSoC4/CapSense.c **** * Parameters:
 366:Generated_Source\PSoC4/CapSense.c **** *  None
 367:Generated_Source\PSoC4/CapSense.c **** *
 368:Generated_Source\PSoC4/CapSense.c **** * Return:
 369:Generated_Source\PSoC4/CapSense.c **** *  None
 370:Generated_Source\PSoC4/CapSense.c **** *
 371:Generated_Source\PSoC4/CapSense.c **** * Global Variables:
 372:Generated_Source\PSoC4/CapSense.c **** *  None.
 373:Generated_Source\PSoC4/CapSense.c **** *
 374:Generated_Source\PSoC4/CapSense.c **** * Side Effects:
 375:Generated_Source\PSoC4/CapSense.c **** *  None
 376:Generated_Source\PSoC4/CapSense.c **** *
 377:Generated_Source\PSoC4/CapSense.c **** *******************************************************************************/
 378:Generated_Source\PSoC4/CapSense.c **** void CapSense_Enable(void)
 379:Generated_Source\PSoC4/CapSense.c **** {
 403              		.loc 1 379 0
 404              		.cfi_startproc
 405 0000 80B5     		push	{r7, lr}
 406              		.cfi_def_cfa_offset 8
 407              		.cfi_offset 7, -8
 408              		.cfi_offset 14, -4
 409 0002 82B0     		sub	sp, sp, #8
 410              		.cfi_def_cfa_offset 16
 411 0004 00AF     		add	r7, sp, #0
 412              		.cfi_def_cfa_register 7
 380:Generated_Source\PSoC4/CapSense.c ****     uint32 newRegValue;
ARM GAS  C:\Users\poornima\AppData\Local\Temp\ccI9K5HH.s 			page 15


 381:Generated_Source\PSoC4/CapSense.c **** 
 382:Generated_Source\PSoC4/CapSense.c ****     /* Enable Clocks */
 383:Generated_Source\PSoC4/CapSense.c ****     CapSense_SenseClk_Stop();
 413              		.loc 1 383 0
 414 0006 FFF7FEFF 		bl	CapSense_SenseClk_Stop
 384:Generated_Source\PSoC4/CapSense.c ****     CapSense_SampleClk_Stop();
 415              		.loc 1 384 0
 416 000a FFF7FEFF 		bl	CapSense_SampleClk_Stop
 385:Generated_Source\PSoC4/CapSense.c **** 
 386:Generated_Source\PSoC4/CapSense.c ****     CapSense_SampleClk_SetDividerValue((uint16)CapSense_INITIAL_CLK_DIVIDER);
 417              		.loc 1 386 0
 418 000e 0020     		mov	r0, #0
 419 0010 0021     		mov	r1, #0
 420 0012 FFF7FEFF 		bl	CapSense_SampleClk_SetFractionalDividerRegister
 387:Generated_Source\PSoC4/CapSense.c ****     CapSense_SenseClk_SetDividerValue((uint16)CapSense_INITIAL_CLK_DIVIDER);
 421              		.loc 1 387 0
 422 0016 0020     		mov	r0, #0
 423 0018 0021     		mov	r1, #0
 424 001a FFF7FEFF 		bl	CapSense_SenseClk_SetFractionalDividerRegister
 388:Generated_Source\PSoC4/CapSense.c **** 
 389:Generated_Source\PSoC4/CapSense.c ****     #if (0u == CapSense_IS_M0S8PERI_BLOCK)
 390:Generated_Source\PSoC4/CapSense.c ****         CapSense_SenseClk_Start();
 391:Generated_Source\PSoC4/CapSense.c ****         CapSense_SampleClk_Start();
 392:Generated_Source\PSoC4/CapSense.c ****     #else
 393:Generated_Source\PSoC4/CapSense.c ****         CapSense_SampleClk_Start();
 425              		.loc 1 393 0
 426 001e FF20     		mov	r0, #255
 427 0020 FFF7FEFF 		bl	CapSense_SampleClk_StartEx
 394:Generated_Source\PSoC4/CapSense.c ****         CapSense_SenseClk_StartEx(CapSense_SampleClk__DIV_ID);
 428              		.loc 1 394 0
 429 0024 4020     		mov	r0, #64
 430 0026 FFF7FEFF 		bl	CapSense_SenseClk_StartEx
 395:Generated_Source\PSoC4/CapSense.c ****     #endif /* (0u == CapSense_IS_M0S8PERI_BLOCK) */
 396:Generated_Source\PSoC4/CapSense.c **** 
 397:Generated_Source\PSoC4/CapSense.c ****     /* Enable the CSD block */
 398:Generated_Source\PSoC4/CapSense.c ****     newRegValue = CapSense_CSD_CFG_REG;
 431              		.loc 1 398 0
 432 002a 084B     		ldr	r3, .L8
 433 002c 1B68     		ldr	r3, [r3]
 434 002e 7B60     		str	r3, [r7, #4]
 399:Generated_Source\PSoC4/CapSense.c ****     newRegValue |= (CapSense_CSD_CFG_ENABLE | CapSense_CSD_CFG_SENSE_COMP_EN
 435              		.loc 1 399 0
 436 0030 7B68     		ldr	r3, [r7, #4]
 437 0032 074A     		ldr	r2, .L8+4
 438 0034 1343     		orr	r3, r2
 439 0036 7B60     		str	r3, [r7, #4]
 400:Generated_Source\PSoC4/CapSense.c ****                                                    | CapSense_CSD_CFG_SENSE_EN);
 401:Generated_Source\PSoC4/CapSense.c ****     CapSense_CSD_CFG_REG = newRegValue;
 440              		.loc 1 401 0
 441 0038 044B     		ldr	r3, .L8
 442 003a 7A68     		ldr	r2, [r7, #4]
 443 003c 1A60     		str	r2, [r3]
 402:Generated_Source\PSoC4/CapSense.c **** 
 403:Generated_Source\PSoC4/CapSense.c ****     /* Enable interrupt */
 404:Generated_Source\PSoC4/CapSense.c ****     CyIntEnable(CapSense_ISR_NUMBER);
 444              		.loc 1 404 0
 445 003e 1120     		mov	r0, #17
ARM GAS  C:\Users\poornima\AppData\Local\Temp\ccI9K5HH.s 			page 16


 446 0040 FFF7FEFF 		bl	CyIntEnable
 405:Generated_Source\PSoC4/CapSense.c **** }
 447              		.loc 1 405 0
 448 0044 BD46     		mov	sp, r7
 449 0046 02B0     		add	sp, sp, #8
 450              		@ sp needed
 451 0048 80BD     		pop	{r7, pc}
 452              	.L9:
 453 004a C046     		.align	2
 454              	.L8:
 455 004c 04002840 		.word	1076363268
 456 0050 00100880 		.word	-2146955264
 457              		.cfi_endproc
 458              	.LFE37:
 459              		.size	CapSense_Enable, .-CapSense_Enable
 460              		.section	.text.CapSense_Start,"ax",%progbits
 461              		.align	2
 462              		.global	CapSense_Start
 463              		.code	16
 464              		.thumb_func
 465              		.type	CapSense_Start, %function
 466              	CapSense_Start:
 467              	.LFB38:
 406:Generated_Source\PSoC4/CapSense.c **** 
 407:Generated_Source\PSoC4/CapSense.c **** 
 408:Generated_Source\PSoC4/CapSense.c **** /*******************************************************************************
 409:Generated_Source\PSoC4/CapSense.c **** * Function Name: CapSense_Start
 410:Generated_Source\PSoC4/CapSense.c **** ********************************************************************************
 411:Generated_Source\PSoC4/CapSense.c **** *
 412:Generated_Source\PSoC4/CapSense.c **** * Summary:
 413:Generated_Source\PSoC4/CapSense.c **** *  This is the preferred method to begin the component operation. CapSense_Start()
 414:Generated_Source\PSoC4/CapSense.c **** *  calls the CapSense_Init() function, and then calls the CapSense_Enable()
 415:Generated_Source\PSoC4/CapSense.c **** *  function. Initializes the registers and starts the CSD method of the CapSense
 416:Generated_Source\PSoC4/CapSense.c **** *  component. Resets all the sensors to an inactive state. Enables interrupts for
 417:Generated_Source\PSoC4/CapSense.c **** *  sensors scanning. When the SmartSense tuning mode is selected, the tuning procedure
 418:Generated_Source\PSoC4/CapSense.c **** *  is applied for all the sensors. The CapSense_Start() routine must be called before
 419:Generated_Source\PSoC4/CapSense.c **** *  any other API routines.
 420:Generated_Source\PSoC4/CapSense.c **** *
 421:Generated_Source\PSoC4/CapSense.c **** * Parameters:
 422:Generated_Source\PSoC4/CapSense.c **** *  None
 423:Generated_Source\PSoC4/CapSense.c **** *
 424:Generated_Source\PSoC4/CapSense.c **** * Return:
 425:Generated_Source\PSoC4/CapSense.c **** *  None
 426:Generated_Source\PSoC4/CapSense.c **** *
 427:Generated_Source\PSoC4/CapSense.c **** * Global Variables:
 428:Generated_Source\PSoC4/CapSense.c **** *   CapSense_initVar - used to check the initial configuration,
 429:Generated_Source\PSoC4/CapSense.c **** *   modified on the first function call.
 430:Generated_Source\PSoC4/CapSense.c **** *  CapSense_lowLevelTuningDone - Used to notify the Tuner GUI that
 431:Generated_Source\PSoC4/CapSense.c **** *   tuning of the scanning parameters is done.
 432:Generated_Source\PSoC4/CapSense.c **** *
 433:Generated_Source\PSoC4/CapSense.c **** * Side Effects:
 434:Generated_Source\PSoC4/CapSense.c **** *  None
 435:Generated_Source\PSoC4/CapSense.c **** *
 436:Generated_Source\PSoC4/CapSense.c **** *******************************************************************************/
 437:Generated_Source\PSoC4/CapSense.c **** void CapSense_Start(void)
 438:Generated_Source\PSoC4/CapSense.c **** {
 468              		.loc 1 438 0
ARM GAS  C:\Users\poornima\AppData\Local\Temp\ccI9K5HH.s 			page 17


 469              		.cfi_startproc
 470 0000 80B5     		push	{r7, lr}
 471              		.cfi_def_cfa_offset 8
 472              		.cfi_offset 7, -8
 473              		.cfi_offset 14, -4
 474 0002 00AF     		add	r7, sp, #0
 475              		.cfi_def_cfa_register 7
 439:Generated_Source\PSoC4/CapSense.c **** 
 440:Generated_Source\PSoC4/CapSense.c ****     static uint8 CapSense_initVar = 0u;
 441:Generated_Source\PSoC4/CapSense.c **** 
 442:Generated_Source\PSoC4/CapSense.c ****     #if((0u != CapSense_AUTOCALIBRATION_ENABLE) && (CapSense_TUNING_METHOD != CapSense__TUNING_AUTO
 443:Generated_Source\PSoC4/CapSense.c ****         uint32 curSensor;
 444:Generated_Source\PSoC4/CapSense.c ****         uint32 rawLevel;
 445:Generated_Source\PSoC4/CapSense.c ****         uint32 widget;
 446:Generated_Source\PSoC4/CapSense.c ****     #endif /* ((0u != CapSense_AUTOCALIBRATION_ENABLE) && (CapSense_TUNING_METHOD != CapSense__TUNI
 447:Generated_Source\PSoC4/CapSense.c **** 
 448:Generated_Source\PSoC4/CapSense.c ****     if (CapSense_initVar == 0u)
 476              		.loc 1 448 0
 477 0004 0C4B     		ldr	r3, .L12
 478 0006 1B78     		ldrb	r3, [r3]
 479 0008 002B     		cmp	r3, #0
 480 000a 04D1     		bne	.L11
 449:Generated_Source\PSoC4/CapSense.c ****     {
 450:Generated_Source\PSoC4/CapSense.c ****         CapSense_Init();
 481              		.loc 1 450 0
 482 000c FFF7FEFF 		bl	CapSense_Init
 451:Generated_Source\PSoC4/CapSense.c ****         CapSense_initVar = 1u;
 483              		.loc 1 451 0
 484 0010 094B     		ldr	r3, .L12
 485 0012 0122     		mov	r2, #1
 486 0014 1A70     		strb	r2, [r3]
 487              	.L11:
 452:Generated_Source\PSoC4/CapSense.c ****     }
 453:Generated_Source\PSoC4/CapSense.c ****     CapSense_Enable();
 488              		.loc 1 453 0
 489 0016 FFF7FEFF 		bl	CapSense_Enable
 454:Generated_Source\PSoC4/CapSense.c **** 
 455:Generated_Source\PSoC4/CapSense.c ****     /* AutoTunning start */
 456:Generated_Source\PSoC4/CapSense.c ****     #if(CapSense_TUNING_METHOD == CapSense__TUNING_AUTO)
 457:Generated_Source\PSoC4/CapSense.c ****         #if(0u != CapSense_CSHL_API_GENERATE)
 458:Generated_Source\PSoC4/CapSense.c ****             CapSense_AutoTune();
 490              		.loc 1 458 0
 491 001a FFF7FEFF 		bl	CapSense_AutoTune
 459:Generated_Source\PSoC4/CapSense.c ****             CapSense_lowLevelTuningDone = 1u;
 492              		.loc 1 459 0
 493 001e 074B     		ldr	r3, .L12+4
 494 0020 0122     		mov	r2, #1
 495 0022 1A70     		strb	r2, [r3]
 460:Generated_Source\PSoC4/CapSense.c ****         #endif /* (0u != CapSense_CSHL_API_GENERATE) */
 461:Generated_Source\PSoC4/CapSense.c ****     #else
 462:Generated_Source\PSoC4/CapSense.c ****         #if(0u != CapSense_AUTOCALIBRATION_ENABLE)
 463:Generated_Source\PSoC4/CapSense.c **** 
 464:Generated_Source\PSoC4/CapSense.c ****             #if(CapSense_IDAC_CNT > 1u)
 465:Generated_Source\PSoC4/CapSense.c ****                 CapSense_CSD_IDAC_REG &= ~(CapSense_CSD_IDAC2_MODE_MASK);
 466:Generated_Source\PSoC4/CapSense.c ****             #endif /* (CapSense_IDAC_CNT > 1u) */
 467:Generated_Source\PSoC4/CapSense.c **** 
 468:Generated_Source\PSoC4/CapSense.c ****             for(curSensor = 0u; curSensor < CapSense_TOTAL_SCANSLOT_COUNT; curSensor++)
ARM GAS  C:\Users\poornima\AppData\Local\Temp\ccI9K5HH.s 			page 18


 469:Generated_Source\PSoC4/CapSense.c ****             {
 470:Generated_Source\PSoC4/CapSense.c ****                 widget = CapSense_widgetNumber[curSensor];
 471:Generated_Source\PSoC4/CapSense.c ****                 rawLevel = CapSense_widgetResolution[widget] >> CapSense_RESOLUTION_OFFSET;
 472:Generated_Source\PSoC4/CapSense.c **** 
 473:Generated_Source\PSoC4/CapSense.c ****                 /* Calibration level should be equal to 85% from scanning resolution */
 474:Generated_Source\PSoC4/CapSense.c ****                 rawLevel = (rawLevel * 85u) / 100u;
 475:Generated_Source\PSoC4/CapSense.c **** 
 476:Generated_Source\PSoC4/CapSense.c ****                 CapSense_CalibrateSensor(curSensor, rawLevel, CapSense_modulationIDAC);
 477:Generated_Source\PSoC4/CapSense.c ****             }
 478:Generated_Source\PSoC4/CapSense.c **** 
 479:Generated_Source\PSoC4/CapSense.c ****             #if(0u != CapSense_TOTAL_CENTROIDS_COUNT)
 480:Generated_Source\PSoC4/CapSense.c ****                 CapSense_NormalizeWidgets(CapSense_END_OF_WIDGETS_INDEX, CapSense_modulationIDAC);
 481:Generated_Source\PSoC4/CapSense.c ****             #endif /* (0u != CapSense_TOTAL_CENTROIDS_COUNT)  */
 482:Generated_Source\PSoC4/CapSense.c **** 
 483:Generated_Source\PSoC4/CapSense.c ****             #if(CapSense_IDAC_CNT > 1u)
 484:Generated_Source\PSoC4/CapSense.c ****                 for(curSensor = 0u; curSensor < CapSense_TOTAL_SCANSLOT_COUNT; curSensor++)
 485:Generated_Source\PSoC4/CapSense.c ****                 {
 486:Generated_Source\PSoC4/CapSense.c ****                     CapSense_compensationIDAC[curSensor] = CapSense_modulationIDAC[curSensor] / 2u;
 487:Generated_Source\PSoC4/CapSense.c ****                     CapSense_modulationIDAC[curSensor] = (CapSense_modulationIDAC[curSensor] + 1u) 
 488:Generated_Source\PSoC4/CapSense.c ****                 }
 489:Generated_Source\PSoC4/CapSense.c ****                 CapSense_CSD_IDAC_REG |= CapSense_CSD_IDAC2_MODE_FIXED;
 490:Generated_Source\PSoC4/CapSense.c ****             #endif /* (CapSense_IDAC_CNT > 1u) */
 491:Generated_Source\PSoC4/CapSense.c **** 
 492:Generated_Source\PSoC4/CapSense.c ****         #endif /* (0u != CapSense_AUTOCALIBRATION_ENABLE) */
 493:Generated_Source\PSoC4/CapSense.c **** 
 494:Generated_Source\PSoC4/CapSense.c ****     #endif /* ((CapSense_TUNING_METHOD == CapSense__TUNING_AUTO) */
 495:Generated_Source\PSoC4/CapSense.c **** 
 496:Generated_Source\PSoC4/CapSense.c ****     /* Initialize Advanced Centroid */
 497:Generated_Source\PSoC4/CapSense.c ****     #if(CapSense_TOTAL_TRACKPAD_GESTURES_COUNT > 0u)
 498:Generated_Source\PSoC4/CapSense.c ****         CapSense_AdvancedCentroidInit();
 499:Generated_Source\PSoC4/CapSense.c ****     #endif /* (CapSense_TOTAL_TRACKPAD_GESTURES_COUNT > 0u) */
 500:Generated_Source\PSoC4/CapSense.c **** 
 501:Generated_Source\PSoC4/CapSense.c ****     /* Connect sense comparator input to AMUXA */
 502:Generated_Source\PSoC4/CapSense.c ****     CapSense_CSD_CFG_REG |= CapSense_CSD_CFG_SENSE_INSEL;
 496              		.loc 1 502 0
 497 0024 064B     		ldr	r3, .L12+8
 498 0026 064A     		ldr	r2, .L12+8
 499 0028 1268     		ldr	r2, [r2]
 500 002a 8021     		mov	r1, #128
 501 002c C903     		lsl	r1, r1, #15
 502 002e 0A43     		orr	r2, r1
 503 0030 1A60     		str	r2, [r3]
 503:Generated_Source\PSoC4/CapSense.c **** }
 504              		.loc 1 503 0
 505 0032 BD46     		mov	sp, r7
 506              		@ sp needed
 507 0034 80BD     		pop	{r7, pc}
 508              	.L13:
 509 0036 C046     		.align	2
 510              	.L12:
 511 0038 24000000 		.word	CapSense_initVar.5293
 512 003c 00000000 		.word	CapSense_lowLevelTuningDone
 513 0040 04002840 		.word	1076363268
 514              		.cfi_endproc
 515              	.LFE38:
 516              		.size	CapSense_Start, .-CapSense_Start
 517              		.section	.text.CapSense_Stop,"ax",%progbits
ARM GAS  C:\Users\poornima\AppData\Local\Temp\ccI9K5HH.s 			page 19


 518              		.align	2
 519              		.global	CapSense_Stop
 520              		.code	16
 521              		.thumb_func
 522              		.type	CapSense_Stop, %function
 523              	CapSense_Stop:
 524              	.LFB39:
 504:Generated_Source\PSoC4/CapSense.c **** 
 505:Generated_Source\PSoC4/CapSense.c **** 
 506:Generated_Source\PSoC4/CapSense.c **** /*******************************************************************************
 507:Generated_Source\PSoC4/CapSense.c **** * Function Name: CapSense_Stop
 508:Generated_Source\PSoC4/CapSense.c **** ********************************************************************************
 509:Generated_Source\PSoC4/CapSense.c **** *
 510:Generated_Source\PSoC4/CapSense.c **** * Summary:
 511:Generated_Source\PSoC4/CapSense.c **** *  Stops the sensor scanning, disables component interrupts, and resets all the
 512:Generated_Source\PSoC4/CapSense.c **** *  sensors to an inactive state. Disables the Active mode power template bits for
 513:Generated_Source\PSoC4/CapSense.c **** *  the subcomponents used within CapSense.
 514:Generated_Source\PSoC4/CapSense.c **** *
 515:Generated_Source\PSoC4/CapSense.c **** * Parameters:
 516:Generated_Source\PSoC4/CapSense.c **** *  None
 517:Generated_Source\PSoC4/CapSense.c **** *
 518:Generated_Source\PSoC4/CapSense.c **** * Return:
 519:Generated_Source\PSoC4/CapSense.c **** *  None
 520:Generated_Source\PSoC4/CapSense.c **** *
 521:Generated_Source\PSoC4/CapSense.c **** * Global Variables:
 522:Generated_Source\PSoC4/CapSense.c **** *  CapSense_csdTrim1 - Contains the IDAC trim register value for the Sourcing Mode.
 523:Generated_Source\PSoC4/CapSense.c **** *  CapSense_csdTrim2 - Contains the IDAC trim register value for vSinking Mode.
 524:Generated_Source\PSoC4/CapSense.c **** *
 525:Generated_Source\PSoC4/CapSense.c **** * Side Effects:
 526:Generated_Source\PSoC4/CapSense.c **** *  This function should be called after scans are completed.
 527:Generated_Source\PSoC4/CapSense.c **** *
 528:Generated_Source\PSoC4/CapSense.c **** *******************************************************************************/
 529:Generated_Source\PSoC4/CapSense.c **** void CapSense_Stop(void)
 530:Generated_Source\PSoC4/CapSense.c **** {
 525              		.loc 1 530 0
 526              		.cfi_startproc
 527 0000 80B5     		push	{r7, lr}
 528              		.cfi_def_cfa_offset 8
 529              		.cfi_offset 7, -8
 530              		.cfi_offset 14, -4
 531 0002 00AF     		add	r7, sp, #0
 532              		.cfi_def_cfa_register 7
 531:Generated_Source\PSoC4/CapSense.c ****     /* Disable interrupt */
 532:Generated_Source\PSoC4/CapSense.c ****     CyIntDisable(CapSense_ISR_NUMBER);
 533              		.loc 1 532 0
 534 0004 1120     		mov	r0, #17
 535 0006 FFF7FEFF 		bl	CyIntDisable
 533:Generated_Source\PSoC4/CapSense.c **** 
 534:Generated_Source\PSoC4/CapSense.c ****     CapSense_CSD_CFG_REG &= ~(CapSense_CSD_CFG_SENSE_COMP_EN | CapSense_CSD_CFG_SENSE_EN);
 536              		.loc 1 534 0
 537 000a 094B     		ldr	r3, .L15
 538 000c 084A     		ldr	r2, .L15
 539 000e 1268     		ldr	r2, [r2]
 540 0010 0849     		ldr	r1, .L15+4
 541 0012 0A40     		and	r2, r1
 542 0014 1A60     		str	r2, [r3]
 535:Generated_Source\PSoC4/CapSense.c **** 
ARM GAS  C:\Users\poornima\AppData\Local\Temp\ccI9K5HH.s 			page 20


 536:Generated_Source\PSoC4/CapSense.c ****     #if(CapSense_IDAC_CNT == 2u)
 537:Generated_Source\PSoC4/CapSense.c ****         CapSense_CSD_CFG_REG &= ~(CapSense_CSD_CFG_ENABLE);
 543              		.loc 1 537 0
 544 0016 064B     		ldr	r3, .L15
 545 0018 054A     		ldr	r2, .L15
 546 001a 1268     		ldr	r2, [r2]
 547 001c 5200     		lsl	r2, r2, #1
 548 001e 5208     		lsr	r2, r2, #1
 549 0020 1A60     		str	r2, [r3]
 538:Generated_Source\PSoC4/CapSense.c ****     #endif /* (CapSense_IDAC_CNT == 2u) */
 539:Generated_Source\PSoC4/CapSense.c **** 
 540:Generated_Source\PSoC4/CapSense.c ****     /* Disable the Clocks */
 541:Generated_Source\PSoC4/CapSense.c ****     CapSense_SenseClk_Stop();
 550              		.loc 1 541 0
 551 0022 FFF7FEFF 		bl	CapSense_SenseClk_Stop
 542:Generated_Source\PSoC4/CapSense.c ****     CapSense_SampleClk_Stop();
 552              		.loc 1 542 0
 553 0026 FFF7FEFF 		bl	CapSense_SampleClk_Stop
 543:Generated_Source\PSoC4/CapSense.c **** }
 554              		.loc 1 543 0
 555 002a BD46     		mov	sp, r7
 556              		@ sp needed
 557 002c 80BD     		pop	{r7, pc}
 558              	.L16:
 559 002e C046     		.align	2
 560              	.L15:
 561 0030 04002840 		.word	1076363268
 562 0034 FFEFF7FF 		.word	-528385
 563              		.cfi_endproc
 564              	.LFE39:
 565              		.size	CapSense_Stop, .-CapSense_Stop
 566              		.section	.text.CapSense_FindNextSensor,"ax",%progbits
 567              		.align	2
 568              		.global	CapSense_FindNextSensor
 569              		.code	16
 570              		.thumb_func
 571              		.type	CapSense_FindNextSensor, %function
 572              	CapSense_FindNextSensor:
 573              	.LFB40:
 544:Generated_Source\PSoC4/CapSense.c **** 
 545:Generated_Source\PSoC4/CapSense.c **** 
 546:Generated_Source\PSoC4/CapSense.c **** /*******************************************************************************
 547:Generated_Source\PSoC4/CapSense.c **** * Function Name: CapSense_FindNextSensor
 548:Generated_Source\PSoC4/CapSense.c **** ********************************************************************************
 549:Generated_Source\PSoC4/CapSense.c **** *
 550:Generated_Source\PSoC4/CapSense.c **** * Summary:
 551:Generated_Source\PSoC4/CapSense.c **** *  Finds the next sensor to scan.
 552:Generated_Source\PSoC4/CapSense.c **** *
 553:Generated_Source\PSoC4/CapSense.c **** * Parameters:
 554:Generated_Source\PSoC4/CapSense.c **** *  snsIndex:  Current index of sensor.
 555:Generated_Source\PSoC4/CapSense.c **** *
 556:Generated_Source\PSoC4/CapSense.c **** * Return:
 557:Generated_Source\PSoC4/CapSense.c **** *  Returns the next sensor index to scan.
 558:Generated_Source\PSoC4/CapSense.c **** *
 559:Generated_Source\PSoC4/CapSense.c **** * Global Variables:
 560:Generated_Source\PSoC4/CapSense.c **** *  CapSense_sensorEnableMask[] - used to store bit masks of the enabled sensors.
 561:Generated_Source\PSoC4/CapSense.c **** *
ARM GAS  C:\Users\poornima\AppData\Local\Temp\ccI9K5HH.s 			page 21


 562:Generated_Source\PSoC4/CapSense.c **** * Side Effects:
 563:Generated_Source\PSoC4/CapSense.c **** *  This function affects the  current scanning and should not
 564:Generated_Source\PSoC4/CapSense.c **** *  be used outside the component.
 565:Generated_Source\PSoC4/CapSense.c **** *
 566:Generated_Source\PSoC4/CapSense.c **** *******************************************************************************/
 567:Generated_Source\PSoC4/CapSense.c **** uint8 CapSense_FindNextSensor(uint8 snsIndex)
 568:Generated_Source\PSoC4/CapSense.c **** {
 574              		.loc 1 568 0
 575              		.cfi_startproc
 576 0000 80B5     		push	{r7, lr}
 577              		.cfi_def_cfa_offset 8
 578              		.cfi_offset 7, -8
 579              		.cfi_offset 14, -4
 580 0002 84B0     		sub	sp, sp, #16
 581              		.cfi_def_cfa_offset 24
 582 0004 00AF     		add	r7, sp, #0
 583              		.cfi_def_cfa_register 7
 584 0006 021C     		mov	r2, r0
 585 0008 FB1D     		add	r3, r7, #7
 586 000a 1A70     		strb	r2, [r3]
 587              	.L20:
 569:Generated_Source\PSoC4/CapSense.c ****     uint32 enableFlag;
 570:Generated_Source\PSoC4/CapSense.c **** 
 571:Generated_Source\PSoC4/CapSense.c ****     /* Check if sensor enabled */
 572:Generated_Source\PSoC4/CapSense.c ****     do
 573:Generated_Source\PSoC4/CapSense.c ****     {
 574:Generated_Source\PSoC4/CapSense.c ****         /* Proceed with next sensor */
 575:Generated_Source\PSoC4/CapSense.c ****         snsIndex++;
 588              		.loc 1 575 0
 589 000c FB1D     		add	r3, r7, #7
 590 000e 1A78     		ldrb	r2, [r3]
 591 0010 FB1D     		add	r3, r7, #7
 592 0012 0132     		add	r2, r2, #1
 593 0014 1A70     		strb	r2, [r3]
 576:Generated_Source\PSoC4/CapSense.c ****         if(snsIndex == CapSense_TOTAL_SENSOR_COUNT)
 594              		.loc 1 576 0
 595 0016 FB1D     		add	r3, r7, #7
 596 0018 1B78     		ldrb	r3, [r3]
 597 001a 102B     		cmp	r3, #16
 598 001c 00D1     		bne	.L18
 577:Generated_Source\PSoC4/CapSense.c ****         {
 578:Generated_Source\PSoC4/CapSense.c ****             break;
 599              		.loc 1 578 0
 600 001e 0BE0     		b	.L19
 601              	.L18:
 579:Generated_Source\PSoC4/CapSense.c ****         }
 580:Generated_Source\PSoC4/CapSense.c ****         enableFlag = CapSense_GetBitValue(CapSense_sensorEnableMask, (uint32)snsIndex);
 602              		.loc 1 580 0
 603 0020 FB1D     		add	r3, r7, #7
 604 0022 1B78     		ldrb	r3, [r3]
 605 0024 074A     		ldr	r2, .L22
 606 0026 101C     		mov	r0, r2
 607 0028 191C     		mov	r1, r3
 608 002a FFF7FEFF 		bl	CapSense_GetBitValue
 609 002e 031C     		mov	r3, r0
 610 0030 FB60     		str	r3, [r7, #12]
 581:Generated_Source\PSoC4/CapSense.c ****     }
ARM GAS  C:\Users\poornima\AppData\Local\Temp\ccI9K5HH.s 			page 22


 582:Generated_Source\PSoC4/CapSense.c ****     while(enableFlag == 0u);
 611              		.loc 1 582 0
 612 0032 FB68     		ldr	r3, [r7, #12]
 613 0034 002B     		cmp	r3, #0
 614 0036 E9D0     		beq	.L20
 615              	.L19:
 583:Generated_Source\PSoC4/CapSense.c **** 
 584:Generated_Source\PSoC4/CapSense.c ****     return ((uint8)snsIndex);
 616              		.loc 1 584 0
 617 0038 FB1D     		add	r3, r7, #7
 618 003a 1B78     		ldrb	r3, [r3]
 585:Generated_Source\PSoC4/CapSense.c **** }
 619              		.loc 1 585 0
 620 003c 181C     		mov	r0, r3
 621 003e BD46     		mov	sp, r7
 622 0040 04B0     		add	sp, sp, #16
 623              		@ sp needed
 624 0042 80BD     		pop	{r7, pc}
 625              	.L23:
 626              		.align	2
 627              	.L22:
 628 0044 00000000 		.word	CapSense_sensorEnableMask
 629              		.cfi_endproc
 630              	.LFE40:
 631              		.size	CapSense_FindNextSensor, .-CapSense_FindNextSensor
 632              		.section	.text.CapSense_ScanSensor,"ax",%progbits
 633              		.align	2
 634              		.global	CapSense_ScanSensor
 635              		.code	16
 636              		.thumb_func
 637              		.type	CapSense_ScanSensor, %function
 638              	CapSense_ScanSensor:
 639              	.LFB41:
 586:Generated_Source\PSoC4/CapSense.c **** 
 587:Generated_Source\PSoC4/CapSense.c **** 
 588:Generated_Source\PSoC4/CapSense.c **** /*******************************************************************************
 589:Generated_Source\PSoC4/CapSense.c **** * Function Name: CapSense_ScanSensor
 590:Generated_Source\PSoC4/CapSense.c **** ********************************************************************************
 591:Generated_Source\PSoC4/CapSense.c **** *
 592:Generated_Source\PSoC4/CapSense.c **** * Summary:
 593:Generated_Source\PSoC4/CapSense.c **** *  Sets the scan settings and starts scanning a sensor. After scanning is complete,
 594:Generated_Source\PSoC4/CapSense.c **** *  the ISR copies the measured sensor raw data to the global raw sensor array.
 595:Generated_Source\PSoC4/CapSense.c **** *  Use of the ISR ensures this function is non-blocking.
 596:Generated_Source\PSoC4/CapSense.c **** *  Each sensor has a unique number within the sensor array.
 597:Generated_Source\PSoC4/CapSense.c **** *  This number is assigned by the CapSense customizer in sequence.
 598:Generated_Source\PSoC4/CapSense.c **** *
 599:Generated_Source\PSoC4/CapSense.c **** * Parameters:
 600:Generated_Source\PSoC4/CapSense.c **** *  sensor:  Sensor number.
 601:Generated_Source\PSoC4/CapSense.c **** *
 602:Generated_Source\PSoC4/CapSense.c **** * Return:
 603:Generated_Source\PSoC4/CapSense.c **** *  None
 604:Generated_Source\PSoC4/CapSense.c **** *
 605:Generated_Source\PSoC4/CapSense.c **** * Global Variables:
 606:Generated_Source\PSoC4/CapSense.c **** *  CapSense_csdStatusVar - used to provide the status and mode of the scanning process.
 607:Generated_Source\PSoC4/CapSense.c **** *  Sets the busy status(scan in progress) and mode of scan as single scan.
 608:Generated_Source\PSoC4/CapSense.c **** *  CapSense_sensorIndex - used to store a sensor scanning sensor number.
 609:Generated_Source\PSoC4/CapSense.c **** *  Sets to the provided sensor argument.
ARM GAS  C:\Users\poornima\AppData\Local\Temp\ccI9K5HH.s 			page 23


 610:Generated_Source\PSoC4/CapSense.c **** *
 611:Generated_Source\PSoC4/CapSense.c **** * Side Effects:
 612:Generated_Source\PSoC4/CapSense.c **** *  None
 613:Generated_Source\PSoC4/CapSense.c **** *
 614:Generated_Source\PSoC4/CapSense.c **** *******************************************************************************/
 615:Generated_Source\PSoC4/CapSense.c **** void CapSense_ScanSensor(uint32 sensor)
 616:Generated_Source\PSoC4/CapSense.c **** {
 640              		.loc 1 616 0
 641              		.cfi_startproc
 642 0000 80B5     		push	{r7, lr}
 643              		.cfi_def_cfa_offset 8
 644              		.cfi_offset 7, -8
 645              		.cfi_offset 14, -4
 646 0002 82B0     		sub	sp, sp, #8
 647              		.cfi_def_cfa_offset 16
 648 0004 00AF     		add	r7, sp, #0
 649              		.cfi_def_cfa_register 7
 650 0006 7860     		str	r0, [r7, #4]
 617:Generated_Source\PSoC4/CapSense.c ****     /* Clears status/control variable and set sensorIndex */
 618:Generated_Source\PSoC4/CapSense.c ****     CapSense_csdStatusVar = 0u;
 651              		.loc 1 618 0
 652 0008 084B     		ldr	r3, .L25
 653 000a 0022     		mov	r2, #0
 654 000c 1A70     		strb	r2, [r3]
 619:Generated_Source\PSoC4/CapSense.c ****     CapSense_sensorIndex = (uint8)sensor;
 655              		.loc 1 619 0
 656 000e 7B68     		ldr	r3, [r7, #4]
 657 0010 DAB2     		uxtb	r2, r3
 658 0012 074B     		ldr	r3, .L25+4
 659 0014 1A70     		strb	r2, [r3]
 620:Generated_Source\PSoC4/CapSense.c **** 
 621:Generated_Source\PSoC4/CapSense.c ****     /* Start of sensor scan */
 622:Generated_Source\PSoC4/CapSense.c ****     CapSense_csdStatusVar = (CapSense_SW_STS_BUSY | CapSense_SW_CTRL_SINGLE_SCAN);
 660              		.loc 1 622 0
 661 0016 054B     		ldr	r3, .L25
 662 0018 8122     		mov	r2, #129
 663 001a 1A70     		strb	r2, [r3]
 623:Generated_Source\PSoC4/CapSense.c ****     CapSense_PreScan(sensor);
 664              		.loc 1 623 0
 665 001c 7B68     		ldr	r3, [r7, #4]
 666 001e 181C     		mov	r0, r3
 667 0020 FFF7FEFF 		bl	CapSense_PreScan
 624:Generated_Source\PSoC4/CapSense.c **** }
 668              		.loc 1 624 0
 669 0024 BD46     		mov	sp, r7
 670 0026 02B0     		add	sp, sp, #8
 671              		@ sp needed
 672 0028 80BD     		pop	{r7, pc}
 673              	.L26:
 674 002a C046     		.align	2
 675              	.L25:
 676 002c 00000000 		.word	CapSense_csdStatusVar
 677 0030 00000000 		.word	CapSense_sensorIndex
 678              		.cfi_endproc
 679              	.LFE41:
 680              		.size	CapSense_ScanSensor, .-CapSense_ScanSensor
 681              		.section	.text.CapSense_ScanWidget,"ax",%progbits
ARM GAS  C:\Users\poornima\AppData\Local\Temp\ccI9K5HH.s 			page 24


 682              		.align	2
 683              		.global	CapSense_ScanWidget
 684              		.code	16
 685              		.thumb_func
 686              		.type	CapSense_ScanWidget, %function
 687              	CapSense_ScanWidget:
 688              	.LFB42:
 625:Generated_Source\PSoC4/CapSense.c **** 
 626:Generated_Source\PSoC4/CapSense.c **** 
 627:Generated_Source\PSoC4/CapSense.c **** #if(0u != CapSense_CSHL_API_GENERATE)
 628:Generated_Source\PSoC4/CapSense.c **** /*******************************************************************************
 629:Generated_Source\PSoC4/CapSense.c **** * Function Name: CapSense_ScanWidget
 630:Generated_Source\PSoC4/CapSense.c **** ********************************************************************************
 631:Generated_Source\PSoC4/CapSense.c **** *
 632:Generated_Source\PSoC4/CapSense.c **** * Summary:
 633:Generated_Source\PSoC4/CapSense.c **** *  Sets the scan settings and starts scanning a widget.
 634:Generated_Source\PSoC4/CapSense.c **** *
 635:Generated_Source\PSoC4/CapSense.c **** * Parameters:
 636:Generated_Source\PSoC4/CapSense.c **** *  uint32 widget: Widget number.
 637:Generated_Source\PSoC4/CapSense.c **** *
 638:Generated_Source\PSoC4/CapSense.c **** * Return:
 639:Generated_Source\PSoC4/CapSense.c **** *  None
 640:Generated_Source\PSoC4/CapSense.c **** *
 641:Generated_Source\PSoC4/CapSense.c **** * Global Variables:
 642:Generated_Source\PSoC4/CapSense.c **** *  CapSense_csdStatusVar - used to provide the status and mode of the scanning process.
 643:Generated_Source\PSoC4/CapSense.c **** *  Sets the busy status(scan in progress) and clears the single scan mode.
 644:Generated_Source\PSoC4/CapSense.c **** *  CapSense_sensorIndex - used to store a sensor scanning sensor number.
 645:Generated_Source\PSoC4/CapSense.c **** *  Sets to 0xFF and provided to function CapSense_FindNextSensor or
 646:Generated_Source\PSoC4/CapSense.c **** *  CapSense_sensorEnableMask[] - used to store bit masks of the enabled sensors.
 647:Generated_Source\PSoC4/CapSense.c **** *  CapSense_sensorEnableMaskBackup[] - used to backup bit masks of the enabled
 648:Generated_Source\PSoC4/CapSense.c **** *   sensors.
 649:Generated_Source\PSoC4/CapSense.c **** *
 650:Generated_Source\PSoC4/CapSense.c **** * Side Effects:
 651:Generated_Source\PSoC4/CapSense.c **** *  None
 652:Generated_Source\PSoC4/CapSense.c **** *
 653:Generated_Source\PSoC4/CapSense.c **** *******************************************************************************/
 654:Generated_Source\PSoC4/CapSense.c **** void CapSense_ScanWidget(uint32 widget)
 655:Generated_Source\PSoC4/CapSense.c **** {
 689              		.loc 1 655 0
 690              		.cfi_startproc
 691 0000 80B5     		push	{r7, lr}
 692              		.cfi_def_cfa_offset 8
 693              		.cfi_offset 7, -8
 694              		.cfi_offset 14, -4
 695 0002 86B0     		sub	sp, sp, #24
 696              		.cfi_def_cfa_offset 32
 697 0004 00AF     		add	r7, sp, #0
 698              		.cfi_def_cfa_register 7
 699 0006 7860     		str	r0, [r7, #4]
 656:Generated_Source\PSoC4/CapSense.c ****     uint32 sensorsPerWidget;
 657:Generated_Source\PSoC4/CapSense.c ****     uint32 lastSensor;
 658:Generated_Source\PSoC4/CapSense.c ****     uint32 snsIndex;
 659:Generated_Source\PSoC4/CapSense.c **** 
 660:Generated_Source\PSoC4/CapSense.c ****     /* Get first sensor in widget */
 661:Generated_Source\PSoC4/CapSense.c ****     CapSense_sensorIndex = CapSense_rawDataIndex[widget];
 700              		.loc 1 661 0
 701 0008 2F4A     		ldr	r2, .L36
ARM GAS  C:\Users\poornima\AppData\Local\Temp\ccI9K5HH.s 			page 25


 702 000a 7B68     		ldr	r3, [r7, #4]
 703 000c D318     		add	r3, r2, r3
 704 000e 1A78     		ldrb	r2, [r3]
 705 0010 2E4B     		ldr	r3, .L36+4
 706 0012 1A70     		strb	r2, [r3]
 662:Generated_Source\PSoC4/CapSense.c **** 
 663:Generated_Source\PSoC4/CapSense.c ****     /* Get number of sensors in widget */
 664:Generated_Source\PSoC4/CapSense.c ****     sensorsPerWidget = CapSense_numberOfSensors[widget];
 707              		.loc 1 664 0
 708 0014 2E4A     		ldr	r2, .L36+8
 709 0016 7B68     		ldr	r3, [r7, #4]
 710 0018 D318     		add	r3, r2, r3
 711 001a 1B78     		ldrb	r3, [r3]
 712 001c 7B61     		str	r3, [r7, #20]
 665:Generated_Source\PSoC4/CapSense.c **** 
 666:Generated_Source\PSoC4/CapSense.c ****     /* Check if generic Sensor */
 667:Generated_Source\PSoC4/CapSense.c ****     if(sensorsPerWidget == 0u)
 713              		.loc 1 667 0
 714 001e 7B69     		ldr	r3, [r7, #20]
 715 0020 002B     		cmp	r3, #0
 716 0022 01D1     		bne	.L28
 668:Generated_Source\PSoC4/CapSense.c ****     {
 669:Generated_Source\PSoC4/CapSense.c ****         sensorsPerWidget = 1u;
 717              		.loc 1 669 0
 718 0024 0123     		mov	r3, #1
 719 0026 7B61     		str	r3, [r7, #20]
 720              	.L28:
 670:Generated_Source\PSoC4/CapSense.c ****     }
 671:Generated_Source\PSoC4/CapSense.c **** 
 672:Generated_Source\PSoC4/CapSense.c ****     /* Get last sensor in widget */
 673:Generated_Source\PSoC4/CapSense.c ****     lastSensor = (CapSense_rawDataIndex[widget] + sensorsPerWidget) - 1u;
 721              		.loc 1 673 0
 722 0028 274A     		ldr	r2, .L36
 723 002a 7B68     		ldr	r3, [r7, #4]
 724 002c D318     		add	r3, r2, r3
 725 002e 1B78     		ldrb	r3, [r3]
 726 0030 1A1C     		mov	r2, r3
 727 0032 7B69     		ldr	r3, [r7, #20]
 728 0034 D318     		add	r3, r2, r3
 729 0036 013B     		sub	r3, r3, #1
 730 0038 FB60     		str	r3, [r7, #12]
 674:Generated_Source\PSoC4/CapSense.c **** 
 675:Generated_Source\PSoC4/CapSense.c ****     /* Backup sensorEnableMask array */
 676:Generated_Source\PSoC4/CapSense.c ****     for(snsIndex = 0u; snsIndex < CapSense_TOTAL_SENSOR_MASK; snsIndex++)
 731              		.loc 1 676 0
 732 003a 0023     		mov	r3, #0
 733 003c 3B61     		str	r3, [r7, #16]
 734 003e 0BE0     		b	.L29
 735              	.L30:
 677:Generated_Source\PSoC4/CapSense.c ****     {
 678:Generated_Source\PSoC4/CapSense.c ****         /* Backup sensorEnableMask array */
 679:Generated_Source\PSoC4/CapSense.c ****         CapSense_sensorEnableMaskBackup[snsIndex] = CapSense_sensorEnableMask[snsIndex];
 736              		.loc 1 679 0 discriminator 3
 737 0040 244A     		ldr	r2, .L36+12
 738 0042 3B69     		ldr	r3, [r7, #16]
 739 0044 D318     		add	r3, r2, r3
 740 0046 1978     		ldrb	r1, [r3]
ARM GAS  C:\Users\poornima\AppData\Local\Temp\ccI9K5HH.s 			page 26


 741 0048 234A     		ldr	r2, .L36+16
 742 004a 3B69     		ldr	r3, [r7, #16]
 743 004c D318     		add	r3, r2, r3
 744 004e 0A1C     		add	r2, r1, #0
 745 0050 1A70     		strb	r2, [r3]
 676:Generated_Source\PSoC4/CapSense.c ****     {
 746              		.loc 1 676 0 discriminator 3
 747 0052 3B69     		ldr	r3, [r7, #16]
 748 0054 0133     		add	r3, r3, #1
 749 0056 3B61     		str	r3, [r7, #16]
 750              	.L29:
 676:Generated_Source\PSoC4/CapSense.c ****     {
 751              		.loc 1 676 0 is_stmt 0 discriminator 1
 752 0058 3B69     		ldr	r3, [r7, #16]
 753 005a 012B     		cmp	r3, #1
 754 005c F0D9     		bls	.L30
 680:Generated_Source\PSoC4/CapSense.c ****     }
 681:Generated_Source\PSoC4/CapSense.c **** 
 682:Generated_Source\PSoC4/CapSense.c ****     /* Update sensorEnableMask to scan the sensors that belong to widget */
 683:Generated_Source\PSoC4/CapSense.c ****     for(snsIndex = 0u; snsIndex < CapSense_TOTAL_SENSOR_COUNT; snsIndex++)
 755              		.loc 1 683 0 is_stmt 1
 756 005e 0023     		mov	r3, #0
 757 0060 3B61     		str	r3, [r7, #16]
 758 0062 1CE0     		b	.L31
 759              	.L34:
 684:Generated_Source\PSoC4/CapSense.c ****     {
 685:Generated_Source\PSoC4/CapSense.c ****         /* Update sensorEnableMask array bits to scan the widget only */
 686:Generated_Source\PSoC4/CapSense.c ****         if((snsIndex >= CapSense_sensorIndex) && (snsIndex <= lastSensor))
 760              		.loc 1 686 0
 761 0064 194B     		ldr	r3, .L36+4
 762 0066 1B78     		ldrb	r3, [r3]
 763 0068 DBB2     		uxtb	r3, r3
 764 006a 1A1E     		sub	r2, r3, #0
 765 006c 3B69     		ldr	r3, [r7, #16]
 766 006e 9A42     		cmp	r2, r3
 767 0070 0BD8     		bhi	.L32
 768              		.loc 1 686 0 is_stmt 0 discriminator 1
 769 0072 3A69     		ldr	r2, [r7, #16]
 770 0074 FB68     		ldr	r3, [r7, #12]
 771 0076 9A42     		cmp	r2, r3
 772 0078 07D8     		bhi	.L32
 687:Generated_Source\PSoC4/CapSense.c ****         {
 688:Generated_Source\PSoC4/CapSense.c ****             /* Set sensor bit to scan */
 689:Generated_Source\PSoC4/CapSense.c ****             CapSense_SetBitValue(CapSense_sensorEnableMask, snsIndex, 1u);
 773              		.loc 1 689 0 is_stmt 1
 774 007a 164A     		ldr	r2, .L36+12
 775 007c 3B69     		ldr	r3, [r7, #16]
 776 007e 101C     		mov	r0, r2
 777 0080 191C     		mov	r1, r3
 778 0082 0122     		mov	r2, #1
 779 0084 FFF7FEFF 		bl	CapSense_SetBitValue
 780 0088 06E0     		b	.L33
 781              	.L32:
 690:Generated_Source\PSoC4/CapSense.c ****         }
 691:Generated_Source\PSoC4/CapSense.c ****         else
 692:Generated_Source\PSoC4/CapSense.c ****         {
 693:Generated_Source\PSoC4/CapSense.c ****             /* Reset sensor bit to do not scan */
ARM GAS  C:\Users\poornima\AppData\Local\Temp\ccI9K5HH.s 			page 27


 694:Generated_Source\PSoC4/CapSense.c ****             CapSense_SetBitValue(CapSense_sensorEnableMask, snsIndex, 0u);
 782              		.loc 1 694 0
 783 008a 124A     		ldr	r2, .L36+12
 784 008c 3B69     		ldr	r3, [r7, #16]
 785 008e 101C     		mov	r0, r2
 786 0090 191C     		mov	r1, r3
 787 0092 0022     		mov	r2, #0
 788 0094 FFF7FEFF 		bl	CapSense_SetBitValue
 789              	.L33:
 683:Generated_Source\PSoC4/CapSense.c ****     {
 790              		.loc 1 683 0 discriminator 2
 791 0098 3B69     		ldr	r3, [r7, #16]
 792 009a 0133     		add	r3, r3, #1
 793 009c 3B61     		str	r3, [r7, #16]
 794              	.L31:
 683:Generated_Source\PSoC4/CapSense.c ****     {
 795              		.loc 1 683 0 is_stmt 0 discriminator 1
 796 009e 3B69     		ldr	r3, [r7, #16]
 797 00a0 0F2B     		cmp	r3, #15
 798 00a2 DFD9     		bls	.L34
 695:Generated_Source\PSoC4/CapSense.c ****         }
 696:Generated_Source\PSoC4/CapSense.c ****     }
 697:Generated_Source\PSoC4/CapSense.c **** 
 698:Generated_Source\PSoC4/CapSense.c ****     /* Check end of scan condition */
 699:Generated_Source\PSoC4/CapSense.c ****     if(CapSense_sensorIndex < CapSense_TOTAL_SENSOR_COUNT)
 799              		.loc 1 699 0 is_stmt 1
 800 00a4 094B     		ldr	r3, .L36+4
 801 00a6 1B78     		ldrb	r3, [r3]
 802 00a8 DBB2     		uxtb	r3, r3
 803 00aa 0F2B     		cmp	r3, #15
 804 00ac 08D8     		bhi	.L27
 700:Generated_Source\PSoC4/CapSense.c ****     {
 701:Generated_Source\PSoC4/CapSense.c ****         /* Set widget busy bit in status/control variable*/
 702:Generated_Source\PSoC4/CapSense.c ****         CapSense_csdStatusVar = (CapSense_SW_STS_BUSY | CapSense_SW_CTRL_WIDGET_SCAN);
 805              		.loc 1 702 0
 806 00ae 0B4B     		ldr	r3, .L36+20
 807 00b0 4122     		mov	r2, #65
 808 00b2 1A70     		strb	r2, [r3]
 703:Generated_Source\PSoC4/CapSense.c ****         /* Scan first sensor of widget*/
 704:Generated_Source\PSoC4/CapSense.c ****         CapSense_PreScan((uint32)CapSense_sensorIndex);
 809              		.loc 1 704 0
 810 00b4 054B     		ldr	r3, .L36+4
 811 00b6 1B78     		ldrb	r3, [r3]
 812 00b8 DBB2     		uxtb	r3, r3
 813 00ba 181C     		mov	r0, r3
 814 00bc FFF7FEFF 		bl	CapSense_PreScan
 815              	.L27:
 705:Generated_Source\PSoC4/CapSense.c ****     }
 706:Generated_Source\PSoC4/CapSense.c **** }
 816              		.loc 1 706 0
 817 00c0 BD46     		mov	sp, r7
 818 00c2 06B0     		add	sp, sp, #24
 819              		@ sp needed
 820 00c4 80BD     		pop	{r7, pc}
 821              	.L37:
 822 00c6 C046     		.align	2
 823              	.L36:
ARM GAS  C:\Users\poornima\AppData\Local\Temp\ccI9K5HH.s 			page 28


 824 00c8 00000000 		.word	CapSense_rawDataIndex
 825 00cc 00000000 		.word	CapSense_sensorIndex
 826 00d0 00000000 		.word	CapSense_numberOfSensors
 827 00d4 00000000 		.word	CapSense_sensorEnableMask
 828 00d8 00000000 		.word	CapSense_sensorEnableMaskBackup
 829 00dc 00000000 		.word	CapSense_csdStatusVar
 830              		.cfi_endproc
 831              	.LFE42:
 832              		.size	CapSense_ScanWidget, .-CapSense_ScanWidget
 833              		.section	.text.CapSense_ScanEnabledWidgets,"ax",%progbits
 834              		.align	2
 835              		.global	CapSense_ScanEnabledWidgets
 836              		.code	16
 837              		.thumb_func
 838              		.type	CapSense_ScanEnabledWidgets, %function
 839              	CapSense_ScanEnabledWidgets:
 840              	.LFB43:
 707:Generated_Source\PSoC4/CapSense.c **** #endif /* (0u != CapSense_CSHL_API_GENERATE) */
 708:Generated_Source\PSoC4/CapSense.c **** 
 709:Generated_Source\PSoC4/CapSense.c **** 
 710:Generated_Source\PSoC4/CapSense.c **** /*******************************************************************************
 711:Generated_Source\PSoC4/CapSense.c **** * Function Name: CapSense_ScanEnableWidgets
 712:Generated_Source\PSoC4/CapSense.c **** ********************************************************************************
 713:Generated_Source\PSoC4/CapSense.c **** *
 714:Generated_Source\PSoC4/CapSense.c **** * Summary:
 715:Generated_Source\PSoC4/CapSense.c **** *  This is the preferred method to scan all of the enabled widgets.
 716:Generated_Source\PSoC4/CapSense.c **** *  The API starts scanning a sensor within the enabled widgets.
 717:Generated_Source\PSoC4/CapSense.c **** *  The ISR continues scanning the sensors until all the enabled widgets are scanned.
 718:Generated_Source\PSoC4/CapSense.c **** *  Use of the ISR ensures this function is non-blocking.
 719:Generated_Source\PSoC4/CapSense.c **** *  All the widgets are enabled by default except proximity widgets.
 720:Generated_Source\PSoC4/CapSense.c **** *  The proximity widgets must be manually enabled as their long scan time
 721:Generated_Source\PSoC4/CapSense.c **** *  is incompatible with a fast response required of other widget types.
 722:Generated_Source\PSoC4/CapSense.c **** *
 723:Generated_Source\PSoC4/CapSense.c **** * Parameters:
 724:Generated_Source\PSoC4/CapSense.c **** *  None
 725:Generated_Source\PSoC4/CapSense.c **** *
 726:Generated_Source\PSoC4/CapSense.c **** * Return:
 727:Generated_Source\PSoC4/CapSense.c **** *  None
 728:Generated_Source\PSoC4/CapSense.c **** *
 729:Generated_Source\PSoC4/CapSense.c **** * Global Variables:
 730:Generated_Source\PSoC4/CapSense.c **** *  CapSense_csdStatusVar - used to provide the status and mode of the scanning process.
 731:Generated_Source\PSoC4/CapSense.c **** *  Sets the busy status(scan in progress) and clears the single scan mode.
 732:Generated_Source\PSoC4/CapSense.c **** *  CapSense_sensorIndex - used to store a sensor scanning sensor number.
 733:Generated_Source\PSoC4/CapSense.c **** *  Sets to 0xFF and provided to function CapSense_FindNextSensor or
 734:Generated_Source\PSoC4/CapSense.c **** *
 735:Generated_Source\PSoC4/CapSense.c **** * Side Effects:
 736:Generated_Source\PSoC4/CapSense.c **** *  None
 737:Generated_Source\PSoC4/CapSense.c **** *
 738:Generated_Source\PSoC4/CapSense.c **** *******************************************************************************/
 739:Generated_Source\PSoC4/CapSense.c **** void CapSense_ScanEnabledWidgets(void)
 740:Generated_Source\PSoC4/CapSense.c **** {
 841              		.loc 1 740 0
 842              		.cfi_startproc
 843 0000 80B5     		push	{r7, lr}
 844              		.cfi_def_cfa_offset 8
 845              		.cfi_offset 7, -8
 846              		.cfi_offset 14, -4
ARM GAS  C:\Users\poornima\AppData\Local\Temp\ccI9K5HH.s 			page 29


 847 0002 00AF     		add	r7, sp, #0
 848              		.cfi_def_cfa_register 7
 741:Generated_Source\PSoC4/CapSense.c ****     /* Clears status/control variable and set sensorIndex */
 742:Generated_Source\PSoC4/CapSense.c ****     CapSense_csdStatusVar = 0u;
 849              		.loc 1 742 0
 850 0004 124B     		ldr	r3, .L40
 851 0006 0022     		mov	r2, #0
 852 0008 1A70     		strb	r2, [r3]
 743:Generated_Source\PSoC4/CapSense.c ****     CapSense_sensorIndex = 0xFFu;
 853              		.loc 1 743 0
 854 000a 124B     		ldr	r3, .L40+4
 855 000c FF22     		mov	r2, #255
 856 000e 1A70     		strb	r2, [r3]
 744:Generated_Source\PSoC4/CapSense.c **** 
 745:Generated_Source\PSoC4/CapSense.c ****     /* Find next sensor */
 746:Generated_Source\PSoC4/CapSense.c ****     CapSense_sensorIndex = (uint8)CapSense_FindNextSensor(CapSense_sensorIndex);
 857              		.loc 1 746 0
 858 0010 104B     		ldr	r3, .L40+4
 859 0012 1B78     		ldrb	r3, [r3]
 860 0014 DBB2     		uxtb	r3, r3
 861 0016 181C     		mov	r0, r3
 862 0018 FFF7FEFF 		bl	CapSense_FindNextSensor
 863 001c 031C     		mov	r3, r0
 864 001e 1A1C     		mov	r2, r3
 865 0020 0C4B     		ldr	r3, .L40+4
 866 0022 1A70     		strb	r2, [r3]
 747:Generated_Source\PSoC4/CapSense.c **** 
 748:Generated_Source\PSoC4/CapSense.c ****     /* Check end of scan condition */
 749:Generated_Source\PSoC4/CapSense.c ****     if(CapSense_sensorIndex < CapSense_TOTAL_SENSOR_COUNT)
 867              		.loc 1 749 0
 868 0024 0B4B     		ldr	r3, .L40+4
 869 0026 1B78     		ldrb	r3, [r3]
 870 0028 DBB2     		uxtb	r3, r3
 871 002a 0F2B     		cmp	r3, #15
 872 002c 0DD8     		bhi	.L38
 750:Generated_Source\PSoC4/CapSense.c ****     {
 751:Generated_Source\PSoC4/CapSense.c ****         CapSense_csdStatusVar |= CapSense_SW_STS_BUSY;
 873              		.loc 1 751 0
 874 002e 084B     		ldr	r3, .L40
 875 0030 1B78     		ldrb	r3, [r3]
 876 0032 DBB2     		uxtb	r3, r3
 877 0034 0122     		mov	r2, #1
 878 0036 1343     		orr	r3, r2
 879 0038 DAB2     		uxtb	r2, r3
 880 003a 054B     		ldr	r3, .L40
 881 003c 1A70     		strb	r2, [r3]
 752:Generated_Source\PSoC4/CapSense.c ****         CapSense_PreScan((uint32)CapSense_sensorIndex);
 882              		.loc 1 752 0
 883 003e 054B     		ldr	r3, .L40+4
 884 0040 1B78     		ldrb	r3, [r3]
 885 0042 DBB2     		uxtb	r3, r3
 886 0044 181C     		mov	r0, r3
 887 0046 FFF7FEFF 		bl	CapSense_PreScan
 888              	.L38:
 753:Generated_Source\PSoC4/CapSense.c ****     }
 754:Generated_Source\PSoC4/CapSense.c **** }
 889              		.loc 1 754 0
ARM GAS  C:\Users\poornima\AppData\Local\Temp\ccI9K5HH.s 			page 30


 890 004a BD46     		mov	sp, r7
 891              		@ sp needed
 892 004c 80BD     		pop	{r7, pc}
 893              	.L41:
 894 004e C046     		.align	2
 895              	.L40:
 896 0050 00000000 		.word	CapSense_csdStatusVar
 897 0054 00000000 		.word	CapSense_sensorIndex
 898              		.cfi_endproc
 899              	.LFE43:
 900              		.size	CapSense_ScanEnabledWidgets, .-CapSense_ScanEnabledWidgets
 901              		.section	.text.CapSense_IsBusy,"ax",%progbits
 902              		.align	2
 903              		.global	CapSense_IsBusy
 904              		.code	16
 905              		.thumb_func
 906              		.type	CapSense_IsBusy, %function
 907              	CapSense_IsBusy:
 908              	.LFB44:
 755:Generated_Source\PSoC4/CapSense.c **** 
 756:Generated_Source\PSoC4/CapSense.c **** 
 757:Generated_Source\PSoC4/CapSense.c **** /*******************************************************************************
 758:Generated_Source\PSoC4/CapSense.c **** * Function Name: CapSense_IsBusy
 759:Generated_Source\PSoC4/CapSense.c **** ********************************************************************************
 760:Generated_Source\PSoC4/CapSense.c **** *
 761:Generated_Source\PSoC4/CapSense.c **** * Summary:
 762:Generated_Source\PSoC4/CapSense.c **** *  Returns the state of the CapSense component. 1 means that scanning in
 763:Generated_Source\PSoC4/CapSense.c **** *  progress and 0 means that scanning is complete.
 764:Generated_Source\PSoC4/CapSense.c **** *
 765:Generated_Source\PSoC4/CapSense.c **** * Parameters:
 766:Generated_Source\PSoC4/CapSense.c **** *  None
 767:Generated_Source\PSoC4/CapSense.c **** *
 768:Generated_Source\PSoC4/CapSense.c **** * Return:
 769:Generated_Source\PSoC4/CapSense.c **** *  Returns the state of scanning. 1 - scanning in progress, 0 - scanning
 770:Generated_Source\PSoC4/CapSense.c **** *  completed.
 771:Generated_Source\PSoC4/CapSense.c **** *
 772:Generated_Source\PSoC4/CapSense.c **** * Global Variables:
 773:Generated_Source\PSoC4/CapSense.c **** *  CapSense_csdStatusVar - used to provide the status and mode of the scanning process.
 774:Generated_Source\PSoC4/CapSense.c **** *  Checks the busy status.
 775:Generated_Source\PSoC4/CapSense.c **** *
 776:Generated_Source\PSoC4/CapSense.c **** * Side Effects:
 777:Generated_Source\PSoC4/CapSense.c **** *  None
 778:Generated_Source\PSoC4/CapSense.c **** *
 779:Generated_Source\PSoC4/CapSense.c **** *******************************************************************************/
 780:Generated_Source\PSoC4/CapSense.c **** uint32 CapSense_IsBusy(void)
 781:Generated_Source\PSoC4/CapSense.c **** {
 909              		.loc 1 781 0
 910              		.cfi_startproc
 911 0000 80B5     		push	{r7, lr}
 912              		.cfi_def_cfa_offset 8
 913              		.cfi_offset 7, -8
 914              		.cfi_offset 14, -4
 915 0002 00AF     		add	r7, sp, #0
 916              		.cfi_def_cfa_register 7
 782:Generated_Source\PSoC4/CapSense.c ****     return ((uint32)((0u != (CapSense_csdStatusVar & CapSense_SW_STS_BUSY)) ? 1u : 0u));
 917              		.loc 1 782 0
 918 0004 044B     		ldr	r3, .L44
ARM GAS  C:\Users\poornima\AppData\Local\Temp\ccI9K5HH.s 			page 31


 919 0006 1B78     		ldrb	r3, [r3]
 920 0008 DBB2     		uxtb	r3, r3
 921 000a 1A1C     		mov	r2, r3
 922 000c 0123     		mov	r3, #1
 923 000e 1340     		and	r3, r2
 783:Generated_Source\PSoC4/CapSense.c **** }
 924              		.loc 1 783 0
 925 0010 181C     		mov	r0, r3
 926 0012 BD46     		mov	sp, r7
 927              		@ sp needed
 928 0014 80BD     		pop	{r7, pc}
 929              	.L45:
 930 0016 C046     		.align	2
 931              	.L44:
 932 0018 00000000 		.word	CapSense_csdStatusVar
 933              		.cfi_endproc
 934              	.LFE44:
 935              		.size	CapSense_IsBusy, .-CapSense_IsBusy
 936              		.section	.text.CapSense_ReadSensorRaw,"ax",%progbits
 937              		.align	2
 938              		.global	CapSense_ReadSensorRaw
 939              		.code	16
 940              		.thumb_func
 941              		.type	CapSense_ReadSensorRaw, %function
 942              	CapSense_ReadSensorRaw:
 943              	.LFB45:
 784:Generated_Source\PSoC4/CapSense.c **** 
 785:Generated_Source\PSoC4/CapSense.c **** 
 786:Generated_Source\PSoC4/CapSense.c **** /*******************************************************************************
 787:Generated_Source\PSoC4/CapSense.c **** * Function Name: CapSense_ReadSensorRaw
 788:Generated_Source\PSoC4/CapSense.c **** ********************************************************************************
 789:Generated_Source\PSoC4/CapSense.c **** *
 790:Generated_Source\PSoC4/CapSense.c **** * Summary:
 791:Generated_Source\PSoC4/CapSense.c **** *  Returns sensor raw data from the global CapSense_sensorRaw[ ] array.
 792:Generated_Source\PSoC4/CapSense.c **** *  Each scan sensor has a unique number within the sensor array.
 793:Generated_Source\PSoC4/CapSense.c **** *  This number is assigned by the CapSense customizer in sequence.
 794:Generated_Source\PSoC4/CapSense.c **** *  Raw data can be used to perform calculations outside of the CapSense
 795:Generated_Source\PSoC4/CapSense.c **** *  provided framework.
 796:Generated_Source\PSoC4/CapSense.c **** *
 797:Generated_Source\PSoC4/CapSense.c **** * Parameters:
 798:Generated_Source\PSoC4/CapSense.c **** *  sensor:  Sensor number.
 799:Generated_Source\PSoC4/CapSense.c **** *
 800:Generated_Source\PSoC4/CapSense.c **** * Return:
 801:Generated_Source\PSoC4/CapSense.c **** *  Returns the current raw data value for a defined sensor number.
 802:Generated_Source\PSoC4/CapSense.c **** *
 803:Generated_Source\PSoC4/CapSense.c **** * Global Variables:
 804:Generated_Source\PSoC4/CapSense.c **** *  CapSense_sensorRaw[] - used to store sensors raw data.
 805:Generated_Source\PSoC4/CapSense.c **** *
 806:Generated_Source\PSoC4/CapSense.c **** * Side Effects:
 807:Generated_Source\PSoC4/CapSense.c **** *  None
 808:Generated_Source\PSoC4/CapSense.c **** *
 809:Generated_Source\PSoC4/CapSense.c **** *******************************************************************************/
 810:Generated_Source\PSoC4/CapSense.c **** uint16 CapSense_ReadSensorRaw(uint32 sensor)
 811:Generated_Source\PSoC4/CapSense.c **** {
 944              		.loc 1 811 0
 945              		.cfi_startproc
 946 0000 80B5     		push	{r7, lr}
ARM GAS  C:\Users\poornima\AppData\Local\Temp\ccI9K5HH.s 			page 32


 947              		.cfi_def_cfa_offset 8
 948              		.cfi_offset 7, -8
 949              		.cfi_offset 14, -4
 950 0002 82B0     		sub	sp, sp, #8
 951              		.cfi_def_cfa_offset 16
 952 0004 00AF     		add	r7, sp, #0
 953              		.cfi_def_cfa_register 7
 954 0006 7860     		str	r0, [r7, #4]
 812:Generated_Source\PSoC4/CapSense.c ****     return CapSense_sensorRaw[sensor];
 955              		.loc 1 812 0
 956 0008 034B     		ldr	r3, .L48
 957 000a 7A68     		ldr	r2, [r7, #4]
 958 000c 5200     		lsl	r2, r2, #1
 959 000e D35A     		ldrh	r3, [r2, r3]
 813:Generated_Source\PSoC4/CapSense.c **** }
 960              		.loc 1 813 0
 961 0010 181C     		mov	r0, r3
 962 0012 BD46     		mov	sp, r7
 963 0014 02B0     		add	sp, sp, #8
 964              		@ sp needed
 965 0016 80BD     		pop	{r7, pc}
 966              	.L49:
 967              		.align	2
 968              	.L48:
 969 0018 00000000 		.word	CapSense_sensorRaw
 970              		.cfi_endproc
 971              	.LFE45:
 972              		.size	CapSense_ReadSensorRaw, .-CapSense_ReadSensorRaw
 973              		.section	.text.CapSense_WriteSensorRaw,"ax",%progbits
 974              		.align	2
 975              		.global	CapSense_WriteSensorRaw
 976              		.code	16
 977              		.thumb_func
 978              		.type	CapSense_WriteSensorRaw, %function
 979              	CapSense_WriteSensorRaw:
 980              	.LFB46:
 814:Generated_Source\PSoC4/CapSense.c **** 
 815:Generated_Source\PSoC4/CapSense.c **** 
 816:Generated_Source\PSoC4/CapSense.c **** /*******************************************************************************
 817:Generated_Source\PSoC4/CapSense.c **** * Function Name: CapSense_WriteSensorRaw
 818:Generated_Source\PSoC4/CapSense.c **** ********************************************************************************
 819:Generated_Source\PSoC4/CapSense.c **** *
 820:Generated_Source\PSoC4/CapSense.c **** * Summary:
 821:Generated_Source\PSoC4/CapSense.c **** *  This API writes the raw count value passed as an argument to the sensor Raw count array.
 822:Generated_Source\PSoC4/CapSense.c **** *
 823:Generated_Source\PSoC4/CapSense.c **** * Parameters:
 824:Generated_Source\PSoC4/CapSense.c **** *  sensor:  Sensor number.
 825:Generated_Source\PSoC4/CapSense.c **** *  value: Raw count value.
 826:Generated_Source\PSoC4/CapSense.c **** *
 827:Generated_Source\PSoC4/CapSense.c **** * Global Variables:
 828:Generated_Source\PSoC4/CapSense.c **** *  CapSense_sensorRaw[] - used to store sensors raw data.
 829:Generated_Source\PSoC4/CapSense.c **** *
 830:Generated_Source\PSoC4/CapSense.c **** * Return:
 831:Generated_Source\PSoC4/CapSense.c **** *  None
 832:Generated_Source\PSoC4/CapSense.c **** *
 833:Generated_Source\PSoC4/CapSense.c **** * Side Effects:
 834:Generated_Source\PSoC4/CapSense.c **** *  None
ARM GAS  C:\Users\poornima\AppData\Local\Temp\ccI9K5HH.s 			page 33


 835:Generated_Source\PSoC4/CapSense.c **** *
 836:Generated_Source\PSoC4/CapSense.c **** *******************************************************************************/
 837:Generated_Source\PSoC4/CapSense.c **** void CapSense_WriteSensorRaw(uint32 sensor, uint16 value)
 838:Generated_Source\PSoC4/CapSense.c **** {
 981              		.loc 1 838 0
 982              		.cfi_startproc
 983 0000 80B5     		push	{r7, lr}
 984              		.cfi_def_cfa_offset 8
 985              		.cfi_offset 7, -8
 986              		.cfi_offset 14, -4
 987 0002 82B0     		sub	sp, sp, #8
 988              		.cfi_def_cfa_offset 16
 989 0004 00AF     		add	r7, sp, #0
 990              		.cfi_def_cfa_register 7
 991 0006 7860     		str	r0, [r7, #4]
 992 0008 0A1C     		mov	r2, r1
 993 000a BB1C     		add	r3, r7, #2
 994 000c 1A80     		strh	r2, [r3]
 839:Generated_Source\PSoC4/CapSense.c ****     CapSense_sensorRaw[sensor] = value;
 995              		.loc 1 839 0
 996 000e 044B     		ldr	r3, .L51
 997 0010 7A68     		ldr	r2, [r7, #4]
 998 0012 5200     		lsl	r2, r2, #1
 999 0014 B91C     		add	r1, r7, #2
 1000 0016 0988     		ldrh	r1, [r1]
 1001 0018 D152     		strh	r1, [r2, r3]
 840:Generated_Source\PSoC4/CapSense.c **** }
 1002              		.loc 1 840 0
 1003 001a BD46     		mov	sp, r7
 1004 001c 02B0     		add	sp, sp, #8
 1005              		@ sp needed
 1006 001e 80BD     		pop	{r7, pc}
 1007              	.L52:
 1008              		.align	2
 1009              	.L51:
 1010 0020 00000000 		.word	CapSense_sensorRaw
 1011              		.cfi_endproc
 1012              	.LFE46:
 1013              		.size	CapSense_WriteSensorRaw, .-CapSense_WriteSensorRaw
 1014              		.section	.text.CapSense_SetScanResolution,"ax",%progbits
 1015              		.align	2
 1016              		.global	CapSense_SetScanResolution
 1017              		.code	16
 1018              		.thumb_func
 1019              		.type	CapSense_SetScanResolution, %function
 1020              	CapSense_SetScanResolution:
 1021              	.LFB47:
 841:Generated_Source\PSoC4/CapSense.c **** 
 842:Generated_Source\PSoC4/CapSense.c **** 
 843:Generated_Source\PSoC4/CapSense.c **** #if (CapSense_TUNING_METHOD != CapSense__TUNING_NONE)
 844:Generated_Source\PSoC4/CapSense.c ****     /*******************************************************************************
 845:Generated_Source\PSoC4/CapSense.c ****     * Function Name: CapSense_SetScanResolution
 846:Generated_Source\PSoC4/CapSense.c ****     ********************************************************************************
 847:Generated_Source\PSoC4/CapSense.c ****     *
 848:Generated_Source\PSoC4/CapSense.c ****     * Summary:
 849:Generated_Source\PSoC4/CapSense.c ****     *  Sets a value of the sensor scan resolution for a widget.
 850:Generated_Source\PSoC4/CapSense.c ****     *  The MIN resolution can be set 8-bit. The MAX Resolution can be set 16 bit.
ARM GAS  C:\Users\poornima\AppData\Local\Temp\ccI9K5HH.s 			page 34


 851:Generated_Source\PSoC4/CapSense.c ****     *  This function is not available for the tuning mode "None".
 852:Generated_Source\PSoC4/CapSense.c ****     *
 853:Generated_Source\PSoC4/CapSense.c ****     * Parameters:
 854:Generated_Source\PSoC4/CapSense.c ****     *  widget:     Widget index.
 855:Generated_Source\PSoC4/CapSense.c ****     *  resolution: Represents the resolution value. The following defines which are available in th
 856:Generated_Source\PSoC4/CapSense.c ****     *              CapSense.h file should be used:
 857:Generated_Source\PSoC4/CapSense.c ****     *              CapSense_RESOLUTION_6_BITS
 858:Generated_Source\PSoC4/CapSense.c ****     *              CapSense_RESOLUTION_7_BITS
 859:Generated_Source\PSoC4/CapSense.c ****     *              CapSense_RESOLUTION_8_BITS
 860:Generated_Source\PSoC4/CapSense.c ****     *              CapSense_RESOLUTION_9_BITS
 861:Generated_Source\PSoC4/CapSense.c ****     *              CapSense_RESOLUTION_10_BITS
 862:Generated_Source\PSoC4/CapSense.c ****     *              CapSense_RESOLUTION_11_BITS
 863:Generated_Source\PSoC4/CapSense.c ****     *              CapSense_RESOLUTION_12_BITS
 864:Generated_Source\PSoC4/CapSense.c ****     *              CapSense_RESOLUTION_13_BITS
 865:Generated_Source\PSoC4/CapSense.c ****     *              CapSense_RESOLUTION_14_BITS
 866:Generated_Source\PSoC4/CapSense.c ****     *              CapSense_RESOLUTION_15_BITS
 867:Generated_Source\PSoC4/CapSense.c ****     *              CapSense_RESOLUTION_16_BITS
 868:Generated_Source\PSoC4/CapSense.c ****     *
 869:Generated_Source\PSoC4/CapSense.c ****     * Return:
 870:Generated_Source\PSoC4/CapSense.c ****     *  None
 871:Generated_Source\PSoC4/CapSense.c ****     *
 872:Generated_Source\PSoC4/CapSense.c ****     * Global Variables:
 873:Generated_Source\PSoC4/CapSense.c ****     *  CapSense_widgetResolution[] - used to store scan resolution of each widget.
 874:Generated_Source\PSoC4/CapSense.c ****     *
 875:Generated_Source\PSoC4/CapSense.c ****     * Side Effects:
 876:Generated_Source\PSoC4/CapSense.c ****     *  None
 877:Generated_Source\PSoC4/CapSense.c ****     *
 878:Generated_Source\PSoC4/CapSense.c ****     *******************************************************************************/
 879:Generated_Source\PSoC4/CapSense.c ****     void CapSense_SetScanResolution(uint32 widget, uint32 resolution)
 880:Generated_Source\PSoC4/CapSense.c ****     {
 1022              		.loc 1 880 0
 1023              		.cfi_startproc
 1024 0000 80B5     		push	{r7, lr}
 1025              		.cfi_def_cfa_offset 8
 1026              		.cfi_offset 7, -8
 1027              		.cfi_offset 14, -4
 1028 0002 82B0     		sub	sp, sp, #8
 1029              		.cfi_def_cfa_offset 16
 1030 0004 00AF     		add	r7, sp, #0
 1031              		.cfi_def_cfa_register 7
 1032 0006 7860     		str	r0, [r7, #4]
 1033 0008 3960     		str	r1, [r7]
 881:Generated_Source\PSoC4/CapSense.c ****         CapSense_widgetResolution[widget] = resolution;
 1034              		.loc 1 881 0
 1035 000a 044B     		ldr	r3, .L54
 1036 000c 7A68     		ldr	r2, [r7, #4]
 1037 000e 9200     		lsl	r2, r2, #2
 1038 0010 3968     		ldr	r1, [r7]
 1039 0012 D150     		str	r1, [r2, r3]
 882:Generated_Source\PSoC4/CapSense.c ****     }
 1040              		.loc 1 882 0
 1041 0014 BD46     		mov	sp, r7
 1042 0016 02B0     		add	sp, sp, #8
 1043              		@ sp needed
 1044 0018 80BD     		pop	{r7, pc}
 1045              	.L55:
 1046 001a C046     		.align	2
ARM GAS  C:\Users\poornima\AppData\Local\Temp\ccI9K5HH.s 			page 35


 1047              	.L54:
 1048 001c 00000000 		.word	CapSense_widgetResolution
 1049              		.cfi_endproc
 1050              	.LFE47:
 1051              		.size	CapSense_SetScanResolution, .-CapSense_SetScanResolution
 1052              		.section	.text.CapSense_GetScanResolution,"ax",%progbits
 1053              		.align	2
 1054              		.global	CapSense_GetScanResolution
 1055              		.code	16
 1056              		.thumb_func
 1057              		.type	CapSense_GetScanResolution, %function
 1058              	CapSense_GetScanResolution:
 1059              	.LFB48:
 883:Generated_Source\PSoC4/CapSense.c **** #endif /* (CapSense_TUNING_METHOD != CapSense__TUNING_NONE) */
 884:Generated_Source\PSoC4/CapSense.c **** 
 885:Generated_Source\PSoC4/CapSense.c **** 
 886:Generated_Source\PSoC4/CapSense.c **** /*******************************************************************************
 887:Generated_Source\PSoC4/CapSense.c **** * Function Name: CapSense_GetScanResolution
 888:Generated_Source\PSoC4/CapSense.c **** ********************************************************************************
 889:Generated_Source\PSoC4/CapSense.c **** *
 890:Generated_Source\PSoC4/CapSense.c **** * Summary:
 891:Generated_Source\PSoC4/CapSense.c **** *  Returns the resolution value for the appropriate sensor.
 892:Generated_Source\PSoC4/CapSense.c **** *  This function is not available for tuning mode "None".
 893:Generated_Source\PSoC4/CapSense.c **** *
 894:Generated_Source\PSoC4/CapSense.c **** * Parameters:
 895:Generated_Source\PSoC4/CapSense.c **** *  widget:     Widget index.
 896:Generated_Source\PSoC4/CapSense.c **** *
 897:Generated_Source\PSoC4/CapSense.c **** * Return:
 898:Generated_Source\PSoC4/CapSense.c **** *  resolution: Returns the resolution value for the appropriate sensor.
 899:Generated_Source\PSoC4/CapSense.c **** *              The resolution values are defined in the CapSense.h file
 900:Generated_Source\PSoC4/CapSense.c **** *              The defines are encountered below:
 901:Generated_Source\PSoC4/CapSense.c **** *              CapSense_RESOLUTION_6_BITS
 902:Generated_Source\PSoC4/CapSense.c **** *              CapSense_RESOLUTION_7_BITS
 903:Generated_Source\PSoC4/CapSense.c **** *              CapSense_RESOLUTION_8_BITS
 904:Generated_Source\PSoC4/CapSense.c **** *              CapSense_RESOLUTION_9_BITS
 905:Generated_Source\PSoC4/CapSense.c **** *              CapSense_RESOLUTION_10_BITS
 906:Generated_Source\PSoC4/CapSense.c **** *              CapSense_RESOLUTION_11_BITS
 907:Generated_Source\PSoC4/CapSense.c **** *              CapSense_RESOLUTION_12_BITS
 908:Generated_Source\PSoC4/CapSense.c **** *              CapSense_RESOLUTION_13_BITS
 909:Generated_Source\PSoC4/CapSense.c **** *              CapSense_RESOLUTION_14_BITS
 910:Generated_Source\PSoC4/CapSense.c **** *              CapSense_RESOLUTION_15_BITS
 911:Generated_Source\PSoC4/CapSense.c **** *              CapSense_RESOLUTION_16_BITS
 912:Generated_Source\PSoC4/CapSense.c **** *
 913:Generated_Source\PSoC4/CapSense.c **** * Global Variables:
 914:Generated_Source\PSoC4/CapSense.c **** *  CapSense_widgetResolution[] - used to store scan resolution of every widget.
 915:Generated_Source\PSoC4/CapSense.c **** *
 916:Generated_Source\PSoC4/CapSense.c **** * Side Effects:
 917:Generated_Source\PSoC4/CapSense.c **** *  None
 918:Generated_Source\PSoC4/CapSense.c **** *
 919:Generated_Source\PSoC4/CapSense.c **** *******************************************************************************/
 920:Generated_Source\PSoC4/CapSense.c **** uint32 CapSense_GetScanResolution(uint32 widget)
 921:Generated_Source\PSoC4/CapSense.c **** {
 1060              		.loc 1 921 0
 1061              		.cfi_startproc
 1062 0000 80B5     		push	{r7, lr}
 1063              		.cfi_def_cfa_offset 8
 1064              		.cfi_offset 7, -8
ARM GAS  C:\Users\poornima\AppData\Local\Temp\ccI9K5HH.s 			page 36


 1065              		.cfi_offset 14, -4
 1066 0002 82B0     		sub	sp, sp, #8
 1067              		.cfi_def_cfa_offset 16
 1068 0004 00AF     		add	r7, sp, #0
 1069              		.cfi_def_cfa_register 7
 1070 0006 7860     		str	r0, [r7, #4]
 922:Generated_Source\PSoC4/CapSense.c ****     return(CapSense_widgetResolution[widget]);
 1071              		.loc 1 922 0
 1072 0008 034B     		ldr	r3, .L58
 1073 000a 7A68     		ldr	r2, [r7, #4]
 1074 000c 9200     		lsl	r2, r2, #2
 1075 000e D358     		ldr	r3, [r2, r3]
 923:Generated_Source\PSoC4/CapSense.c **** }
 1076              		.loc 1 923 0
 1077 0010 181C     		mov	r0, r3
 1078 0012 BD46     		mov	sp, r7
 1079 0014 02B0     		add	sp, sp, #8
 1080              		@ sp needed
 1081 0016 80BD     		pop	{r7, pc}
 1082              	.L59:
 1083              		.align	2
 1084              	.L58:
 1085 0018 00000000 		.word	CapSense_widgetResolution
 1086              		.cfi_endproc
 1087              	.LFE48:
 1088              		.size	CapSense_GetScanResolution, .-CapSense_GetScanResolution
 1089              		.section	.text.CapSense_ClearSensors,"ax",%progbits
 1090              		.align	2
 1091              		.global	CapSense_ClearSensors
 1092              		.code	16
 1093              		.thumb_func
 1094              		.type	CapSense_ClearSensors, %function
 1095              	CapSense_ClearSensors:
 1096              	.LFB49:
 924:Generated_Source\PSoC4/CapSense.c **** 
 925:Generated_Source\PSoC4/CapSense.c **** 
 926:Generated_Source\PSoC4/CapSense.c **** /*******************************************************************************
 927:Generated_Source\PSoC4/CapSense.c **** * Function Name: CapSense_ClearSensors
 928:Generated_Source\PSoC4/CapSense.c **** ********************************************************************************
 929:Generated_Source\PSoC4/CapSense.c **** *
 930:Generated_Source\PSoC4/CapSense.c **** * Summary:
 931:Generated_Source\PSoC4/CapSense.c **** *  Resets all the sensors to the non-sampling state by sequentially disconnecting
 932:Generated_Source\PSoC4/CapSense.c **** *  all the sensors from Analog MUX Bus and putting them to an inactive state.
 933:Generated_Source\PSoC4/CapSense.c **** *
 934:Generated_Source\PSoC4/CapSense.c **** * Parameters:
 935:Generated_Source\PSoC4/CapSense.c **** *  None
 936:Generated_Source\PSoC4/CapSense.c **** *
 937:Generated_Source\PSoC4/CapSense.c **** * Return:
 938:Generated_Source\PSoC4/CapSense.c **** *  None
 939:Generated_Source\PSoC4/CapSense.c **** *
 940:Generated_Source\PSoC4/CapSense.c **** * Global Variables:
 941:Generated_Source\PSoC4/CapSense.c **** *  None
 942:Generated_Source\PSoC4/CapSense.c **** *
 943:Generated_Source\PSoC4/CapSense.c **** * Side Effects:
 944:Generated_Source\PSoC4/CapSense.c **** *  None
 945:Generated_Source\PSoC4/CapSense.c **** *
 946:Generated_Source\PSoC4/CapSense.c **** *******************************************************************************/
ARM GAS  C:\Users\poornima\AppData\Local\Temp\ccI9K5HH.s 			page 37


 947:Generated_Source\PSoC4/CapSense.c **** void CapSense_ClearSensors(void)
 948:Generated_Source\PSoC4/CapSense.c **** {
 1097              		.loc 1 948 0
 1098              		.cfi_startproc
 1099 0000 80B5     		push	{r7, lr}
 1100              		.cfi_def_cfa_offset 8
 1101              		.cfi_offset 7, -8
 1102              		.cfi_offset 14, -4
 1103 0002 82B0     		sub	sp, sp, #8
 1104              		.cfi_def_cfa_offset 16
 1105 0004 00AF     		add	r7, sp, #0
 1106              		.cfi_def_cfa_register 7
 949:Generated_Source\PSoC4/CapSense.c ****     uint32 snsIndex;
 950:Generated_Source\PSoC4/CapSense.c **** 
 951:Generated_Source\PSoC4/CapSense.c ****     for (snsIndex = 0u; snsIndex < CapSense_TOTAL_SENSOR_COUNT; snsIndex++)
 1107              		.loc 1 951 0
 1108 0006 0023     		mov	r3, #0
 1109 0008 7B60     		str	r3, [r7, #4]
 1110 000a 06E0     		b	.L61
 1111              	.L62:
 952:Generated_Source\PSoC4/CapSense.c ****     {
 953:Generated_Source\PSoC4/CapSense.c ****         CapSense_DisableScanSlot(snsIndex);
 1112              		.loc 1 953 0 discriminator 3
 1113 000c 7B68     		ldr	r3, [r7, #4]
 1114 000e 181C     		mov	r0, r3
 1115 0010 FFF7FEFF 		bl	CapSense_DisableSensor
 951:Generated_Source\PSoC4/CapSense.c ****     {
 1116              		.loc 1 951 0 discriminator 3
 1117 0014 7B68     		ldr	r3, [r7, #4]
 1118 0016 0133     		add	r3, r3, #1
 1119 0018 7B60     		str	r3, [r7, #4]
 1120              	.L61:
 951:Generated_Source\PSoC4/CapSense.c ****     {
 1121              		.loc 1 951 0 is_stmt 0 discriminator 1
 1122 001a 7B68     		ldr	r3, [r7, #4]
 1123 001c 0F2B     		cmp	r3, #15
 1124 001e F5D9     		bls	.L62
 954:Generated_Source\PSoC4/CapSense.c ****     }
 955:Generated_Source\PSoC4/CapSense.c **** }
 1125              		.loc 1 955 0 is_stmt 1
 1126 0020 BD46     		mov	sp, r7
 1127 0022 02B0     		add	sp, sp, #8
 1128              		@ sp needed
 1129 0024 80BD     		pop	{r7, pc}
 1130              		.cfi_endproc
 1131              	.LFE49:
 1132              		.size	CapSense_ClearSensors, .-CapSense_ClearSensors
 1133 0026 C046     		.section	.text.CapSense_EnableSensor,"ax",%progbits
 1134              		.align	2
 1135              		.global	CapSense_EnableSensor
 1136              		.code	16
 1137              		.thumb_func
 1138              		.type	CapSense_EnableSensor, %function
 1139              	CapSense_EnableSensor:
 1140              	.LFB50:
 956:Generated_Source\PSoC4/CapSense.c **** 
 957:Generated_Source\PSoC4/CapSense.c **** 
ARM GAS  C:\Users\poornima\AppData\Local\Temp\ccI9K5HH.s 			page 38


 958:Generated_Source\PSoC4/CapSense.c **** #if (CapSense_IS_COMPLEX_SCANSLOTS)
 959:Generated_Source\PSoC4/CapSense.c ****     /*******************************************************************************
 960:Generated_Source\PSoC4/CapSense.c ****     * Function Name: CapSense_EnableScanSlot
 961:Generated_Source\PSoC4/CapSense.c ****     ********************************************************************************
 962:Generated_Source\PSoC4/CapSense.c ****     *
 963:Generated_Source\PSoC4/CapSense.c ****     * Summary:
 964:Generated_Source\PSoC4/CapSense.c ****     *  Configures the selected slot to measure during the next measurement
 965:Generated_Source\PSoC4/CapSense.c ****     *  cycle. The corresponding pin/pins are set to Analog High-Z mode and
 966:Generated_Source\PSoC4/CapSense.c ****     *  connected to the Analog Mux Bus. This also enables the comparator function.
 967:Generated_Source\PSoC4/CapSense.c ****     *
 968:Generated_Source\PSoC4/CapSense.c ****     * Parameters:
 969:Generated_Source\PSoC4/CapSense.c ****     *  slot:  Slot number.
 970:Generated_Source\PSoC4/CapSense.c ****     *
 971:Generated_Source\PSoC4/CapSense.c ****     * Return:
 972:Generated_Source\PSoC4/CapSense.c ****     *  None
 973:Generated_Source\PSoC4/CapSense.c ****     *
 974:Generated_Source\PSoC4/CapSense.c ****     * Global Constants:
 975:Generated_Source\PSoC4/CapSense.c ****     *  CapSense_portTable[]  - used to store the port number that pin
 976:Generated_Source\PSoC4/CapSense.c ****     *  belongs to for each sensor.
 977:Generated_Source\PSoC4/CapSense.c ****     *  CapSense_maskTable[]  - used to store the pin within the port for
 978:Generated_Source\PSoC4/CapSense.c ****     *  each sensor.
 979:Generated_Source\PSoC4/CapSense.c ****     *  CapSense_indexTable[] - used to store indexes of complex sensors.
 980:Generated_Source\PSoC4/CapSense.c ****     *  The offset and position in this array are stored in a port and mask table for
 981:Generated_Source\PSoC4/CapSense.c ****     *  complex sensors.
 982:Generated_Source\PSoC4/CapSense.c ****     *  Bit 7 (msb) is used to define the sensor type: single or complex.
 983:Generated_Source\PSoC4/CapSense.c ****     *
 984:Generated_Source\PSoC4/CapSense.c ****     * Side Effects:
 985:Generated_Source\PSoC4/CapSense.c ****     *  None
 986:Generated_Source\PSoC4/CapSense.c ****     *
 987:Generated_Source\PSoC4/CapSense.c ****     *******************************************************************************/
 988:Generated_Source\PSoC4/CapSense.c ****     void CapSense_EnableScanSlot(uint32 slot)
 989:Generated_Source\PSoC4/CapSense.c ****     {
 990:Generated_Source\PSoC4/CapSense.c ****         uint8 j;
 991:Generated_Source\PSoC4/CapSense.c ****         uint8 snsNumber;
 992:Generated_Source\PSoC4/CapSense.c ****         const uint8 *index;
 993:Generated_Source\PSoC4/CapSense.c ****         /* Read sensor type: single or complex */
 994:Generated_Source\PSoC4/CapSense.c ****         uint8 snsType = CapSense_portTable[slot];
 995:Generated_Source\PSoC4/CapSense.c **** 
 996:Generated_Source\PSoC4/CapSense.c ****         /* Check if sensor is complex */
 997:Generated_Source\PSoC4/CapSense.c ****         if ((snsType & CapSense_COMPLEX_SS_FLAG) == 0u)
 998:Generated_Source\PSoC4/CapSense.c ****         {
 999:Generated_Source\PSoC4/CapSense.c ****             /* Enable sensor (single) */
1000:Generated_Source\PSoC4/CapSense.c ****             CapSense_EnableSensor(slot);
1001:Generated_Source\PSoC4/CapSense.c ****         }
1002:Generated_Source\PSoC4/CapSense.c ****         else
1003:Generated_Source\PSoC4/CapSense.c ****         {
1004:Generated_Source\PSoC4/CapSense.c ****             /* Enable complex sensor */
1005:Generated_Source\PSoC4/CapSense.c ****             snsType &= ~CapSense_COMPLEX_SS_FLAG;
1006:Generated_Source\PSoC4/CapSense.c ****             index = &CapSense_indexTable[snsType];
1007:Generated_Source\PSoC4/CapSense.c ****             snsNumber = CapSense_maskTable[slot];
1008:Generated_Source\PSoC4/CapSense.c **** 
1009:Generated_Source\PSoC4/CapSense.c ****             for (j = 0u; j < snsNumber; j++)
1010:Generated_Source\PSoC4/CapSense.c ****             {
1011:Generated_Source\PSoC4/CapSense.c ****                 CapSense_EnableSensor(index[j]);
1012:Generated_Source\PSoC4/CapSense.c ****             }
1013:Generated_Source\PSoC4/CapSense.c ****         }
1014:Generated_Source\PSoC4/CapSense.c ****     }
ARM GAS  C:\Users\poornima\AppData\Local\Temp\ccI9K5HH.s 			page 39


1015:Generated_Source\PSoC4/CapSense.c **** 
1016:Generated_Source\PSoC4/CapSense.c **** 
1017:Generated_Source\PSoC4/CapSense.c ****     /*******************************************************************************
1018:Generated_Source\PSoC4/CapSense.c ****     * Function Name: CapSense_DisableScanSlot
1019:Generated_Source\PSoC4/CapSense.c ****     ********************************************************************************
1020:Generated_Source\PSoC4/CapSense.c ****     *
1021:Generated_Source\PSoC4/CapSense.c ****     * Summary:
1022:Generated_Source\PSoC4/CapSense.c ****     *  Disables the selected slot. The corresponding pin/pins is/are disconnected
1023:Generated_Source\PSoC4/CapSense.c ****     *  from the Analog Mux Bus and connected to GND, High_Z or Shield electrode.
1024:Generated_Source\PSoC4/CapSense.c ****     *
1025:Generated_Source\PSoC4/CapSense.c ****     * Parameters:
1026:Generated_Source\PSoC4/CapSense.c ****     *  slot:  Slot number.
1027:Generated_Source\PSoC4/CapSense.c ****     *
1028:Generated_Source\PSoC4/CapSense.c ****     * Return:
1029:Generated_Source\PSoC4/CapSense.c ****     *  None
1030:Generated_Source\PSoC4/CapSense.c ****     *
1031:Generated_Source\PSoC4/CapSense.c ****     * Global Variables:
1032:Generated_Source\PSoC4/CapSense.c ****     *  CapSense_portTable[]  - used to store the port number that pin
1033:Generated_Source\PSoC4/CapSense.c ****     *  belongs to for each sensor.
1034:Generated_Source\PSoC4/CapSense.c ****     *  CapSense_maskTable[]  - used to store the pin within the port for
1035:Generated_Source\PSoC4/CapSense.c ****     *  each sensor.
1036:Generated_Source\PSoC4/CapSense.c ****     *  CapSense_indexTable[] - used to store indexes of complex sensors.
1037:Generated_Source\PSoC4/CapSense.c ****     *  The offset and position in this array are stored in a port and mask table for
1038:Generated_Source\PSoC4/CapSense.c ****     *  complex sensors.
1039:Generated_Source\PSoC4/CapSense.c ****     *  7bit(msb) is used to define the sensor type: single or complex.
1040:Generated_Source\PSoC4/CapSense.c ****     *
1041:Generated_Source\PSoC4/CapSense.c ****     * Side Effects:
1042:Generated_Source\PSoC4/CapSense.c ****     *  None
1043:Generated_Source\PSoC4/CapSense.c ****     *
1044:Generated_Source\PSoC4/CapSense.c ****     *******************************************************************************/
1045:Generated_Source\PSoC4/CapSense.c ****     void CapSense_DisableScanSlot(uint32 slot)
1046:Generated_Source\PSoC4/CapSense.c ****     {
1047:Generated_Source\PSoC4/CapSense.c ****         uint8 j;
1048:Generated_Source\PSoC4/CapSense.c ****         uint8 snsNumber;
1049:Generated_Source\PSoC4/CapSense.c ****         const uint8 *index;
1050:Generated_Source\PSoC4/CapSense.c **** 
1051:Generated_Source\PSoC4/CapSense.c ****         /* Read sensor type: single or complex */
1052:Generated_Source\PSoC4/CapSense.c ****         uint8 snsType = CapSense_portTable[slot];
1053:Generated_Source\PSoC4/CapSense.c **** 
1054:Generated_Source\PSoC4/CapSense.c ****         /* Check if sensor is complex */
1055:Generated_Source\PSoC4/CapSense.c ****         if ((snsType & CapSense_COMPLEX_SS_FLAG) == 0u)
1056:Generated_Source\PSoC4/CapSense.c ****         {
1057:Generated_Source\PSoC4/CapSense.c ****             /* Disable sensor (single) */
1058:Generated_Source\PSoC4/CapSense.c ****             CapSense_DisableSensor(slot);
1059:Generated_Source\PSoC4/CapSense.c ****         }
1060:Generated_Source\PSoC4/CapSense.c ****         else
1061:Generated_Source\PSoC4/CapSense.c ****         {
1062:Generated_Source\PSoC4/CapSense.c ****             /* Disable complex sensor */
1063:Generated_Source\PSoC4/CapSense.c ****             snsType &= ~CapSense_COMPLEX_SS_FLAG;
1064:Generated_Source\PSoC4/CapSense.c ****             index = &CapSense_indexTable[snsType];
1065:Generated_Source\PSoC4/CapSense.c ****             snsNumber = CapSense_maskTable[slot];
1066:Generated_Source\PSoC4/CapSense.c **** 
1067:Generated_Source\PSoC4/CapSense.c ****             for (j=0; j < snsNumber; j++)
1068:Generated_Source\PSoC4/CapSense.c ****             {
1069:Generated_Source\PSoC4/CapSense.c ****                 CapSense_DisableSensor(index[j]);
1070:Generated_Source\PSoC4/CapSense.c ****             }
1071:Generated_Source\PSoC4/CapSense.c ****         }
ARM GAS  C:\Users\poornima\AppData\Local\Temp\ccI9K5HH.s 			page 40


1072:Generated_Source\PSoC4/CapSense.c ****     }
1073:Generated_Source\PSoC4/CapSense.c **** #endif  /* CapSense_IS_COMPLEX_SCANSLOTS */
1074:Generated_Source\PSoC4/CapSense.c **** 
1075:Generated_Source\PSoC4/CapSense.c **** 
1076:Generated_Source\PSoC4/CapSense.c **** /*******************************************************************************
1077:Generated_Source\PSoC4/CapSense.c **** * Function Name: CapSense_EnableSensor
1078:Generated_Source\PSoC4/CapSense.c **** ********************************************************************************
1079:Generated_Source\PSoC4/CapSense.c **** *
1080:Generated_Source\PSoC4/CapSense.c **** * Summary:
1081:Generated_Source\PSoC4/CapSense.c **** *  Configures the selected sensor to measure during the next measurement cycle.
1082:Generated_Source\PSoC4/CapSense.c **** *  The corresponding pins are set to Analog High-Z mode and connected to the
1083:Generated_Source\PSoC4/CapSense.c **** *  Analog Mux Bus. This also enables the comparator function.
1084:Generated_Source\PSoC4/CapSense.c **** *
1085:Generated_Source\PSoC4/CapSense.c **** * Parameters:
1086:Generated_Source\PSoC4/CapSense.c **** *  sensor:  Sensor number.
1087:Generated_Source\PSoC4/CapSense.c **** *
1088:Generated_Source\PSoC4/CapSense.c **** * Return:
1089:Generated_Source\PSoC4/CapSense.c **** *  None
1090:Generated_Source\PSoC4/CapSense.c **** *
1091:Generated_Source\PSoC4/CapSense.c **** * Global Variables:
1092:Generated_Source\PSoC4/CapSense.c **** *  CapSense_portTable[] - used to store the port number that pin
1093:Generated_Source\PSoC4/CapSense.c **** *  belongs to for each sensor.
1094:Generated_Source\PSoC4/CapSense.c **** *  CapSense_pinShiftTbl[] - used to store position of pin that
1095:Generated_Source\PSoC4/CapSense.c **** *  configured as sensor in port.
1096:Generated_Source\PSoC4/CapSense.c **** *  CapSense_prtSelTbl[] - Contains pointers to the HSIOM
1097:Generated_Source\PSoC4/CapSense.c **** *  registers for each port.
1098:Generated_Source\PSoC4/CapSense.c **** *  CapSense_PrtCfgTb[] - Contains pointers to the port config
1099:Generated_Source\PSoC4/CapSense.c **** *  registers for each port.
1100:Generated_Source\PSoC4/CapSense.c **** *
1101:Generated_Source\PSoC4/CapSense.c **** * Side Effects:
1102:Generated_Source\PSoC4/CapSense.c **** *  None
1103:Generated_Source\PSoC4/CapSense.c **** *
1104:Generated_Source\PSoC4/CapSense.c **** *******************************************************************************/
1105:Generated_Source\PSoC4/CapSense.c **** void CapSense_EnableSensor(uint32 sensor)
1106:Generated_Source\PSoC4/CapSense.c **** {
 1141              		.loc 1 1106 0
 1142              		.cfi_startproc
 1143 0000 90B5     		push	{r4, r7, lr}
 1144              		.cfi_def_cfa_offset 12
 1145              		.cfi_offset 4, -12
 1146              		.cfi_offset 7, -8
 1147              		.cfi_offset 14, -4
 1148 0002 87B0     		sub	sp, sp, #28
 1149              		.cfi_def_cfa_offset 40
 1150 0004 00AF     		add	r7, sp, #0
 1151              		.cfi_def_cfa_register 7
 1152 0006 7860     		str	r0, [r7, #4]
1107:Generated_Source\PSoC4/CapSense.c ****     uint8  pinModeShift;
1108:Generated_Source\PSoC4/CapSense.c ****     uint8  pinHSIOMShift;
1109:Generated_Source\PSoC4/CapSense.c ****     uint8 interruptState;
1110:Generated_Source\PSoC4/CapSense.c ****     uint32 newRegisterValue;
1111:Generated_Source\PSoC4/CapSense.c ****     uint32 port;
1112:Generated_Source\PSoC4/CapSense.c **** 
1113:Generated_Source\PSoC4/CapSense.c ****     port = (uint32) CapSense_portTable[sensor];
 1153              		.loc 1 1113 0
 1154 0008 2B4A     		ldr	r2, .L64
 1155 000a 7B68     		ldr	r3, [r7, #4]
ARM GAS  C:\Users\poornima\AppData\Local\Temp\ccI9K5HH.s 			page 41


 1156 000c D318     		add	r3, r2, r3
 1157 000e 1B78     		ldrb	r3, [r3]
 1158 0010 7B61     		str	r3, [r7, #20]
1114:Generated_Source\PSoC4/CapSense.c ****     pinModeShift = CapSense_pinShiftTbl[sensor]  * CapSense_PC_PIN_CFG_SIZE;
 1159              		.loc 1 1114 0
 1160 0012 2A4A     		ldr	r2, .L64+4
 1161 0014 7B68     		ldr	r3, [r7, #4]
 1162 0016 D318     		add	r3, r2, r3
 1163 0018 1B78     		ldrb	r3, [r3]
 1164 001a 1322     		mov	r2, #19
 1165 001c BA18     		add	r2, r7, r2
 1166 001e 191C     		add	r1, r3, #0
 1167 0020 0B1C     		add	r3, r1, #0
 1168 0022 DB18     		add	r3, r3, r3
 1169 0024 5B18     		add	r3, r3, r1
 1170 0026 1370     		strb	r3, [r2]
1115:Generated_Source\PSoC4/CapSense.c ****     pinHSIOMShift = CapSense_pinShiftTbl[sensor] * CapSense_HSIOM_PIN_CFG_SIZE;
 1171              		.loc 1 1115 0
 1172 0028 244A     		ldr	r2, .L64+4
 1173 002a 7B68     		ldr	r3, [r7, #4]
 1174 002c D318     		add	r3, r2, r3
 1175 002e 1A78     		ldrb	r2, [r3]
 1176 0030 1223     		mov	r3, #18
 1177 0032 FB18     		add	r3, r7, r3
 1178 0034 9200     		lsl	r2, r2, #2
 1179 0036 1A70     		strb	r2, [r3]
1116:Generated_Source\PSoC4/CapSense.c **** 
1117:Generated_Source\PSoC4/CapSense.c ****     interruptState = CyEnterCriticalSection();
 1180              		.loc 1 1117 0
 1181 0038 1123     		mov	r3, #17
 1182 003a FC18     		add	r4, r7, r3
 1183 003c FFF7FEFF 		bl	CyEnterCriticalSection
 1184 0040 031C     		mov	r3, r0
 1185 0042 2370     		strb	r3, [r4]
1118:Generated_Source\PSoC4/CapSense.c **** 
1119:Generated_Source\PSoC4/CapSense.c ****     newRegisterValue = *CapSense_prtSelTbl[port];
 1186              		.loc 1 1119 0
 1187 0044 1E4B     		ldr	r3, .L64+8
 1188 0046 7A69     		ldr	r2, [r7, #20]
 1189 0048 9200     		lsl	r2, r2, #2
 1190 004a D358     		ldr	r3, [r2, r3]
 1191 004c 1B68     		ldr	r3, [r3]
 1192 004e FB60     		str	r3, [r7, #12]
1120:Generated_Source\PSoC4/CapSense.c ****     newRegisterValue &= ~(CapSense_CSD_HSIOM_MASK << pinHSIOMShift);
 1193              		.loc 1 1120 0
 1194 0050 1223     		mov	r3, #18
 1195 0052 FB18     		add	r3, r7, r3
 1196 0054 1B78     		ldrb	r3, [r3]
 1197 0056 0F22     		mov	r2, #15
 1198 0058 9A40     		lsl	r2, r2, r3
 1199 005a 131C     		mov	r3, r2
 1200 005c DA43     		mvn	r2, r3
 1201 005e FB68     		ldr	r3, [r7, #12]
 1202 0060 1340     		and	r3, r2
 1203 0062 FB60     		str	r3, [r7, #12]
1121:Generated_Source\PSoC4/CapSense.c ****     newRegisterValue |= (uint32)((uint32)CapSense_CSD_SENSE_PORT_MODE << pinHSIOMShift);
 1204              		.loc 1 1121 0
ARM GAS  C:\Users\poornima\AppData\Local\Temp\ccI9K5HH.s 			page 42


 1205 0064 1223     		mov	r3, #18
 1206 0066 FB18     		add	r3, r7, r3
 1207 0068 1B78     		ldrb	r3, [r3]
 1208 006a 0422     		mov	r2, #4
 1209 006c 9A40     		lsl	r2, r2, r3
 1210 006e 131C     		mov	r3, r2
 1211 0070 FA68     		ldr	r2, [r7, #12]
 1212 0072 1343     		orr	r3, r2
 1213 0074 FB60     		str	r3, [r7, #12]
1122:Generated_Source\PSoC4/CapSense.c **** 
1123:Generated_Source\PSoC4/CapSense.c ****     *CapSense_prtCfgTbl[port] &= (uint32)~((uint32)CapSense_CSD_PIN_MODE_MASK << pinModeShift);
 1214              		.loc 1 1123 0
 1215 0076 134B     		ldr	r3, .L64+12
 1216 0078 7A69     		ldr	r2, [r7, #20]
 1217 007a 9200     		lsl	r2, r2, #2
 1218 007c D358     		ldr	r3, [r2, r3]
 1219 007e 114A     		ldr	r2, .L64+12
 1220 0080 7969     		ldr	r1, [r7, #20]
 1221 0082 8900     		lsl	r1, r1, #2
 1222 0084 8A58     		ldr	r2, [r1, r2]
 1223 0086 1268     		ldr	r2, [r2]
 1224 0088 1321     		mov	r1, #19
 1225 008a 7918     		add	r1, r7, r1
 1226 008c 0978     		ldrb	r1, [r1]
 1227 008e 0720     		mov	r0, #7
 1228 0090 8840     		lsl	r0, r0, r1
 1229 0092 011C     		mov	r1, r0
 1230 0094 C943     		mvn	r1, r1
 1231 0096 0A40     		and	r2, r1
 1232 0098 1A60     		str	r2, [r3]
1124:Generated_Source\PSoC4/CapSense.c ****     *CapSense_prtSelTbl[port] = newRegisterValue;
 1233              		.loc 1 1124 0
 1234 009a 094B     		ldr	r3, .L64+8
 1235 009c 7A69     		ldr	r2, [r7, #20]
 1236 009e 9200     		lsl	r2, r2, #2
 1237 00a0 D358     		ldr	r3, [r2, r3]
 1238 00a2 FA68     		ldr	r2, [r7, #12]
 1239 00a4 1A60     		str	r2, [r3]
1125:Generated_Source\PSoC4/CapSense.c **** 
1126:Generated_Source\PSoC4/CapSense.c ****     CyExitCriticalSection(interruptState);
 1240              		.loc 1 1126 0
 1241 00a6 1123     		mov	r3, #17
 1242 00a8 FB18     		add	r3, r7, r3
 1243 00aa 1B78     		ldrb	r3, [r3]
 1244 00ac 181C     		mov	r0, r3
 1245 00ae FFF7FEFF 		bl	CyExitCriticalSection
1127:Generated_Source\PSoC4/CapSense.c **** }
 1246              		.loc 1 1127 0
 1247 00b2 BD46     		mov	sp, r7
 1248 00b4 07B0     		add	sp, sp, #28
 1249              		@ sp needed
 1250 00b6 90BD     		pop	{r4, r7, pc}
 1251              	.L65:
 1252              		.align	2
 1253              	.L64:
 1254 00b8 00000000 		.word	CapSense_portTable
 1255 00bc 00000000 		.word	CapSense_pinShiftTbl
ARM GAS  C:\Users\poornima\AppData\Local\Temp\ccI9K5HH.s 			page 43


 1256 00c0 00000000 		.word	CapSense_prtSelTbl
 1257 00c4 00000000 		.word	CapSense_prtCfgTbl
 1258              		.cfi_endproc
 1259              	.LFE50:
 1260              		.size	CapSense_EnableSensor, .-CapSense_EnableSensor
 1261              		.section	.text.CapSense_DisableSensor,"ax",%progbits
 1262              		.align	2
 1263              		.global	CapSense_DisableSensor
 1264              		.code	16
 1265              		.thumb_func
 1266              		.type	CapSense_DisableSensor, %function
 1267              	CapSense_DisableSensor:
 1268              	.LFB51:
1128:Generated_Source\PSoC4/CapSense.c **** 
1129:Generated_Source\PSoC4/CapSense.c **** 
1130:Generated_Source\PSoC4/CapSense.c **** /*******************************************************************************
1131:Generated_Source\PSoC4/CapSense.c **** * Function Name: CapSense_DisableSensor
1132:Generated_Source\PSoC4/CapSense.c **** ********************************************************************************
1133:Generated_Source\PSoC4/CapSense.c **** *
1134:Generated_Source\PSoC4/CapSense.c **** * Summary:
1135:Generated_Source\PSoC4/CapSense.c **** *  Disables the selected sensor. The corresponding pin is disconnected from the
1136:Generated_Source\PSoC4/CapSense.c **** *  Analog Mux Bus and connected to GND, High_Z or Shield electrode.
1137:Generated_Source\PSoC4/CapSense.c **** *
1138:Generated_Source\PSoC4/CapSense.c **** * Parameters:
1139:Generated_Source\PSoC4/CapSense.c **** *  sensor:  Sensor number
1140:Generated_Source\PSoC4/CapSense.c **** *
1141:Generated_Source\PSoC4/CapSense.c **** * Return:
1142:Generated_Source\PSoC4/CapSense.c **** *  None
1143:Generated_Source\PSoC4/CapSense.c **** *
1144:Generated_Source\PSoC4/CapSense.c **** * Global Variables:
1145:Generated_Source\PSoC4/CapSense.c **** *  CapSense_portTable[] - used to store the port number that pin
1146:Generated_Source\PSoC4/CapSense.c **** *  belongs to for each sensor.
1147:Generated_Source\PSoC4/CapSense.c **** *  CapSense_pinShiftTbl[] - used to store position of pin that
1148:Generated_Source\PSoC4/CapSense.c **** *  configured as a sensor in the port.
1149:Generated_Source\PSoC4/CapSense.c **** *  CapSense_prtSelTbl[] - Contains pointers to the HSIOM
1150:Generated_Source\PSoC4/CapSense.c **** *  registers for each port.
1151:Generated_Source\PSoC4/CapSense.c **** *  CapSense_PrtCfgTb[] - Contains pointers to the port config
1152:Generated_Source\PSoC4/CapSense.c **** *  registers for each port.
1153:Generated_Source\PSoC4/CapSense.c **** *
1154:Generated_Source\PSoC4/CapSense.c **** * Side Effects:
1155:Generated_Source\PSoC4/CapSense.c **** *  None
1156:Generated_Source\PSoC4/CapSense.c **** *
1157:Generated_Source\PSoC4/CapSense.c **** *******************************************************************************/
1158:Generated_Source\PSoC4/CapSense.c **** void CapSense_DisableSensor(uint32 sensor)
1159:Generated_Source\PSoC4/CapSense.c **** {
 1269              		.loc 1 1159 0
 1270              		.cfi_startproc
 1271 0000 90B5     		push	{r4, r7, lr}
 1272              		.cfi_def_cfa_offset 12
 1273              		.cfi_offset 4, -12
 1274              		.cfi_offset 7, -8
 1275              		.cfi_offset 14, -4
 1276 0002 89B0     		sub	sp, sp, #36
 1277              		.cfi_def_cfa_offset 48
 1278 0004 00AF     		add	r7, sp, #0
 1279              		.cfi_def_cfa_register 7
 1280 0006 7860     		str	r0, [r7, #4]
ARM GAS  C:\Users\poornima\AppData\Local\Temp\ccI9K5HH.s 			page 44


1160:Generated_Source\PSoC4/CapSense.c ****     uint8 interruptState;
1161:Generated_Source\PSoC4/CapSense.c ****     uint32 newRegisterValue;
1162:Generated_Source\PSoC4/CapSense.c **** 
1163:Generated_Source\PSoC4/CapSense.c ****     uint32 port = (uint32) CapSense_portTable[sensor];
 1281              		.loc 1 1163 0
 1282 0008 3D4A     		ldr	r2, .L69
 1283 000a 7B68     		ldr	r3, [r7, #4]
 1284 000c D318     		add	r3, r2, r3
 1285 000e 1B78     		ldrb	r3, [r3]
 1286 0010 7B61     		str	r3, [r7, #20]
1164:Generated_Source\PSoC4/CapSense.c ****     uint8  pinHSIOMShift = CapSense_pinShiftTbl[sensor] * CapSense_HSIOM_PIN_CFG_SIZE;
 1287              		.loc 1 1164 0
 1288 0012 3C4A     		ldr	r2, .L69+4
 1289 0014 7B68     		ldr	r3, [r7, #4]
 1290 0016 D318     		add	r3, r2, r3
 1291 0018 1A78     		ldrb	r2, [r3]
 1292 001a 1323     		mov	r3, #19
 1293 001c FB18     		add	r3, r7, r3
 1294 001e 9200     		lsl	r2, r2, #2
 1295 0020 1A70     		strb	r2, [r3]
1165:Generated_Source\PSoC4/CapSense.c ****     uint8  pinModeShift = CapSense_pinShiftTbl[sensor]  * CapSense_PC_PIN_CFG_SIZE;
 1296              		.loc 1 1165 0
 1297 0022 384A     		ldr	r2, .L69+4
 1298 0024 7B68     		ldr	r3, [r7, #4]
 1299 0026 D318     		add	r3, r2, r3
 1300 0028 1B78     		ldrb	r3, [r3]
 1301 002a 1222     		mov	r2, #18
 1302 002c BA18     		add	r2, r7, r2
 1303 002e 191C     		add	r1, r3, #0
 1304 0030 0B1C     		add	r3, r1, #0
 1305 0032 DB18     		add	r3, r3, r3
 1306 0034 5B18     		add	r3, r3, r1
 1307 0036 1370     		strb	r3, [r2]
1166:Generated_Source\PSoC4/CapSense.c **** 
1167:Generated_Source\PSoC4/CapSense.c ****     uint32 inactiveConnect = CapSense_SNS_HIZANALOG_CONNECT;
 1308              		.loc 1 1167 0
 1309 0038 0023     		mov	r3, #0
 1310 003a FB61     		str	r3, [r7, #28]
1168:Generated_Source\PSoC4/CapSense.c ****     uint32 sensorState = CapSense_unscannedSnsDriveMode[sensor];
 1311              		.loc 1 1168 0
 1312 003c 324A     		ldr	r2, .L69+8
 1313 003e 7B68     		ldr	r3, [r7, #4]
 1314 0040 D318     		add	r3, r2, r3
 1315 0042 1B78     		ldrb	r3, [r3]
 1316 0044 BB61     		str	r3, [r7, #24]
1169:Generated_Source\PSoC4/CapSense.c **** 
1170:Generated_Source\PSoC4/CapSense.c ****     *CapSense_prtSelTbl[port] &= ~(CapSense_CSD_HSIOM_MASK << pinHSIOMShift);
 1317              		.loc 1 1170 0
 1318 0046 314B     		ldr	r3, .L69+12
 1319 0048 7A69     		ldr	r2, [r7, #20]
 1320 004a 9200     		lsl	r2, r2, #2
 1321 004c D358     		ldr	r3, [r2, r3]
 1322 004e 2F4A     		ldr	r2, .L69+12
 1323 0050 7969     		ldr	r1, [r7, #20]
 1324 0052 8900     		lsl	r1, r1, #2
 1325 0054 8A58     		ldr	r2, [r1, r2]
 1326 0056 1268     		ldr	r2, [r2]
ARM GAS  C:\Users\poornima\AppData\Local\Temp\ccI9K5HH.s 			page 45


 1327 0058 1321     		mov	r1, #19
 1328 005a 7918     		add	r1, r7, r1
 1329 005c 0978     		ldrb	r1, [r1]
 1330 005e 0F20     		mov	r0, #15
 1331 0060 8840     		lsl	r0, r0, r1
 1332 0062 011C     		mov	r1, r0
 1333 0064 C943     		mvn	r1, r1
 1334 0066 0A40     		and	r2, r1
 1335 0068 1A60     		str	r2, [r3]
1171:Generated_Source\PSoC4/CapSense.c **** 
1172:Generated_Source\PSoC4/CapSense.c ****     #if(CapSense_IS_SHIELD_ENABLE != 0)
1173:Generated_Source\PSoC4/CapSense.c ****     if(sensorState != (uint32)CapSense__SHIELD)
1174:Generated_Source\PSoC4/CapSense.c ****     {
1175:Generated_Source\PSoC4/CapSense.c ****     #else
1176:Generated_Source\PSoC4/CapSense.c ****         /* Connected to Ground if shield is disabled */
1177:Generated_Source\PSoC4/CapSense.c ****         if(sensorState == (uint32)CapSense__SHIELD)
 1336              		.loc 1 1177 0
 1337 006a BB69     		ldr	r3, [r7, #24]
 1338 006c 022B     		cmp	r3, #2
 1339 006e 01D1     		bne	.L67
1178:Generated_Source\PSoC4/CapSense.c ****         {
1179:Generated_Source\PSoC4/CapSense.c ****             sensorState = (uint32)CapSense__GROUND;
 1340              		.loc 1 1179 0
 1341 0070 0023     		mov	r3, #0
 1342 0072 BB61     		str	r3, [r7, #24]
 1343              	.L67:
1180:Generated_Source\PSoC4/CapSense.c ****         }
1181:Generated_Source\PSoC4/CapSense.c ****     #endif /* (CapSense_IS_SHIELD_ENABLE) */
1182:Generated_Source\PSoC4/CapSense.c ****         if(sensorState != (uint32)CapSense__HIZ_ANALOG)
 1344              		.loc 1 1182 0
 1345 0074 BB69     		ldr	r3, [r7, #24]
 1346 0076 012B     		cmp	r3, #1
 1347 0078 01D0     		beq	.L68
1183:Generated_Source\PSoC4/CapSense.c ****         {
1184:Generated_Source\PSoC4/CapSense.c ****             /* Connected to Ground */
1185:Generated_Source\PSoC4/CapSense.c ****             inactiveConnect = (uint32)CapSense_SNS_GROUND_CONNECT;
 1348              		.loc 1 1185 0
 1349 007a 0623     		mov	r3, #6
 1350 007c FB61     		str	r3, [r7, #28]
 1351              	.L68:
1186:Generated_Source\PSoC4/CapSense.c ****         }
1187:Generated_Source\PSoC4/CapSense.c **** 
1188:Generated_Source\PSoC4/CapSense.c ****         interruptState = CyEnterCriticalSection();
 1352              		.loc 1 1188 0
 1353 007e 1123     		mov	r3, #17
 1354 0080 FC18     		add	r4, r7, r3
 1355 0082 FFF7FEFF 		bl	CyEnterCriticalSection
 1356 0086 031C     		mov	r3, r0
 1357 0088 2370     		strb	r3, [r4]
1189:Generated_Source\PSoC4/CapSense.c **** 
1190:Generated_Source\PSoC4/CapSense.c ****         /* Set drive mode */
1191:Generated_Source\PSoC4/CapSense.c ****         newRegisterValue = *CapSense_prtCfgTbl[port];
 1358              		.loc 1 1191 0
 1359 008a 214B     		ldr	r3, .L69+16
 1360 008c 7A69     		ldr	r2, [r7, #20]
 1361 008e 9200     		lsl	r2, r2, #2
 1362 0090 D358     		ldr	r3, [r2, r3]
ARM GAS  C:\Users\poornima\AppData\Local\Temp\ccI9K5HH.s 			page 46


 1363 0092 1B68     		ldr	r3, [r3]
 1364 0094 FB60     		str	r3, [r7, #12]
1192:Generated_Source\PSoC4/CapSense.c ****         newRegisterValue &= ~(CapSense_CSD_PIN_MODE_MASK << pinModeShift);
 1365              		.loc 1 1192 0
 1366 0096 1223     		mov	r3, #18
 1367 0098 FB18     		add	r3, r7, r3
 1368 009a 1B78     		ldrb	r3, [r3]
 1369 009c 0722     		mov	r2, #7
 1370 009e 9A40     		lsl	r2, r2, r3
 1371 00a0 131C     		mov	r3, r2
 1372 00a2 DA43     		mvn	r2, r3
 1373 00a4 FB68     		ldr	r3, [r7, #12]
 1374 00a6 1340     		and	r3, r2
 1375 00a8 FB60     		str	r3, [r7, #12]
1193:Generated_Source\PSoC4/CapSense.c ****         newRegisterValue |=  (uint32)(inactiveConnect << pinModeShift);
 1376              		.loc 1 1193 0
 1377 00aa 1223     		mov	r3, #18
 1378 00ac FB18     		add	r3, r7, r3
 1379 00ae 1B78     		ldrb	r3, [r3]
 1380 00b0 FA69     		ldr	r2, [r7, #28]
 1381 00b2 9A40     		lsl	r2, r2, r3
 1382 00b4 131C     		mov	r3, r2
 1383 00b6 FA68     		ldr	r2, [r7, #12]
 1384 00b8 1343     		orr	r3, r2
 1385 00ba FB60     		str	r3, [r7, #12]
1194:Generated_Source\PSoC4/CapSense.c ****         *CapSense_prtCfgTbl[port] =  newRegisterValue;
 1386              		.loc 1 1194 0
 1387 00bc 144B     		ldr	r3, .L69+16
 1388 00be 7A69     		ldr	r2, [r7, #20]
 1389 00c0 9200     		lsl	r2, r2, #2
 1390 00c2 D358     		ldr	r3, [r2, r3]
 1391 00c4 FA68     		ldr	r2, [r7, #12]
 1392 00c6 1A60     		str	r2, [r3]
1195:Generated_Source\PSoC4/CapSense.c **** 
1196:Generated_Source\PSoC4/CapSense.c ****         CyExitCriticalSection(interruptState);
 1393              		.loc 1 1196 0
 1394 00c8 1123     		mov	r3, #17
 1395 00ca FB18     		add	r3, r7, r3
 1396 00cc 1B78     		ldrb	r3, [r3]
 1397 00ce 181C     		mov	r0, r3
 1398 00d0 FFF7FEFF 		bl	CyExitCriticalSection
1197:Generated_Source\PSoC4/CapSense.c **** 
1198:Generated_Source\PSoC4/CapSense.c ****         *CapSense_prtDRTbl[port]  &=  (uint32)~(uint32)((uint32)1u << CapSense_pinShiftTbl[sensor])
 1399              		.loc 1 1198 0
 1400 00d4 0F4B     		ldr	r3, .L69+20
 1401 00d6 7A69     		ldr	r2, [r7, #20]
 1402 00d8 9200     		lsl	r2, r2, #2
 1403 00da D358     		ldr	r3, [r2, r3]
 1404 00dc 0D4A     		ldr	r2, .L69+20
 1405 00de 7969     		ldr	r1, [r7, #20]
 1406 00e0 8900     		lsl	r1, r1, #2
 1407 00e2 8A58     		ldr	r2, [r1, r2]
 1408 00e4 1268     		ldr	r2, [r2]
 1409 00e6 0748     		ldr	r0, .L69+4
 1410 00e8 7968     		ldr	r1, [r7, #4]
 1411 00ea 4118     		add	r1, r0, r1
 1412 00ec 0978     		ldrb	r1, [r1]
ARM GAS  C:\Users\poornima\AppData\Local\Temp\ccI9K5HH.s 			page 47


 1413 00ee 081C     		mov	r0, r1
 1414 00f0 0121     		mov	r1, #1
 1415 00f2 8140     		lsl	r1, r1, r0
 1416 00f4 C943     		mvn	r1, r1
 1417 00f6 0A40     		and	r2, r1
 1418 00f8 1A60     		str	r2, [r3]
1199:Generated_Source\PSoC4/CapSense.c ****     #if(CapSense_IS_SHIELD_ENABLE != 0)
1200:Generated_Source\PSoC4/CapSense.c ****     }
1201:Generated_Source\PSoC4/CapSense.c ****     else
1202:Generated_Source\PSoC4/CapSense.c ****     {
1203:Generated_Source\PSoC4/CapSense.c ****         /* Connect to Shield */
1204:Generated_Source\PSoC4/CapSense.c ****         *CapSense_prtSelTbl[port] |= (CapSense_CSD_SHIELD_PORT_MODE << pinHSIOMShift);
1205:Generated_Source\PSoC4/CapSense.c ****     }
1206:Generated_Source\PSoC4/CapSense.c ****     #endif /* (CapSense_IS_SHIELD_ENABLE) */
1207:Generated_Source\PSoC4/CapSense.c **** }
 1419              		.loc 1 1207 0
 1420 00fa BD46     		mov	sp, r7
 1421 00fc 09B0     		add	sp, sp, #36
 1422              		@ sp needed
 1423 00fe 90BD     		pop	{r4, r7, pc}
 1424              	.L70:
 1425              		.align	2
 1426              	.L69:
 1427 0100 00000000 		.word	CapSense_portTable
 1428 0104 00000000 		.word	CapSense_pinShiftTbl
 1429 0108 00000000 		.word	CapSense_unscannedSnsDriveMode
 1430 010c 00000000 		.word	CapSense_prtSelTbl
 1431 0110 00000000 		.word	CapSense_prtCfgTbl
 1432 0114 00000000 		.word	CapSense_prtDRTbl
 1433              		.cfi_endproc
 1434              	.LFE51:
 1435              		.size	CapSense_DisableSensor, .-CapSense_DisableSensor
 1436              		.section	.text.CapSense_SetDriveModeAllPins,"ax",%progbits
 1437              		.align	2
 1438              		.global	CapSense_SetDriveModeAllPins
 1439              		.code	16
 1440              		.thumb_func
 1441              		.type	CapSense_SetDriveModeAllPins, %function
 1442              	CapSense_SetDriveModeAllPins:
 1443              	.LFB52:
1208:Generated_Source\PSoC4/CapSense.c **** 
1209:Generated_Source\PSoC4/CapSense.c **** 
1210:Generated_Source\PSoC4/CapSense.c **** /*******************************************************************************
1211:Generated_Source\PSoC4/CapSense.c **** * Function Name: CapSense_SetDriveModeAllPins
1212:Generated_Source\PSoC4/CapSense.c **** ********************************************************************************
1213:Generated_Source\PSoC4/CapSense.c **** *
1214:Generated_Source\PSoC4/CapSense.c **** * Summary:
1215:Generated_Source\PSoC4/CapSense.c **** * This API sets the drive mode of port pins used by the CapSense
1216:Generated_Source\PSoC4/CapSense.c **** * component (sensors, guard, shield, shield tank and Cmod) to drive the
1217:Generated_Source\PSoC4/CapSense.c **** * mode specified by the argument.
1218:Generated_Source\PSoC4/CapSense.c **** *
1219:Generated_Source\PSoC4/CapSense.c **** * Parameters:
1220:Generated_Source\PSoC4/CapSense.c **** *  driveMode:  Drive mode definition.
1221:Generated_Source\PSoC4/CapSense.c **** *
1222:Generated_Source\PSoC4/CapSense.c **** * Return:
1223:Generated_Source\PSoC4/CapSense.c **** *  None
1224:Generated_Source\PSoC4/CapSense.c **** *
ARM GAS  C:\Users\poornima\AppData\Local\Temp\ccI9K5HH.s 			page 48


1225:Generated_Source\PSoC4/CapSense.c **** * Global Variables:
1226:Generated_Source\PSoC4/CapSense.c **** *  CapSense_portTable[] - used to store the port number that pin
1227:Generated_Source\PSoC4/CapSense.c **** *  belongs to for each sensor.
1228:Generated_Source\PSoC4/CapSense.c **** *  CapSense_pinShiftTbl[] - used to store position of pin that
1229:Generated_Source\PSoC4/CapSense.c **** *  configured as a sensor in the port.
1230:Generated_Source\PSoC4/CapSense.c **** *
1231:Generated_Source\PSoC4/CapSense.c **** * Side Effects:
1232:Generated_Source\PSoC4/CapSense.c **** *  This API shall be called only after CapSense component is stopped.
1233:Generated_Source\PSoC4/CapSense.c **** *
1234:Generated_Source\PSoC4/CapSense.c **** *******************************************************************************/
1235:Generated_Source\PSoC4/CapSense.c **** void CapSense_SetDriveModeAllPins(uint32 driveMode)
1236:Generated_Source\PSoC4/CapSense.c **** {
 1444              		.loc 1 1236 0
 1445              		.cfi_startproc
 1446 0000 80B5     		push	{r7, lr}
 1447              		.cfi_def_cfa_offset 8
 1448              		.cfi_offset 7, -8
 1449              		.cfi_offset 14, -4
 1450 0002 86B0     		sub	sp, sp, #24
 1451              		.cfi_def_cfa_offset 32
 1452 0004 00AF     		add	r7, sp, #0
 1453              		.cfi_def_cfa_register 7
 1454 0006 7860     		str	r0, [r7, #4]
1237:Generated_Source\PSoC4/CapSense.c ****     uint8 curSensor;
1238:Generated_Source\PSoC4/CapSense.c ****     #if (CapSense_IS_COMPLEX_SCANSLOTS)
1239:Generated_Source\PSoC4/CapSense.c ****         uint8 snsNumber;
1240:Generated_Source\PSoC4/CapSense.c ****         uint8 snsType;
1241:Generated_Source\PSoC4/CapSense.c ****     #endif  /* CapSense_IS_COMPLEX_SCANSLOTS */
1242:Generated_Source\PSoC4/CapSense.c ****     uint32 prtNumberTmp;
1243:Generated_Source\PSoC4/CapSense.c ****     uint32 pinNumberTmp;
1244:Generated_Source\PSoC4/CapSense.c **** 
1245:Generated_Source\PSoC4/CapSense.c ****     for(curSensor = 0u; curSensor < CapSense_TOTAL_SENSOR_COUNT; curSensor++)
 1455              		.loc 1 1245 0
 1456 0008 1723     		mov	r3, #23
 1457 000a FB18     		add	r3, r7, r3
 1458 000c 0022     		mov	r2, #0
 1459 000e 1A70     		strb	r2, [r3]
 1460 0010 1AE0     		b	.L72
 1461              	.L73:
1246:Generated_Source\PSoC4/CapSense.c ****     {
1247:Generated_Source\PSoC4/CapSense.c ****         #if (CapSense_IS_COMPLEX_SCANSLOTS)
1248:Generated_Source\PSoC4/CapSense.c ****             /* Read sensor type: single or complex */
1249:Generated_Source\PSoC4/CapSense.c ****             snsType = CapSense_portTable[curSensor];
1250:Generated_Source\PSoC4/CapSense.c **** 
1251:Generated_Source\PSoC4/CapSense.c ****             /* Check if sensor is complex */
1252:Generated_Source\PSoC4/CapSense.c ****             if ((snsType & CapSense_COMPLEX_SS_FLAG) == 0u)
1253:Generated_Source\PSoC4/CapSense.c ****             {
1254:Generated_Source\PSoC4/CapSense.c ****                 /* The sensor is not complex */
1255:Generated_Source\PSoC4/CapSense.c ****                 snsNumber = curSensor;
1256:Generated_Source\PSoC4/CapSense.c ****             }
1257:Generated_Source\PSoC4/CapSense.c ****             else
1258:Generated_Source\PSoC4/CapSense.c ****             {
1259:Generated_Source\PSoC4/CapSense.c ****                 /* Get dedicated sensor ID of the complex sensor */
1260:Generated_Source\PSoC4/CapSense.c ****                 snsType &= ~CapSense_COMPLEX_SS_FLAG;
1261:Generated_Source\PSoC4/CapSense.c ****                 snsNumber = CapSense_indexTable[snsType];
1262:Generated_Source\PSoC4/CapSense.c ****             }
1263:Generated_Source\PSoC4/CapSense.c **** 
ARM GAS  C:\Users\poornima\AppData\Local\Temp\ccI9K5HH.s 			page 49


1264:Generated_Source\PSoC4/CapSense.c ****             prtNumberTmp = CapSense_portTable[snsNumber];
1265:Generated_Source\PSoC4/CapSense.c ****             pinNumberTmp = CapSense_pinShiftTbl[snsNumber];
1266:Generated_Source\PSoC4/CapSense.c ****         #else
1267:Generated_Source\PSoC4/CapSense.c ****             prtNumberTmp = CapSense_portTable[curSensor];
 1462              		.loc 1 1267 0 discriminator 3
 1463 0012 1723     		mov	r3, #23
 1464 0014 FB18     		add	r3, r7, r3
 1465 0016 1B78     		ldrb	r3, [r3]
 1466 0018 124A     		ldr	r2, .L74
 1467 001a D35C     		ldrb	r3, [r2, r3]
 1468 001c 3B61     		str	r3, [r7, #16]
1268:Generated_Source\PSoC4/CapSense.c ****             pinNumberTmp = CapSense_pinShiftTbl[curSensor];
 1469              		.loc 1 1268 0 discriminator 3
 1470 001e 1723     		mov	r3, #23
 1471 0020 FB18     		add	r3, r7, r3
 1472 0022 1B78     		ldrb	r3, [r3]
 1473 0024 104A     		ldr	r2, .L74+4
 1474 0026 D35C     		ldrb	r3, [r2, r3]
 1475 0028 FB60     		str	r3, [r7, #12]
1269:Generated_Source\PSoC4/CapSense.c ****         #endif  /* CapSense_IS_COMPLEX_SCANSLOTS */
1270:Generated_Source\PSoC4/CapSense.c **** 
1271:Generated_Source\PSoC4/CapSense.c ****         CapSense_SetPinDriveMode(driveMode, pinNumberTmp, prtNumberTmp);
 1476              		.loc 1 1271 0 discriminator 3
 1477 002a 7968     		ldr	r1, [r7, #4]
 1478 002c FA68     		ldr	r2, [r7, #12]
 1479 002e 3B69     		ldr	r3, [r7, #16]
 1480 0030 081C     		mov	r0, r1
 1481 0032 111C     		mov	r1, r2
 1482 0034 1A1C     		mov	r2, r3
 1483 0036 FFF7FEFF 		bl	CapSense_SetPinDriveMode
1245:Generated_Source\PSoC4/CapSense.c ****     {
 1484              		.loc 1 1245 0 discriminator 3
 1485 003a 1723     		mov	r3, #23
 1486 003c FB18     		add	r3, r7, r3
 1487 003e 1A78     		ldrb	r2, [r3]
 1488 0040 1723     		mov	r3, #23
 1489 0042 FB18     		add	r3, r7, r3
 1490 0044 0132     		add	r2, r2, #1
 1491 0046 1A70     		strb	r2, [r3]
 1492              	.L72:
1245:Generated_Source\PSoC4/CapSense.c ****     {
 1493              		.loc 1 1245 0 is_stmt 0 discriminator 1
 1494 0048 1723     		mov	r3, #23
 1495 004a FB18     		add	r3, r7, r3
 1496 004c 1B78     		ldrb	r3, [r3]
 1497 004e 0F2B     		cmp	r3, #15
 1498 0050 DFD9     		bls	.L73
1272:Generated_Source\PSoC4/CapSense.c ****     }
1273:Generated_Source\PSoC4/CapSense.c **** 
1274:Generated_Source\PSoC4/CapSense.c ****     CapSense_SetPinDriveMode(driveMode, (uint32)CapSense_CMOD_PIN_NUMBER, (uint32)CapSense_CMOD_PRT
 1499              		.loc 1 1274 0 is_stmt 1
 1500 0052 7B68     		ldr	r3, [r7, #4]
 1501 0054 181C     		mov	r0, r3
 1502 0056 0221     		mov	r1, #2
 1503 0058 0422     		mov	r2, #4
 1504 005a FFF7FEFF 		bl	CapSense_SetPinDriveMode
1275:Generated_Source\PSoC4/CapSense.c **** 
ARM GAS  C:\Users\poornima\AppData\Local\Temp\ccI9K5HH.s 			page 50


1276:Generated_Source\PSoC4/CapSense.c ****     #if(0u != CapSense_CSH_TANK_ENABLE)
1277:Generated_Source\PSoC4/CapSense.c ****         CapSense_SetPinDriveMode(driveMode, (uint32)CapSense_CTANK_PIN_NUMBER, (uint32)CapSense_CTA
1278:Generated_Source\PSoC4/CapSense.c ****     #endif /* (0u != CapSense_CSH_TANK_ENABLE) */
1279:Generated_Source\PSoC4/CapSense.c **** 
1280:Generated_Source\PSoC4/CapSense.c ****     #if(0u != CapSense_IS_SHIELD_ENABLE)
1281:Generated_Source\PSoC4/CapSense.c ****         CapSense_SetPinDriveMode(driveMode, (uint32)CapSense_SHIELD_PIN_NUMBER, (uint32)CapSense_SH
1282:Generated_Source\PSoC4/CapSense.c ****     #endif /* (0u != CapSense_IS_SHIELD_ENABLE) */
1283:Generated_Source\PSoC4/CapSense.c **** }
 1505              		.loc 1 1283 0
 1506 005e BD46     		mov	sp, r7
 1507 0060 06B0     		add	sp, sp, #24
 1508              		@ sp needed
 1509 0062 80BD     		pop	{r7, pc}
 1510              	.L75:
 1511              		.align	2
 1512              	.L74:
 1513 0064 00000000 		.word	CapSense_portTable
 1514 0068 00000000 		.word	CapSense_pinShiftTbl
 1515              		.cfi_endproc
 1516              	.LFE52:
 1517              		.size	CapSense_SetDriveModeAllPins, .-CapSense_SetDriveModeAllPins
 1518              		.section	.text.CapSense_RestoreDriveModeAllPins,"ax",%progbits
 1519              		.align	2
 1520              		.global	CapSense_RestoreDriveModeAllPins
 1521              		.code	16
 1522              		.thumb_func
 1523              		.type	CapSense_RestoreDriveModeAllPins, %function
 1524              	CapSense_RestoreDriveModeAllPins:
 1525              	.LFB53:
1284:Generated_Source\PSoC4/CapSense.c **** 
1285:Generated_Source\PSoC4/CapSense.c **** 
1286:Generated_Source\PSoC4/CapSense.c **** /*******************************************************************************
1287:Generated_Source\PSoC4/CapSense.c **** * Function Name: CapSense_RestoreDriveModeAllPins
1288:Generated_Source\PSoC4/CapSense.c **** ********************************************************************************
1289:Generated_Source\PSoC4/CapSense.c **** *
1290:Generated_Source\PSoC4/CapSense.c **** * Summary:
1291:Generated_Source\PSoC4/CapSense.c **** *  This API restores the drive for all the CapSense port pins to the original
1292:Generated_Source\PSoC4/CapSense.c **** *  state.
1293:Generated_Source\PSoC4/CapSense.c **** *
1294:Generated_Source\PSoC4/CapSense.c **** * Parameters:
1295:Generated_Source\PSoC4/CapSense.c **** *  None
1296:Generated_Source\PSoC4/CapSense.c **** *
1297:Generated_Source\PSoC4/CapSense.c **** * Return:
1298:Generated_Source\PSoC4/CapSense.c **** *  None
1299:Generated_Source\PSoC4/CapSense.c **** *
1300:Generated_Source\PSoC4/CapSense.c **** * Global Variables:
1301:Generated_Source\PSoC4/CapSense.c **** *  CapSense_prtSelTbl[] - Contains pointers to the HSIOM
1302:Generated_Source\PSoC4/CapSense.c **** *  registers for each port.
1303:Generated_Source\PSoC4/CapSense.c **** *
1304:Generated_Source\PSoC4/CapSense.c **** * Side Effects:
1305:Generated_Source\PSoC4/CapSense.c **** *  This API is called only after the CapSense component is stopped.
1306:Generated_Source\PSoC4/CapSense.c **** *
1307:Generated_Source\PSoC4/CapSense.c **** *******************************************************************************/
1308:Generated_Source\PSoC4/CapSense.c **** void CapSense_RestoreDriveModeAllPins(void)
1309:Generated_Source\PSoC4/CapSense.c **** {
 1526              		.loc 1 1309 0
 1527              		.cfi_startproc
ARM GAS  C:\Users\poornima\AppData\Local\Temp\ccI9K5HH.s 			page 51


 1528 0000 80B5     		push	{r7, lr}
 1529              		.cfi_def_cfa_offset 8
 1530              		.cfi_offset 7, -8
 1531              		.cfi_offset 14, -4
 1532 0002 82B0     		sub	sp, sp, #8
 1533              		.cfi_def_cfa_offset 16
 1534 0004 00AF     		add	r7, sp, #0
 1535              		.cfi_def_cfa_register 7
1310:Generated_Source\PSoC4/CapSense.c ****     uint32 newRegisterValue;
1311:Generated_Source\PSoC4/CapSense.c **** 
1312:Generated_Source\PSoC4/CapSense.c ****     CapSense_SetDriveModeAllPins(CY_SYS_PINS_DM_ALG_HIZ);
 1536              		.loc 1 1312 0
 1537 0006 0020     		mov	r0, #0
 1538 0008 FFF7FEFF 		bl	CapSense_SetDriveModeAllPins
1313:Generated_Source\PSoC4/CapSense.c **** 
1314:Generated_Source\PSoC4/CapSense.c ****     newRegisterValue = CapSense_CMOD_CONNECTION_REG;
 1539              		.loc 1 1314 0
 1540 000c 084B     		ldr	r3, .L77
 1541 000e 1B68     		ldr	r3, [r3]
 1542 0010 7B60     		str	r3, [r7, #4]
1315:Generated_Source\PSoC4/CapSense.c ****     newRegisterValue &= ~(CapSense_CSD_CMOD_CONNECTION_MASK);
 1543              		.loc 1 1315 0
 1544 0012 7B68     		ldr	r3, [r7, #4]
 1545 0014 074A     		ldr	r2, .L77+4
 1546 0016 1340     		and	r3, r2
 1547 0018 7B60     		str	r3, [r7, #4]
1316:Generated_Source\PSoC4/CapSense.c ****     newRegisterValue |= CapSense_CSD_CMOD_TO_AMUXBUS_A;
 1548              		.loc 1 1316 0
 1549 001a 7B68     		ldr	r3, [r7, #4]
 1550 001c C022     		mov	r2, #192
 1551 001e D200     		lsl	r2, r2, #3
 1552 0020 1343     		orr	r3, r2
 1553 0022 7B60     		str	r3, [r7, #4]
1317:Generated_Source\PSoC4/CapSense.c ****     CapSense_CMOD_CONNECTION_REG = newRegisterValue;
 1554              		.loc 1 1317 0
 1555 0024 024B     		ldr	r3, .L77
 1556 0026 7A68     		ldr	r2, [r7, #4]
 1557 0028 1A60     		str	r2, [r3]
1318:Generated_Source\PSoC4/CapSense.c **** 
1319:Generated_Source\PSoC4/CapSense.c ****     #if(0u != CapSense_CSH_TANK_ENABLE)
1320:Generated_Source\PSoC4/CapSense.c ****         newRegisterValue = CapSense_CTANK_CONNECTION_REG;
1321:Generated_Source\PSoC4/CapSense.c ****         newRegisterValue &= ~(CapSense_CSD_CTANK_CONNECTION_MASK);
1322:Generated_Source\PSoC4/CapSense.c ****         newRegisterValue |= CapSense_CSD_CTANK_TO_AMUXBUS_B;
1323:Generated_Source\PSoC4/CapSense.c ****         CapSense_CTANK_CONNECTION_REG = newRegisterValue;
1324:Generated_Source\PSoC4/CapSense.c ****     #endif/* (0u != CapSense_CSH_TANK_ENABLE) */
1325:Generated_Source\PSoC4/CapSense.c **** 
1326:Generated_Source\PSoC4/CapSense.c ****     #if(0u != CapSense_IS_SHIELD_ENABLE)
1327:Generated_Source\PSoC4/CapSense.c ****         newRegisterValue = *CapSense_prtSelTbl[CapSense_SHIELD_PORT_NUMBER];
1328:Generated_Source\PSoC4/CapSense.c ****         newRegisterValue &= ~(CapSense_CSD_HSIOM_MASK << ((uint32)CapSense_SHIELD_PIN_NUMBER * CapS
1329:Generated_Source\PSoC4/CapSense.c ****         newRegisterValue |= (CapSense_CSD_SHIELD_PORT_MODE << ((uint32)CapSense_SHIELD_PIN_NUMBER *
1330:Generated_Source\PSoC4/CapSense.c ****         *CapSense_prtSelTbl[CapSense_SHIELD_PORT_NUMBER] = newRegisterValue;
1331:Generated_Source\PSoC4/CapSense.c ****     #endif /* (0u != CapSense_IS_SHIELD_ENABLE) */
1332:Generated_Source\PSoC4/CapSense.c **** }
 1558              		.loc 1 1332 0
 1559 002a BD46     		mov	sp, r7
 1560 002c 02B0     		add	sp, sp, #8
 1561              		@ sp needed
ARM GAS  C:\Users\poornima\AppData\Local\Temp\ccI9K5HH.s 			page 52


 1562 002e 80BD     		pop	{r7, pc}
 1563              	.L78:
 1564              		.align	2
 1565              	.L77:
 1566 0030 00040240 		.word	1073873920
 1567 0034 FFF0FFFF 		.word	-3841
 1568              		.cfi_endproc
 1569              	.LFE53:
 1570              		.size	CapSense_RestoreDriveModeAllPins, .-CapSense_RestoreDriveModeAllPins
 1571              		.section	.text.CapSense_SetPinDriveMode,"ax",%progbits
 1572              		.align	2
 1573              		.global	CapSense_SetPinDriveMode
 1574              		.code	16
 1575              		.thumb_func
 1576              		.type	CapSense_SetPinDriveMode, %function
 1577              	CapSense_SetPinDriveMode:
 1578              	.LFB54:
1333:Generated_Source\PSoC4/CapSense.c **** 
1334:Generated_Source\PSoC4/CapSense.c **** 
1335:Generated_Source\PSoC4/CapSense.c **** /*******************************************************************************
1336:Generated_Source\PSoC4/CapSense.c **** * Function Name: CapSense_SetPinDriveMode
1337:Generated_Source\PSoC4/CapSense.c **** ********************************************************************************
1338:Generated_Source\PSoC4/CapSense.c **** *
1339:Generated_Source\PSoC4/CapSense.c **** * Summary:
1340:Generated_Source\PSoC4/CapSense.c **** * This API sets the drive mode for the appropriate port/pin.
1341:Generated_Source\PSoC4/CapSense.c **** *
1342:Generated_Source\PSoC4/CapSense.c **** * Parameters:
1343:Generated_Source\PSoC4/CapSense.c **** *  driveMode:  Drive mode definition.
1344:Generated_Source\PSoC4/CapSense.c **** *  portNumber: contains port number (0, 1, 2).
1345:Generated_Source\PSoC4/CapSense.c **** *  pinNumber: contains pin number (0, 1, 2, ... , 7).
1346:Generated_Source\PSoC4/CapSense.c **** *
1347:Generated_Source\PSoC4/CapSense.c **** * Return:
1348:Generated_Source\PSoC4/CapSense.c **** *  None
1349:Generated_Source\PSoC4/CapSense.c **** *
1350:Generated_Source\PSoC4/CapSense.c **** * Global Variables:
1351:Generated_Source\PSoC4/CapSense.c **** *  CapSense_prtSelTbl[] - Contains pointers to the HSIOM
1352:Generated_Source\PSoC4/CapSense.c **** *  registers for each port.
1353:Generated_Source\PSoC4/CapSense.c **** *  CapSense_prtCfgTb[] - Contains pointers to the port config
1354:Generated_Source\PSoC4/CapSense.c **** *  registers for each port.
1355:Generated_Source\PSoC4/CapSense.c **** *
1356:Generated_Source\PSoC4/CapSense.c **** * Side Effects:
1357:Generated_Source\PSoC4/CapSense.c **** *  This API is called only after CapSense component is stopped.
1358:Generated_Source\PSoC4/CapSense.c **** *
1359:Generated_Source\PSoC4/CapSense.c **** *******************************************************************************/
1360:Generated_Source\PSoC4/CapSense.c **** void CapSense_SetPinDriveMode(uint32 driveMode, uint32 pinNumber, uint32 portNumber)
1361:Generated_Source\PSoC4/CapSense.c **** {
 1579              		.loc 1 1361 0
 1580              		.cfi_startproc
 1581 0000 80B5     		push	{r7, lr}
 1582              		.cfi_def_cfa_offset 8
 1583              		.cfi_offset 7, -8
 1584              		.cfi_offset 14, -4
 1585 0002 86B0     		sub	sp, sp, #24
 1586              		.cfi_def_cfa_offset 32
 1587 0004 00AF     		add	r7, sp, #0
 1588              		.cfi_def_cfa_register 7
 1589 0006 F860     		str	r0, [r7, #12]
ARM GAS  C:\Users\poornima\AppData\Local\Temp\ccI9K5HH.s 			page 53


 1590 0008 B960     		str	r1, [r7, #8]
 1591 000a 7A60     		str	r2, [r7, #4]
1362:Generated_Source\PSoC4/CapSense.c ****     uint32  pinModeShift;
1363:Generated_Source\PSoC4/CapSense.c ****     uint32 newRegisterValue;
1364:Generated_Source\PSoC4/CapSense.c **** 
1365:Generated_Source\PSoC4/CapSense.c ****     pinModeShift  = pinNumber * CapSense_PC_PIN_CFG_SIZE;
 1592              		.loc 1 1365 0
 1593 000c BA68     		ldr	r2, [r7, #8]
 1594 000e 131C     		mov	r3, r2
 1595 0010 5B00     		lsl	r3, r3, #1
 1596 0012 9B18     		add	r3, r3, r2
 1597 0014 7B61     		str	r3, [r7, #20]
1366:Generated_Source\PSoC4/CapSense.c **** 
1367:Generated_Source\PSoC4/CapSense.c ****     newRegisterValue = *CapSense_prtCfgTbl[portNumber];
 1598              		.loc 1 1367 0
 1599 0016 0F4B     		ldr	r3, .L80
 1600 0018 7A68     		ldr	r2, [r7, #4]
 1601 001a 9200     		lsl	r2, r2, #2
 1602 001c D358     		ldr	r3, [r2, r3]
 1603 001e 1B68     		ldr	r3, [r3]
 1604 0020 3B61     		str	r3, [r7, #16]
1368:Generated_Source\PSoC4/CapSense.c ****     newRegisterValue &= ~(CapSense_CSD_PIN_MODE_MASK << pinModeShift);
 1605              		.loc 1 1368 0
 1606 0022 7B69     		ldr	r3, [r7, #20]
 1607 0024 0722     		mov	r2, #7
 1608 0026 9A40     		lsl	r2, r2, r3
 1609 0028 131C     		mov	r3, r2
 1610 002a DA43     		mvn	r2, r3
 1611 002c 3B69     		ldr	r3, [r7, #16]
 1612 002e 1340     		and	r3, r2
 1613 0030 3B61     		str	r3, [r7, #16]
1369:Generated_Source\PSoC4/CapSense.c ****     newRegisterValue |=  (uint32)((uint32)driveMode << pinModeShift);
 1614              		.loc 1 1369 0
 1615 0032 7B69     		ldr	r3, [r7, #20]
 1616 0034 FA68     		ldr	r2, [r7, #12]
 1617 0036 9A40     		lsl	r2, r2, r3
 1618 0038 131C     		mov	r3, r2
 1619 003a 3A69     		ldr	r2, [r7, #16]
 1620 003c 1343     		orr	r3, r2
 1621 003e 3B61     		str	r3, [r7, #16]
1370:Generated_Source\PSoC4/CapSense.c ****     *CapSense_prtCfgTbl[portNumber] =  newRegisterValue;
 1622              		.loc 1 1370 0
 1623 0040 044B     		ldr	r3, .L80
 1624 0042 7A68     		ldr	r2, [r7, #4]
 1625 0044 9200     		lsl	r2, r2, #2
 1626 0046 D358     		ldr	r3, [r2, r3]
 1627 0048 3A69     		ldr	r2, [r7, #16]
 1628 004a 1A60     		str	r2, [r3]
1371:Generated_Source\PSoC4/CapSense.c **** }
 1629              		.loc 1 1371 0
 1630 004c BD46     		mov	sp, r7
 1631 004e 06B0     		add	sp, sp, #24
 1632              		@ sp needed
 1633 0050 80BD     		pop	{r7, pc}
 1634              	.L81:
 1635 0052 C046     		.align	2
 1636              	.L80:
ARM GAS  C:\Users\poornima\AppData\Local\Temp\ccI9K5HH.s 			page 54


 1637 0054 00000000 		.word	CapSense_prtCfgTbl
 1638              		.cfi_endproc
 1639              	.LFE54:
 1640              		.size	CapSense_SetPinDriveMode, .-CapSense_SetPinDriveMode
 1641              		.section	.text.CapSense_PreScan,"ax",%progbits
 1642              		.align	2
 1643              		.global	CapSense_PreScan
 1644              		.code	16
 1645              		.thumb_func
 1646              		.type	CapSense_PreScan, %function
 1647              	CapSense_PreScan:
 1648              	.LFB55:
1372:Generated_Source\PSoC4/CapSense.c **** 
1373:Generated_Source\PSoC4/CapSense.c **** 
1374:Generated_Source\PSoC4/CapSense.c **** /*******************************************************************************
1375:Generated_Source\PSoC4/CapSense.c **** * Function Name: CapSense_PreScan
1376:Generated_Source\PSoC4/CapSense.c **** ********************************************************************************
1377:Generated_Source\PSoC4/CapSense.c **** *
1378:Generated_Source\PSoC4/CapSense.c **** * Summary:
1379:Generated_Source\PSoC4/CapSense.c **** *  Sets required settings, enables a sensor, removes Vref from AMUX and starts the
1380:Generated_Source\PSoC4/CapSense.c **** *  scanning process of the sensor.
1381:Generated_Source\PSoC4/CapSense.c **** *
1382:Generated_Source\PSoC4/CapSense.c **** * Parameters:
1383:Generated_Source\PSoC4/CapSense.c **** *  sensor:  Sensor number.
1384:Generated_Source\PSoC4/CapSense.c **** *
1385:Generated_Source\PSoC4/CapSense.c **** * Return:
1386:Generated_Source\PSoC4/CapSense.c **** *  None
1387:Generated_Source\PSoC4/CapSense.c **** *
1388:Generated_Source\PSoC4/CapSense.c **** * Global Variables:
1389:Generated_Source\PSoC4/CapSense.c **** * CapSense_widgetNumber[] - This array contains numbers of widgets for each sensor.
1390:Generated_Source\PSoC4/CapSense.c **** * CapSense_widgetResolution[] - Contains the widget resolution.
1391:Generated_Source\PSoC4/CapSense.c **** *
1392:Generated_Source\PSoC4/CapSense.c **** * Side Effects:
1393:Generated_Source\PSoC4/CapSense.c **** *  None
1394:Generated_Source\PSoC4/CapSense.c **** *
1395:Generated_Source\PSoC4/CapSense.c **** *******************************************************************************/
1396:Generated_Source\PSoC4/CapSense.c **** void CapSense_PreScan(uint32 sensor)
1397:Generated_Source\PSoC4/CapSense.c **** {
 1649              		.loc 1 1397 0
 1650              		.cfi_startproc
 1651 0000 90B5     		push	{r4, r7, lr}
 1652              		.cfi_def_cfa_offset 12
 1653              		.cfi_offset 4, -12
 1654              		.cfi_offset 7, -8
 1655              		.cfi_offset 14, -4
 1656 0002 87B0     		sub	sp, sp, #28
 1657              		.cfi_def_cfa_offset 40
 1658 0004 00AF     		add	r7, sp, #0
 1659              		.cfi_def_cfa_register 7
 1660 0006 7860     		str	r0, [r7, #4]
1398:Generated_Source\PSoC4/CapSense.c ****     uint8 widget;
1399:Generated_Source\PSoC4/CapSense.c ****     uint8 interruptState;
1400:Generated_Source\PSoC4/CapSense.c ****     uint32 newRegValue;
1401:Generated_Source\PSoC4/CapSense.c ****     uint32 counterResolution;
1402:Generated_Source\PSoC4/CapSense.c **** 
1403:Generated_Source\PSoC4/CapSense.c ****     #if(CapSense_PRS_OPTIONS == CapSense__PRS_AUTO)
1404:Generated_Source\PSoC4/CapSense.c ****         uint8 senseClkDivMath;
ARM GAS  C:\Users\poornima\AppData\Local\Temp\ccI9K5HH.s 			page 55


1405:Generated_Source\PSoC4/CapSense.c ****         uint8 sampleClkDivMath;
1406:Generated_Source\PSoC4/CapSense.c ****     #endif /* (CapSense_PRS_OPTIONS == CapSense__PRS_AUTO) */
1407:Generated_Source\PSoC4/CapSense.c **** 
1408:Generated_Source\PSoC4/CapSense.c ****     #if ((CapSense_TUNING_METHOD == CapSense__TUNING_AUTO) &&\
1409:Generated_Source\PSoC4/CapSense.c ****          (0 != CapSense_IS_OVERSAMPLING_EN))
1410:Generated_Source\PSoC4/CapSense.c ****         uint32 oversamplingFactor;
1411:Generated_Source\PSoC4/CapSense.c ****     #endif /* ((CapSense_TUNING_METHOD == CapSense__TUNING_AUTO) &&\
1412:Generated_Source\PSoC4/CapSense.c ****                (0 != CapSense_IS_OVERSAMPLING_EN)) */
1413:Generated_Source\PSoC4/CapSense.c **** 
1414:Generated_Source\PSoC4/CapSense.c ****     /* Define widget sensor belongs to */
1415:Generated_Source\PSoC4/CapSense.c ****     widget = CapSense_widgetNumber[sensor];
 1661              		.loc 1 1415 0
 1662 0008 1723     		mov	r3, #23
 1663 000a FB18     		add	r3, r7, r3
 1664 000c 4249     		ldr	r1, .L84
 1665 000e 7A68     		ldr	r2, [r7, #4]
 1666 0010 8A18     		add	r2, r1, r2
 1667 0012 1278     		ldrb	r2, [r2]
 1668 0014 1A70     		strb	r2, [r3]
1416:Generated_Source\PSoC4/CapSense.c **** 
1417:Generated_Source\PSoC4/CapSense.c ****     /* Recalculate Counter Resolution to MSB 16 bits */
1418:Generated_Source\PSoC4/CapSense.c ****     counterResolution = CapSense_widgetResolution[widget];
 1669              		.loc 1 1418 0
 1670 0016 1723     		mov	r3, #23
 1671 0018 FB18     		add	r3, r7, r3
 1672 001a 1A78     		ldrb	r2, [r3]
 1673 001c 3F4B     		ldr	r3, .L84+4
 1674 001e 9200     		lsl	r2, r2, #2
 1675 0020 D358     		ldr	r3, [r2, r3]
 1676 0022 3B61     		str	r3, [r7, #16]
1419:Generated_Source\PSoC4/CapSense.c **** 
1420:Generated_Source\PSoC4/CapSense.c ****     #if ((CapSense_TUNING_METHOD == CapSense__TUNING_AUTO) &&\
1421:Generated_Source\PSoC4/CapSense.c ****          (0 != CapSense_IS_OVERSAMPLING_EN))
1422:Generated_Source\PSoC4/CapSense.c ****         oversamplingFactor = CapSense_GetBitValue(CapSense_scanSpeedTbl, sensor);
1423:Generated_Source\PSoC4/CapSense.c **** 
1424:Generated_Source\PSoC4/CapSense.c ****         if(counterResolution < CapSense_RESOLUTION_16_BITS)
1425:Generated_Source\PSoC4/CapSense.c ****         {
1426:Generated_Source\PSoC4/CapSense.c ****             counterResolution <<= oversamplingFactor;
1427:Generated_Source\PSoC4/CapSense.c ****             counterResolution |= (uint32)(CapSense_RESOLUTION_8_BITS);
1428:Generated_Source\PSoC4/CapSense.c ****         }
1429:Generated_Source\PSoC4/CapSense.c ****     #endif /* ((CapSense_TUNING_METHOD == CapSense__TUNING_AUTO) &&\
1430:Generated_Source\PSoC4/CapSense.c ****                (0 != CapSense_IS_OVERSAMPLING_EN)) */
1431:Generated_Source\PSoC4/CapSense.c **** 
1432:Generated_Source\PSoC4/CapSense.c ****     #if (0u != CapSense_IS_M0S8PERI_BLOCK)
1433:Generated_Source\PSoC4/CapSense.c ****         CapSense_SenseClk_Stop();
 1677              		.loc 1 1433 0
 1678 0024 FFF7FEFF 		bl	CapSense_SenseClk_Stop
1434:Generated_Source\PSoC4/CapSense.c ****         CapSense_SampleClk_Stop();
 1679              		.loc 1 1434 0
 1680 0028 FFF7FEFF 		bl	CapSense_SampleClk_Stop
1435:Generated_Source\PSoC4/CapSense.c ****     #endif /* (0u != CapSense_IS_M0S8PERI_BLOCK) */
1436:Generated_Source\PSoC4/CapSense.c **** 
1437:Generated_Source\PSoC4/CapSense.c ****     #if (0u != CapSense_MULTIPLE_FREQUENCY_SET)
1438:Generated_Source\PSoC4/CapSense.c ****         CapSense_SampleClk_SetDividerValue((uint16)CapSense_sampleClkDividerVal[sensor]);
 1681              		.loc 1 1438 0
 1682 002c 3C4A     		ldr	r2, .L84+8
 1683 002e 7B68     		ldr	r3, [r7, #4]
ARM GAS  C:\Users\poornima\AppData\Local\Temp\ccI9K5HH.s 			page 56


 1684 0030 D318     		add	r3, r2, r3
 1685 0032 1B78     		ldrb	r3, [r3]
 1686 0034 9BB2     		uxth	r3, r3
 1687 0036 013B     		sub	r3, r3, #1
 1688 0038 9BB2     		uxth	r3, r3
 1689 003a 181C     		mov	r0, r3
 1690 003c 0021     		mov	r1, #0
 1691 003e FFF7FEFF 		bl	CapSense_SampleClk_SetFractionalDividerRegister
1439:Generated_Source\PSoC4/CapSense.c ****         CapSense_SenseClk_SetDividerValue((uint16)CapSense_senseClkDividerVal[sensor]);
 1692              		.loc 1 1439 0
 1693 0042 384A     		ldr	r2, .L84+12
 1694 0044 7B68     		ldr	r3, [r7, #4]
 1695 0046 D318     		add	r3, r2, r3
 1696 0048 1B78     		ldrb	r3, [r3]
 1697 004a 9BB2     		uxth	r3, r3
 1698 004c 013B     		sub	r3, r3, #1
 1699 004e 9BB2     		uxth	r3, r3
 1700 0050 181C     		mov	r0, r3
 1701 0052 0021     		mov	r1, #0
 1702 0054 FFF7FEFF 		bl	CapSense_SenseClk_SetFractionalDividerRegister
1440:Generated_Source\PSoC4/CapSense.c ****     #else
1441:Generated_Source\PSoC4/CapSense.c ****         CapSense_SampleClk_SetDividerValue((uint16)CapSense_sampleClkDividerVal);
1442:Generated_Source\PSoC4/CapSense.c ****         CapSense_SenseClk_SetDividerValue((uint16)CapSense_senseClkDividerVal);
1443:Generated_Source\PSoC4/CapSense.c ****     #endif /* (0u != CapSense_MULTIPLE_FREQUENCY_SET) */
1444:Generated_Source\PSoC4/CapSense.c **** 
1445:Generated_Source\PSoC4/CapSense.c ****     #if (0u != CapSense_IS_M0S8PERI_BLOCK)
1446:Generated_Source\PSoC4/CapSense.c ****         CapSense_SampleClk_Start();
 1703              		.loc 1 1446 0
 1704 0058 FF20     		mov	r0, #255
 1705 005a FFF7FEFF 		bl	CapSense_SampleClk_StartEx
1447:Generated_Source\PSoC4/CapSense.c ****         CapSense_SenseClk_StartEx(CapSense_SampleClk__DIV_ID);
 1706              		.loc 1 1447 0
 1707 005e 4020     		mov	r0, #64
 1708 0060 FFF7FEFF 		bl	CapSense_SenseClk_StartEx
1448:Generated_Source\PSoC4/CapSense.c **** 
1449:Generated_Source\PSoC4/CapSense.c ****         #if(CapSense_PRS_OPTIONS == CapSense__PRS_NONE)
1450:Generated_Source\PSoC4/CapSense.c ****             CyIntDisable(CapSense_ISR_NUMBER);
1451:Generated_Source\PSoC4/CapSense.c ****             CapSense_CSD_CNT_REG = CapSense_ONE_CYCLE;
1452:Generated_Source\PSoC4/CapSense.c ****             while(0u != (CapSense_CSD_CNT_REG & CapSense_RESOLUTION_16_BITS))
1453:Generated_Source\PSoC4/CapSense.c ****             {
1454:Generated_Source\PSoC4/CapSense.c ****             /* Wait until scanning is complete */
1455:Generated_Source\PSoC4/CapSense.c ****             }
1456:Generated_Source\PSoC4/CapSense.c ****             CapSense_CSD_INTR_REG = 1u;
1457:Generated_Source\PSoC4/CapSense.c ****             CyIntClearPending(CapSense_ISR_NUMBER);
1458:Generated_Source\PSoC4/CapSense.c ****             CyIntEnable(CapSense_ISR_NUMBER);
1459:Generated_Source\PSoC4/CapSense.c ****         #endif /* CapSense_PRS_OPTIONS == CapSense__PRS_NONE */
1460:Generated_Source\PSoC4/CapSense.c ****     #endif /* (0u != CapSense_IS_M0S8PERI_BLOCK) */
1461:Generated_Source\PSoC4/CapSense.c **** 
1462:Generated_Source\PSoC4/CapSense.c **** #if(CapSense_PRS_OPTIONS != CapSense__PRS_NONE)
1463:Generated_Source\PSoC4/CapSense.c **** 
1464:Generated_Source\PSoC4/CapSense.c ****     #if(CapSense_TUNING_METHOD == CapSense__TUNING_AUTO)
1465:Generated_Source\PSoC4/CapSense.c ****         if(CapSense_prescalersTuningDone != 0u)
 1709              		.loc 1 1465 0
 1710 0064 304B     		ldr	r3, .L84+16
 1711 0066 1B78     		ldrb	r3, [r3]
 1712 0068 002B     		cmp	r3, #0
 1713 006a 0FD0     		beq	.L83
ARM GAS  C:\Users\poornima\AppData\Local\Temp\ccI9K5HH.s 			page 57


1466:Generated_Source\PSoC4/CapSense.c ****         {
1467:Generated_Source\PSoC4/CapSense.c ****     #endif /* (CapSense_TUNING_METHOD == CapSense__TUNING_AUTO) */
1468:Generated_Source\PSoC4/CapSense.c **** 
1469:Generated_Source\PSoC4/CapSense.c ****             CyIntDisable(CapSense_ISR_NUMBER);
 1714              		.loc 1 1469 0
 1715 006c 1120     		mov	r0, #17
 1716 006e FFF7FEFF 		bl	CyIntDisable
1470:Generated_Source\PSoC4/CapSense.c **** 
1471:Generated_Source\PSoC4/CapSense.c ****             newRegValue = CapSense_CSD_CFG_REG;
 1717              		.loc 1 1471 0
 1718 0072 2E4B     		ldr	r3, .L84+20
 1719 0074 1B68     		ldr	r3, [r3]
 1720 0076 FB60     		str	r3, [r7, #12]
1472:Generated_Source\PSoC4/CapSense.c ****             newRegValue |= CapSense_CSD_CFG_PRS_SELECT;
 1721              		.loc 1 1472 0
 1722 0078 FB68     		ldr	r3, [r7, #12]
 1723 007a 4022     		mov	r2, #64
 1724 007c 1343     		orr	r3, r2
 1725 007e FB60     		str	r3, [r7, #12]
1473:Generated_Source\PSoC4/CapSense.c **** 
1474:Generated_Source\PSoC4/CapSense.c ****             #if(CapSense_PRS_OPTIONS == CapSense__PRS_AUTO)
1475:Generated_Source\PSoC4/CapSense.c **** 
1476:Generated_Source\PSoC4/CapSense.c ****                 newRegValue &= ~(CapSense_PRS_MODE_MASK);
1477:Generated_Source\PSoC4/CapSense.c **** 
1478:Generated_Source\PSoC4/CapSense.c ****                 #if (0u != CapSense_MULTIPLE_FREQUENCY_SET)
1479:Generated_Source\PSoC4/CapSense.c ****                     senseClkDivMath = CapSense_senseClkDividerVal[sensor];
1480:Generated_Source\PSoC4/CapSense.c ****                     sampleClkDivMath = CapSense_sampleClkDividerVal[sensor];
1481:Generated_Source\PSoC4/CapSense.c ****                 #else
1482:Generated_Source\PSoC4/CapSense.c ****                     senseClkDivMath = CapSense_senseClkDividerVal;
1483:Generated_Source\PSoC4/CapSense.c ****                     sampleClkDivMath = CapSense_sampleClkDividerVal;
1484:Generated_Source\PSoC4/CapSense.c ****                 #endif /* ( CapSense_MULTIPLE_FREQUENCY_SET) */
1485:Generated_Source\PSoC4/CapSense.c **** 
1486:Generated_Source\PSoC4/CapSense.c ****                 #if(0u == CapSense_IS_M0S8PERI_BLOCK)
1487:Generated_Source\PSoC4/CapSense.c ****                     senseClkDivMath *= sampleClkDivMath;
1488:Generated_Source\PSoC4/CapSense.c ****                 #endif /* (0u == CapSense_IS_M0S8PERI_BLOCK) */
1489:Generated_Source\PSoC4/CapSense.c **** 
1490:Generated_Source\PSoC4/CapSense.c ****                 if((senseClkDivMath * CapSense_RESOLUTION_12_BITS) <
1491:Generated_Source\PSoC4/CapSense.c ****                    (sampleClkDivMath * CapSense_widgetResolution[widget]))
1492:Generated_Source\PSoC4/CapSense.c ****                 {
1493:Generated_Source\PSoC4/CapSense.c ****                     newRegValue |= CapSense_CSD_PRS_12_BIT;
1494:Generated_Source\PSoC4/CapSense.c ****                 }
1495:Generated_Source\PSoC4/CapSense.c ****             #endif /* (CapSense_PRS_OPTIONS == CapSense__PRS_AUTO) */
1496:Generated_Source\PSoC4/CapSense.c **** 
1497:Generated_Source\PSoC4/CapSense.c ****             CapSense_CSD_CFG_REG = newRegValue;
 1726              		.loc 1 1497 0
 1727 0080 2A4B     		ldr	r3, .L84+20
 1728 0082 FA68     		ldr	r2, [r7, #12]
 1729 0084 1A60     		str	r2, [r3]
1498:Generated_Source\PSoC4/CapSense.c **** 
1499:Generated_Source\PSoC4/CapSense.c ****             CyIntEnable(CapSense_ISR_NUMBER);
 1730              		.loc 1 1499 0
 1731 0086 1120     		mov	r0, #17
 1732 0088 FFF7FEFF 		bl	CyIntEnable
 1733              	.L83:
1500:Generated_Source\PSoC4/CapSense.c **** 
1501:Generated_Source\PSoC4/CapSense.c ****     #if(CapSense_TUNING_METHOD == CapSense__TUNING_AUTO)
1502:Generated_Source\PSoC4/CapSense.c ****         }
ARM GAS  C:\Users\poornima\AppData\Local\Temp\ccI9K5HH.s 			page 58


1503:Generated_Source\PSoC4/CapSense.c ****     #endif /* (CapSense_PRS_OPTIONS != CapSense__PRS_NONE) */
1504:Generated_Source\PSoC4/CapSense.c **** 
1505:Generated_Source\PSoC4/CapSense.c **** #endif /* (CapSense_PRS_OPTIONS == CapSense__PRS_NONE) */
1506:Generated_Source\PSoC4/CapSense.c **** 
1507:Generated_Source\PSoC4/CapSense.c ****     /* Set Idac Value */
1508:Generated_Source\PSoC4/CapSense.c ****     CyIntDisable(CapSense_ISR_NUMBER);
 1734              		.loc 1 1508 0
 1735 008c 1120     		mov	r0, #17
 1736 008e FFF7FEFF 		bl	CyIntDisable
1509:Generated_Source\PSoC4/CapSense.c ****     newRegValue = CapSense_CSD_IDAC_REG;
 1737              		.loc 1 1509 0
 1738 0092 274B     		ldr	r3, .L84+24
 1739 0094 1B68     		ldr	r3, [r3]
 1740 0096 FB60     		str	r3, [r7, #12]
1510:Generated_Source\PSoC4/CapSense.c **** 
1511:Generated_Source\PSoC4/CapSense.c **** #if (CapSense_IDAC_CNT == 1u)
1512:Generated_Source\PSoC4/CapSense.c ****     newRegValue &= ~(CapSense_CSD_IDAC1_DATA_MASK);
1513:Generated_Source\PSoC4/CapSense.c ****     newRegValue |= CapSense_modulationIDAC[sensor];
1514:Generated_Source\PSoC4/CapSense.c **** #else
1515:Generated_Source\PSoC4/CapSense.c ****     newRegValue &= ~(CapSense_CSD_IDAC1_DATA_MASK | CapSense_CSD_IDAC2_DATA_MASK);
 1741              		.loc 1 1515 0
 1742 0098 FB68     		ldr	r3, [r7, #12]
 1743 009a 264A     		ldr	r2, .L84+28
 1744 009c 1340     		and	r3, r2
 1745 009e FB60     		str	r3, [r7, #12]
1516:Generated_Source\PSoC4/CapSense.c ****     newRegValue |= (CapSense_modulationIDAC[sensor] |
 1746              		.loc 1 1516 0
 1747 00a0 254A     		ldr	r2, .L84+32
 1748 00a2 7B68     		ldr	r3, [r7, #4]
 1749 00a4 D318     		add	r3, r2, r3
 1750 00a6 1B78     		ldrb	r3, [r3]
 1751 00a8 191C     		mov	r1, r3
1517:Generated_Source\PSoC4/CapSense.c ****                             (uint32)((uint32)CapSense_compensationIDAC[sensor] <<
 1752              		.loc 1 1517 0
 1753 00aa 244A     		ldr	r2, .L84+36
 1754 00ac 7B68     		ldr	r3, [r7, #4]
 1755 00ae D318     		add	r3, r2, r3
 1756 00b0 1B78     		ldrb	r3, [r3]
 1757 00b2 1B04     		lsl	r3, r3, #16
1516:Generated_Source\PSoC4/CapSense.c ****     newRegValue |= (CapSense_modulationIDAC[sensor] |
 1758              		.loc 1 1516 0
 1759 00b4 0B43     		orr	r3, r1
 1760 00b6 FA68     		ldr	r2, [r7, #12]
 1761 00b8 1343     		orr	r3, r2
 1762 00ba FB60     		str	r3, [r7, #12]
1518:Generated_Source\PSoC4/CapSense.c ****                             CapSense_CSD_IDAC2_DATA_OFFSET));
1519:Generated_Source\PSoC4/CapSense.c **** #endif /* (CapSense_IDAC_CNT == 1u) */
1520:Generated_Source\PSoC4/CapSense.c **** 
1521:Generated_Source\PSoC4/CapSense.c ****     CapSense_CSD_IDAC_REG = newRegValue;
 1763              		.loc 1 1521 0
 1764 00bc 1C4B     		ldr	r3, .L84+24
 1765 00be FA68     		ldr	r2, [r7, #12]
 1766 00c0 1A60     		str	r2, [r3]
1522:Generated_Source\PSoC4/CapSense.c **** 
1523:Generated_Source\PSoC4/CapSense.c **** #if(CapSense_CMOD_PREGARGE_OPTION == CapSense__CAPPRIOBUF)
1524:Generated_Source\PSoC4/CapSense.c ****     newRegValue = CapSense_CMOD_CONNECTION_REG;
1525:Generated_Source\PSoC4/CapSense.c ****     newRegValue &= ~(CapSense_CSD_CMOD_CONNECTION_MASK);
ARM GAS  C:\Users\poornima\AppData\Local\Temp\ccI9K5HH.s 			page 59


1526:Generated_Source\PSoC4/CapSense.c ****     newRegValue |= CapSense_CSD_CMOD_TO_AMUXBUS_A;
1527:Generated_Source\PSoC4/CapSense.c ****     CapSense_CMOD_CONNECTION_REG = newRegValue;
1528:Generated_Source\PSoC4/CapSense.c **** 
1529:Generated_Source\PSoC4/CapSense.c ****     newRegValue = CapSense_CMOD_PORT_PC_REG;
1530:Generated_Source\PSoC4/CapSense.c ****     newRegValue &= ~(CapSense_CSD_CMOD_PC_MASK);
1531:Generated_Source\PSoC4/CapSense.c ****     newRegValue |= CapSense_CMOD_PC_HIGH_Z_MODE;
1532:Generated_Source\PSoC4/CapSense.c ****     CapSense_CMOD_PORT_PC_REG = newRegValue;
1533:Generated_Source\PSoC4/CapSense.c **** #endif /* (CapSense_CMOD_PREGARGE_OPTION == CapSense__CAPPRIOBUF) */
1534:Generated_Source\PSoC4/CapSense.c **** 
1535:Generated_Source\PSoC4/CapSense.c ****     /* Disconnect Vref Buffer from AMUX */
1536:Generated_Source\PSoC4/CapSense.c ****     newRegValue = CapSense_CSD_CFG_REG;
 1767              		.loc 1 1536 0
 1768 00c2 1A4B     		ldr	r3, .L84+20
 1769 00c4 1B68     		ldr	r3, [r3]
 1770 00c6 FB60     		str	r3, [r7, #12]
1537:Generated_Source\PSoC4/CapSense.c ****     newRegValue &= ~(CapSense_PRECHARGE_CONFIG_MASK);
 1771              		.loc 1 1537 0
 1772 00c8 FB68     		ldr	r3, [r7, #12]
 1773 00ca 1D4A     		ldr	r2, .L84+40
 1774 00cc 1340     		and	r3, r2
 1775 00ce FB60     		str	r3, [r7, #12]
1538:Generated_Source\PSoC4/CapSense.c ****     newRegValue |= CapSense_CTANK_PRECHARGE_CONFIG;
 1776              		.loc 1 1538 0
 1777 00d0 FB68     		ldr	r3, [r7, #12]
 1778 00d2 1C4A     		ldr	r2, .L84+44
 1779 00d4 1343     		orr	r3, r2
 1780 00d6 FB60     		str	r3, [r7, #12]
1539:Generated_Source\PSoC4/CapSense.c **** 
1540:Generated_Source\PSoC4/CapSense.c ****     CyIntEnable(CapSense_ISR_NUMBER);
 1781              		.loc 1 1540 0
 1782 00d8 1120     		mov	r0, #17
 1783 00da FFF7FEFF 		bl	CyIntEnable
1541:Generated_Source\PSoC4/CapSense.c **** 
1542:Generated_Source\PSoC4/CapSense.c ****     /* Enable Sensor */
1543:Generated_Source\PSoC4/CapSense.c ****     CapSense_EnableScanSlot(sensor);
 1784              		.loc 1 1543 0
 1785 00de 7B68     		ldr	r3, [r7, #4]
 1786 00e0 181C     		mov	r0, r3
 1787 00e2 FFF7FEFF 		bl	CapSense_EnableSensor
1544:Generated_Source\PSoC4/CapSense.c **** 
1545:Generated_Source\PSoC4/CapSense.c ****     interruptState = CyEnterCriticalSection();
 1788              		.loc 1 1545 0
 1789 00e6 0B23     		mov	r3, #11
 1790 00e8 FC18     		add	r4, r7, r3
 1791 00ea FFF7FEFF 		bl	CyEnterCriticalSection
 1792 00ee 031C     		mov	r3, r0
 1793 00f0 2370     		strb	r3, [r4]
1546:Generated_Source\PSoC4/CapSense.c ****     CapSense_CSD_CFG_REG = newRegValue;
 1794              		.loc 1 1546 0
 1795 00f2 0E4B     		ldr	r3, .L84+20
 1796 00f4 FA68     		ldr	r2, [r7, #12]
 1797 00f6 1A60     		str	r2, [r3]
1547:Generated_Source\PSoC4/CapSense.c **** 
1548:Generated_Source\PSoC4/CapSense.c ****     /* `#START CapSense_PreSettlingDelay_Debug` */
1549:Generated_Source\PSoC4/CapSense.c **** 
1550:Generated_Source\PSoC4/CapSense.c ****     /* `#END` */
1551:Generated_Source\PSoC4/CapSense.c **** 
ARM GAS  C:\Users\poornima\AppData\Local\Temp\ccI9K5HH.s 			page 60


1552:Generated_Source\PSoC4/CapSense.c **** #ifdef CapSense_PRE_SCAN_PRE_SETTLING_DELAY_DEBUG_CALLBACK
1553:Generated_Source\PSoC4/CapSense.c ****     CapSense_PreScan_Pre_SettlingDelay_Debug_Callback();
1554:Generated_Source\PSoC4/CapSense.c **** #endif /* CapSense_PRE_SCAN_PRE_SETTLING_DELAY_DEBUG_CALLBACK */
1555:Generated_Source\PSoC4/CapSense.c **** 
1556:Generated_Source\PSoC4/CapSense.c ****     CyDelayCycles(CapSense_GLITCH_ELIMINATION_CYCLES);
 1798              		.loc 1 1556 0
 1799 00f8 0020     		mov	r0, #0
 1800 00fa FFF7FEFF 		bl	CyDelayCycles
1557:Generated_Source\PSoC4/CapSense.c **** 
1558:Generated_Source\PSoC4/CapSense.c ****     /* `#START CapSense_PreScan_Debug` */
1559:Generated_Source\PSoC4/CapSense.c **** 
1560:Generated_Source\PSoC4/CapSense.c ****     /* `#END` */
1561:Generated_Source\PSoC4/CapSense.c **** 
1562:Generated_Source\PSoC4/CapSense.c **** #ifdef CapSense_PRE_SCAN_DEBUG_CALLBACK
1563:Generated_Source\PSoC4/CapSense.c ****     CapSense_PreScan_Debug_Callback();
1564:Generated_Source\PSoC4/CapSense.c **** #endif /* CapSense_PRE_SCAN_DEBUG_CALLBACK */
1565:Generated_Source\PSoC4/CapSense.c **** 
1566:Generated_Source\PSoC4/CapSense.c ****     CapSense_CSD_CNT_REG = counterResolution;
 1801              		.loc 1 1566 0
 1802 00fe 124B     		ldr	r3, .L84+48
 1803 0100 3A69     		ldr	r2, [r7, #16]
 1804 0102 1A60     		str	r2, [r3]
1567:Generated_Source\PSoC4/CapSense.c ****     CyExitCriticalSection(interruptState);
 1805              		.loc 1 1567 0
 1806 0104 0B23     		mov	r3, #11
 1807 0106 FB18     		add	r3, r7, r3
 1808 0108 1B78     		ldrb	r3, [r3]
 1809 010a 181C     		mov	r0, r3
 1810 010c FFF7FEFF 		bl	CyExitCriticalSection
1568:Generated_Source\PSoC4/CapSense.c **** }
 1811              		.loc 1 1568 0
 1812 0110 BD46     		mov	sp, r7
 1813 0112 07B0     		add	sp, sp, #28
 1814              		@ sp needed
 1815 0114 90BD     		pop	{r4, r7, pc}
 1816              	.L85:
 1817 0116 C046     		.align	2
 1818              	.L84:
 1819 0118 00000000 		.word	CapSense_widgetNumber
 1820 011c 00000000 		.word	CapSense_widgetResolution
 1821 0120 00000000 		.word	CapSense_sampleClkDividerVal
 1822 0124 00000000 		.word	CapSense_senseClkDividerVal
 1823 0128 00000000 		.word	CapSense_prescalersTuningDone
 1824 012c 04002840 		.word	1076363268
 1825 0130 08002840 		.word	1076363272
 1826 0134 00FF80FF 		.word	-8323328
 1827 0138 00000000 		.word	CapSense_modulationIDAC
 1828 013c 00000000 		.word	CapSense_compensationIDAC
 1829 0140 FF1FDFFF 		.word	-2154497
 1830 0144 20002000 		.word	2097184
 1831 0148 0C002840 		.word	1076363276
 1832              		.cfi_endproc
 1833              	.LFE55:
 1834              		.size	CapSense_PreScan, .-CapSense_PreScan
 1835              		.section	.text.CapSense_PostScan,"ax",%progbits
 1836              		.align	2
 1837              		.global	CapSense_PostScan
ARM GAS  C:\Users\poornima\AppData\Local\Temp\ccI9K5HH.s 			page 61


 1838              		.code	16
 1839              		.thumb_func
 1840              		.type	CapSense_PostScan, %function
 1841              	CapSense_PostScan:
 1842              	.LFB56:
1569:Generated_Source\PSoC4/CapSense.c **** 
1570:Generated_Source\PSoC4/CapSense.c **** 
1571:Generated_Source\PSoC4/CapSense.c **** /*******************************************************************************
1572:Generated_Source\PSoC4/CapSense.c **** * Function Name: CapSense_PostScan
1573:Generated_Source\PSoC4/CapSense.c **** ********************************************************************************
1574:Generated_Source\PSoC4/CapSense.c **** *
1575:Generated_Source\PSoC4/CapSense.c **** * Summary:
1576:Generated_Source\PSoC4/CapSense.c **** *  Stores the results of measurement in the CapSense_sensorRaw[] array,
1577:Generated_Source\PSoC4/CapSense.c **** *  sets the scanning sensor in the non-sampling state, turns off Idac(Current Source IDAC),
1578:Generated_Source\PSoC4/CapSense.c **** *  disconnects the IDAC(Sink mode), and applies Vref on AMUX.
1579:Generated_Source\PSoC4/CapSense.c **** *
1580:Generated_Source\PSoC4/CapSense.c **** * Parameters:
1581:Generated_Source\PSoC4/CapSense.c **** *  sensor:  Sensor number.
1582:Generated_Source\PSoC4/CapSense.c **** *
1583:Generated_Source\PSoC4/CapSense.c **** * Return:
1584:Generated_Source\PSoC4/CapSense.c **** *  None
1585:Generated_Source\PSoC4/CapSense.c **** *
1586:Generated_Source\PSoC4/CapSense.c **** * Global Variables:
1587:Generated_Source\PSoC4/CapSense.c **** *  CapSense_sensorRaw[] - used to store sensors raw data.
1588:Generated_Source\PSoC4/CapSense.c **** *
1589:Generated_Source\PSoC4/CapSense.c **** * Side Effects:
1590:Generated_Source\PSoC4/CapSense.c **** *  None
1591:Generated_Source\PSoC4/CapSense.c **** *
1592:Generated_Source\PSoC4/CapSense.c **** *******************************************************************************/
1593:Generated_Source\PSoC4/CapSense.c **** void CapSense_PostScan(uint32 sensor)
1594:Generated_Source\PSoC4/CapSense.c **** {
 1843              		.loc 1 1594 0
 1844              		.cfi_startproc
 1845 0000 80B5     		push	{r7, lr}
 1846              		.cfi_def_cfa_offset 8
 1847              		.cfi_offset 7, -8
 1848              		.cfi_offset 14, -4
 1849 0002 84B0     		sub	sp, sp, #16
 1850              		.cfi_def_cfa_offset 24
 1851 0004 00AF     		add	r7, sp, #0
 1852              		.cfi_def_cfa_register 7
 1853 0006 7860     		str	r0, [r7, #4]
1595:Generated_Source\PSoC4/CapSense.c ****     uint32 newRegValue;
1596:Generated_Source\PSoC4/CapSense.c **** #if ((CapSense_TUNING_METHOD == CapSense__TUNING_AUTO) &&\
1597:Generated_Source\PSoC4/CapSense.c ****      (0 != CapSense_IS_OVERSAMPLING_EN))
1598:Generated_Source\PSoC4/CapSense.c ****     uint32 oversamplingFactor;
1599:Generated_Source\PSoC4/CapSense.c ****     uint32 widget;
1600:Generated_Source\PSoC4/CapSense.c **** #endif /* ((CapSense_TUNING_METHOD == CapSense__TUNING_AUTO) &&\
1601:Generated_Source\PSoC4/CapSense.c ****            (0 != CapSense_IS_OVERSAMPLING_EN)) */
1602:Generated_Source\PSoC4/CapSense.c **** 
1603:Generated_Source\PSoC4/CapSense.c ****     /* `#START CapSense_PostScan_Debug` */
1604:Generated_Source\PSoC4/CapSense.c **** 
1605:Generated_Source\PSoC4/CapSense.c ****     /* `#END` */
1606:Generated_Source\PSoC4/CapSense.c **** 
1607:Generated_Source\PSoC4/CapSense.c **** #ifdef CapSense_POST_SCAN_DEBUG_CALLBACK
1608:Generated_Source\PSoC4/CapSense.c ****     CapSense_PostScan_Debug_Callback();
1609:Generated_Source\PSoC4/CapSense.c **** #endif /* CapSense_POST_SCAN_DEBUG_Callback */
ARM GAS  C:\Users\poornima\AppData\Local\Temp\ccI9K5HH.s 			page 62


1610:Generated_Source\PSoC4/CapSense.c **** 
1611:Generated_Source\PSoC4/CapSense.c ****     /* Read SlotResult from Raw Counter */
1612:Generated_Source\PSoC4/CapSense.c ****     CapSense_sensorRaw[sensor]  = (uint16)CapSense_CSD_CNT_REG;
 1854              		.loc 1 1612 0
 1855 0008 144B     		ldr	r3, .L87
 1856 000a 1B68     		ldr	r3, [r3]
 1857 000c 99B2     		uxth	r1, r3
 1858 000e 144B     		ldr	r3, .L87+4
 1859 0010 7A68     		ldr	r2, [r7, #4]
 1860 0012 5200     		lsl	r2, r2, #1
 1861 0014 D152     		strh	r1, [r2, r3]
1613:Generated_Source\PSoC4/CapSense.c **** 
1614:Generated_Source\PSoC4/CapSense.c **** #if ((CapSense_TUNING_METHOD == CapSense__TUNING_AUTO) &&\
1615:Generated_Source\PSoC4/CapSense.c ****      (0 != CapSense_IS_OVERSAMPLING_EN))
1616:Generated_Source\PSoC4/CapSense.c ****     widget = CapSense_widgetNumber[sensor];
1617:Generated_Source\PSoC4/CapSense.c ****     if(CapSense_widgetResolution[widget] < CapSense_RESOLUTION_16_BITS)
1618:Generated_Source\PSoC4/CapSense.c ****     {
1619:Generated_Source\PSoC4/CapSense.c ****         oversamplingFactor = CapSense_GetBitValue(CapSense_scanSpeedTbl, sensor);
1620:Generated_Source\PSoC4/CapSense.c ****         CapSense_sensorRaw[sensor] >>= oversamplingFactor;
1621:Generated_Source\PSoC4/CapSense.c ****     }
1622:Generated_Source\PSoC4/CapSense.c **** #endif /* ((CapSense_TUNING_METHOD == CapSense__TUNING_AUTO) &&\
1623:Generated_Source\PSoC4/CapSense.c ****            (0 != CapSense_IS_OVERSAMPLING_EN)) */
1624:Generated_Source\PSoC4/CapSense.c **** 
1625:Generated_Source\PSoC4/CapSense.c ****     /* Disable Sensor */
1626:Generated_Source\PSoC4/CapSense.c ****     CapSense_DisableScanSlot(sensor);
 1862              		.loc 1 1626 0
 1863 0016 7B68     		ldr	r3, [r7, #4]
 1864 0018 181C     		mov	r0, r3
 1865 001a FFF7FEFF 		bl	CapSense_DisableSensor
1627:Generated_Source\PSoC4/CapSense.c **** 
1628:Generated_Source\PSoC4/CapSense.c ****     CyIntDisable(CapSense_ISR_NUMBER);
 1866              		.loc 1 1628 0
 1867 001e 1120     		mov	r0, #17
 1868 0020 FFF7FEFF 		bl	CyIntDisable
1629:Generated_Source\PSoC4/CapSense.c **** 
1630:Generated_Source\PSoC4/CapSense.c **** #if(CapSense_CMOD_PREGARGE_OPTION == CapSense__CAPPRIOBUF)
1631:Generated_Source\PSoC4/CapSense.c ****     newRegValue = CapSense_CMOD_CONNECTION_REG;
1632:Generated_Source\PSoC4/CapSense.c ****     newRegValue &= ~(CapSense_CSD_CMOD_CONNECTION_MASK);
1633:Generated_Source\PSoC4/CapSense.c ****     newRegValue |= CapSense_CSD_CMOD_TO_AMUXBUS_B;
1634:Generated_Source\PSoC4/CapSense.c ****     CapSense_CMOD_CONNECTION_REG = newRegValue;
1635:Generated_Source\PSoC4/CapSense.c **** 
1636:Generated_Source\PSoC4/CapSense.c ****     newRegValue = CapSense_CMOD_PORT_PC_REG;
1637:Generated_Source\PSoC4/CapSense.c ****     newRegValue &= ~(CapSense_CSD_CMOD_PC_MASK);
1638:Generated_Source\PSoC4/CapSense.c ****     newRegValue |= CapSense_CMOD_PC_STRONG_MODE;
1639:Generated_Source\PSoC4/CapSense.c ****     CapSense_CMOD_PORT_PC_REG = newRegValue;
1640:Generated_Source\PSoC4/CapSense.c **** 
1641:Generated_Source\PSoC4/CapSense.c ****     newRegValue = CapSense_CMOD_PORT_DR_REG;
1642:Generated_Source\PSoC4/CapSense.c ****     newRegValue &= ~(CapSense_CMOD_DR_MASK);
1643:Generated_Source\PSoC4/CapSense.c ****     newRegValue |= CapSense_CMOD_DR_CONFIG;
1644:Generated_Source\PSoC4/CapSense.c ****     CapSense_CMOD_PORT_DR_REG = newRegValue;
1645:Generated_Source\PSoC4/CapSense.c **** #endif /* (CapSense_CMOD_PREGARGE_OPTION == CapSense__CAPPRIOBUF) */
1646:Generated_Source\PSoC4/CapSense.c **** 
1647:Generated_Source\PSoC4/CapSense.c ****     /* Connect Vref Buffer to AMUX bus  */
1648:Generated_Source\PSoC4/CapSense.c ****     newRegValue = CapSense_CSD_CFG_REG;
 1869              		.loc 1 1648 0
 1870 0024 0F4B     		ldr	r3, .L87+8
 1871 0026 1B68     		ldr	r3, [r3]
ARM GAS  C:\Users\poornima\AppData\Local\Temp\ccI9K5HH.s 			page 63


 1872 0028 FB60     		str	r3, [r7, #12]
1649:Generated_Source\PSoC4/CapSense.c ****     newRegValue &= ~(CapSense_PRECHARGE_CONFIG_MASK);
 1873              		.loc 1 1649 0
 1874 002a FB68     		ldr	r3, [r7, #12]
 1875 002c 0E4A     		ldr	r2, .L87+12
 1876 002e 1340     		and	r3, r2
 1877 0030 FB60     		str	r3, [r7, #12]
1650:Generated_Source\PSoC4/CapSense.c ****     newRegValue |= CapSense_CMOD_PRECHARGE_CONFIG;
 1878              		.loc 1 1650 0
 1879 0032 FB68     		ldr	r3, [r7, #12]
 1880 0034 A022     		mov	r2, #160
 1881 0036 1202     		lsl	r2, r2, #8
 1882 0038 1343     		orr	r3, r2
 1883 003a FB60     		str	r3, [r7, #12]
1651:Generated_Source\PSoC4/CapSense.c ****     CapSense_CSD_CFG_REG = newRegValue;
 1884              		.loc 1 1651 0
 1885 003c 094B     		ldr	r3, .L87+8
 1886 003e FA68     		ldr	r2, [r7, #12]
 1887 0040 1A60     		str	r2, [r3]
1652:Generated_Source\PSoC4/CapSense.c **** 
1653:Generated_Source\PSoC4/CapSense.c ****     /* Set Idac Value = 0 */
1654:Generated_Source\PSoC4/CapSense.c **** #if (CapSense_IDAC_CNT == 1u)
1655:Generated_Source\PSoC4/CapSense.c ****     CapSense_CSD_IDAC_REG &= ~(CapSense_CSD_IDAC1_DATA_MASK);
1656:Generated_Source\PSoC4/CapSense.c **** #else
1657:Generated_Source\PSoC4/CapSense.c ****     CapSense_CSD_IDAC_REG &= ~(CapSense_CSD_IDAC1_DATA_MASK | CapSense_CSD_IDAC2_DATA_MASK);
 1888              		.loc 1 1657 0
 1889 0042 0A4B     		ldr	r3, .L87+16
 1890 0044 094A     		ldr	r2, .L87+16
 1891 0046 1268     		ldr	r2, [r2]
 1892 0048 0949     		ldr	r1, .L87+20
 1893 004a 0A40     		and	r2, r1
 1894 004c 1A60     		str	r2, [r3]
1658:Generated_Source\PSoC4/CapSense.c **** #endif /* (CapSense_IDAC_CNT == 1u) */
1659:Generated_Source\PSoC4/CapSense.c **** 
1660:Generated_Source\PSoC4/CapSense.c ****     CyIntEnable(CapSense_ISR_NUMBER);
 1895              		.loc 1 1660 0
 1896 004e 1120     		mov	r0, #17
 1897 0050 FFF7FEFF 		bl	CyIntEnable
1661:Generated_Source\PSoC4/CapSense.c **** }
 1898              		.loc 1 1661 0
 1899 0054 BD46     		mov	sp, r7
 1900 0056 04B0     		add	sp, sp, #16
 1901              		@ sp needed
 1902 0058 80BD     		pop	{r7, pc}
 1903              	.L88:
 1904 005a C046     		.align	2
 1905              	.L87:
 1906 005c 0C002840 		.word	1076363276
 1907 0060 00000000 		.word	CapSense_sensorRaw
 1908 0064 04002840 		.word	1076363268
 1909 0068 FF1FDFFF 		.word	-2154497
 1910 006c 08002840 		.word	1076363272
 1911 0070 00FF80FF 		.word	-8323328
 1912              		.cfi_endproc
 1913              	.LFE56:
 1914              		.size	CapSense_PostScan, .-CapSense_PostScan
 1915              		.section	.text.CapSense_EnableShieldElectrode,"ax",%progbits
ARM GAS  C:\Users\poornima\AppData\Local\Temp\ccI9K5HH.s 			page 64


 1916              		.align	2
 1917              		.global	CapSense_EnableShieldElectrode
 1918              		.code	16
 1919              		.thumb_func
 1920              		.type	CapSense_EnableShieldElectrode, %function
 1921              	CapSense_EnableShieldElectrode:
 1922              	.LFB57:
1662:Generated_Source\PSoC4/CapSense.c **** 
1663:Generated_Source\PSoC4/CapSense.c **** 
1664:Generated_Source\PSoC4/CapSense.c **** /*******************************************************************************
1665:Generated_Source\PSoC4/CapSense.c **** * Function Name: CapSense_EnableShieldElectrode
1666:Generated_Source\PSoC4/CapSense.c **** ********************************************************************************
1667:Generated_Source\PSoC4/CapSense.c **** *
1668:Generated_Source\PSoC4/CapSense.c **** * Summary:
1669:Generated_Source\PSoC4/CapSense.c **** *  This API enables or disables the shield electrode on a specified port pin.
1670:Generated_Source\PSoC4/CapSense.c **** *
1671:Generated_Source\PSoC4/CapSense.c **** * Parameters:
1672:Generated_Source\PSoC4/CapSense.c **** *  portNumber: contains the shield electrode port number (0, 1, 2).
1673:Generated_Source\PSoC4/CapSense.c **** *  pinNumber: contains the shield electrode pin number (0, 1, 2, ... , 7).
1674:Generated_Source\PSoC4/CapSense.c **** *
1675:Generated_Source\PSoC4/CapSense.c **** * Return:
1676:Generated_Source\PSoC4/CapSense.c **** *  None
1677:Generated_Source\PSoC4/CapSense.c **** *
1678:Generated_Source\PSoC4/CapSense.c **** * Global Variables:
1679:Generated_Source\PSoC4/CapSense.c **** *  CapSense_prtCfgTbl[] - Contains pointers to the port config registers for each port.
1680:Generated_Source\PSoC4/CapSense.c **** *  CapSense_prtSelTbl[] - Contains pointers to the HSIOM registers for each port.
1681:Generated_Source\PSoC4/CapSense.c **** *
1682:Generated_Source\PSoC4/CapSense.c **** * Side Effects:
1683:Generated_Source\PSoC4/CapSense.c **** *  None
1684:Generated_Source\PSoC4/CapSense.c **** *
1685:Generated_Source\PSoC4/CapSense.c **** *******************************************************************************/
1686:Generated_Source\PSoC4/CapSense.c **** void CapSense_EnableShieldElectrode(uint32 pinNumber, uint32 portNumber)
1687:Generated_Source\PSoC4/CapSense.c **** {
 1923              		.loc 1 1687 0
 1924              		.cfi_startproc
 1925 0000 80B5     		push	{r7, lr}
 1926              		.cfi_def_cfa_offset 8
 1927              		.cfi_offset 7, -8
 1928              		.cfi_offset 14, -4
 1929 0002 84B0     		sub	sp, sp, #16
 1930              		.cfi_def_cfa_offset 24
 1931 0004 00AF     		add	r7, sp, #0
 1932              		.cfi_def_cfa_register 7
 1933 0006 7860     		str	r0, [r7, #4]
 1934 0008 3960     		str	r1, [r7]
1688:Generated_Source\PSoC4/CapSense.c ****     uint32 newRegValue;
1689:Generated_Source\PSoC4/CapSense.c **** 
1690:Generated_Source\PSoC4/CapSense.c ****     *CapSense_prtCfgTbl[portNumber] &= ~(CapSense_CSD_PIN_MODE_MASK << (pinNumber * CapSense_PC_PIN
 1935              		.loc 1 1690 0
 1936 000a 194B     		ldr	r3, .L90
 1937 000c 3A68     		ldr	r2, [r7]
 1938 000e 9200     		lsl	r2, r2, #2
 1939 0010 D258     		ldr	r2, [r2, r3]
 1940 0012 174B     		ldr	r3, .L90
 1941 0014 3968     		ldr	r1, [r7]
 1942 0016 8900     		lsl	r1, r1, #2
 1943 0018 CB58     		ldr	r3, [r1, r3]
ARM GAS  C:\Users\poornima\AppData\Local\Temp\ccI9K5HH.s 			page 65


 1944 001a 1868     		ldr	r0, [r3]
 1945 001c 7968     		ldr	r1, [r7, #4]
 1946 001e 0B1C     		mov	r3, r1
 1947 0020 5B00     		lsl	r3, r3, #1
 1948 0022 5B18     		add	r3, r3, r1
 1949 0024 191C     		mov	r1, r3
 1950 0026 0723     		mov	r3, #7
 1951 0028 8B40     		lsl	r3, r3, r1
 1952 002a DB43     		mvn	r3, r3
 1953 002c 0340     		and	r3, r0
 1954 002e 1360     		str	r3, [r2]
1691:Generated_Source\PSoC4/CapSense.c ****     newRegValue = *CapSense_prtSelTbl[portNumber];
 1955              		.loc 1 1691 0
 1956 0030 104B     		ldr	r3, .L90+4
 1957 0032 3A68     		ldr	r2, [r7]
 1958 0034 9200     		lsl	r2, r2, #2
 1959 0036 D358     		ldr	r3, [r2, r3]
 1960 0038 1B68     		ldr	r3, [r3]
 1961 003a FB60     		str	r3, [r7, #12]
1692:Generated_Source\PSoC4/CapSense.c ****     newRegValue &= ~(CapSense_CSD_HSIOM_MASK << (pinNumber * CapSense_HSIOM_PIN_CFG_SIZE));
 1962              		.loc 1 1692 0
 1963 003c 7B68     		ldr	r3, [r7, #4]
 1964 003e 9B00     		lsl	r3, r3, #2
 1965 0040 1A1C     		mov	r2, r3
 1966 0042 0F23     		mov	r3, #15
 1967 0044 9340     		lsl	r3, r3, r2
 1968 0046 DA43     		mvn	r2, r3
 1969 0048 FB68     		ldr	r3, [r7, #12]
 1970 004a 1340     		and	r3, r2
 1971 004c FB60     		str	r3, [r7, #12]
1693:Generated_Source\PSoC4/CapSense.c ****     newRegValue |= (CapSense_CSD_SHIELD_PORT_MODE << (pinNumber * CapSense_HSIOM_PIN_CFG_SIZE));
 1972              		.loc 1 1693 0
 1973 004e 7B68     		ldr	r3, [r7, #4]
 1974 0050 9B00     		lsl	r3, r3, #2
 1975 0052 1A1C     		mov	r2, r3
 1976 0054 0523     		mov	r3, #5
 1977 0056 9340     		lsl	r3, r3, r2
 1978 0058 FA68     		ldr	r2, [r7, #12]
 1979 005a 1343     		orr	r3, r2
 1980 005c FB60     		str	r3, [r7, #12]
1694:Generated_Source\PSoC4/CapSense.c ****     *CapSense_prtSelTbl[portNumber] = newRegValue;
 1981              		.loc 1 1694 0
 1982 005e 054B     		ldr	r3, .L90+4
 1983 0060 3A68     		ldr	r2, [r7]
 1984 0062 9200     		lsl	r2, r2, #2
 1985 0064 D358     		ldr	r3, [r2, r3]
 1986 0066 FA68     		ldr	r2, [r7, #12]
 1987 0068 1A60     		str	r2, [r3]
1695:Generated_Source\PSoC4/CapSense.c **** }
 1988              		.loc 1 1695 0
 1989 006a BD46     		mov	sp, r7
 1990 006c 04B0     		add	sp, sp, #16
 1991              		@ sp needed
 1992 006e 80BD     		pop	{r7, pc}
 1993              	.L91:
 1994              		.align	2
 1995              	.L90:
ARM GAS  C:\Users\poornima\AppData\Local\Temp\ccI9K5HH.s 			page 66


 1996 0070 00000000 		.word	CapSense_prtCfgTbl
 1997 0074 00000000 		.word	CapSense_prtSelTbl
 1998              		.cfi_endproc
 1999              	.LFE57:
 2000              		.size	CapSense_EnableShieldElectrode, .-CapSense_EnableShieldElectrode
 2001              		.section	.text.CapSense_SetShieldDelay,"ax",%progbits
 2002              		.align	2
 2003              		.global	CapSense_SetShieldDelay
 2004              		.code	16
 2005              		.thumb_func
 2006              		.type	CapSense_SetShieldDelay, %function
 2007              	CapSense_SetShieldDelay:
 2008              	.LFB58:
1696:Generated_Source\PSoC4/CapSense.c **** 
1697:Generated_Source\PSoC4/CapSense.c **** 
1698:Generated_Source\PSoC4/CapSense.c **** /*******************************************************************************
1699:Generated_Source\PSoC4/CapSense.c **** * Function Name: CapSense_SetShieldDelay
1700:Generated_Source\PSoC4/CapSense.c **** ********************************************************************************
1701:Generated_Source\PSoC4/CapSense.c **** *
1702:Generated_Source\PSoC4/CapSense.c **** * Summary:
1703:Generated_Source\PSoC4/CapSense.c **** *  This API sets a shield delay.
1704:Generated_Source\PSoC4/CapSense.c **** *
1705:Generated_Source\PSoC4/CapSense.c **** * Parameters:
1706:Generated_Source\PSoC4/CapSense.c **** *  delay:  shield delay value:
1707:Generated_Source\PSoC4/CapSense.c **** *                               0 - no delay
1708:Generated_Source\PSoC4/CapSense.c **** *                               1 - 1 cycle delay
1709:Generated_Source\PSoC4/CapSense.c **** *                               2 - 2 cycles delay
1710:Generated_Source\PSoC4/CapSense.c **** *
1711:Generated_Source\PSoC4/CapSense.c **** * Return:
1712:Generated_Source\PSoC4/CapSense.c **** *  None
1713:Generated_Source\PSoC4/CapSense.c **** *
1714:Generated_Source\PSoC4/CapSense.c **** * Global Variables:
1715:Generated_Source\PSoC4/CapSense.c **** *  None
1716:Generated_Source\PSoC4/CapSense.c **** *
1717:Generated_Source\PSoC4/CapSense.c **** * Side Effects:
1718:Generated_Source\PSoC4/CapSense.c **** *  None
1719:Generated_Source\PSoC4/CapSense.c **** *
1720:Generated_Source\PSoC4/CapSense.c **** *******************************************************************************/
1721:Generated_Source\PSoC4/CapSense.c **** void CapSense_SetShieldDelay(uint32 delay)
1722:Generated_Source\PSoC4/CapSense.c **** {
 2009              		.loc 1 1722 0
 2010              		.cfi_startproc
 2011 0000 80B5     		push	{r7, lr}
 2012              		.cfi_def_cfa_offset 8
 2013              		.cfi_offset 7, -8
 2014              		.cfi_offset 14, -4
 2015 0002 84B0     		sub	sp, sp, #16
 2016              		.cfi_def_cfa_offset 24
 2017 0004 00AF     		add	r7, sp, #0
 2018              		.cfi_def_cfa_register 7
 2019 0006 7860     		str	r0, [r7, #4]
1723:Generated_Source\PSoC4/CapSense.c ****     uint32 newRegValue;
1724:Generated_Source\PSoC4/CapSense.c **** 
1725:Generated_Source\PSoC4/CapSense.c ****     delay &= 0x03u;
 2020              		.loc 1 1725 0
 2021 0008 7B68     		ldr	r3, [r7, #4]
 2022 000a 0322     		mov	r2, #3
ARM GAS  C:\Users\poornima\AppData\Local\Temp\ccI9K5HH.s 			page 67


 2023 000c 1340     		and	r3, r2
 2024 000e 7B60     		str	r3, [r7, #4]
1726:Generated_Source\PSoC4/CapSense.c **** 
1727:Generated_Source\PSoC4/CapSense.c ****     newRegValue = CapSense_CSD_CFG_REG;
 2025              		.loc 1 1727 0
 2026 0010 064B     		ldr	r3, .L93
 2027 0012 1B68     		ldr	r3, [r3]
 2028 0014 FB60     		str	r3, [r7, #12]
1728:Generated_Source\PSoC4/CapSense.c ****     newRegValue &= (uint32)(~(uint32)CapSense_SHIELD_DELAY);
1729:Generated_Source\PSoC4/CapSense.c ****     newRegValue |= (delay << CapSense_CSD_CFG_SHIELD_DELAY_POS);
 2029              		.loc 1 1729 0
 2030 0016 7B68     		ldr	r3, [r7, #4]
 2031 0018 5B02     		lsl	r3, r3, #9
 2032 001a FA68     		ldr	r2, [r7, #12]
 2033 001c 1343     		orr	r3, r2
 2034 001e FB60     		str	r3, [r7, #12]
1730:Generated_Source\PSoC4/CapSense.c ****     CapSense_CSD_CFG_REG = newRegValue;
 2035              		.loc 1 1730 0
 2036 0020 024B     		ldr	r3, .L93
 2037 0022 FA68     		ldr	r2, [r7, #12]
 2038 0024 1A60     		str	r2, [r3]
1731:Generated_Source\PSoC4/CapSense.c **** }
 2039              		.loc 1 1731 0
 2040 0026 BD46     		mov	sp, r7
 2041 0028 04B0     		add	sp, sp, #16
 2042              		@ sp needed
 2043 002a 80BD     		pop	{r7, pc}
 2044              	.L94:
 2045              		.align	2
 2046              	.L93:
 2047 002c 04002840 		.word	1076363268
 2048              		.cfi_endproc
 2049              	.LFE58:
 2050              		.size	CapSense_SetShieldDelay, .-CapSense_SetShieldDelay
 2051              		.section	.text.CapSense_ReadCurrentScanningSensor,"ax",%progbits
 2052              		.align	2
 2053              		.global	CapSense_ReadCurrentScanningSensor
 2054              		.code	16
 2055              		.thumb_func
 2056              		.type	CapSense_ReadCurrentScanningSensor, %function
 2057              	CapSense_ReadCurrentScanningSensor:
 2058              	.LFB59:
1732:Generated_Source\PSoC4/CapSense.c **** 
1733:Generated_Source\PSoC4/CapSense.c **** 
1734:Generated_Source\PSoC4/CapSense.c **** /*******************************************************************************
1735:Generated_Source\PSoC4/CapSense.c **** * Function Name: CapSense_ReadCurrentScanningSensor
1736:Generated_Source\PSoC4/CapSense.c **** ********************************************************************************
1737:Generated_Source\PSoC4/CapSense.c **** *
1738:Generated_Source\PSoC4/CapSense.c **** * Summary:
1739:Generated_Source\PSoC4/CapSense.c **** *  This API returns scanning sensor number when sensor scan is in progress.
1740:Generated_Source\PSoC4/CapSense.c **** *  When sensor scan is completed the API returns
1741:Generated_Source\PSoC4/CapSense.c **** *  $INSTANCE_NAME`_NOT_SENSOR (0xFFFFFFFF) (when no sensor is scanned).
1742:Generated_Source\PSoC4/CapSense.c **** *
1743:Generated_Source\PSoC4/CapSense.c **** * Parameters:
1744:Generated_Source\PSoC4/CapSense.c **** *   None.
1745:Generated_Source\PSoC4/CapSense.c **** *
1746:Generated_Source\PSoC4/CapSense.c **** * Return:
ARM GAS  C:\Users\poornima\AppData\Local\Temp\ccI9K5HH.s 			page 68


1747:Generated_Source\PSoC4/CapSense.c **** *  Returns Sensor number if sensor is being scanned and
1748:Generated_Source\PSoC4/CapSense.c **** *  $INSTANCE_NAME`_NOT_SENSOR (0xFFFFFFFF) if scanning is complete.
1749:Generated_Source\PSoC4/CapSense.c **** *
1750:Generated_Source\PSoC4/CapSense.c **** * Global Variables:
1751:Generated_Source\PSoC4/CapSense.c **** *  CapSense_sensorIndex - the sensor number is being scanned.
1752:Generated_Source\PSoC4/CapSense.c **** *
1753:Generated_Source\PSoC4/CapSense.c **** * Side Effects:
1754:Generated_Source\PSoC4/CapSense.c **** *  None
1755:Generated_Source\PSoC4/CapSense.c **** *
1756:Generated_Source\PSoC4/CapSense.c **** *******************************************************************************/
1757:Generated_Source\PSoC4/CapSense.c **** uint32 CapSense_ReadCurrentScanningSensor(void)
1758:Generated_Source\PSoC4/CapSense.c **** {
 2059              		.loc 1 1758 0
 2060              		.cfi_startproc
 2061 0000 80B5     		push	{r7, lr}
 2062              		.cfi_def_cfa_offset 8
 2063              		.cfi_offset 7, -8
 2064              		.cfi_offset 14, -4
 2065 0002 00AF     		add	r7, sp, #0
 2066              		.cfi_def_cfa_register 7
1759:Generated_Source\PSoC4/CapSense.c ****     return ((uint32)(( 0u != (CapSense_csdStatusVar & CapSense_SW_STS_BUSY)) ?
 2067              		.loc 1 1759 0
 2068 0004 074B     		ldr	r3, .L99
 2069 0006 1B78     		ldrb	r3, [r3]
 2070 0008 DBB2     		uxtb	r3, r3
 2071 000a 1A1C     		mov	r2, r3
 2072 000c 0123     		mov	r3, #1
 2073 000e 1340     		and	r3, r2
 2074 0010 03D0     		beq	.L96
 2075              		.loc 1 1759 0 is_stmt 0 discriminator 1
 2076 0012 054B     		ldr	r3, .L99+4
 2077 0014 1B78     		ldrb	r3, [r3]
 2078 0016 DBB2     		uxtb	r3, r3
 2079 0018 01E0     		b	.L97
 2080              	.L96:
 2081              		.loc 1 1759 0 discriminator 2
 2082 001a 0123     		mov	r3, #1
 2083 001c 5B42     		neg	r3, r3
 2084              	.L97:
1760:Generated_Source\PSoC4/CapSense.c ****                      CapSense_sensorIndex : CapSense_NOT_SENSOR));
1761:Generated_Source\PSoC4/CapSense.c **** }
 2085              		.loc 1 1761 0 is_stmt 1 discriminator 4
 2086 001e 181C     		mov	r0, r3
 2087 0020 BD46     		mov	sp, r7
 2088              		@ sp needed
 2089 0022 80BD     		pop	{r7, pc}
 2090              	.L100:
 2091              		.align	2
 2092              	.L99:
 2093 0024 00000000 		.word	CapSense_csdStatusVar
 2094 0028 00000000 		.word	CapSense_sensorIndex
 2095              		.cfi_endproc
 2096              	.LFE59:
 2097              		.size	CapSense_ReadCurrentScanningSensor, .-CapSense_ReadCurrentScanningSensor
 2098              		.section	.text.CapSense_GetBitValue,"ax",%progbits
 2099              		.align	2
 2100              		.global	CapSense_GetBitValue
ARM GAS  C:\Users\poornima\AppData\Local\Temp\ccI9K5HH.s 			page 69


 2101              		.code	16
 2102              		.thumb_func
 2103              		.type	CapSense_GetBitValue, %function
 2104              	CapSense_GetBitValue:
 2105              	.LFB60:
1762:Generated_Source\PSoC4/CapSense.c **** 
1763:Generated_Source\PSoC4/CapSense.c **** 
1764:Generated_Source\PSoC4/CapSense.c **** /*******************************************************************************
1765:Generated_Source\PSoC4/CapSense.c **** * Function Name: CapSense_GetBitValue
1766:Generated_Source\PSoC4/CapSense.c **** ********************************************************************************
1767:Generated_Source\PSoC4/CapSense.c **** *
1768:Generated_Source\PSoC4/CapSense.c **** * Summary:
1769:Generated_Source\PSoC4/CapSense.c **** *  The API returns a bit status of the bit in the table array which contains the masks.
1770:Generated_Source\PSoC4/CapSense.c **** *
1771:Generated_Source\PSoC4/CapSense.c **** * Parameters:
1772:Generated_Source\PSoC4/CapSense.c **** *  table[] - array with bit masks.
1773:Generated_Source\PSoC4/CapSense.c **** *  position - position of bit in the table[] array.
1774:Generated_Source\PSoC4/CapSense.c **** *
1775:Generated_Source\PSoC4/CapSense.c **** * Return:
1776:Generated_Source\PSoC4/CapSense.c **** *  0 - bit is not set; 1 - bit is set.
1777:Generated_Source\PSoC4/CapSense.c **** *
1778:Generated_Source\PSoC4/CapSense.c **** * Global Variables:
1779:Generated_Source\PSoC4/CapSense.c **** *  None
1780:Generated_Source\PSoC4/CapSense.c **** *
1781:Generated_Source\PSoC4/CapSense.c **** * Side Effects:
1782:Generated_Source\PSoC4/CapSense.c **** *  None
1783:Generated_Source\PSoC4/CapSense.c **** *
1784:Generated_Source\PSoC4/CapSense.c **** *******************************************************************************/
1785:Generated_Source\PSoC4/CapSense.c **** uint32 CapSense_GetBitValue(const uint8 table[], uint32 position)
1786:Generated_Source\PSoC4/CapSense.c **** {
 2106              		.loc 1 1786 0
 2107              		.cfi_startproc
 2108 0000 80B5     		push	{r7, lr}
 2109              		.cfi_def_cfa_offset 8
 2110              		.cfi_offset 7, -8
 2111              		.cfi_offset 14, -4
 2112 0002 84B0     		sub	sp, sp, #16
 2113              		.cfi_def_cfa_offset 24
 2114 0004 00AF     		add	r7, sp, #0
 2115              		.cfi_def_cfa_register 7
 2116 0006 7860     		str	r0, [r7, #4]
 2117 0008 3960     		str	r1, [r7]
1787:Generated_Source\PSoC4/CapSense.c ****     uint32 offset;
1788:Generated_Source\PSoC4/CapSense.c ****     uint8 enMask;
1789:Generated_Source\PSoC4/CapSense.c **** 
1790:Generated_Source\PSoC4/CapSense.c ****     /* position is divided by 8 to calculate the element of the
1791:Generated_Source\PSoC4/CapSense.c ****        table[] array that contains the enable bit
1792:Generated_Source\PSoC4/CapSense.c ****        for an appropriate sensor.
1793:Generated_Source\PSoC4/CapSense.c ****     */
1794:Generated_Source\PSoC4/CapSense.c ****     offset = (position >> 3u);
 2118              		.loc 1 1794 0
 2119 000a 3B68     		ldr	r3, [r7]
 2120 000c DB08     		lsr	r3, r3, #3
 2121 000e FB60     		str	r3, [r7, #12]
1795:Generated_Source\PSoC4/CapSense.c **** 
1796:Generated_Source\PSoC4/CapSense.c ****     /* The enMask calculation for the appropriate sensor. Operation (position & 0x07u)
1797:Generated_Source\PSoC4/CapSense.c ****        intends to calculate the enable bit offset for the 8-bit element of the
ARM GAS  C:\Users\poornima\AppData\Local\Temp\ccI9K5HH.s 			page 70


1798:Generated_Source\PSoC4/CapSense.c ****        table[] array.
1799:Generated_Source\PSoC4/CapSense.c ****     */
1800:Generated_Source\PSoC4/CapSense.c ****     enMask = 0x01u << (position & 0x07u);
 2122              		.loc 1 1800 0
 2123 0010 3B68     		ldr	r3, [r7]
 2124 0012 0722     		mov	r2, #7
 2125 0014 1340     		and	r3, r2
 2126 0016 0122     		mov	r2, #1
 2127 0018 9A40     		lsl	r2, r2, r3
 2128 001a 0B23     		mov	r3, #11
 2129 001c FB18     		add	r3, r7, r3
 2130 001e 1A70     		strb	r2, [r3]
1801:Generated_Source\PSoC4/CapSense.c **** 
1802:Generated_Source\PSoC4/CapSense.c ****     return ((0u !=(table[offset] & enMask)) ? 1Lu : 0Lu);
 2131              		.loc 1 1802 0
 2132 0020 7A68     		ldr	r2, [r7, #4]
 2133 0022 FB68     		ldr	r3, [r7, #12]
 2134 0024 D318     		add	r3, r2, r3
 2135 0026 1B78     		ldrb	r3, [r3]
 2136 0028 0B22     		mov	r2, #11
 2137 002a BA18     		add	r2, r7, r2
 2138 002c 1278     		ldrb	r2, [r2]
 2139 002e 1340     		and	r3, r2
 2140 0030 DBB2     		uxtb	r3, r3
 2141 0032 002B     		cmp	r3, #0
 2142 0034 01D0     		beq	.L102
 2143              		.loc 1 1802 0 is_stmt 0 discriminator 1
 2144 0036 0123     		mov	r3, #1
 2145 0038 00E0     		b	.L103
 2146              	.L102:
 2147              		.loc 1 1802 0 discriminator 2
 2148 003a 0023     		mov	r3, #0
 2149              	.L103:
1803:Generated_Source\PSoC4/CapSense.c **** }
 2150              		.loc 1 1803 0 is_stmt 1 discriminator 4
 2151 003c 181C     		mov	r0, r3
 2152 003e BD46     		mov	sp, r7
 2153 0040 04B0     		add	sp, sp, #16
 2154              		@ sp needed
 2155 0042 80BD     		pop	{r7, pc}
 2156              		.cfi_endproc
 2157              	.LFE60:
 2158              		.size	CapSense_GetBitValue, .-CapSense_GetBitValue
 2159              		.section	.text.CapSense_SetBitValue,"ax",%progbits
 2160              		.align	2
 2161              		.global	CapSense_SetBitValue
 2162              		.code	16
 2163              		.thumb_func
 2164              		.type	CapSense_SetBitValue, %function
 2165              	CapSense_SetBitValue:
 2166              	.LFB61:
1804:Generated_Source\PSoC4/CapSense.c **** 
1805:Generated_Source\PSoC4/CapSense.c **** 
1806:Generated_Source\PSoC4/CapSense.c **** /*******************************************************************************
1807:Generated_Source\PSoC4/CapSense.c **** * Function Name: CapSense_SetBitValue
1808:Generated_Source\PSoC4/CapSense.c **** ********************************************************************************
1809:Generated_Source\PSoC4/CapSense.c **** *
ARM GAS  C:\Users\poornima\AppData\Local\Temp\ccI9K5HH.s 			page 71


1810:Generated_Source\PSoC4/CapSense.c **** * Summary:
1811:Generated_Source\PSoC4/CapSense.c **** *  The API sets a bit status of the bit in the table array which contains masks.
1812:Generated_Source\PSoC4/CapSense.c **** *
1813:Generated_Source\PSoC4/CapSense.c **** * Parameters:
1814:Generated_Source\PSoC4/CapSense.c **** *  table[] - array with bit masks.
1815:Generated_Source\PSoC4/CapSense.c **** *  position - position of bit in the table[] array.
1816:Generated_Source\PSoC4/CapSense.c **** *  value: 0 - bit is not set; 1 - bit is set.
1817:Generated_Source\PSoC4/CapSense.c **** *
1818:Generated_Source\PSoC4/CapSense.c **** * Return:
1819:Generated_Source\PSoC4/CapSense.c **** *  None
1820:Generated_Source\PSoC4/CapSense.c **** *
1821:Generated_Source\PSoC4/CapSense.c **** * Global Variables:
1822:Generated_Source\PSoC4/CapSense.c **** *  None
1823:Generated_Source\PSoC4/CapSense.c **** *
1824:Generated_Source\PSoC4/CapSense.c **** * Side Effects:
1825:Generated_Source\PSoC4/CapSense.c **** *  None
1826:Generated_Source\PSoC4/CapSense.c **** *
1827:Generated_Source\PSoC4/CapSense.c **** *******************************************************************************/
1828:Generated_Source\PSoC4/CapSense.c **** void CapSense_SetBitValue(uint8 table[], uint32 position, uint32 value)
1829:Generated_Source\PSoC4/CapSense.c **** {
 2167              		.loc 1 1829 0
 2168              		.cfi_startproc
 2169 0000 80B5     		push	{r7, lr}
 2170              		.cfi_def_cfa_offset 8
 2171              		.cfi_offset 7, -8
 2172              		.cfi_offset 14, -4
 2173 0002 86B0     		sub	sp, sp, #24
 2174              		.cfi_def_cfa_offset 32
 2175 0004 00AF     		add	r7, sp, #0
 2176              		.cfi_def_cfa_register 7
 2177 0006 F860     		str	r0, [r7, #12]
 2178 0008 B960     		str	r1, [r7, #8]
 2179 000a 7A60     		str	r2, [r7, #4]
1830:Generated_Source\PSoC4/CapSense.c ****     uint32 offset;
1831:Generated_Source\PSoC4/CapSense.c ****     uint8 enMask;
1832:Generated_Source\PSoC4/CapSense.c **** 
1833:Generated_Source\PSoC4/CapSense.c ****     /* position is divided by 8 to calculate the element of the
1834:Generated_Source\PSoC4/CapSense.c ****        table[] array that contains the enable bit
1835:Generated_Source\PSoC4/CapSense.c ****        for an appropriate sensor.
1836:Generated_Source\PSoC4/CapSense.c ****     */
1837:Generated_Source\PSoC4/CapSense.c ****     offset = (position >> 3u);
 2180              		.loc 1 1837 0
 2181 000c BB68     		ldr	r3, [r7, #8]
 2182 000e DB08     		lsr	r3, r3, #3
 2183 0010 7B61     		str	r3, [r7, #20]
1838:Generated_Source\PSoC4/CapSense.c **** 
1839:Generated_Source\PSoC4/CapSense.c ****     /* The enMask calculation for the appropriate sensor. Operation (position & 0x07u)
1840:Generated_Source\PSoC4/CapSense.c ****        intends to calculate the enable bit offset for the 8-bit element of the
1841:Generated_Source\PSoC4/CapSense.c ****        table[] array.
1842:Generated_Source\PSoC4/CapSense.c ****     */
1843:Generated_Source\PSoC4/CapSense.c ****     enMask = 0x01u << (position & 0x07u);
 2184              		.loc 1 1843 0
 2185 0012 BB68     		ldr	r3, [r7, #8]
 2186 0014 0722     		mov	r2, #7
 2187 0016 1340     		and	r3, r2
 2188 0018 0122     		mov	r2, #1
 2189 001a 9A40     		lsl	r2, r2, r3
ARM GAS  C:\Users\poornima\AppData\Local\Temp\ccI9K5HH.s 			page 72


 2190 001c 1323     		mov	r3, #19
 2191 001e FB18     		add	r3, r7, r3
 2192 0020 1A70     		strb	r2, [r3]
1844:Generated_Source\PSoC4/CapSense.c **** 
1845:Generated_Source\PSoC4/CapSense.c ****     if(0u != value)
 2193              		.loc 1 1845 0
 2194 0022 7B68     		ldr	r3, [r7, #4]
 2195 0024 002B     		cmp	r3, #0
 2196 0026 0DD0     		beq	.L106
1846:Generated_Source\PSoC4/CapSense.c ****     {
1847:Generated_Source\PSoC4/CapSense.c ****         table[offset] |= enMask;
 2197              		.loc 1 1847 0
 2198 0028 FA68     		ldr	r2, [r7, #12]
 2199 002a 7B69     		ldr	r3, [r7, #20]
 2200 002c D318     		add	r3, r2, r3
 2201 002e F968     		ldr	r1, [r7, #12]
 2202 0030 7A69     		ldr	r2, [r7, #20]
 2203 0032 8A18     		add	r2, r1, r2
 2204 0034 1178     		ldrb	r1, [r2]
 2205 0036 1322     		mov	r2, #19
 2206 0038 BA18     		add	r2, r7, r2
 2207 003a 1278     		ldrb	r2, [r2]
 2208 003c 0A43     		orr	r2, r1
 2209 003e D2B2     		uxtb	r2, r2
 2210 0040 1A70     		strb	r2, [r3]
 2211 0042 0EE0     		b	.L105
 2212              	.L106:
1848:Generated_Source\PSoC4/CapSense.c ****     }
1849:Generated_Source\PSoC4/CapSense.c ****     else
1850:Generated_Source\PSoC4/CapSense.c ****     {
1851:Generated_Source\PSoC4/CapSense.c ****         table[offset] &= (uint8)~(enMask);
 2213              		.loc 1 1851 0
 2214 0044 FA68     		ldr	r2, [r7, #12]
 2215 0046 7B69     		ldr	r3, [r7, #20]
 2216 0048 D318     		add	r3, r2, r3
 2217 004a F968     		ldr	r1, [r7, #12]
 2218 004c 7A69     		ldr	r2, [r7, #20]
 2219 004e 8A18     		add	r2, r1, r2
 2220 0050 1278     		ldrb	r2, [r2]
 2221 0052 1321     		mov	r1, #19
 2222 0054 7918     		add	r1, r7, r1
 2223 0056 0978     		ldrb	r1, [r1]
 2224 0058 C943     		mvn	r1, r1
 2225 005a C9B2     		uxtb	r1, r1
 2226 005c 0A40     		and	r2, r1
 2227 005e D2B2     		uxtb	r2, r2
 2228 0060 1A70     		strb	r2, [r3]
 2229              	.L105:
1852:Generated_Source\PSoC4/CapSense.c ****     }
1853:Generated_Source\PSoC4/CapSense.c **** }
 2230              		.loc 1 1853 0
 2231 0062 BD46     		mov	sp, r7
 2232 0064 06B0     		add	sp, sp, #24
 2233              		@ sp needed
 2234 0066 80BD     		pop	{r7, pc}
 2235              		.cfi_endproc
 2236              	.LFE61:
ARM GAS  C:\Users\poornima\AppData\Local\Temp\ccI9K5HH.s 			page 73


 2237              		.size	CapSense_SetBitValue, .-CapSense_SetBitValue
 2238              		.section	.text.CapSense_GetSenseClkDivider,"ax",%progbits
 2239              		.align	2
 2240              		.global	CapSense_GetSenseClkDivider
 2241              		.code	16
 2242              		.thumb_func
 2243              		.type	CapSense_GetSenseClkDivider, %function
 2244              	CapSense_GetSenseClkDivider:
 2245              	.LFB62:
1854:Generated_Source\PSoC4/CapSense.c **** 
1855:Generated_Source\PSoC4/CapSense.c **** 
1856:Generated_Source\PSoC4/CapSense.c **** 
1857:Generated_Source\PSoC4/CapSense.c **** /*******************************************************************************
1858:Generated_Source\PSoC4/CapSense.c **** * Function Name: CapSense_GetSenseClkDivider
1859:Generated_Source\PSoC4/CapSense.c **** ********************************************************************************
1860:Generated_Source\PSoC4/CapSense.c **** *
1861:Generated_Source\PSoC4/CapSense.c **** * Summary:
1862:Generated_Source\PSoC4/CapSense.c **** *  This API returns a value of the sense clock divider for the  sensor.
1863:Generated_Source\PSoC4/CapSense.c **** *
1864:Generated_Source\PSoC4/CapSense.c **** * Parameters:
1865:Generated_Source\PSoC4/CapSense.c **** *  sensor: sensor index. The index value can be
1866:Generated_Source\PSoC4/CapSense.c **** *  from 0 to (CapSense_TOTAL_SENSOR_COUNT-1).
1867:Generated_Source\PSoC4/CapSense.c **** *
1868:Generated_Source\PSoC4/CapSense.c **** * Return:
1869:Generated_Source\PSoC4/CapSense.c **** *  This API returns the sense clock divider of the sensor.
1870:Generated_Source\PSoC4/CapSense.c **** *
1871:Generated_Source\PSoC4/CapSense.c **** * Global Variables:
1872:Generated_Source\PSoC4/CapSense.c **** *  CapSense_senseClkDividerVal[] - stores the sense clock divider values.
1873:Generated_Source\PSoC4/CapSense.c **** *
1874:Generated_Source\PSoC4/CapSense.c **** * Side Effects:
1875:Generated_Source\PSoC4/CapSense.c **** *  None
1876:Generated_Source\PSoC4/CapSense.c **** *
1877:Generated_Source\PSoC4/CapSense.c **** *******************************************************************************/
1878:Generated_Source\PSoC4/CapSense.c **** uint32 CapSense_GetSenseClkDivider(uint32 sensor)
1879:Generated_Source\PSoC4/CapSense.c **** {
 2246              		.loc 1 1879 0
 2247              		.cfi_startproc
 2248 0000 80B5     		push	{r7, lr}
 2249              		.cfi_def_cfa_offset 8
 2250              		.cfi_offset 7, -8
 2251              		.cfi_offset 14, -4
 2252 0002 82B0     		sub	sp, sp, #8
 2253              		.cfi_def_cfa_offset 16
 2254 0004 00AF     		add	r7, sp, #0
 2255              		.cfi_def_cfa_register 7
 2256 0006 7860     		str	r0, [r7, #4]
1880:Generated_Source\PSoC4/CapSense.c ****     #if(0u != CapSense_MULTIPLE_FREQUENCY_SET)
1881:Generated_Source\PSoC4/CapSense.c ****         return((uint32)CapSense_senseClkDividerVal[sensor]);
 2257              		.loc 1 1881 0
 2258 0008 034A     		ldr	r2, .L110
 2259 000a 7B68     		ldr	r3, [r7, #4]
 2260 000c D318     		add	r3, r2, r3
 2261 000e 1B78     		ldrb	r3, [r3]
1882:Generated_Source\PSoC4/CapSense.c ****     #else
1883:Generated_Source\PSoC4/CapSense.c ****         return((uint32)CapSense_senseClkDividerVal);
1884:Generated_Source\PSoC4/CapSense.c ****     #endif /* (0u != CapSense_MULTIPLE_FREQUENCY_SET) */
1885:Generated_Source\PSoC4/CapSense.c **** }
ARM GAS  C:\Users\poornima\AppData\Local\Temp\ccI9K5HH.s 			page 74


 2262              		.loc 1 1885 0
 2263 0010 181C     		mov	r0, r3
 2264 0012 BD46     		mov	sp, r7
 2265 0014 02B0     		add	sp, sp, #8
 2266              		@ sp needed
 2267 0016 80BD     		pop	{r7, pc}
 2268              	.L111:
 2269              		.align	2
 2270              	.L110:
 2271 0018 00000000 		.word	CapSense_senseClkDividerVal
 2272              		.cfi_endproc
 2273              	.LFE62:
 2274              		.size	CapSense_GetSenseClkDivider, .-CapSense_GetSenseClkDivider
 2275              		.section	.text.CapSense_SetSenseClkDivider,"ax",%progbits
 2276              		.align	2
 2277              		.global	CapSense_SetSenseClkDivider
 2278              		.code	16
 2279              		.thumb_func
 2280              		.type	CapSense_SetSenseClkDivider, %function
 2281              	CapSense_SetSenseClkDivider:
 2282              	.LFB63:
1886:Generated_Source\PSoC4/CapSense.c **** 
1887:Generated_Source\PSoC4/CapSense.c **** #if (CapSense_TUNING_METHOD != CapSense__TUNING_NONE)
1888:Generated_Source\PSoC4/CapSense.c ****     /*******************************************************************************
1889:Generated_Source\PSoC4/CapSense.c ****     * Function Name: CapSense_SetSenseClkDivider
1890:Generated_Source\PSoC4/CapSense.c ****     ********************************************************************************
1891:Generated_Source\PSoC4/CapSense.c ****     *
1892:Generated_Source\PSoC4/CapSense.c ****     * Summary:
1893:Generated_Source\PSoC4/CapSense.c ****     *  This API sets a value of the sense clock divider for the  sensor.
1894:Generated_Source\PSoC4/CapSense.c ****     *
1895:Generated_Source\PSoC4/CapSense.c ****     * Parameters:
1896:Generated_Source\PSoC4/CapSense.c ****     *  sensor:  Sensor index.
1897:Generated_Source\PSoC4/CapSense.c ****     *  senseClk: represents the sense clock value.
1898:Generated_Source\PSoC4/CapSense.c ****     *
1899:Generated_Source\PSoC4/CapSense.c ****     * Return:
1900:Generated_Source\PSoC4/CapSense.c ****     *  None.
1901:Generated_Source\PSoC4/CapSense.c ****     *
1902:Generated_Source\PSoC4/CapSense.c ****     * Global Variables:
1903:Generated_Source\PSoC4/CapSense.c ****     *  CapSense_senseClkDividerVal[] - stores the sense clock divider values.
1904:Generated_Source\PSoC4/CapSense.c ****     *
1905:Generated_Source\PSoC4/CapSense.c ****     * Side Effects:
1906:Generated_Source\PSoC4/CapSense.c ****     *  None
1907:Generated_Source\PSoC4/CapSense.c ****     *
1908:Generated_Source\PSoC4/CapSense.c ****     *******************************************************************************/
1909:Generated_Source\PSoC4/CapSense.c ****     void CapSense_SetSenseClkDivider(uint32 sensor, uint32 senseClk)
1910:Generated_Source\PSoC4/CapSense.c ****     {
 2283              		.loc 1 1910 0
 2284              		.cfi_startproc
 2285 0000 80B5     		push	{r7, lr}
 2286              		.cfi_def_cfa_offset 8
 2287              		.cfi_offset 7, -8
 2288              		.cfi_offset 14, -4
 2289 0002 82B0     		sub	sp, sp, #8
 2290              		.cfi_def_cfa_offset 16
 2291 0004 00AF     		add	r7, sp, #0
 2292              		.cfi_def_cfa_register 7
 2293 0006 7860     		str	r0, [r7, #4]
ARM GAS  C:\Users\poornima\AppData\Local\Temp\ccI9K5HH.s 			page 75


 2294 0008 3960     		str	r1, [r7]
1911:Generated_Source\PSoC4/CapSense.c ****         #if(0u != CapSense_MULTIPLE_FREQUENCY_SET)
1912:Generated_Source\PSoC4/CapSense.c ****             CapSense_senseClkDividerVal[sensor] = (uint8)senseClk;
 2295              		.loc 1 1912 0
 2296 000a 3B68     		ldr	r3, [r7]
 2297 000c D9B2     		uxtb	r1, r3
 2298 000e 044A     		ldr	r2, .L113
 2299 0010 7B68     		ldr	r3, [r7, #4]
 2300 0012 D318     		add	r3, r2, r3
 2301 0014 0A1C     		add	r2, r1, #0
 2302 0016 1A70     		strb	r2, [r3]
1913:Generated_Source\PSoC4/CapSense.c ****         #else
1914:Generated_Source\PSoC4/CapSense.c ****             CapSense_senseClkDividerVal = (uint8)senseClk;
1915:Generated_Source\PSoC4/CapSense.c ****         #endif /* (0u != CapSense_MULTIPLE_FREQUENCY_SET) */
1916:Generated_Source\PSoC4/CapSense.c ****     }
 2303              		.loc 1 1916 0
 2304 0018 BD46     		mov	sp, r7
 2305 001a 02B0     		add	sp, sp, #8
 2306              		@ sp needed
 2307 001c 80BD     		pop	{r7, pc}
 2308              	.L114:
 2309 001e C046     		.align	2
 2310              	.L113:
 2311 0020 00000000 		.word	CapSense_senseClkDividerVal
 2312              		.cfi_endproc
 2313              	.LFE63:
 2314              		.size	CapSense_SetSenseClkDivider, .-CapSense_SetSenseClkDivider
 2315              		.section	.text.CapSense_GetModulatorClkDivider,"ax",%progbits
 2316              		.align	2
 2317              		.global	CapSense_GetModulatorClkDivider
 2318              		.code	16
 2319              		.thumb_func
 2320              		.type	CapSense_GetModulatorClkDivider, %function
 2321              	CapSense_GetModulatorClkDivider:
 2322              	.LFB64:
1917:Generated_Source\PSoC4/CapSense.c **** #endif /* (CapSense_TUNING_METHOD != CapSense__TUNING_NONE) */
1918:Generated_Source\PSoC4/CapSense.c **** 
1919:Generated_Source\PSoC4/CapSense.c **** 
1920:Generated_Source\PSoC4/CapSense.c **** /*******************************************************************************
1921:Generated_Source\PSoC4/CapSense.c **** * Function Name: CapSense_GetModulatorClkDivider
1922:Generated_Source\PSoC4/CapSense.c **** ********************************************************************************
1923:Generated_Source\PSoC4/CapSense.c **** *
1924:Generated_Source\PSoC4/CapSense.c **** * Summary:
1925:Generated_Source\PSoC4/CapSense.c **** *  This API returns a value of the modulator sample clock divider for the  sensor.
1926:Generated_Source\PSoC4/CapSense.c **** *
1927:Generated_Source\PSoC4/CapSense.c **** * Parameters:
1928:Generated_Source\PSoC4/CapSense.c **** *  sensor: sensor index. The value of index can be
1929:Generated_Source\PSoC4/CapSense.c **** *  from 0 to (CapSense_TOTAL_SENSOR_COUNT-1).
1930:Generated_Source\PSoC4/CapSense.c **** *
1931:Generated_Source\PSoC4/CapSense.c **** * Return:
1932:Generated_Source\PSoC4/CapSense.c **** *  This API returns the modulator sample clock divider for the  sensor.
1933:Generated_Source\PSoC4/CapSense.c **** *
1934:Generated_Source\PSoC4/CapSense.c **** * Global Variables:
1935:Generated_Source\PSoC4/CapSense.c **** *  CapSense_sampleClkDividerVal[] - stores the modulator sample divider values.
1936:Generated_Source\PSoC4/CapSense.c **** *
1937:Generated_Source\PSoC4/CapSense.c **** * Side Effects:
1938:Generated_Source\PSoC4/CapSense.c **** *  None
ARM GAS  C:\Users\poornima\AppData\Local\Temp\ccI9K5HH.s 			page 76


1939:Generated_Source\PSoC4/CapSense.c **** *
1940:Generated_Source\PSoC4/CapSense.c **** *******************************************************************************/
1941:Generated_Source\PSoC4/CapSense.c **** uint32 CapSense_GetModulatorClkDivider(uint32 sensor)
1942:Generated_Source\PSoC4/CapSense.c **** {
 2323              		.loc 1 1942 0
 2324              		.cfi_startproc
 2325 0000 80B5     		push	{r7, lr}
 2326              		.cfi_def_cfa_offset 8
 2327              		.cfi_offset 7, -8
 2328              		.cfi_offset 14, -4
 2329 0002 82B0     		sub	sp, sp, #8
 2330              		.cfi_def_cfa_offset 16
 2331 0004 00AF     		add	r7, sp, #0
 2332              		.cfi_def_cfa_register 7
 2333 0006 7860     		str	r0, [r7, #4]
1943:Generated_Source\PSoC4/CapSense.c ****     #if(0u != CapSense_MULTIPLE_FREQUENCY_SET)
1944:Generated_Source\PSoC4/CapSense.c ****         return((uint32)CapSense_sampleClkDividerVal[sensor]);
 2334              		.loc 1 1944 0
 2335 0008 034A     		ldr	r2, .L117
 2336 000a 7B68     		ldr	r3, [r7, #4]
 2337 000c D318     		add	r3, r2, r3
 2338 000e 1B78     		ldrb	r3, [r3]
1945:Generated_Source\PSoC4/CapSense.c ****     #else
1946:Generated_Source\PSoC4/CapSense.c ****         return((uint32)CapSense_sampleClkDividerVal);
1947:Generated_Source\PSoC4/CapSense.c ****     #endif /* (0u != CapSense_MULTIPLE_FREQUENCY_SET) */
1948:Generated_Source\PSoC4/CapSense.c **** }
 2339              		.loc 1 1948 0
 2340 0010 181C     		mov	r0, r3
 2341 0012 BD46     		mov	sp, r7
 2342 0014 02B0     		add	sp, sp, #8
 2343              		@ sp needed
 2344 0016 80BD     		pop	{r7, pc}
 2345              	.L118:
 2346              		.align	2
 2347              	.L117:
 2348 0018 00000000 		.word	CapSense_sampleClkDividerVal
 2349              		.cfi_endproc
 2350              	.LFE64:
 2351              		.size	CapSense_GetModulatorClkDivider, .-CapSense_GetModulatorClkDivider
 2352              		.section	.text.CapSense_SetModulatorClkDivider,"ax",%progbits
 2353              		.align	2
 2354              		.global	CapSense_SetModulatorClkDivider
 2355              		.code	16
 2356              		.thumb_func
 2357              		.type	CapSense_SetModulatorClkDivider, %function
 2358              	CapSense_SetModulatorClkDivider:
 2359              	.LFB65:
1949:Generated_Source\PSoC4/CapSense.c **** 
1950:Generated_Source\PSoC4/CapSense.c **** #if (CapSense_TUNING_METHOD != CapSense__TUNING_NONE)
1951:Generated_Source\PSoC4/CapSense.c ****     /*******************************************************************************
1952:Generated_Source\PSoC4/CapSense.c ****     * Function Name: CapSense_SetModulatorClkDivider
1953:Generated_Source\PSoC4/CapSense.c ****     ********************************************************************************
1954:Generated_Source\PSoC4/CapSense.c ****     *
1955:Generated_Source\PSoC4/CapSense.c ****     * Summary:
1956:Generated_Source\PSoC4/CapSense.c ****     *  This API sets a value of the modulator sample clock divider for the  sensor.
1957:Generated_Source\PSoC4/CapSense.c ****     *
1958:Generated_Source\PSoC4/CapSense.c ****     * Parameters:
ARM GAS  C:\Users\poornima\AppData\Local\Temp\ccI9K5HH.s 			page 77


1959:Generated_Source\PSoC4/CapSense.c ****     *  sensor:  Sensor index.
1960:Generated_Source\PSoC4/CapSense.c ****     *  modulatorClk: represents the modulator sample clock value.
1961:Generated_Source\PSoC4/CapSense.c ****     *
1962:Generated_Source\PSoC4/CapSense.c ****     * Return:
1963:Generated_Source\PSoC4/CapSense.c ****     *  None.
1964:Generated_Source\PSoC4/CapSense.c ****     *
1965:Generated_Source\PSoC4/CapSense.c ****     * Global Variables:
1966:Generated_Source\PSoC4/CapSense.c ****     *  CapSense_sampleClkDividerVal[] - stores the modulator sample divider values.
1967:Generated_Source\PSoC4/CapSense.c ****     *
1968:Generated_Source\PSoC4/CapSense.c ****     * Side Effects:
1969:Generated_Source\PSoC4/CapSense.c ****     *  None
1970:Generated_Source\PSoC4/CapSense.c ****     *
1971:Generated_Source\PSoC4/CapSense.c ****     *******************************************************************************/
1972:Generated_Source\PSoC4/CapSense.c ****     void CapSense_SetModulatorClkDivider(uint32 sensor, uint32 modulatorClk)
1973:Generated_Source\PSoC4/CapSense.c ****     {
 2360              		.loc 1 1973 0
 2361              		.cfi_startproc
 2362 0000 80B5     		push	{r7, lr}
 2363              		.cfi_def_cfa_offset 8
 2364              		.cfi_offset 7, -8
 2365              		.cfi_offset 14, -4
 2366 0002 82B0     		sub	sp, sp, #8
 2367              		.cfi_def_cfa_offset 16
 2368 0004 00AF     		add	r7, sp, #0
 2369              		.cfi_def_cfa_register 7
 2370 0006 7860     		str	r0, [r7, #4]
 2371 0008 3960     		str	r1, [r7]
1974:Generated_Source\PSoC4/CapSense.c ****         #if(0u != CapSense_MULTIPLE_FREQUENCY_SET)
1975:Generated_Source\PSoC4/CapSense.c ****             CapSense_sampleClkDividerVal[sensor] = (uint8)modulatorClk;
 2372              		.loc 1 1975 0
 2373 000a 3B68     		ldr	r3, [r7]
 2374 000c D9B2     		uxtb	r1, r3
 2375 000e 044A     		ldr	r2, .L120
 2376 0010 7B68     		ldr	r3, [r7, #4]
 2377 0012 D318     		add	r3, r2, r3
 2378 0014 0A1C     		add	r2, r1, #0
