ARM GAS  C:\Users\poornima\AppData\Local\Temp\ccI9K5HH.s 			page 1


   1              		.cpu cortex-m0
   2              		.fpu softvfp
   3              		.eabi_attribute 20, 1
   4              		.eabi_attribute 21, 1
   5              		.eabi_attribute 23, 3
   6              		.eabi_attribute 24, 1
   7              		.eabi_attribute 25, 1
   8              		.eabi_attribute 26, 1
   9              		.eabi_attribute 30, 6
  10              		.eabi_attribute 34, 0
  11              		.eabi_attribute 18, 4
  12              		.code	16
  13              		.file	"CapSense.c"
  14              		.text
  15              	.Ltext0:
  16              		.cfi_sections	.debug_frame
  17              		.global	CapSense_lowLevelTuningDone
  18              		.bss
  19              		.type	CapSense_lowLevelTuningDone, %object
  20              		.size	CapSense_lowLevelTuningDone, 1
  21              	CapSense_lowLevelTuningDone:
  22 0000 00       		.space	1
  23              		.comm	CapSense_scanSpeedTbl,2,4
  24              		.global	CapSense_prescalersTuningDone
  25              		.type	CapSense_prescalersTuningDone, %object
  26              		.size	CapSense_prescalersTuningDone, 1
  27              	CapSense_prescalersTuningDone:
  28 0001 00       		.space	1
  29              		.global	CapSense_csdStatusVar
  30              		.type	CapSense_csdStatusVar, %object
  31              		.size	CapSense_csdStatusVar, 1
  32              	CapSense_csdStatusVar:
  33 0002 00       		.space	1
  34              		.global	CapSense_sensorIndex
  35              		.type	CapSense_sensorIndex, %object
  36              		.size	CapSense_sensorIndex, 1
  37              	CapSense_sensorIndex:
  38 0003 00       		.space	1
  39              		.global	CapSense_sensorRaw
  40              		.align	2
  41              		.type	CapSense_sensorRaw, %object
  42              		.size	CapSense_sensorRaw, 32
  43              	CapSense_sensorRaw:
  44 0004 00000000 		.space	32
  44      00000000 
  44      00000000 
  44      00000000 
  44      00000000 
  45              		.comm	CapSense_csdTrim1,1,1
  46              		.comm	CapSense_unscannedSnsDriveMode,16,4
  47              		.comm	CapSense_sensorEnableMaskBackup,2,4
  48              		.global	CapSense_sensorEnableMask
  49              		.data
  50              		.align	2
  51              		.type	CapSense_sensorEnableMask, %object
  52              		.size	CapSense_sensorEnableMask, 2
  53              	CapSense_sensorEnableMask:
ARM GAS  C:\Users\poornima\AppData\Local\Temp\ccI9K5HH.s 			page 2


  54 0000 FF       		.byte	-1
  55 0001 FF       		.byte	-1
  56              		.global	CapSense_pcTable
  57 0002 0000     		.align	2
  58              		.type	CapSense_pcTable, %object
  59              		.size	CapSense_pcTable, 64
  60              	CapSense_pcTable:
  61 0004 08030440 		.word	1074004744
  62 0008 08030440 		.word	1074004744
  63 000c 08030440 		.word	1074004744
  64 0010 08030440 		.word	1074004744
  65 0014 08030440 		.word	1074004744
  66 0018 08030440 		.word	1074004744
  67 001c 08030440 		.word	1074004744
  68 0020 08040440 		.word	1074005000
  69 0024 08040440 		.word	1074005000
  70 0028 08040440 		.word	1074005000
  71 002c 08040440 		.word	1074005000
  72 0030 08060440 		.word	1074005512
  73 0034 08060440 		.word	1074005512
  74 0038 08060440 		.word	1074005512
  75 003c 08060440 		.word	1074005512
  76 0040 08030440 		.word	1074004744
  77              		.global	CapSense_portTable
  78              		.section	.rodata
  79              		.align	2
  80              		.type	CapSense_portTable, %object
  81              		.size	CapSense_portTable, 16
  82              	CapSense_portTable:
  83 0000 03       		.byte	3
  84 0001 03       		.byte	3
  85 0002 03       		.byte	3
  86 0003 03       		.byte	3
  87 0004 03       		.byte	3
  88 0005 03       		.byte	3
  89 0006 03       		.byte	3
  90 0007 04       		.byte	4
  91 0008 04       		.byte	4
  92 0009 04       		.byte	4
  93 000a 04       		.byte	4
  94 000b 06       		.byte	6
  95 000c 06       		.byte	6
  96 000d 06       		.byte	6
  97 000e 06       		.byte	6
  98 000f 03       		.byte	3
  99              		.global	CapSense_maskTable
 100              		.align	2
 101              		.type	CapSense_maskTable, %object
 102              		.size	CapSense_maskTable, 64
 103              	CapSense_maskTable:
 104 0010 02000000 		.word	2
 105 0014 04000000 		.word	4
 106 0018 08000000 		.word	8
 107 001c 10000000 		.word	16
 108 0020 20000000 		.word	32
 109 0024 40000000 		.word	64
 110 0028 80000000 		.word	128
ARM GAS  C:\Users\poornima\AppData\Local\Temp\ccI9K5HH.s 			page 3


 111 002c 01000000 		.word	1
 112 0030 02000000 		.word	2
 113 0034 08000000 		.word	8
 114 0038 10000000 		.word	16
 115 003c 02000000 		.word	2
 116 0040 04000000 		.word	4
 117 0044 10000000 		.word	16
 118 0048 20000000 		.word	32
 119 004c 01000000 		.word	1
 120              		.global	CapSense_pinShiftTbl
 121              		.align	2
 122              		.type	CapSense_pinShiftTbl, %object
 123              		.size	CapSense_pinShiftTbl, 16
 124              	CapSense_pinShiftTbl:
 125 0050 01       		.byte	1
 126 0051 02       		.byte	2
 127 0052 03       		.byte	3
 128 0053 04       		.byte	4
 129 0054 05       		.byte	5
 130 0055 06       		.byte	6
 131 0056 07       		.byte	7
 132 0057 00       		.byte	0
 133 0058 01       		.byte	1
 134 0059 03       		.byte	3
 135 005a 04       		.byte	4
 136 005b 01       		.byte	1
 137 005c 02       		.byte	2
 138 005d 04       		.byte	4
 139 005e 05       		.byte	5
 140 005f 00       		.byte	0
 141              		.comm	CapSense_modulationIDAC,16,4
 142              		.comm	CapSense_compensationIDAC,16,4
 143              		.global	CapSense_widgetResolution
 144              		.data
 145              		.align	2
 146              		.type	CapSense_widgetResolution, %object
 147              		.size	CapSense_widgetResolution, 32
 148              	CapSense_widgetResolution:
 149 0044 0000FF0F 		.word	268369920
 150 0048 0000FF0F 		.word	268369920
 151 004c 0000FF0F 		.word	268369920
 152 0050 0000FF0F 		.word	268369920
 153 0054 0000FF0F 		.word	268369920
 154 0058 0000FF0F 		.word	268369920
 155 005c 0000FF0F 		.word	268369920
 156 0060 0000FF0F 		.word	268369920
 157              		.comm	CapSense_senseClkDividerVal,16,4
 158              		.comm	CapSense_sampleClkDividerVal,16,4
 159              		.global	CapSense_widgetNumber
 160              		.section	.rodata
 161              		.align	2
 162              		.type	CapSense_widgetNumber, %object
 163              		.size	CapSense_widgetNumber, 16
 164              	CapSense_widgetNumber:
 165 0060 02       		.byte	2
 166 0061 03       		.byte	3
 167 0062 04       		.byte	4
ARM GAS  C:\Users\poornima\AppData\Local\Temp\ccI9K5HH.s 			page 4


 168 0063 05       		.byte	5
 169 0064 06       		.byte	6
 170 0065 07       		.byte	7
 171 0066 00       		.byte	0
 172 0067 00       		.byte	0
 173 0068 00       		.byte	0
 174 0069 00       		.byte	0
 175 006a 00       		.byte	0
 176 006b 01       		.byte	1
 177 006c 01       		.byte	1
 178 006d 01       		.byte	1
 179 006e 01       		.byte	1
 180 006f 01       		.byte	1
 181              		.global	CapSense_prtSelTbl
 182              		.align	2
 183              		.type	CapSense_prtSelTbl, %object
 184              		.size	CapSense_prtSelTbl, 32
 185              	CapSense_prtSelTbl:
 186 0070 00000240 		.word	1073872896
 187 0074 00010240 		.word	1073873152
 188 0078 00020240 		.word	1073873408
 189 007c 00030240 		.word	1073873664
 190 0080 00040240 		.word	1073873920
 191 0084 00050240 		.word	1073874176
 192 0088 00060240 		.word	1073874432
 193 008c 00070240 		.word	1073874688
 194              		.global	CapSense_prtCfgTbl
 195              		.align	2
 196              		.type	CapSense_prtCfgTbl, %object
 197              		.size	CapSense_prtCfgTbl, 32
 198              	CapSense_prtCfgTbl:
 199 0090 08000440 		.word	1074003976
 200 0094 08010440 		.word	1074004232
 201 0098 08020440 		.word	1074004488
 202 009c 08030440 		.word	1074004744
 203 00a0 08040440 		.word	1074005000
 204 00a4 08050440 		.word	1074005256
 205 00a8 08060440 		.word	1074005512
 206 00ac 08070440 		.word	1074005768
 207              		.global	CapSense_prtDRTbl
 208              		.align	2
 209              		.type	CapSense_prtDRTbl, %object
 210              		.size	CapSense_prtDRTbl, 32
 211              	CapSense_prtDRTbl:
 212 00b0 00000440 		.word	1074003968
 213 00b4 00010440 		.word	1074004224
 214 00b8 00020440 		.word	1074004480
 215 00bc 00030440 		.word	1074004736
 216 00c0 00040440 		.word	1074004992
 217 00c4 00050440 		.word	1074005248
 218 00c8 00060440 		.word	1074005504
 219 00cc 00070440 		.word	1074005760
 220              		.section	.text.CapSense_Init,"ax",%progbits
 221              		.align	2
 222              		.global	CapSense_Init
 223              		.code	16
 224              		.thumb_func
ARM GAS  C:\Users\poornima\AppData\Local\Temp\ccI9K5HH.s 			page 5


 225              		.type	CapSense_Init, %function
 226              	CapSense_Init:
 227              	.LFB35:
 228              		.file 1 "Generated_Source\\PSoC4\\CapSense.c"
   1:Generated_Source\PSoC4/CapSense.c **** /*******************************************************************************
   2:Generated_Source\PSoC4/CapSense.c **** * File Name: CapSense.c
   3:Generated_Source\PSoC4/CapSense.c **** * Version 2.40
   4:Generated_Source\PSoC4/CapSense.c **** *
   5:Generated_Source\PSoC4/CapSense.c **** * Description:
   6:Generated_Source\PSoC4/CapSense.c **** *  This file provides the source code for scanning APIs for the CapSense CSD
   7:Generated_Source\PSoC4/CapSense.c **** *  component.
   8:Generated_Source\PSoC4/CapSense.c **** *
   9:Generated_Source\PSoC4/CapSense.c **** * Note:
  10:Generated_Source\PSoC4/CapSense.c **** *
  11:Generated_Source\PSoC4/CapSense.c **** ********************************************************************************
  12:Generated_Source\PSoC4/CapSense.c **** * Copyright 2013-2015, Cypress Semiconductor Corporation.  All rights reserved.
  13:Generated_Source\PSoC4/CapSense.c **** * You may use this file only in accordance with the license, terms, conditions,
  14:Generated_Source\PSoC4/CapSense.c **** * disclaimers, and limitations in the end user license agreement accompanying
  15:Generated_Source\PSoC4/CapSense.c **** * the software package with which this file was provided.
  16:Generated_Source\PSoC4/CapSense.c **** *******************************************************************************/
  17:Generated_Source\PSoC4/CapSense.c **** 
  18:Generated_Source\PSoC4/CapSense.c **** #include "CapSense.h"
  19:Generated_Source\PSoC4/CapSense.c **** #include "CapSense_PVT.h"
  20:Generated_Source\PSoC4/CapSense.c **** #include "cypins.h"
  21:Generated_Source\PSoC4/CapSense.c **** #include "cyapicallbacks.h"
  22:Generated_Source\PSoC4/CapSense.c **** 
  23:Generated_Source\PSoC4/CapSense.c **** #if(0u != CapSense_CSHL_API_GENERATE)
  24:Generated_Source\PSoC4/CapSense.c ****     #include "CapSense_CSHL.h"
  25:Generated_Source\PSoC4/CapSense.c **** #endif /* (0u != CapSense_CSHL_API_GENERATE) */
  26:Generated_Source\PSoC4/CapSense.c **** 
  27:Generated_Source\PSoC4/CapSense.c **** /* This definition is intended to prevent unexpected linker error.
  28:Generated_Source\PSoC4/CapSense.c ****    For more details please see the IAR Technical Note 49981 */
  29:Generated_Source\PSoC4/CapSense.c **** #if defined(__ICCARM__)
  30:Generated_Source\PSoC4/CapSense.c ****     extern void CapSense_EnableSensor(uint32 sensor);
  31:Generated_Source\PSoC4/CapSense.c ****     extern void CapSense_DisableSensor(uint32 sensor);
  32:Generated_Source\PSoC4/CapSense.c **** #endif /* (__ICCARM__) */
  33:Generated_Source\PSoC4/CapSense.c **** 
  34:Generated_Source\PSoC4/CapSense.c **** /* SmartSense functions */
  35:Generated_Source\PSoC4/CapSense.c **** #if (CapSense_TUNING_METHOD == CapSense__TUNING_AUTO)
  36:Generated_Source\PSoC4/CapSense.c ****     uint8 CapSense_lowLevelTuningDone = 0u;
  37:Generated_Source\PSoC4/CapSense.c ****     uint8 CapSense_scanSpeedTbl[((CapSense_TOTAL_SENSOR_COUNT - 1u) / 8u) + 1u];
  38:Generated_Source\PSoC4/CapSense.c **** #endif /* (CapSense_TUNING_METHOD == CapSense__TUNING_AUTO) */
  39:Generated_Source\PSoC4/CapSense.c **** 
  40:Generated_Source\PSoC4/CapSense.c **** #if(CapSense_PRS_OPTIONS != CapSense__PRS_NONE)
  41:Generated_Source\PSoC4/CapSense.c ****     uint8 CapSense_prescalersTuningDone = 0u;
  42:Generated_Source\PSoC4/CapSense.c **** #endif /* (CapSense_PRS_OPTIONS == CapSense__PRS_NONE) */
  43:Generated_Source\PSoC4/CapSense.c **** 
  44:Generated_Source\PSoC4/CapSense.c **** /* Global software variables */
  45:Generated_Source\PSoC4/CapSense.c **** volatile uint8 CapSense_csdStatusVar = 0u;   /* CapSense CSD status, variable */
  46:Generated_Source\PSoC4/CapSense.c **** volatile uint8 CapSense_sensorIndex = 0u;    /* Index of scannig sensor */
  47:Generated_Source\PSoC4/CapSense.c **** 
  48:Generated_Source\PSoC4/CapSense.c **** /* Global array of Raw Counts */
  49:Generated_Source\PSoC4/CapSense.c **** uint16 CapSense_sensorRaw[CapSense_TOTAL_SENSOR_COUNT] = {0u};
  50:Generated_Source\PSoC4/CapSense.c **** 
  51:Generated_Source\PSoC4/CapSense.c **** /* Backup variables for trim registers*/
  52:Generated_Source\PSoC4/CapSense.c **** #if (CapSense_IDAC1_POLARITY == CapSense__IDAC_SINK)
  53:Generated_Source\PSoC4/CapSense.c ****     uint8 CapSense_csdTrim2;
ARM GAS  C:\Users\poornima\AppData\Local\Temp\ccI9K5HH.s 			page 6


  54:Generated_Source\PSoC4/CapSense.c **** #else
  55:Generated_Source\PSoC4/CapSense.c ****     uint8 CapSense_csdTrim1;
  56:Generated_Source\PSoC4/CapSense.c **** #endif /* (CapSense_IDAC1_POLARITY == CapSense__IDAC_SINK) */
  57:Generated_Source\PSoC4/CapSense.c **** 
  58:Generated_Source\PSoC4/CapSense.c **** /* Global array of un-scanned sensors state */
  59:Generated_Source\PSoC4/CapSense.c **** uint8 CapSense_unscannedSnsDriveMode[CapSense_PORT_PIN_CONFIG_TBL_ZISE];
  60:Generated_Source\PSoC4/CapSense.c **** 
  61:Generated_Source\PSoC4/CapSense.c **** /* Backup array for CapSense_sensorEnableMask */
  62:Generated_Source\PSoC4/CapSense.c **** uint8 CapSense_sensorEnableMaskBackup[(((CapSense_TOTAL_SENSOR_COUNT - 1u) / 8u) + 1u)];
  63:Generated_Source\PSoC4/CapSense.c **** 
  64:Generated_Source\PSoC4/CapSense.c **** /* Configured constants and arrays by Customizer */
  65:Generated_Source\PSoC4/CapSense.c **** uint8 CapSense_sensorEnableMask[(((CapSense_TOTAL_SENSOR_COUNT - 1u) / 8u) + 1u)] = {
  66:Generated_Source\PSoC4/CapSense.c **** 0xFFu, 0xFFu, };
  67:Generated_Source\PSoC4/CapSense.c **** 
  68:Generated_Source\PSoC4/CapSense.c **** reg32 * CapSense_pcTable[] = {
  69:Generated_Source\PSoC4/CapSense.c ****     (reg32 *)CapSense_Sns__Button0__BTN__PC, 
  70:Generated_Source\PSoC4/CapSense.c ****     (reg32 *)CapSense_Sns__Button1__BTN__PC, 
  71:Generated_Source\PSoC4/CapSense.c ****     (reg32 *)CapSense_Sns__Button2__BTN__PC, 
  72:Generated_Source\PSoC4/CapSense.c ****     (reg32 *)CapSense_Sns__Button3__BTN__PC, 
  73:Generated_Source\PSoC4/CapSense.c ****     (reg32 *)CapSense_Sns__Button4__BTN__PC, 
  74:Generated_Source\PSoC4/CapSense.c ****     (reg32 *)CapSense_Sns__Button5__BTN__PC, 
  75:Generated_Source\PSoC4/CapSense.c ****     (reg32 *)CapSense_Sns__RadialSlider0_e0__RS__PC, 
  76:Generated_Source\PSoC4/CapSense.c ****     (reg32 *)CapSense_Sns__RadialSlider0_e1__RS__PC, 
  77:Generated_Source\PSoC4/CapSense.c ****     (reg32 *)CapSense_Sns__RadialSlider0_e2__RS__PC, 
  78:Generated_Source\PSoC4/CapSense.c ****     (reg32 *)CapSense_Sns__RadialSlider0_e3__RS__PC, 
  79:Generated_Source\PSoC4/CapSense.c ****     (reg32 *)CapSense_Sns__RadialSlider0_e4__RS__PC, 
  80:Generated_Source\PSoC4/CapSense.c ****     (reg32 *)CapSense_Sns__RadialSlider1_e0__RS__PC, 
  81:Generated_Source\PSoC4/CapSense.c ****     (reg32 *)CapSense_Sns__RadialSlider1_e1__RS__PC, 
  82:Generated_Source\PSoC4/CapSense.c ****     (reg32 *)CapSense_Sns__RadialSlider1_e2__RS__PC, 
  83:Generated_Source\PSoC4/CapSense.c ****     (reg32 *)CapSense_Sns__RadialSlider1_e3__RS__PC, 
  84:Generated_Source\PSoC4/CapSense.c ****     (reg32 *)CapSense_Sns__RadialSlider1_e4__RS__PC, 
  85:Generated_Source\PSoC4/CapSense.c **** };
  86:Generated_Source\PSoC4/CapSense.c **** 
  87:Generated_Source\PSoC4/CapSense.c **** const uint8 CapSense_portTable[] = {
  88:Generated_Source\PSoC4/CapSense.c ****     CapSense_Sns__Button0__BTN__PORT, 
  89:Generated_Source\PSoC4/CapSense.c ****     CapSense_Sns__Button1__BTN__PORT, 
  90:Generated_Source\PSoC4/CapSense.c ****     CapSense_Sns__Button2__BTN__PORT, 
  91:Generated_Source\PSoC4/CapSense.c ****     CapSense_Sns__Button3__BTN__PORT, 
  92:Generated_Source\PSoC4/CapSense.c ****     CapSense_Sns__Button4__BTN__PORT, 
  93:Generated_Source\PSoC4/CapSense.c ****     CapSense_Sns__Button5__BTN__PORT, 
  94:Generated_Source\PSoC4/CapSense.c ****     CapSense_Sns__RadialSlider0_e0__RS__PORT, 
  95:Generated_Source\PSoC4/CapSense.c ****     CapSense_Sns__RadialSlider0_e1__RS__PORT, 
  96:Generated_Source\PSoC4/CapSense.c ****     CapSense_Sns__RadialSlider0_e2__RS__PORT, 
  97:Generated_Source\PSoC4/CapSense.c ****     CapSense_Sns__RadialSlider0_e3__RS__PORT, 
  98:Generated_Source\PSoC4/CapSense.c ****     CapSense_Sns__RadialSlider0_e4__RS__PORT, 
  99:Generated_Source\PSoC4/CapSense.c ****     CapSense_Sns__RadialSlider1_e0__RS__PORT, 
 100:Generated_Source\PSoC4/CapSense.c ****     CapSense_Sns__RadialSlider1_e1__RS__PORT, 
 101:Generated_Source\PSoC4/CapSense.c ****     CapSense_Sns__RadialSlider1_e2__RS__PORT, 
 102:Generated_Source\PSoC4/CapSense.c ****     CapSense_Sns__RadialSlider1_e3__RS__PORT, 
 103:Generated_Source\PSoC4/CapSense.c ****     CapSense_Sns__RadialSlider1_e4__RS__PORT, 
 104:Generated_Source\PSoC4/CapSense.c **** };
 105:Generated_Source\PSoC4/CapSense.c **** 
 106:Generated_Source\PSoC4/CapSense.c **** const uint32 CapSense_maskTable[] = {
 107:Generated_Source\PSoC4/CapSense.c ****     CapSense_Sns__Button0__BTN__MASK, 
 108:Generated_Source\PSoC4/CapSense.c ****     CapSense_Sns__Button1__BTN__MASK, 
 109:Generated_Source\PSoC4/CapSense.c ****     CapSense_Sns__Button2__BTN__MASK, 
 110:Generated_Source\PSoC4/CapSense.c ****     CapSense_Sns__Button3__BTN__MASK, 
ARM GAS  C:\Users\poornima\AppData\Local\Temp\ccI9K5HH.s 			page 7


 111:Generated_Source\PSoC4/CapSense.c ****     CapSense_Sns__Button4__BTN__MASK, 
 112:Generated_Source\PSoC4/CapSense.c ****     CapSense_Sns__Button5__BTN__MASK, 
 113:Generated_Source\PSoC4/CapSense.c ****     CapSense_Sns__RadialSlider0_e0__RS__MASK, 
 114:Generated_Source\PSoC4/CapSense.c ****     CapSense_Sns__RadialSlider0_e1__RS__MASK, 
 115:Generated_Source\PSoC4/CapSense.c ****     CapSense_Sns__RadialSlider0_e2__RS__MASK, 
 116:Generated_Source\PSoC4/CapSense.c ****     CapSense_Sns__RadialSlider0_e3__RS__MASK, 
 117:Generated_Source\PSoC4/CapSense.c ****     CapSense_Sns__RadialSlider0_e4__RS__MASK, 
 118:Generated_Source\PSoC4/CapSense.c ****     CapSense_Sns__RadialSlider1_e0__RS__MASK, 
 119:Generated_Source\PSoC4/CapSense.c ****     CapSense_Sns__RadialSlider1_e1__RS__MASK, 
 120:Generated_Source\PSoC4/CapSense.c ****     CapSense_Sns__RadialSlider1_e2__RS__MASK, 
 121:Generated_Source\PSoC4/CapSense.c ****     CapSense_Sns__RadialSlider1_e3__RS__MASK, 
 122:Generated_Source\PSoC4/CapSense.c ****     CapSense_Sns__RadialSlider1_e4__RS__MASK, 
 123:Generated_Source\PSoC4/CapSense.c **** };
 124:Generated_Source\PSoC4/CapSense.c **** 
 125:Generated_Source\PSoC4/CapSense.c **** const uint8 CapSense_pinShiftTbl[] = {
 126:Generated_Source\PSoC4/CapSense.c ****     (uint8) CapSense_Sns__Button0__BTN__SHIFT, 
 127:Generated_Source\PSoC4/CapSense.c ****     (uint8) CapSense_Sns__Button1__BTN__SHIFT, 
 128:Generated_Source\PSoC4/CapSense.c ****     (uint8) CapSense_Sns__Button2__BTN__SHIFT, 
 129:Generated_Source\PSoC4/CapSense.c ****     (uint8) CapSense_Sns__Button3__BTN__SHIFT, 
 130:Generated_Source\PSoC4/CapSense.c ****     (uint8) CapSense_Sns__Button4__BTN__SHIFT, 
 131:Generated_Source\PSoC4/CapSense.c ****     (uint8) CapSense_Sns__Button5__BTN__SHIFT, 
 132:Generated_Source\PSoC4/CapSense.c ****     (uint8) CapSense_Sns__RadialSlider0_e0__RS__SHIFT, 
 133:Generated_Source\PSoC4/CapSense.c ****     (uint8) CapSense_Sns__RadialSlider0_e1__RS__SHIFT, 
 134:Generated_Source\PSoC4/CapSense.c ****     (uint8) CapSense_Sns__RadialSlider0_e2__RS__SHIFT, 
 135:Generated_Source\PSoC4/CapSense.c ****     (uint8) CapSense_Sns__RadialSlider0_e3__RS__SHIFT, 
 136:Generated_Source\PSoC4/CapSense.c ****     (uint8) CapSense_Sns__RadialSlider0_e4__RS__SHIFT, 
 137:Generated_Source\PSoC4/CapSense.c ****     (uint8) CapSense_Sns__RadialSlider1_e0__RS__SHIFT, 
 138:Generated_Source\PSoC4/CapSense.c ****     (uint8) CapSense_Sns__RadialSlider1_e1__RS__SHIFT, 
 139:Generated_Source\PSoC4/CapSense.c ****     (uint8) CapSense_Sns__RadialSlider1_e2__RS__SHIFT, 
 140:Generated_Source\PSoC4/CapSense.c ****     (uint8) CapSense_Sns__RadialSlider1_e3__RS__SHIFT, 
 141:Generated_Source\PSoC4/CapSense.c ****     (uint8) CapSense_Sns__RadialSlider1_e4__RS__SHIFT, 
 142:Generated_Source\PSoC4/CapSense.c **** };
 143:Generated_Source\PSoC4/CapSense.c **** 
 144:Generated_Source\PSoC4/CapSense.c **** uint8 CapSense_modulationIDAC[CapSense_TOTAL_SENSOR_COUNT];
 145:Generated_Source\PSoC4/CapSense.c **** uint8 CapSense_compensationIDAC[CapSense_TOTAL_SENSOR_COUNT];
 146:Generated_Source\PSoC4/CapSense.c **** 
 147:Generated_Source\PSoC4/CapSense.c **** uint32 CapSense_widgetResolution[CapSense_RESOLUTIONS_TBL_SIZE] = {
 148:Generated_Source\PSoC4/CapSense.c ****     CapSense_RESOLUTION_12_BITS,
 149:Generated_Source\PSoC4/CapSense.c ****     CapSense_RESOLUTION_12_BITS,
 150:Generated_Source\PSoC4/CapSense.c ****     CapSense_RESOLUTION_12_BITS,
 151:Generated_Source\PSoC4/CapSense.c ****     CapSense_RESOLUTION_12_BITS,
 152:Generated_Source\PSoC4/CapSense.c ****     CapSense_RESOLUTION_12_BITS,
 153:Generated_Source\PSoC4/CapSense.c ****     CapSense_RESOLUTION_12_BITS,
 154:Generated_Source\PSoC4/CapSense.c ****     CapSense_RESOLUTION_12_BITS,
 155:Generated_Source\PSoC4/CapSense.c ****     CapSense_RESOLUTION_12_BITS,
 156:Generated_Source\PSoC4/CapSense.c **** };
 157:Generated_Source\PSoC4/CapSense.c **** 
 158:Generated_Source\PSoC4/CapSense.c **** uint8 CapSense_senseClkDividerVal[CapSense_TOTAL_SCANSLOT_COUNT];
 159:Generated_Source\PSoC4/CapSense.c **** uint8 CapSense_sampleClkDividerVal[CapSense_TOTAL_SCANSLOT_COUNT];
 160:Generated_Source\PSoC4/CapSense.c **** 
 161:Generated_Source\PSoC4/CapSense.c **** const uint8 CapSense_widgetNumber[CapSense_TOTAL_SENSOR_COUNT] = {
 162:Generated_Source\PSoC4/CapSense.c ****     2u, /* Button0__BTN */
 163:Generated_Source\PSoC4/CapSense.c ****     3u, /* Button1__BTN */
 164:Generated_Source\PSoC4/CapSense.c ****     4u, /* Button2__BTN */
 165:Generated_Source\PSoC4/CapSense.c ****     5u, /* Button3__BTN */
 166:Generated_Source\PSoC4/CapSense.c ****     6u, /* Button4__BTN */
 167:Generated_Source\PSoC4/CapSense.c ****     7u, /* Button5__BTN */
ARM GAS  C:\Users\poornima\AppData\Local\Temp\ccI9K5HH.s 			page 8


 168:Generated_Source\PSoC4/CapSense.c ****     0u, 0u, 0u, 0u, 0u, /* RadialSlider0__RS */
 169:Generated_Source\PSoC4/CapSense.c ****     1u, 1u, 1u, 1u, 1u, /* RadialSlider1__RS */
 170:Generated_Source\PSoC4/CapSense.c **** };
 171:Generated_Source\PSoC4/CapSense.c **** 
 172:Generated_Source\PSoC4/CapSense.c **** reg32* const CapSense_prtSelTbl[CapSense_CFG_REG_TBL_SIZE] = {
 173:Generated_Source\PSoC4/CapSense.c ****     ((reg32 *) CYREG_HSIOM_PORT_SEL0),
 174:Generated_Source\PSoC4/CapSense.c ****     ((reg32 *) CYREG_HSIOM_PORT_SEL1),
 175:Generated_Source\PSoC4/CapSense.c ****     ((reg32 *) CYREG_HSIOM_PORT_SEL2),
 176:Generated_Source\PSoC4/CapSense.c ****     ((reg32 *) CYREG_HSIOM_PORT_SEL3),
 177:Generated_Source\PSoC4/CapSense.c ****     ((reg32 *) CYREG_HSIOM_PORT_SEL4),
 178:Generated_Source\PSoC4/CapSense.c ****     ((reg32 *) CYREG_HSIOM_PORT_SEL5),
 179:Generated_Source\PSoC4/CapSense.c ****     ((reg32 *) CYREG_HSIOM_PORT_SEL6),
 180:Generated_Source\PSoC4/CapSense.c ****     ((reg32 *) CYREG_HSIOM_PORT_SEL7),
 181:Generated_Source\PSoC4/CapSense.c **** };
 182:Generated_Source\PSoC4/CapSense.c **** 
 183:Generated_Source\PSoC4/CapSense.c **** reg32* const CapSense_prtCfgTbl[CapSense_CFG_REG_TBL_SIZE] = {
 184:Generated_Source\PSoC4/CapSense.c ****     ((reg32 *) CYREG_GPIO_PRT0_PC),
 185:Generated_Source\PSoC4/CapSense.c ****     ((reg32 *) CYREG_GPIO_PRT1_PC),
 186:Generated_Source\PSoC4/CapSense.c ****     ((reg32 *) CYREG_GPIO_PRT2_PC),
 187:Generated_Source\PSoC4/CapSense.c ****     ((reg32 *) CYREG_GPIO_PRT3_PC),
 188:Generated_Source\PSoC4/CapSense.c ****     ((reg32 *) CYREG_GPIO_PRT4_PC),
 189:Generated_Source\PSoC4/CapSense.c ****     ((reg32 *) CYREG_GPIO_PRT5_PC),
 190:Generated_Source\PSoC4/CapSense.c ****     ((reg32 *) CYREG_GPIO_PRT6_PC),
 191:Generated_Source\PSoC4/CapSense.c ****     ((reg32 *) CYREG_GPIO_PRT7_PC),
 192:Generated_Source\PSoC4/CapSense.c **** };
 193:Generated_Source\PSoC4/CapSense.c **** 
 194:Generated_Source\PSoC4/CapSense.c **** reg32* const CapSense_prtDRTbl[CapSense_CFG_REG_TBL_SIZE] = {
 195:Generated_Source\PSoC4/CapSense.c ****     ((reg32 *) CYREG_GPIO_PRT0_DR),
 196:Generated_Source\PSoC4/CapSense.c ****     ((reg32 *) CYREG_GPIO_PRT1_DR),
 197:Generated_Source\PSoC4/CapSense.c ****     ((reg32 *) CYREG_GPIO_PRT2_DR),
 198:Generated_Source\PSoC4/CapSense.c ****     ((reg32 *) CYREG_GPIO_PRT3_DR),
 199:Generated_Source\PSoC4/CapSense.c ****     ((reg32 *) CYREG_GPIO_PRT4_DR),
 200:Generated_Source\PSoC4/CapSense.c ****     ((reg32 *) CYREG_GPIO_PRT5_DR),
 201:Generated_Source\PSoC4/CapSense.c ****     ((reg32 *) CYREG_GPIO_PRT6_DR),
 202:Generated_Source\PSoC4/CapSense.c ****     ((reg32 *) CYREG_GPIO_PRT7_DR),
 203:Generated_Source\PSoC4/CapSense.c **** };
 204:Generated_Source\PSoC4/CapSense.c **** 
 205:Generated_Source\PSoC4/CapSense.c **** 
 206:Generated_Source\PSoC4/CapSense.c **** 
 207:Generated_Source\PSoC4/CapSense.c **** /*******************************************************************************
 208:Generated_Source\PSoC4/CapSense.c **** * Function Name: CapSense_Init
 209:Generated_Source\PSoC4/CapSense.c **** ********************************************************************************
 210:Generated_Source\PSoC4/CapSense.c **** *
 211:Generated_Source\PSoC4/CapSense.c **** * Summary:
 212:Generated_Source\PSoC4/CapSense.c **** *  API initializes default CapSense configuration provided by the customizer that defines
 213:Generated_Source\PSoC4/CapSense.c **** *  the mode of component operations and resets all the sensors to an inactive state.
 214:Generated_Source\PSoC4/CapSense.c **** *
 215:Generated_Source\PSoC4/CapSense.c **** * Parameters:
 216:Generated_Source\PSoC4/CapSense.c **** *  None
 217:Generated_Source\PSoC4/CapSense.c **** *
 218:Generated_Source\PSoC4/CapSense.c **** * Return:
 219:Generated_Source\PSoC4/CapSense.c **** *  None
 220:Generated_Source\PSoC4/CapSense.c **** *
 221:Generated_Source\PSoC4/CapSense.c **** * Global Variables:
 222:Generated_Source\PSoC4/CapSense.c **** *  CapSense_immunityIndex - defines immunity level.
 223:Generated_Source\PSoC4/CapSense.c **** *
 224:Generated_Source\PSoC4/CapSense.c **** * Side Effects:
ARM GAS  C:\Users\poornima\AppData\Local\Temp\ccI9K5HH.s 			page 9


 225:Generated_Source\PSoC4/CapSense.c **** *  None
 226:Generated_Source\PSoC4/CapSense.c **** *
 227:Generated_Source\PSoC4/CapSense.c **** *******************************************************************************/
 228:Generated_Source\PSoC4/CapSense.c **** void CapSense_Init(void)
 229:Generated_Source\PSoC4/CapSense.c **** {
 229              		.loc 1 229 0
 230              		.cfi_startproc
 231 0000 80B5     		push	{r7, lr}
 232              		.cfi_def_cfa_offset 8
 233              		.cfi_offset 7, -8
 234              		.cfi_offset 14, -4
 235 0002 82B0     		sub	sp, sp, #8
 236              		.cfi_def_cfa_offset 16
 237 0004 00AF     		add	r7, sp, #0
 238              		.cfi_def_cfa_register 7
 230:Generated_Source\PSoC4/CapSense.c ****     uint32 curSensor;
 231:Generated_Source\PSoC4/CapSense.c **** 
 232:Generated_Source\PSoC4/CapSense.c ****     #if(CapSense_IS_SHIELD_ENABLE)
 233:Generated_Source\PSoC4/CapSense.c **** 
 234:Generated_Source\PSoC4/CapSense.c ****         #if((CapSense_CSH_TANK_PREGARGE_OPTION == CapSense__CAPPRIOBUF) || (0u != CapSense_CSH_TANK
 235:Generated_Source\PSoC4/CapSense.c ****             uint32 newRegValue;
 236:Generated_Source\PSoC4/CapSense.c **** 
 237:Generated_Source\PSoC4/CapSense.c ****             newRegValue = CapSense_CTANK_CONNECTION_REG;
 238:Generated_Source\PSoC4/CapSense.c ****             newRegValue &= ~(CapSense_CSD_CTANK_CONNECTION_MASK);
 239:Generated_Source\PSoC4/CapSense.c ****             newRegValue |= CapSense_CSD_CTANK_TO_AMUXBUS_B;
 240:Generated_Source\PSoC4/CapSense.c ****             CapSense_CTANK_CONNECTION_REG = newRegValue;
 241:Generated_Source\PSoC4/CapSense.c **** 
 242:Generated_Source\PSoC4/CapSense.c ****             #if(CapSense_CSH_TANK_PREGARGE_OPTION == CapSense__CAPPRIOBUF)
 243:Generated_Source\PSoC4/CapSense.c ****                 newRegValue = CapSense_CTANK_PORT_PC_REG;
 244:Generated_Source\PSoC4/CapSense.c ****                 newRegValue &= ~(CapSense_CSD_CTANK_PC_MASK);
 245:Generated_Source\PSoC4/CapSense.c ****                 newRegValue |= CapSense_CTANK_PC_STRONG_MODE;
 246:Generated_Source\PSoC4/CapSense.c ****                 CapSense_CTANK_PORT_PC_REG = newRegValue;
 247:Generated_Source\PSoC4/CapSense.c **** 
 248:Generated_Source\PSoC4/CapSense.c ****                 newRegValue = CapSense_CTANK_PORT_DR_REG;
 249:Generated_Source\PSoC4/CapSense.c ****                 newRegValue &= ~(CapSense_CTANK_DR_MASK);
 250:Generated_Source\PSoC4/CapSense.c ****                 newRegValue |= CapSense_CTANK_DR_CONFIG;
 251:Generated_Source\PSoC4/CapSense.c ****                 CapSense_CTANK_PORT_DR_REG = newRegValue;
 252:Generated_Source\PSoC4/CapSense.c ****             #endif /* (CapSense_CSH_TANK_PREGARGE_OPTION == CapSense__CAPPRIOBUF) */
 253:Generated_Source\PSoC4/CapSense.c **** 
 254:Generated_Source\PSoC4/CapSense.c ****         #endif /* ((CapSense_CSH_TANK_PREGARGE_OPTION == CapSense__CAPPRIOBUF) || (CapSense_CSH_TAN
 255:Generated_Source\PSoC4/CapSense.c **** 
 256:Generated_Source\PSoC4/CapSense.c ****         CapSense_EnableShieldElectrode((uint32)CapSense_SHIELD_PIN_NUMBER, (uint32)CapSense_SHIELD_
 257:Generated_Source\PSoC4/CapSense.c **** 
 258:Generated_Source\PSoC4/CapSense.c ****     #endif /* (CapSense_IS_SHIELD_ENABLE) */
 259:Generated_Source\PSoC4/CapSense.c **** 
 260:Generated_Source\PSoC4/CapSense.c ****     for(curSensor = 0u; curSensor < CapSense_TOTAL_SENSOR_COUNT; curSensor++)
 239              		.loc 1 260 0
 240 0006 0023     		mov	r3, #0
 241 0008 7B60     		str	r3, [r7, #4]
 242 000a 07E0     		b	.L2
 243              	.L3:
 261:Generated_Source\PSoC4/CapSense.c ****     {
 262:Generated_Source\PSoC4/CapSense.c ****         CapSense_SetUnscannedSensorState(curSensor, CapSense_CONNECT_INACTIVE_SNS);
 244              		.loc 1 262 0 discriminator 3
 245 000c 7B68     		ldr	r3, [r7, #4]
 246 000e 181C     		mov	r0, r3
 247 0010 0021     		mov	r1, #0
ARM GAS  C:\Users\poornima\AppData\Local\Temp\ccI9K5HH.s 			page 10


 248 0012 FFF7FEFF 		bl	CapSense_SetUnscannedSensorState
 260:Generated_Source\PSoC4/CapSense.c ****     {
 249              		.loc 1 260 0 discriminator 3
 250 0016 7B68     		ldr	r3, [r7, #4]
 251 0018 0133     		add	r3, r3, #1
 252 001a 7B60     		str	r3, [r7, #4]
 253              	.L2:
 260:Generated_Source\PSoC4/CapSense.c ****     {
 254              		.loc 1 260 0 is_stmt 0 discriminator 1
 255 001c 7B68     		ldr	r3, [r7, #4]
 256 001e 0F2B     		cmp	r3, #15
 257 0020 F4D9     		bls	.L3
 263:Generated_Source\PSoC4/CapSense.c ****     }
 264:Generated_Source\PSoC4/CapSense.c **** 
 265:Generated_Source\PSoC4/CapSense.c ****     CapSense_CsdHwBlockInit();
 258              		.loc 1 265 0 is_stmt 1
 259 0022 FFF7FEFF 		bl	CapSense_CsdHwBlockInit
 266:Generated_Source\PSoC4/CapSense.c ****     CapSense_SetShieldDelay(CapSense_SHIELD_DELAY );
 260              		.loc 1 266 0
 261 0026 0020     		mov	r0, #0
 262 0028 FFF7FEFF 		bl	CapSense_SetShieldDelay
 267:Generated_Source\PSoC4/CapSense.c **** 
 268:Generated_Source\PSoC4/CapSense.c ****     /* Clear all sensors */
 269:Generated_Source\PSoC4/CapSense.c ****     CapSense_ClearSensors();
 263              		.loc 1 269 0
 264 002c FFF7FEFF 		bl	CapSense_ClearSensors
 270:Generated_Source\PSoC4/CapSense.c **** }
 265              		.loc 1 270 0
 266 0030 BD46     		mov	sp, r7
 267 0032 02B0     		add	sp, sp, #8
 268              		@ sp needed
 269 0034 80BD     		pop	{r7, pc}
 270              		.cfi_endproc
 271              	.LFE35:
 272              		.size	CapSense_Init, .-CapSense_Init
 273 0036 C046     		.section	.text.CapSense_CsdHwBlockInit,"ax",%progbits
 274              		.align	2
 275              		.global	CapSense_CsdHwBlockInit
 276              		.code	16
 277              		.thumb_func
 278              		.type	CapSense_CsdHwBlockInit, %function
 279              	CapSense_CsdHwBlockInit:
 280              	.LFB36:
 271:Generated_Source\PSoC4/CapSense.c **** 
 272:Generated_Source\PSoC4/CapSense.c **** /*******************************************************************************
 273:Generated_Source\PSoC4/CapSense.c **** * Function Name: CapSense_CsdHwBlockInit
 274:Generated_Source\PSoC4/CapSense.c **** ********************************************************************************
 275:Generated_Source\PSoC4/CapSense.c **** *
 276:Generated_Source\PSoC4/CapSense.c **** * Summary:
 277:Generated_Source\PSoC4/CapSense.c **** *  Initialises the hardware parameters of the CSD block
 278:Generated_Source\PSoC4/CapSense.c **** *
 279:Generated_Source\PSoC4/CapSense.c **** * Parameters:
 280:Generated_Source\PSoC4/CapSense.c **** *  None
 281:Generated_Source\PSoC4/CapSense.c **** *
 282:Generated_Source\PSoC4/CapSense.c **** * Return:
 283:Generated_Source\PSoC4/CapSense.c **** *  None
 284:Generated_Source\PSoC4/CapSense.c **** *
ARM GAS  C:\Users\poornima\AppData\Local\Temp\ccI9K5HH.s 			page 11


 285:Generated_Source\PSoC4/CapSense.c **** * Global Variables:
 286:Generated_Source\PSoC4/CapSense.c **** *  CapSense_csdTrim1 - Contains IDAC trim register value for Sourcing Mode.
 287:Generated_Source\PSoC4/CapSense.c **** *  CapSense_csdTrim2 - Contains IDAC trim register value for Sinking Mode.
 288:Generated_Source\PSoC4/CapSense.c **** *
 289:Generated_Source\PSoC4/CapSense.c **** * Side Effects:
 290:Generated_Source\PSoC4/CapSense.c **** *  None
 291:Generated_Source\PSoC4/CapSense.c **** *
 292:Generated_Source\PSoC4/CapSense.c **** *******************************************************************************/
 293:Generated_Source\PSoC4/CapSense.c **** void CapSense_CsdHwBlockInit(void)
 294:Generated_Source\PSoC4/CapSense.c **** {
 281              		.loc 1 294 0
 282              		.cfi_startproc
 283 0000 80B5     		push	{r7, lr}
 284              		.cfi_def_cfa_offset 8
 285              		.cfi_offset 7, -8
 286              		.cfi_offset 14, -4
 287 0002 82B0     		sub	sp, sp, #8
 288              		.cfi_def_cfa_offset 16
 289 0004 00AF     		add	r7, sp, #0
 290              		.cfi_def_cfa_register 7
 295:Generated_Source\PSoC4/CapSense.c ****     uint32 newRegValue;
 296:Generated_Source\PSoC4/CapSense.c **** 
 297:Generated_Source\PSoC4/CapSense.c ****         /* Set trim registers for CSD Mode */
 298:Generated_Source\PSoC4/CapSense.c ****     #if (CapSense_IDAC1_POLARITY == CapSense__IDAC_SINK)
 299:Generated_Source\PSoC4/CapSense.c ****         /* iDAC1 Sinking Mode */
 300:Generated_Source\PSoC4/CapSense.c ****         CapSense_csdTrim2 = (uint8)CapSense_CSD_TRIM2_REG;
 301:Generated_Source\PSoC4/CapSense.c ****         newRegValue = CapSense_csdTrim2;
 302:Generated_Source\PSoC4/CapSense.c ****         newRegValue &= CapSense_CSD_IDAC1_TRIM_MASK;
 303:Generated_Source\PSoC4/CapSense.c ****         newRegValue |= (uint32)((uint32)CapSense_SFLASH_CSD_TRIM2_REG & (uint32)CapSense_CSFLASH_TR
 304:Generated_Source\PSoC4/CapSense.c **** 
 305:Generated_Source\PSoC4/CapSense.c ****         #if (CapSense_IDAC_CNT == 2u)
 306:Generated_Source\PSoC4/CapSense.c ****             /* iDAC2 Sinking Mode */
 307:Generated_Source\PSoC4/CapSense.c ****             newRegValue &= CapSense_CSD_IDAC2_TRIM_MASK;
 308:Generated_Source\PSoC4/CapSense.c ****             newRegValue |= (uint32)((uint32)CapSense_SFLASH_CSD_TRIM2_REG & (uint32)CapSense_CSFLAS
 309:Generated_Source\PSoC4/CapSense.c ****         #endif /* (CapSense_IDAC_CNT == 2u) */
 310:Generated_Source\PSoC4/CapSense.c ****         CapSense_CSD_TRIM2_REG = newRegValue;
 311:Generated_Source\PSoC4/CapSense.c ****     #else
 312:Generated_Source\PSoC4/CapSense.c ****         /* iDAC1 Sourcing Mode */
 313:Generated_Source\PSoC4/CapSense.c ****         CapSense_csdTrim1 = (uint8)CapSense_CSD_TRIM1_REG;
 291              		.loc 1 313 0
 292 0006 244B     		ldr	r3, .L5
 293 0008 1B68     		ldr	r3, [r3]
 294 000a DAB2     		uxtb	r2, r3
 295 000c 234B     		ldr	r3, .L5+4
 296 000e 1A70     		strb	r2, [r3]
 314:Generated_Source\PSoC4/CapSense.c ****         newRegValue = CapSense_csdTrim1;
 297              		.loc 1 314 0
 298 0010 224B     		ldr	r3, .L5+4
 299 0012 1B78     		ldrb	r3, [r3]
 300 0014 7B60     		str	r3, [r7, #4]
 315:Generated_Source\PSoC4/CapSense.c ****         newRegValue &= CapSense_CSD_IDAC1_TRIM_MASK;
 301              		.loc 1 315 0
 302 0016 7B68     		ldr	r3, [r7, #4]
 303 0018 0F22     		mov	r2, #15
 304 001a 9343     		bic	r3, r2
 305 001c 7B60     		str	r3, [r7, #4]
 316:Generated_Source\PSoC4/CapSense.c ****         newRegValue |= (uint32)((uint32)CapSense_SFLASH_CSD_TRIM1_REG & (uint32)CapSense_CSFLASH_TR
ARM GAS  C:\Users\poornima\AppData\Local\Temp\ccI9K5HH.s 			page 12


 306              		.loc 1 316 0
 307 001e 204B     		ldr	r3, .L5+8
 308 0020 1B78     		ldrb	r3, [r3]
 309 0022 DBB2     		uxtb	r3, r3
 310 0024 1A1C     		mov	r2, r3
 311 0026 0F23     		mov	r3, #15
 312 0028 1340     		and	r3, r2
 313 002a 7A68     		ldr	r2, [r7, #4]
 314 002c 1343     		orr	r3, r2
 315 002e 7B60     		str	r3, [r7, #4]
 317:Generated_Source\PSoC4/CapSense.c ****         #if (CapSense_IDAC_CNT == 2u)
 318:Generated_Source\PSoC4/CapSense.c ****              /* iDAC2 Sourcing Mode */
 319:Generated_Source\PSoC4/CapSense.c ****             newRegValue &= CapSense_CSD_IDAC2_TRIM_MASK;
 316              		.loc 1 319 0
 317 0030 7B68     		ldr	r3, [r7, #4]
 318 0032 F022     		mov	r2, #240
 319 0034 9343     		bic	r3, r2
 320 0036 7B60     		str	r3, [r7, #4]
 320:Generated_Source\PSoC4/CapSense.c ****             newRegValue |= (uint32)((uint32)CapSense_SFLASH_CSD_TRIM1_REG & (uint32)CapSense_CSFLAS
 321              		.loc 1 320 0
 322 0038 194B     		ldr	r3, .L5+8
 323 003a 1B78     		ldrb	r3, [r3]
 324 003c DBB2     		uxtb	r3, r3
 325 003e 1A1C     		mov	r2, r3
 326 0040 F023     		mov	r3, #240
 327 0042 1340     		and	r3, r2
 328 0044 7A68     		ldr	r2, [r7, #4]
 329 0046 1343     		orr	r3, r2
 330 0048 7B60     		str	r3, [r7, #4]
 321:Generated_Source\PSoC4/CapSense.c ****         #endif
 322:Generated_Source\PSoC4/CapSense.c ****         CapSense_CSD_TRIM1_REG = newRegValue;
 331              		.loc 1 322 0
 332 004a 134B     		ldr	r3, .L5
 333 004c 7A68     		ldr	r2, [r7, #4]
 334 004e 1A60     		str	r2, [r3]
 323:Generated_Source\PSoC4/CapSense.c ****     #endif /* (CapSense_IDAC1_POLARITY == CapSense__IDAC_SINK) */
 324:Generated_Source\PSoC4/CapSense.c **** 
 325:Generated_Source\PSoC4/CapSense.c ****     /* Configure CSD and IDAC */
 326:Generated_Source\PSoC4/CapSense.c ****     #if (CapSense_IDAC_CNT > 1u)
 327:Generated_Source\PSoC4/CapSense.c ****         CapSense_CSD_IDAC_REG = CapSense_DEFAULT_CSD_IDAC_CONFIG;
 335              		.loc 1 327 0
 336 0050 144B     		ldr	r3, .L5+12
 337 0052 154A     		ldr	r2, .L5+16
 338 0054 1A60     		str	r2, [r3]
 328:Generated_Source\PSoC4/CapSense.c ****         CapSense_CSD_CFG_REG = CapSense_DEFAULT_CSD_CONFIG;
 339              		.loc 1 328 0
 340 0056 154B     		ldr	r3, .L5+20
 341 0058 154A     		ldr	r2, .L5+24
 342 005a 1A60     		str	r2, [r3]
 329:Generated_Source\PSoC4/CapSense.c ****     #else
 330:Generated_Source\PSoC4/CapSense.c ****         CapSense_CSD_IDAC_REG &= ~(CapSense_CSD_IDAC1_MODE_MASK  | CapSense_CSD_IDAC1_DATA_MASK);
 331:Generated_Source\PSoC4/CapSense.c ****         CapSense_CSD_IDAC_REG |= CapSense_DEFAULT_CSD_IDAC_CONFIG;
 332:Generated_Source\PSoC4/CapSense.c **** 
 333:Generated_Source\PSoC4/CapSense.c ****         CapSense_CSD_CFG_REG &= ~(CapSense_CSD_CONFIG_MASK);
 334:Generated_Source\PSoC4/CapSense.c ****         CapSense_CSD_CFG_REG |= (CapSense_DEFAULT_CSD_CONFIG);
 335:Generated_Source\PSoC4/CapSense.c ****     #endif /* (CapSense_IDAC_CNT > 1u) */
 336:Generated_Source\PSoC4/CapSense.c **** 
ARM GAS  C:\Users\poornima\AppData\Local\Temp\ccI9K5HH.s 			page 13


 337:Generated_Source\PSoC4/CapSense.c **** 
 338:Generated_Source\PSoC4/CapSense.c ****     /* Connect Cmod to AMUX bus */
 339:Generated_Source\PSoC4/CapSense.c ****     newRegValue = CapSense_CMOD_CONNECTION_REG;
 343              		.loc 1 339 0
 344 005c 154B     		ldr	r3, .L5+28
 345 005e 1B68     		ldr	r3, [r3]
 346 0060 7B60     		str	r3, [r7, #4]
 340:Generated_Source\PSoC4/CapSense.c ****     newRegValue &= ~(CapSense_CSD_CMOD_CONNECTION_MASK);
 347              		.loc 1 340 0
 348 0062 7B68     		ldr	r3, [r7, #4]
 349 0064 144A     		ldr	r2, .L5+32
 350 0066 1340     		and	r3, r2
 351 0068 7B60     		str	r3, [r7, #4]
 341:Generated_Source\PSoC4/CapSense.c ****     newRegValue |= CapSense_CSD_CMOD_TO_AMUXBUS_A;
 352              		.loc 1 341 0
 353 006a 7B68     		ldr	r3, [r7, #4]
 354 006c C022     		mov	r2, #192
 355 006e D200     		lsl	r2, r2, #3
 356 0070 1343     		orr	r3, r2
 357 0072 7B60     		str	r3, [r7, #4]
 342:Generated_Source\PSoC4/CapSense.c ****     CapSense_CMOD_CONNECTION_REG = newRegValue;
 358              		.loc 1 342 0
 359 0074 0F4B     		ldr	r3, .L5+28
 360 0076 7A68     		ldr	r2, [r7, #4]
 361 0078 1A60     		str	r2, [r3]
 343:Generated_Source\PSoC4/CapSense.c **** 
 344:Generated_Source\PSoC4/CapSense.c ****     /* Configure Dead Band PWM if it is enabled */
 345:Generated_Source\PSoC4/CapSense.c ****     #if(CapSense_CSD_4B_PWM_MODE != CapSense__PWM_OFF)
 346:Generated_Source\PSoC4/CapSense.c ****         CapSense_CSD_4B_PWM_REG = CapSense_DEFAULT_CSD_4B_PWM_CONFIG;
 347:Generated_Source\PSoC4/CapSense.c ****     #endif /* (CapSense_CSD_4B_PWM_MODE != CapSense__PWM_OFF) */
 348:Generated_Source\PSoC4/CapSense.c **** 
 349:Generated_Source\PSoC4/CapSense.c ****     /* Setup ISR */
 350:Generated_Source\PSoC4/CapSense.c ****     CyIntDisable(CapSense_ISR_NUMBER);
 362              		.loc 1 350 0
 363 007a 1120     		mov	r0, #17
 364 007c FFF7FEFF 		bl	CyIntDisable
 351:Generated_Source\PSoC4/CapSense.c ****     #if !defined(CY_EXTERNAL_INTERRUPT_CONFIG)
 352:Generated_Source\PSoC4/CapSense.c ****         (void)CyIntSetVector(CapSense_ISR_NUMBER, &CapSense_ISR);
 365              		.loc 1 352 0
 366 0080 0E4B     		ldr	r3, .L5+36
 367 0082 1120     		mov	r0, #17
 368 0084 191C     		mov	r1, r3
 369 0086 FFF7FEFF 		bl	CyIntSetVector
 353:Generated_Source\PSoC4/CapSense.c ****         CyIntSetPriority(CapSense_ISR_NUMBER, CapSense_ISR_PRIORITY);
 370              		.loc 1 353 0
 371 008a 1120     		mov	r0, #17
 372 008c 0321     		mov	r1, #3
 373 008e FFF7FEFF 		bl	CyIntSetPriority
 354:Generated_Source\PSoC4/CapSense.c ****     #endif /* (CY_EXTERNAL_INTERRUPT_CONFIG) */
 355:Generated_Source\PSoC4/CapSense.c **** }
 374              		.loc 1 355 0
 375 0092 BD46     		mov	sp, r7
 376 0094 02B0     		add	sp, sp, #8
 377              		@ sp needed
 378 0096 80BD     		pop	{r7, pc}
 379              	.L6:
 380              		.align	2
ARM GAS  C:\Users\poornima\AppData\Local\Temp\ccI9K5HH.s 			page 14


 381              	.L5:
 382 0098 00FF2840 		.word	1076428544
 383 009c 00000000 		.word	CapSense_csdTrim1
 384 00a0 62F1FF0F 		.word	268431714
 385 00a4 08002840 		.word	1076363272
 386 00a8 00020001 		.word	16777728
 387 00ac 04002840 		.word	1076363268
 388 00b0 C008A001 		.word	27265216
 389 00b4 00040240 		.word	1073873920
 390 00b8 FFF0FFFF 		.word	-3841
 391 00bc 00000000 		.word	CapSense_ISR
 392              		.cfi_endproc
 393              	.LFE36:
 394              		.size	CapSense_CsdHwBlockInit, .-CapSense_CsdHwBlockInit
 395              		.section	.text.CapSense_Enable,"ax",%progbits
 396              		.align	2
 397              		.global	CapSense_Enable
 398              		.code	16
 399              		.thumb_func
 400              		.type	CapSense_Enable, %function
 401              	CapSense_Enable:
 402              	.LFB37:
 356:Generated_Source\PSoC4/CapSense.c **** 
 357:Generated_Source\PSoC4/CapSense.c **** 
 358:Generated_Source\PSoC4/CapSense.c **** /*******************************************************************************
 359:Generated_Source\PSoC4/CapSense.c **** * Function Name: CapSense_Enable
 360:Generated_Source\PSoC4/CapSense.c **** ********************************************************************************
 361:Generated_Source\PSoC4/CapSense.c **** *
 362:Generated_Source\PSoC4/CapSense.c **** * Summary:
 363:Generated_Source\PSoC4/CapSense.c **** *  Enables the CSD block and related resources to an active mode.
 364:Generated_Source\PSoC4/CapSense.c **** *
 365:Generated_Source\PSoC4/CapSense.c **** * Parameters:
 366:Generated_Source\PSoC4/CapSense.c **** *  None
 367:Generated_Source\PSoC4/CapSense.c **** *
 368:Generated_Source\PSoC4/CapSense.c **** * Return:
 369:Generated_Source\PSoC4/CapSense.c **** *  None
 370:Generated_Source\PSoC4/CapSense.c **** *
 371:Generated_Source\PSoC4/CapSense.c **** * Global Variables:
 372:Generated_Source\PSoC4/CapSense.c **** *  None.
 373:Generated_Source\PSoC4/CapSense.c **** *
 374:Generated_Source\PSoC4/CapSense.c **** * Side Effects:
 375:Generated_Source\PSoC4/CapSense.c **** *  None
 376:Generated_Source\PSoC4/CapSense.c **** *
 377:Generated_Source\PSoC4/CapSense.c **** *******************************************************************************/
 378:Generated_Source\PSoC4/CapSense.c **** void CapSense_Enable(void)
 379:Generated_Source\PSoC4/CapSense.c **** {
 403              		.loc 1 379 0
 404              		.cfi_startproc
 405 0000 80B5     		push	{r7, lr}
 406              		.cfi_def_cfa_offset 8
 407              		.cfi_offset 7, -8
 408              		.cfi_offset 14, -4
 409 0002 82B0     		sub	sp, sp, #8
 410              		.cfi_def_cfa_offset 16
 411 0004 00AF     		add	r7, sp, #0
 412              		.cfi_def_cfa_register 7
 380:Generated_Source\PSoC4/CapSense.c ****     uint32 newRegValue;
ARM GAS  C:\Users\poornima\AppData\Local\Temp\ccI9K5HH.s 			page 15


 381:Generated_Source\PSoC4/CapSense.c **** 
 382:Generated_Source\PSoC4/CapSense.c ****     /* Enable Clocks */
 383:Generated_Source\PSoC4/CapSense.c ****     CapSense_SenseClk_Stop();
 413              		.loc 1 383 0
 414 0006 FFF7FEFF 		bl	CapSense_SenseClk_Stop
 384:Generated_Source\PSoC4/CapSense.c ****     CapSense_SampleClk_Stop();
 415              		.loc 1 384 0
 416 000a FFF7FEFF 		bl	CapSense_SampleClk_Stop
 385:Generated_Source\PSoC4/CapSense.c **** 
 386:Generated_Source\PSoC4/CapSense.c ****     CapSense_SampleClk_SetDividerValue((uint16)CapSense_INITIAL_CLK_DIVIDER);
 417              		.loc 1 386 0
 418 000e 0020     		mov	r0, #0
 419 0010 0021     		mov	r1, #0
 420 0012 FFF7FEFF 		bl	CapSense_SampleClk_SetFractionalDividerRegister
 387:Generated_Source\PSoC4/CapSense.c ****     CapSense_SenseClk_SetDividerValue((uint16)CapSense_INITIAL_CLK_DIVIDER);
 421              		.loc 1 387 0
 422 0016 0020     		mov	r0, #0
 423 0018 0021     		mov	r1, #0
 424 001a FFF7FEFF 		bl	CapSense_SenseClk_SetFractionalDividerRegister
 388:Generated_Source\PSoC4/CapSense.c **** 
 389:Generated_Source\PSoC4/CapSense.c ****     #if (0u == CapSense_IS_M0S8PERI_BLOCK)
 390:Generated_Source\PSoC4/CapSense.c ****         CapSense_SenseClk_Start();
 391:Generated_Source\PSoC4/CapSense.c ****         CapSense_SampleClk_Start();
 392:Generated_Source\PSoC4/CapSense.c ****     #else
 393:Generated_Source\PSoC4/CapSense.c ****         CapSense_SampleClk_Start();
 425              		.loc 1 393 0
 426 001e FF20     		mov	r0, #255
 427 0020 FFF7FEFF 		bl	CapSense_SampleClk_StartEx
 394:Generated_Source\PSoC4/CapSense.c ****         CapSense_SenseClk_StartEx(CapSense_SampleClk__DIV_ID);
 428              		.loc 1 394 0
 429 0024 4020     		mov	r0, #64
 430 0026 FFF7FEFF 		bl	CapSense_SenseClk_StartEx
 395:Generated_Source\PSoC4/CapSense.c ****     #endif /* (0u == CapSense_IS_M0S8PERI_BLOCK) */
 396:Generated_Source\PSoC4/CapSense.c **** 
 397:Generated_Source\PSoC4/CapSense.c ****     /* Enable the CSD block */
 398:Generated_Source\PSoC4/CapSense.c ****     newRegValue = CapSense_CSD_CFG_REG;
 431              		.loc 1 398 0
 432 002a 084B     		ldr	r3, .L8
 433 002c 1B68     		ldr	r3, [r3]
 434 002e 7B60     		str	r3, [r7, #4]
 399:Generated_Source\PSoC4/CapSense.c ****     newRegValue |= (CapSense_CSD_CFG_ENABLE | CapSense_CSD_CFG_SENSE_COMP_EN
 435              		.loc 1 399 0
 436 0030 7B68     		ldr	r3, [r7, #4]
 437 0032 074A     		ldr	r2, .L8+4
 438 0034 1343     		orr	r3, r2
 439 0036 7B60     		str	r3, [r7, #4]
 400:Generated_Source\PSoC4/CapSense.c ****                                                    | CapSense_CSD_CFG_SENSE_EN);
 401:Generated_Source\PSoC4/CapSense.c ****     CapSense_CSD_CFG_REG = newRegValue;
 440              		.loc 1 401 0
 441 0038 044B     		ldr	r3, .L8
 442 003a 7A68     		ldr	r2, [r7, #4]
 443 003c 1A60     		str	r2, [r3]
 402:Generated_Source\PSoC4/CapSense.c **** 
 403:Generated_Source\PSoC4/CapSense.c ****     /* Enable interrupt */
 404:Generated_Source\PSoC4/CapSense.c ****     CyIntEnable(CapSense_ISR_NUMBER);
 444              		.loc 1 404 0
 445 003e 1120     		mov	r0, #17
ARM GAS  C:\Users\poornima\AppData\Local\Temp\ccI9K5HH.s 			page 16


 446 0040 FFF7FEFF 		bl	CyIntEnable
 405:Generated_Source\PSoC4/CapSense.c **** }
 447              		.loc 1 405 0
 448 0044 BD46     		mov	sp, r7
 449 0046 02B0     		add	sp, sp, #8
 450              		@ sp needed
 451 0048 80BD     		pop	{r7, pc}
 452              	.L9:
 453 004a C046     		.align	2
 454              	.L8:
 455 004c 04002840 		.word	1076363268
 456 0050 00100880 		.word	-2146955264
 457              		.cfi_endproc
 458              	.LFE37:
 459              		.size	CapSense_Enable, .-CapSense_Enable
 460              		.section	.text.CapSense_Start,"ax",%progbits
 461              		.align	2
 462              		.global	CapSense_Start
 463              		.code	16
 464              		.thumb_func
 465              		.type	CapSense_Start, %function
 466              	CapSense_Start:
 467              	.LFB38:
 406:Generated_Source\PSoC4/CapSense.c **** 
 407:Generated_Source\PSoC4/CapSense.c **** 
 408:Generated_Source\PSoC4/CapSense.c **** /*******************************************************************************
 409:Generated_Source\PSoC4/CapSense.c **** * Function Name: CapSense_Start
 410:Generated_Source\PSoC4/CapSense.c **** ********************************************************************************
 411:Generated_Source\PSoC4/CapSense.c **** *
 412:Generated_Source\PSoC4/CapSense.c **** * Summary:
 413:Generated_Source\PSoC4/CapSense.c **** *  This is the preferred method to begin the component operation. CapSense_Start()
 414:Generated_Source\PSoC4/CapSense.c **** *  calls the CapSense_Init() function, and then calls the CapSense_Enable()
 415:Generated_Source\PSoC4/CapSense.c **** *  function. Initializes the registers and starts the CSD method of the CapSense
 416:Generated_Source\PSoC4/CapSense.c **** *  component. Resets all the sensors to an inactive state. Enables interrupts for
 417:Generated_Source\PSoC4/CapSense.c **** *  sensors scanning. When the SmartSense tuning mode is selected, the tuning procedure
 418:Generated_Source\PSoC4/CapSense.c **** *  is applied for all the sensors. The CapSense_Start() routine must be called before
 419:Generated_Source\PSoC4/CapSense.c **** *  any other API routines.
 420:Generated_Source\PSoC4/CapSense.c **** *
 421:Generated_Source\PSoC4/CapSense.c **** * Parameters:
 422:Generated_Source\PSoC4/CapSense.c **** *  None
 423:Generated_Source\PSoC4/CapSense.c **** *
 424:Generated_Source\PSoC4/CapSense.c **** * Return:
 425:Generated_Source\PSoC4/CapSense.c **** *  None
 426:Generated_Source\PSoC4/CapSense.c **** *
 427:Generated_Source\PSoC4/CapSense.c **** * Global Variables:
 428:Generated_Source\PSoC4/CapSense.c **** *   CapSense_initVar - used to check the initial configuration,
 429:Generated_Source\PSoC4/CapSense.c **** *   modified on the first function call.
 430:Generated_Source\PSoC4/CapSense.c **** *  CapSense_lowLevelTuningDone - Used to notify the Tuner GUI that
 431:Generated_Source\PSoC4/CapSense.c **** *   tuning of the scanning parameters is done.
 432:Generated_Source\PSoC4/CapSense.c **** *
 433:Generated_Source\PSoC4/CapSense.c **** * Side Effects:
 434:Generated_Source\PSoC4/CapSense.c **** *  None
 435:Generated_Source\PSoC4/CapSense.c **** *
 436:Generated_Source\PSoC4/CapSense.c **** *******************************************************************************/
 437:Generated_Source\PSoC4/CapSense.c **** void CapSense_Start(void)
 438:Generated_Source\PSoC4/CapSense.c **** {
 468              		.loc 1 438 0
ARM GAS  C:\Users\poornima\AppData\Local\Temp\ccI9K5HH.s 			page 17


 469              		.cfi_startproc
 470 0000 80B5     		push	{r7, lr}
 471              		.cfi_def_cfa_offset 8
 472              		.cfi_offset 7, -8
 473              		.cfi_offset 14, -4
 474 0002 00AF     		add	r7, sp, #0
 475              		.cfi_def_cfa_register 7
 439:Generated_Source\PSoC4/CapSense.c **** 
 440:Generated_Source\PSoC4/CapSense.c ****     static uint8 CapSense_initVar = 0u;
 441:Generated_Source\PSoC4/CapSense.c **** 
 442:Generated_Source\PSoC4/CapSense.c ****     #if((0u != CapSense_AUTOCALIBRATION_ENABLE) && (CapSense_TUNING_METHOD != CapSense__TUNING_AUTO
 443:Generated_Source\PSoC4/CapSense.c ****         uint32 curSensor;
 444:Generated_Source\PSoC4/CapSense.c ****         uint32 rawLevel;
 445:Generated_Source\PSoC4/CapSense.c ****         uint32 widget;
 446:Generated_Source\PSoC4/CapSense.c ****     #endif /* ((0u != CapSense_AUTOCALIBRATION_ENABLE) && (CapSense_TUNING_METHOD != CapSense__TUNI
 447:Generated_Source\PSoC4/CapSense.c **** 
 448:Generated_Source\PSoC4/CapSense.c ****     if (CapSense_initVar == 0u)
 476              		.loc 1 448 0
 477 0004 0C4B     		ldr	r3, .L12
 478 0006 1B78     		ldrb	r3, [r3]
 479 0008 002B     		cmp	r3, #0
 480 000a 04D1     		bne	.L11
 449:Generated_Source\PSoC4/CapSense.c ****     {
 450:Generated_Source\PSoC4/CapSense.c ****         CapSense_Init();
 481              		.loc 1 450 0
 482 000c FFF7FEFF 		bl	CapSense_Init
 451:Generated_Source\PSoC4/CapSense.c ****         CapSense_initVar = 1u;
 483              		.loc 1 451 0
 484 0010 094B     		ldr	r3, .L12
 485 0012 0122     		mov	r2, #1
 486 0014 1A70     		strb	r2, [r3]
 487              	.L11:
 452:Generated_Source\PSoC4/CapSense.c ****     }
 453:Generated_Source\PSoC4/CapSense.c ****     CapSense_Enable();
 488              		.loc 1 453 0
 489 0016 FFF7FEFF 		bl	CapSense_Enable
 454:Generated_Source\PSoC4/CapSense.c **** 
 455:Generated_Source\PSoC4/CapSense.c ****     /* AutoTunning start */
 456:Generated_Source\PSoC4/CapSense.c ****     #if(CapSense_TUNING_METHOD == CapSense__TUNING_AUTO)
 457:Generated_Source\PSoC4/CapSense.c ****         #if(0u != CapSense_CSHL_API_GENERATE)
 458:Generated_Source\PSoC4/CapSense.c ****             CapSense_AutoTune();
 490              		.loc 1 458 0
 491 001a FFF7FEFF 		bl	CapSense_AutoTune
 459:Generated_Source\PSoC4/CapSense.c ****             CapSense_lowLevelTuningDone = 1u;
 492              		.loc 1 459 0
 493 001e 074B     		ldr	r3, .L12+4
 494 0020 0122     		mov	r2, #1
 495 0022 1A70     		strb	r2, [r3]
 460:Generated_Source\PSoC4/CapSense.c ****         #endif /* (0u != CapSense_CSHL_API_GENERATE) */
 461:Generated_Source\PSoC4/CapSense.c ****     #else
 462:Generated_Source\PSoC4/CapSense.c ****         #if(0u != CapSense_AUTOCALIBRATION_ENABLE)
 463:Generated_Source\PSoC4/CapSense.c **** 
 464:Generated_Source\PSoC4/CapSense.c ****             #if(CapSense_IDAC_CNT > 1u)
 465:Generated_Source\PSoC4/CapSense.c ****                 CapSense_CSD_IDAC_REG &= ~(CapSense_CSD_IDAC2_MODE_MASK);
 466:Generated_Source\PSoC4/CapSense.c ****             #endif /* (CapSense_IDAC_CNT > 1u) */
 467:Generated_Source\PSoC4/CapSense.c **** 
 468:Generated_Source\PSoC4/CapSense.c ****             for(curSensor = 0u; curSensor < CapSense_TOTAL_SCANSLOT_COUNT; curSensor++)
ARM GAS  C:\Users\poornima\AppData\Local\Temp\ccI9K5HH.s 			page 18


 469:Generated_Source\PSoC4/CapSense.c ****             {
 470:Generated_Source\PSoC4/CapSense.c ****                 widget = CapSense_widgetNumber[curSensor];
 471:Generated_Source\PSoC4/CapSense.c ****                 rawLevel = CapSense_widgetResolution[widget] >> CapSense_RESOLUTION_OFFSET;
 472:Generated_Source\PSoC4/CapSense.c **** 
 473:Generated_Source\PSoC4/CapSense.c ****                 /* Calibration level should be equal to 85% from scanning resolution */
 474:Generated_Source\PSoC4/CapSense.c ****                 rawLevel = (rawLevel * 85u) / 100u;
 475:Generated_Source\PSoC4/CapSense.c **** 
 476:Generated_Source\PSoC4/CapSense.c ****                 CapSense_CalibrateSensor(curSensor, rawLevel, CapSense_modulationIDAC);
 477:Generated_Source\PSoC4/CapSense.c ****             }
 478:Generated_Source\PSoC4/CapSense.c **** 
 479:Generated_Source\PSoC4/CapSense.c ****             #if(0u != CapSense_TOTAL_CENTROIDS_COUNT)
 480:Generated_Source\PSoC4/CapSense.c ****                 CapSense_NormalizeWidgets(CapSense_END_OF_WIDGETS_INDEX, CapSense_modulationIDAC);
 481:Generated_Source\PSoC4/CapSense.c ****             #endif /* (0u != CapSense_TOTAL_CENTROIDS_COUNT)  */
 482:Generated_Source\PSoC4/CapSense.c **** 
 483:Generated_Source\PSoC4/CapSense.c ****             #if(CapSense_IDAC_CNT > 1u)
 484:Generated_Source\PSoC4/CapSense.c ****                 for(curSensor = 0u; curSensor < CapSense_TOTAL_SCANSLOT_COUNT; curSensor++)
 485:Generated_Source\PSoC4/CapSense.c ****                 {
 486:Generated_Source\PSoC4/CapSense.c ****                     CapSense_compensationIDAC[curSensor] = CapSense_modulationIDAC[curSensor] / 2u;
 487:Generated_Source\PSoC4/CapSense.c ****                     CapSense_modulationIDAC[curSensor] = (CapSense_modulationIDAC[curSensor] + 1u) 
 488:Generated_Source\PSoC4/CapSense.c ****                 }
 489:Generated_Source\PSoC4/CapSense.c ****                 CapSense_CSD_IDAC_REG |= CapSense_CSD_IDAC2_MODE_FIXED;
 490:Generated_Source\PSoC4/CapSense.c ****             #endif /* (CapSense_IDAC_CNT > 1u) */
 491:Generated_Source\PSoC4/CapSense.c **** 
 492:Generated_Source\PSoC4/CapSense.c ****         #endif /* (0u != CapSense_AUTOCALIBRATION_ENABLE) */
 493:Generated_Source\PSoC4/CapSense.c **** 
 494:Generated_Source\PSoC4/CapSense.c ****     #endif /* ((CapSense_TUNING_METHOD == CapSense__TUNING_AUTO) */
 495:Generated_Source\PSoC4/CapSense.c **** 
 496:Generated_Source\PSoC4/CapSense.c ****     /* Initialize Advanced Centroid */
 497:Generated_Source\PSoC4/CapSense.c ****     #if(CapSense_TOTAL_TRACKPAD_GESTURES_COUNT > 0u)
 498:Generated_Source\PSoC4/CapSense.c ****         CapSense_AdvancedCentroidInit();
 499:Generated_Source\PSoC4/CapSense.c ****     #endif /* (CapSense_TOTAL_TRACKPAD_GESTURES_COUNT > 0u) */
 500:Generated_Source\PSoC4/CapSense.c **** 
 501:Generated_Source\PSoC4/CapSense.c ****     /* Connect sense comparator input to AMUXA */
 502:Generated_Source\PSoC4/CapSense.c ****     CapSense_CSD_CFG_REG |= CapSense_CSD_CFG_SENSE_INSEL;
 496              		.loc 1 502 0
 497 0024 064B     		ldr	r3, .L12+8
 498 0026 064A     		ldr	r2, .L12+8
 499 0028 1268     		ldr	r2, [r2]
 500 002a 8021     		mov	r1, #128
 501 002c C903     		lsl	r1, r1, #15
 502 002e 0A43     		orr	r2, r1
 503 0030 1A60     		str	r2, [r3]
 503:Generated_Source\PSoC4/CapSense.c **** }
 504              		.loc 1 503 0
 505 0032 BD46     		mov	sp, r7
 506              		@ sp needed
 507 0034 80BD     		pop	{r7, pc}
 508              	.L13:
 509 0036 C046     		.align	2
 510              	.L12:
 511 0038 24000000 		.word	CapSense_initVar.5293
 512 003c 00000000 		.word	CapSense_lowLevelTuningDone
 513 0040 04002840 		.word	1076363268
 514              		.cfi_endproc
 515              	.LFE38:
 516              		.size	CapSense_Start, .-CapSense_Start
 517              		.section	.text.CapSense_Stop,"ax",%progbits
ARM GAS  C:\Users\poornima\AppData\Local\Temp\ccI9K5HH.s 			page 19


 518              		.align	2
 519              		.global	CapSense_Stop
 520              		.code	16
 521              		.thumb_func
 522              		.type	CapSense_Stop, %function
 523              	CapSense_Stop:
 524              	.LFB39:
 504:Generated_Source\PSoC4/CapSense.c **** 
 505:Generated_Source\PSoC4/CapSense.c **** 
 506:Generated_Source\PSoC4/CapSense.c **** /*******************************************************************************
 507:Generated_Source\PSoC4/CapSense.c **** * Function Name: CapSense_Stop
 508:Generated_Source\PSoC4/CapSense.c **** ********************************************************************************
 509:Generated_Source\PSoC4/CapSense.c **** *
 510:Generated_Source\PSoC4/CapSense.c **** * Summary:
 511:Generated_Source\PSoC4/CapSense.c **** *  Stops the sensor scanning, disables component interrupts, and resets all the
 512:Generated_Source\PSoC4/CapSense.c **** *  sensors to an inactive state. Disables the Active mode power template bits for
 513:Generated_Source\PSoC4/CapSense.c **** *  the subcomponents used within CapSense.
 514:Generated_Source\PSoC4/CapSense.c **** *
 515:Generated_Source\PSoC4/CapSense.c **** * Parameters:
 516:Generated_Source\PSoC4/CapSense.c **** *  None
 517:Generated_Source\PSoC4/CapSense.c **** *
 518:Generated_Source\PSoC4/CapSense.c **** * Return:
 519:Generated_Source\PSoC4/CapSense.c **** *  None
 520:Generated_Source\PSoC4/CapSense.c **** *
 521:Generated_Source\PSoC4/CapSense.c **** * Global Variables:
 522:Generated_Source\PSoC4/CapSense.c **** *  CapSense_csdTrim1 - Contains the IDAC trim register value for the Sourcing Mode.
 523:Generated_Source\PSoC4/CapSense.c **** *  CapSense_csdTrim2 - Contains the IDAC trim register value for vSinking Mode.
 524:Generated_Source\PSoC4/CapSense.c **** *
 525:Generated_Source\PSoC4/CapSense.c **** * Side Effects:
 526:Generated_Source\PSoC4/CapSense.c **** *  This function should be called after scans are completed.
 527:Generated_Source\PSoC4/CapSense.c **** *
 528:Generated_Source\PSoC4/CapSense.c **** *******************************************************************************/
 529:Generated_Source\PSoC4/CapSense.c **** void CapSense_Stop(void)
 530:Generated_Source\PSoC4/CapSense.c **** {
 525              		.loc 1 530 0
 526              		.cfi_startproc
 527 0000 80B5     		push	{r7, lr}
 528              		.cfi_def_cfa_offset 8
 529              		.cfi_offset 7, -8
 530              		.cfi_offset 14, -4
 531 0002 00AF     		add	r7, sp, #0
 532              		.cfi_def_cfa_register 7
 531:Generated_Source\PSoC4/CapSense.c ****     /* Disable interrupt */
 532:Generated_Source\PSoC4/CapSense.c ****     CyIntDisable(CapSense_ISR_NUMBER);
 533              		.loc 1 532 0
 534 0004 1120     		mov	r0, #17
 535 0006 FFF7FEFF 		bl	CyIntDisable
 533:Generated_Source\PSoC4/CapSense.c **** 
 534:Generated_Source\PSoC4/CapSense.c ****     CapSense_CSD_CFG_REG &= ~(CapSense_CSD_CFG_SENSE_COMP_EN | CapSense_CSD_CFG_SENSE_EN);
 536              		.loc 1 534 0
 537 000a 094B     		ldr	r3, .L15
 538 000c 084A     		ldr	r2, .L15
 539 000e 1268     		ldr	r2, [r2]
 540 0010 0849     		ldr	r1, .L15+4
 541 0012 0A40     		and	r2, r1
 542 0014 1A60     		str	r2, [r3]
 535:Generated_Source\PSoC4/CapSense.c **** 
ARM GAS  C:\Users\poornima\AppData\Local\Temp\ccI9K5HH.s 			page 20


 536:Generated_Source\PSoC4/CapSense.c ****     #if(CapSense_IDAC_CNT == 2u)
 537:Generated_Source\PSoC4/CapSense.c ****         CapSense_CSD_CFG_REG &= ~(CapSense_CSD_CFG_ENABLE);
 543              		.loc 1 537 0
 544 0016 064B     		ldr	r3, .L15
 545 0018 054A     		ldr	r2, .L15
 546 001a 1268     		ldr	r2, [r2]
 547 001c 5200     		lsl	r2, r2, #1
 548 001e 5208     		lsr	r2, r2, #1
 549 0020 1A60     		str	r2, [r3]
 538:Generated_Source\PSoC4/CapSense.c ****     #endif /* (CapSense_IDAC_CNT == 2u) */
 539:Generated_Source\PSoC4/CapSense.c **** 
 540:Generated_Source\PSoC4/CapSense.c ****     /* Disable the Clocks */
 541:Generated_Source\PSoC4/CapSense.c ****     CapSense_SenseClk_Stop();
 550              		.loc 1 541 0
 551 0022 FFF7FEFF 		bl	CapSense_SenseClk_Stop
 542:Generated_Source\PSoC4/CapSense.c ****     CapSense_SampleClk_Stop();
 552              		.loc 1 542 0
 553 0026 FFF7FEFF 		bl	CapSense_SampleClk_Stop
 543:Generated_Source\PSoC4/CapSense.c **** }
 554              		.loc 1 543 0
 555 002a BD46     		mov	sp, r7
 556              		@ sp needed
 557 002c 80BD     		pop	{r7, pc}
 558              	.L16:
 559 002e C046     		.align	2
 560              	.L15:
 561 0030 04002840 		.word	1076363268
 562 0034 FFEFF7FF 		.word	-528385
 563              		.cfi_endproc
 564              	.LFE39:
 565              		.size	CapSense_Stop, .-CapSense_Stop
 566              		.section	.text.CapSense_FindNextSensor,"ax",%progbits
 567              		.align	2
 568              		.global	CapSense_FindNextSensor
 569              		.code	16
 570              		.thumb_func
 571              		.type	CapSense_FindNextSensor, %function
 572              	CapSense_FindNextSensor:
 573              	.LFB40:
 544:Generated_Source\PSoC4/CapSense.c **** 
 545:Generated_Source\PSoC4/CapSense.c **** 
 546:Generated_Source\PSoC4/CapSense.c **** /*******************************************************************************
 547:Generated_Source\PSoC4/CapSense.c **** * Function Name: CapSense_FindNextSensor
 548:Generated_Source\PSoC4/CapSense.c **** ********************************************************************************
 549:Generated_Source\PSoC4/CapSense.c **** *
 550:Generated_Source\PSoC4/CapSense.c **** * Summary:
 551:Generated_Source\PSoC4/CapSense.c **** *  Finds the next sensor to scan.
 552:Generated_Source\PSoC4/CapSense.c **** *
 553:Generated_Source\PSoC4/CapSense.c **** * Parameters:
 554:Generated_Source\PSoC4/CapSense.c **** *  snsIndex:  Current index of sensor.
 555:Generated_Source\PSoC4/CapSense.c **** *
 556:Generated_Source\PSoC4/CapSense.c **** * Return:
 557:Generated_Source\PSoC4/CapSense.c **** *  Returns the next sensor index to scan.
 558:Generated_Source\PSoC4/CapSense.c **** *
 559:Generated_Source\PSoC4/CapSense.c **** * Global Variables:
 560:Generated_Source\PSoC4/CapSense.c **** *  CapSense_sensorEnableMask[] - used to store bit masks of the enabled sensors.
 561:Generated_Source\PSoC4/CapSense.c **** *
ARM GAS  C:\Users\poornima\AppData\Local\Temp\ccI9K5HH.s 			page 21


 562:Generated_Source\PSoC4/CapSense.c **** * Side Effects:
 563:Generated_Source\PSoC4/CapSense.c **** *  This function affects the  current scanning and should not
 564:Generated_Source\PSoC4/CapSense.c **** *  be used outside the component.
 565:Generated_Source\PSoC4/CapSense.c **** *
 566:Generated_Source\PSoC4/CapSense.c **** *******************************************************************************/
 567:Generated_Source\PSoC4/CapSense.c **** uint8 CapSense_FindNextSensor(uint8 snsIndex)
 568:Generated_Source\PSoC4/CapSense.c **** {
 574              		.loc 1 568 0
 575              		.cfi_startproc
 576 0000 80B5     		push	{r7, lr}
 577              		.cfi_def_cfa_offset 8
 578              		.cfi_offset 7, -8
 579              		.cfi_offset 14, -4
 580 0002 84B0     		sub	sp, sp, #16
 581              		.cfi_def_cfa_offset 24
 582 0004 00AF     		add	r7, sp, #0
 583              		.cfi_def_cfa_register 7
 584 0006 021C     		mov	r2, r0
 585 0008 FB1D     		add	r3, r7, #7
 586 000a 1A70     		strb	r2, [r3]
 587              	.L20:
 569:Generated_Source\PSoC4/CapSense.c ****     uint32 enableFlag;
 570:Generated_Source\PSoC4/CapSense.c **** 
 571:Generated_Source\PSoC4/CapSense.c ****     /* Check if sensor enabled */
 572:Generated_Source\PSoC4/CapSense.c ****     do
 573:Generated_Source\PSoC4/CapSense.c ****     {
 574:Generated_Source\PSoC4/CapSense.c ****         /* Proceed with next sensor */
 575:Generated_Source\PSoC4/CapSense.c ****         snsIndex++;
 588              		.loc 1 575 0
 589 000c FB1D     		add	r3, r7, #7
 590 000e 1A78     		ldrb	r2, [r3]
 591 0010 FB1D     		add	r3, r7, #7
 592 0012 0132     		add	r2, r2, #1
 593 0014 1A70     		strb	r2, [r3]
 576:Generated_Source\PSoC4/CapSense.c ****         if(snsIndex == CapSense_TOTAL_SENSOR_COUNT)
 594              		.loc 1 576 0
 595 0016 FB1D     		add	r3, r7, #7
 596 0018 1B78     		ldrb	r3, [r3]
 597 001a 102B     		cmp	r3, #16
 598 001c 00D1     		bne	.L18
 577:Generated_Source\PSoC4/CapSense.c ****         {
 578:Generated_Source\PSoC4/CapSense.c ****             break;
 599              		.loc 1 578 0
 600 001e 0BE0     		b	.L19
 601              	.L18:
 579:Generated_Source\PSoC4/CapSense.c ****         }
 580:Generated_Source\PSoC4/CapSense.c ****         enableFlag = CapSense_GetBitValue(CapSense_sensorEnableMask, (uint32)snsIndex);
 602              		.loc 1 580 0
 603 0020 FB1D     		add	r3, r7, #7
 604 0022 1B78     		ldrb	r3, [r3]
 605 0024 074A     		ldr	r2, .L22
 606 0026 101C     		mov	r0, r2
 607 0028 191C     		mov	r1, r3
 608 002a FFF7FEFF 		bl	CapSense_GetBitValue
 609 002e 031C     		mov	r3, r0
 610 0030 FB60     		str	r3, [r7, #12]
 581:Generated_Source\PSoC4/CapSense.c ****     }
ARM GAS  C:\Users\poornima\AppData\Local\Temp\ccI9K5HH.s 			page 22


 582:Generated_Source\PSoC4/CapSense.c ****     while(enableFlag == 0u);
 611              		.loc 1 582 0
 612 0032 FB68     		ldr	r3, [r7, #12]
 613 0034 002B     		cmp	r3, #0
 614 0036 E9D0     		beq	.L20
 615              	.L19:
 583:Generated_Source\PSoC4/CapSense.c **** 
 584:Generated_Source\PSoC4/CapSense.c ****     return ((uint8)snsIndex);
 616              		.loc 1 584 0
 617 0038 FB1D     		add	r3, r7, #7
 618 003a 1B78     		ldrb	r3, [r3]
 585:Generated_Source\PSoC4/CapSense.c **** }
 619              		.loc 1 585 0
 620 003c 181C     		mov	r0, r3
 621 003e BD46     		mov	sp, r7
 622 0040 04B0     		add	sp, sp, #16
 623              		@ sp needed
 624 0042 80BD     		pop	{r7, pc}
 625              	.L23:
 626              		.align	2
 627              	.L22:
 628 0044 00000000 		.word	CapSense_sensorEnableMask
 629              		.cfi_endproc
 630              	.LFE40:
 631              		.size	CapSense_FindNextSensor, .-CapSense_FindNextSensor
 632              		.section	.text.CapSense_ScanSensor,"ax",%progbits
 633              		.align	2
 634              		.global	CapSense_ScanSensor
 635              		.code	16
 636              		.thumb_func
 637              		.type	CapSense_ScanSensor, %function
 638              	CapSense_ScanSensor:
 639              	.LFB41:
 586:Generated_Source\PSoC4/CapSense.c **** 
 587:Generated_Source\PSoC4/CapSense.c **** 
 588:Generated_Source\PSoC4/CapSense.c **** /*******************************************************************************
 589:Generated_Source\PSoC4/CapSense.c **** * Function Name: CapSense_ScanSensor
 590:Generated_Source\PSoC4/CapSense.c **** ********************************************************************************
 591:Generated_Source\PSoC4/CapSense.c **** *
 592:Generated_Source\PSoC4/CapSense.c **** * Summary:
 593:Generated_Source\PSoC4/CapSense.c **** *  Sets the scan settings and starts scanning a sensor. After scanning is complete,
 594:Generated_Source\PSoC4/CapSense.c **** *  the ISR copies the measured sensor raw data to the global raw sensor array.
 595:Generated_Source\PSoC4/CapSense.c **** *  Use of the ISR ensures this function is non-blocking.
 596:Generated_Source\PSoC4/CapSense.c **** *  Each sensor has a unique number within the sensor array.
 597:Generated_Source\PSoC4/CapSense.c **** *  This number is assigned by the CapSense customizer in sequence.
 598:Generated_Source\PSoC4/CapSense.c **** *
 599:Generated_Source\PSoC4/CapSense.c **** * Parameters:
 600:Generated_Source\PSoC4/CapSense.c **** *  sensor:  Sensor number.
 601:Generated_Source\PSoC4/CapSense.c **** *
 602:Generated_Source\PSoC4/CapSense.c **** * Return:
 603:Generated_Source\PSoC4/CapSense.c **** *  None
 604:Generated_Source\PSoC4/CapSense.c **** *
 605:Generated_Source\PSoC4/CapSense.c **** * Global Variables:
 606:Generated_Source\PSoC4/CapSense.c **** *  CapSense_csdStatusVar - used to provide the status and mode of the scanning process.
 607:Generated_Source\PSoC4/CapSense.c **** *  Sets the busy status(scan in progress) and mode of scan as single scan.
 608:Generated_Source\PSoC4/CapSense.c **** *  CapSense_sensorIndex - used to store a sensor scanning sensor number.
 609:Generated_Source\PSoC4/CapSense.c **** *  Sets to the provided sensor argument.
ARM GAS  C:\Users\poornima\AppData\Local\Temp\ccI9K5HH.s 			page 23


 610:Generated_Source\PSoC4/CapSense.c **** *
 611:Generated_Source\PSoC4/CapSense.c **** * Side Effects:
 612:Generated_Source\PSoC4/CapSense.c **** *  None
 613:Generated_Source\PSoC4/CapSense.c **** *
 614:Generated_Source\PSoC4/CapSense.c **** *******************************************************************************/
 615:Generated_Source\PSoC4/CapSense.c **** void CapSense_ScanSensor(uint32 sensor)
 616:Generated_Source\PSoC4/CapSense.c **** {
 640              		.loc 1 616 0
 641              		.cfi_startproc
 642 0000 80B5     		push	{r7, lr}
 643              		.cfi_def_cfa_offset 8
 644              		.cfi_offset 7, -8
 645              		.cfi_offset 14, -4
 646 0002 82B0     		sub	sp, sp, #8
 647              		.cfi_def_cfa_offset 16
 648 0004 00AF     		add	r7, sp, #0
 649              		.cfi_def_cfa_register 7
 650 0006 7860     		str	r0, [r7, #4]
 617:Generated_Source\PSoC4/CapSense.c ****     /* Clears status/control variable and set sensorIndex */
 618:Generated_Source\PSoC4/CapSense.c ****     CapSense_csdStatusVar = 0u;
 651              		.loc 1 618 0
 652 0008 084B     		ldr	r3, .L25
 653 000a 0022     		mov	r2, #0
 654 000c 1A70     		strb	r2, [r3]
 619:Generated_Source\PSoC4/CapSense.c ****     CapSense_sensorIndex = (uint8)sensor;
 655              		.loc 1 619 0
 656 000e 7B68     		ldr	r3, [r7, #4]
 657 0010 DAB2     		uxtb	r2, r3
 658 0012 074B     		ldr	r3, .L25+4
 659 0014 1A70     		strb	r2, [r3]
 620:Generated_Source\PSoC4/CapSense.c **** 
 621:Generated_Source\PSoC4/CapSense.c ****     /* Start of sensor scan */
 622:Generated_Source\PSoC4/CapSense.c ****     CapSense_csdStatusVar = (CapSense_SW_STS_BUSY | CapSense_SW_CTRL_SINGLE_SCAN);
 660              		.loc 1 622 0
 661 0016 054B     		ldr	r3, .L25
 662 0018 8122     		mov	r2, #129
 663 001a 1A70     		strb	r2, [r3]
 623:Generated_Source\PSoC4/CapSense.c ****     CapSense_PreScan(sensor);
 664              		.loc 1 623 0
 665 001c 7B68     		ldr	r3, [r7, #4]
 666 001e 181C     		mov	r0, r3
 667 0020 FFF7FEFF 		bl	CapSense_PreScan
 624:Generated_Source\PSoC4/CapSense.c **** }
 668              		.loc 1 624 0
 669 0024 BD46     		mov	sp, r7
 670 0026 02B0     		add	sp, sp, #8
 671              		@ sp needed
 672 0028 80BD     		pop	{r7, pc}
 673              	.L26:
 674 002a C046     		.align	2
 675              	.L25:
 676 002c 00000000 		.word	CapSense_csdStatusVar
 677 0030 00000000 		.word	CapSense_sensorIndex
 678              		.cfi_endproc
 679              	.LFE41:
 680              		.size	CapSense_ScanSensor, .-CapSense_ScanSensor
 681              		.section	.text.CapSense_ScanWidget,"ax",%progbits
ARM GAS  C:\Users\poornima\AppData\Local\Temp\ccI9K5HH.s 			page 24


 682              		.align	2
 683              		.global	CapSense_ScanWidget
 684              		.code	16
 685              		.thumb_func
 686              		.type	CapSense_ScanWidget, %function
 687              	CapSense_ScanWidget:
 688              	.LFB42:
 625:Generated_Source\PSoC4/CapSense.c **** 
 626:Generated_Source\PSoC4/CapSense.c **** 
 627:Generated_Source\PSoC4/CapSense.c **** #if(0u != CapSense_CSHL_API_GENERATE)
 628:Generated_Source\PSoC4/CapSense.c **** /*******************************************************************************
 629:Generated_Source\PSoC4/CapSense.c **** * Function Name: CapSense_ScanWidget
 630:Generated_Source\PSoC4/CapSense.c **** ********************************************************************************
 631:Generated_Source\PSoC4/CapSense.c **** *
 632:Generated_Source\PSoC4/CapSense.c **** * Summary:
 633:Generated_Source\PSoC4/CapSense.c **** *  Sets the scan settings and starts scanning a widget.
 634:Generated_Source\PSoC4/CapSense.c **** *
 635:Generated_Source\PSoC4/CapSense.c **** * Parameters:
 636:Generated_Source\PSoC4/CapSense.c **** *  uint32 widget: Widget number.
 637:Generated_Source\PSoC4/CapSense.c **** *
 638:Generated_Source\PSoC4/CapSense.c **** * Return:
 639:Generated_Source\PSoC4/CapSense.c **** *  None
 640:Generated_Source\PSoC4/CapSense.c **** *
 641:Generated_Source\PSoC4/CapSense.c **** * Global Variables:
 642:Generated_Source\PSoC4/CapSense.c **** *  CapSense_csdStatusVar - used to provide the status and mode of the scanning process.
 643:Generated_Source\PSoC4/CapSense.c **** *  Sets the busy status(scan in progress) and clears the single scan mode.
 644:Generated_Source\PSoC4/CapSense.c **** *  CapSense_sensorIndex - used to store a sensor scanning sensor number.
 645:Generated_Source\PSoC4/CapSense.c **** *  Sets to 0xFF and provided to function CapSense_FindNextSensor or
 646:Generated_Source\PSoC4/CapSense.c **** *  CapSense_sensorEnableMask[] - used to store bit masks of the enabled sensors.
 647:Generated_Source\PSoC4/CapSense.c **** *  CapSense_sensorEnableMaskBackup[] - used to backup bit masks of the enabled
 648:Generated_Source\PSoC4/CapSense.c **** *   sensors.
 649:Generated_Source\PSoC4/CapSense.c **** *
 650:Generated_Source\PSoC4/CapSense.c **** * Side Effects:
 651:Generated_Source\PSoC4/CapSense.c **** *  None
 652:Generated_Source\PSoC4/CapSense.c **** *
 653:Generated_Source\PSoC4/CapSense.c **** *******************************************************************************/
 654:Generated_Source\PSoC4/CapSense.c **** void CapSense_ScanWidget(uint32 widget)
 655:Generated_Source\PSoC4/CapSense.c **** {
 689              		.loc 1 655 0
 690              		.cfi_startproc
 691 0000 80B5     		push	{r7, lr}
 692              		.cfi_def_cfa_offset 8
 693              		.cfi_offset 7, -8
 694              		.cfi_offset 14, -4
 695 0002 86B0     		sub	sp, sp, #24
 696              		.cfi_def_cfa_offset 32
 697 0004 00AF     		add	r7, sp, #0
 698              		.cfi_def_cfa_register 7
 699 0006 7860     		str	r0, [r7, #4]
 656:Generated_Source\PSoC4/CapSense.c ****     uint32 sensorsPerWidget;
 657:Generated_Source\PSoC4/CapSense.c ****     uint32 lastSensor;
 658:Generated_Source\PSoC4/CapSense.c ****     uint32 snsIndex;
 659:Generated_Source\PSoC4/CapSense.c **** 
 660:Generated_Source\PSoC4/CapSense.c ****     /* Get first sensor in widget */
 661:Generated_Source\PSoC4/CapSense.c ****     CapSense_sensorIndex = CapSense_rawDataIndex[widget];
 700              		.loc 1 661 0
 701 0008 2F4A     		ldr	r2, .L36
ARM GAS  C:\Users\poornima\AppData\Local\Temp\ccI9K5HH.s 			page 25


 702 000a 7B68     		ldr	r3, [r7, #4]
 703 000c D318     		add	r3, r2, r3
 704 000e 1A78     		ldrb	r2, [r3]
 705 0010 2E4B     		ldr	r3, .L36+4
 706 0012 1A70     		strb	r2, [r3]
 662:Generated_Source\PSoC4/CapSense.c **** 
 663:Generated_Source\PSoC4/CapSense.c ****     /* Get number of sensors in widget */
 664:Generated_Source\PSoC4/CapSense.c ****     sensorsPerWidget = CapSense_numberOfSensors[widget];
 707              		.loc 1 664 0
 708 0014 2E4A     		ldr	r2, .L36+8
 709 0016 7B68     		ldr	r3, [r7, #4]
 710 0018 D318     		add	r3, r2, r3
 711 001a 1B78     		ldrb	r3, [r3]
 712 001c 7B61     		str	r3, [r7, #20]
 665:Generated_Source\PSoC4/CapSense.c **** 
 666:Generated_Source\PSoC4/CapSense.c ****     /* Check if generic Sensor */
 667:Generated_Source\PSoC4/CapSense.c ****     if(sensorsPerWidget == 0u)
 713              		.loc 1 667 0
 714 001e 7B69     		ldr	r3, [r7, #20]
 715 0020 002B     		cmp	r3, #0
 716 0022 01D1     		bne	.L28
 668:Generated_Source\PSoC4/CapSense.c ****     {
 669:Generated_Source\PSoC4/CapSense.c ****         sensorsPerWidget = 1u;
 717              		.loc 1 669 0
 718 0024 0123     		mov	r3, #1
 719 0026 7B61     		str	r3, [r7, #20]
 720              	.L28:
 670:Generated_Source\PSoC4/CapSense.c ****     }
 671:Generated_Source\PSoC4/CapSense.c **** 
 672:Generated_Source\PSoC4/CapSense.c ****     /* Get last sensor in widget */
 673:Generated_Source\PSoC4/CapSense.c ****     lastSensor = (CapSense_rawDataIndex[widget] + sensorsPerWidget) - 1u;
 721              		.loc 1 673 0
 722 0028 274A     		ldr	r2, .L36
 723 002a 7B68     		ldr	r3, [r7, #4]
 724 002c D318     		add	r3, r2, r3
 725 002e 1B78     		ldrb	r3, [r3]
 726 0030 1A1C     		mov	r2, r3
 727 0032 7B69     		ldr	r3, [r7, #20]
 728 0034 D318     		add	r3, r2, r3
 729 0036 013B     		sub	r3, r3, #1
 730 0038 FB60     		str	r3, [r7, #12]
 674:Generated_Source\PSoC4/CapSense.c **** 
 675:Generated_Source\PSoC4/CapSense.c ****     /* Backup sensorEnableMask array */
 676:Generated_Source\PSoC4/CapSense.c ****     for(snsIndex = 0u; snsIndex < CapSense_TOTAL_SENSOR_MASK; snsIndex++)
 731              		.loc 1 676 0
 732 003a 0023     		mov	r3, #0
 733 003c 3B61     		str	r3, [r7, #16]
 734 003e 0BE0     		b	.L29
 735              	.L30:
 677:Generated_Source\PSoC4/CapSense.c ****     {
 678:Generated_Source\PSoC4/CapSense.c ****         /* Backup sensorEnableMask array */
 679:Generated_Source\PSoC4/CapSense.c ****         CapSense_sensorEnableMaskBackup[snsIndex] = CapSense_sensorEnableMask[snsIndex];
 736              		.loc 1 679 0 discriminator 3
 737 0040 244A     		ldr	r2, .L36+12
 738 0042 3B69     		ldr	r3, [r7, #16]
 739 0044 D318     		add	r3, r2, r3
 740 0046 1978     		ldrb	r1, [r3]
ARM GAS  C:\Users\poornima\AppData\Local\Temp\ccI9K5HH.s 			page 26


 741 0048 234A     		ldr	r2, .L36+16
 742 004a 3B69     		ldr	r3, [r7, #16]
 743 004c D318     		add	r3, r2, r3
 744 004e 0A1C     		add	r2, r1, #0
 745 0050 1A70     		strb	r2, [r3]
 676:Generated_Source\PSoC4/CapSense.c ****     {
 746              		.loc 1 676 0 discriminator 3
 747 0052 3B69     		ldr	r3, [r7, #16]
 748 0054 0133     		add	r3, r3, #1
 749 0056 3B61     		str	r3, [r7, #16]
 750              	.L29:
 676:Generated_Source\PSoC4/CapSense.c ****     {
 751              		.loc 1 676 0 is_stmt 0 discriminator 1
 752 0058 3B69     		ldr	r3, [r7, #16]
 753 005a 012B     		cmp	r3, #1
 754 005c F0D9     		bls	.L30
 680:Generated_Source\PSoC4/CapSense.c ****     }
 681:Generated_Source\PSoC4/CapSense.c **** 
 682:Generated_Source\PSoC4/CapSense.c ****     /* Update sensorEnableMask to scan the sensors that belong to widget */
 683:Generated_Source\PSoC4/CapSense.c ****     for(snsIndex = 0u; snsIndex < CapSense_TOTAL_SENSOR_COUNT; snsIndex++)
 755              		.loc 1 683 0 is_stmt 1
 756 005e 0023     		mov	r3, #0
 757 0060 3B61     		str	r3, [r7, #16]
 758 0062 1CE0     		b	.L31
 759              	.L34:
 684:Generated_Source\PSoC4/CapSense.c ****     {
 685:Generated_Source\PSoC4/CapSense.c ****         /* Update sensorEnableMask array bits to scan the widget only */
 686:Generated_Source\PSoC4/CapSense.c ****         if((snsIndex >= CapSense_sensorIndex) && (snsIndex <= lastSensor))
 760              		.loc 1 686 0
 761 0064 194B     		ldr	r3, .L36+4
 762 0066 1B78     		ldrb	r3, [r3]
 763 0068 DBB2     		uxtb	r3, r3
 764 006a 1A1E     		sub	r2, r3, #0
 765 006c 3B69     		ldr	r3, [r7, #16]
 766 006e 9A42     		cmp	r2, r3
 767 0070 0BD8     		bhi	.L32
 768              		.loc 1 686 0 is_stmt 0 discriminator 1
 769 0072 3A69     		ldr	r2, [r7, #16]
 770 0074 FB68     		ldr	r3, [r7, #12]
 771 0076 9A42     		cmp	r2, r3
 772 0078 07D8     		bhi	.L32
 687:Generated_Source\PSoC4/CapSense.c ****         {
 688:Generated_Source\PSoC4/CapSense.c ****             /* Set sensor bit to scan */
 689:Generated_Source\PSoC4/CapSense.c ****             CapSense_SetBitValue(CapSense_sensorEnableMask, snsIndex, 1u);
 773              		.loc 1 689 0 is_stmt 1
 774 007a 164A     		ldr	r2, .L36+12
 775 007c 3B69     		ldr	r3, [r7, #16]
 776 007e 101C     		mov	r0, r2
 777 0080 191C     		mov	r1, r3
 778 0082 0122     		mov	r2, #1
 779 0084 FFF7FEFF 		bl	CapSense_SetBitValue
 780 0088 06E0     		b	.L33
 781              	.L32:
 690:Generated_Source\PSoC4/CapSense.c ****         }
 691:Generated_Source\PSoC4/CapSense.c ****         else
 692:Generated_Source\PSoC4/CapSense.c ****         {
 693:Generated_Source\PSoC4/CapSense.c ****             /* Reset sensor bit to do not scan */
ARM GAS  C:\Users\poornima\AppData\Local\Temp\ccI9K5HH.s 			page 27


 694:Generated_Source\PSoC4/CapSense.c ****             CapSense_SetBitValue(CapSense_sensorEnableMask, snsIndex, 0u);
 782              		.loc 1 694 0
 783 008a 124A     		ldr	r2, .L36+12
 784 008c 3B69     		ldr	r3, [r7, #16]
 785 008e 101C     		mov	r0, r2
 786 0090 191C     		mov	r1, r3
 787 0092 0022     		mov	r2, #0
 788 0094 FFF7FEFF 		bl	CapSense_SetBitValue
 789              	.L33:
 683:Generated_Source\PSoC4/CapSense.c ****     {
 790              		.loc 1 683 0 discriminator 2
 791 0098 3B69     		ldr	r3, [r7, #16]
 792 009a 0133     		add	r3, r3, #1
 793 009c 3B61     		str	r3, [r7, #16]
 794              	.L31:
 683:Generated_Source\PSoC4/CapSense.c ****     {
 795              		.loc 1 683 0 is_stmt 0 discriminator 1
 796 009e 3B69     		ldr	r3, [r7, #16]
 797 00a0 0F2B     		cmp	r3, #15
 798 00a2 DFD9     		bls	.L34
 695:Generated_Source\PSoC4/CapSense.c ****         }
 696:Generated_Source\PSoC4/CapSense.c ****     }
 697:Generated_Source\PSoC4/CapSense.c **** 
 698:Generated_Source\PSoC4/CapSense.c ****     /* Check end of scan condition */
 699:Generated_Source\PSoC4/CapSense.c ****     if(CapSense_sensorIndex < CapSense_TOTAL_SENSOR_COUNT)
 799              		.loc 1 699 0 is_stmt 1
 800 00a4 094B     		ldr	r3, .L36+4
 801 00a6 1B78     		ldrb	r3, [r3]
 802 00a8 DBB2     		uxtb	r3, r3
 803 00aa 0F2B     		cmp	r3, #15
 804 00ac 08D8     		bhi	.L27
 700:Generated_Source\PSoC4/CapSense.c ****     {
 701:Generated_Source\PSoC4/CapSense.c ****         /* Set widget busy bit in status/control variable*/
 702:Generated_Source\PSoC4/CapSense.c ****         CapSense_csdStatusVar = (CapSense_SW_STS_BUSY | CapSense_SW_CTRL_WIDGET_SCAN);
 805              		.loc 1 702 0
 806 00ae 0B4B     		ldr	r3, .L36+20
 807 00b0 4122     		mov	r2, #65
 808 00b2 1A70     		strb	r2, [r3]
 703:Generated_Source\PSoC4/CapSense.c ****         /* Scan first sensor of widget*/
 704:Generated_Source\PSoC4/CapSense.c ****         CapSense_PreScan((uint32)CapSense_sensorIndex);
 809              		.loc 1 704 0
 810 00b4 054B     		ldr	r3, .L36+4
 811 00b6 1B78     		ldrb	r3, [r3]
 812 00b8 DBB2     		uxtb	r3, r3
 813 00ba 181C     		mov	r0, r3
 814 00bc FFF7FEFF 		bl	CapSense_PreScan
 815              	.L27:
 705:Generated_Source\PSoC4/CapSense.c ****     }
 706:Generated_Source\PSoC4/CapSense.c **** }
 816              		.loc 1 706 0
 817 00c0 BD46     		mov	sp, r7
 818 00c2 06B0     		add	sp, sp, #24
 819              		@ sp needed
 820 00c4 80BD     		pop	{r7, pc}
 821              	.L37:
 822 00c6 C046     		.align	2
 823              	.L36:
ARM GAS  C:\Users\poornima\AppData\Local\Temp\ccI9K5HH.s 			page 28


 824 00c8 00000000 		.word	CapSense_rawDataIndex
 825 00cc 00000000 		.word	CapSense_sensorIndex
 826 00d0 00000000 		.word	CapSense_numberOfSensors
 827 00d4 00000000 		.word	CapSense_sensorEnableMask
 828 00d8 00000000 		.word	CapSense_sensorEnableMaskBackup
 829 00dc 00000000 		.word	CapSense_csdStatusVar
 830              		.cfi_endproc
 831              	.LFE42:
 832              		.size	CapSense_ScanWidget, .-CapSense_ScanWidget
 833              		.section	.text.CapSense_ScanEnabledWidgets,"ax",%progbits
 834              		.align	2
 835              		.global	CapSense_ScanEnabledWidgets
 836              		.code	16
 837              		.thumb_func
 838              		.type	CapSense_ScanEnabledWidgets, %function
 839              	CapSense_ScanEnabledWidgets:
 840              	.LFB43:
 707:Generated_Source\PSoC4/CapSense.c **** #endif /* (0u != CapSense_CSHL_API_GENERATE) */
 708:Generated_Source\PSoC4/CapSense.c **** 
 709:Generated_Source\PSoC4/CapSense.c **** 
 710:Generated_Source\PSoC4/CapSense.c **** /*******************************************************************************
 711:Generated_Source\PSoC4/CapSense.c **** * Function Name: CapSense_ScanEnableWidgets
 712:Generated_Source\PSoC4/CapSense.c **** ********************************************************************************
 713:Generated_Source\PSoC4/CapSense.c **** *
 714:Generated_Source\PSoC4/CapSense.c **** * Summary:
 715:Generated_Source\PSoC4/CapSense.c **** *  This is the preferred method to scan all of the enabled widgets.
 716:Generated_Source\PSoC4/CapSense.c **** *  The API starts scanning a sensor within the enabled widgets.
 717:Generated_Source\PSoC4/CapSense.c **** *  The ISR continues scanning the sensors until all the enabled widgets are scanned.
 718:Generated_Source\PSoC4/CapSense.c **** *  Use of the ISR ensures this function is non-blocking.
 719:Generated_Source\PSoC4/CapSense.c **** *  All the widgets are enabled by default except proximity widgets.
 720:Generated_Source\PSoC4/CapSense.c **** *  The proximity widgets must be manually enabled as their long scan time
 721:Generated_Source\PSoC4/CapSense.c **** *  is incompatible with a fast response required of other widget types.
 722:Generated_Source\PSoC4/CapSense.c **** *
 723:Generated_Source\PSoC4/CapSense.c **** * Parameters:
 724:Generated_Source\PSoC4/CapSense.c **** *  None
 725:Generated_Source\PSoC4/CapSense.c **** *
 726:Generated_Source\PSoC4/CapSense.c **** * Return:
 727:Generated_Source\PSoC4/CapSense.c **** *  None
 728:Generated_Source\PSoC4/CapSense.c **** *
 729:Generated_Source\PSoC4/CapSense.c **** * Global Variables:
 730:Generated_Source\PSoC4/CapSense.c **** *  CapSense_csdStatusVar - used to provide the status and mode of the scanning process.
 731:Generated_Source\PSoC4/CapSense.c **** *  Sets the busy status(scan in progress) and clears the single scan mode.
 732:Generated_Source\PSoC4/CapSense.c **** *  CapSense_sensorIndex - used to store a sensor scanning sensor number.
 733:Generated_Source\PSoC4/CapSense.c **** *  Sets to 0xFF and provided to function CapSense_FindNextSensor or
 734:Generated_Source\PSoC4/CapSense.c **** *
 735:Generated_Source\PSoC4/CapSense.c **** * Side Effects:
 736:Generated_Source\PSoC4/CapSense.c **** *  None
 737:Generated_Source\PSoC4/CapSense.c **** *
 738:Generated_Source\PSoC4/CapSense.c **** *******************************************************************************/
 739:Generated_Source\PSoC4/CapSense.c **** void CapSense_ScanEnabledWidgets(void)
 740:Generated_Source\PSoC4/CapSense.c **** {
 841              		.loc 1 740 0
 842              		.cfi_startproc
 843 0000 80B5     		push	{r7, lr}
 844              		.cfi_def_cfa_offset 8
 845              		.cfi_offset 7, -8
 846              		.cfi_offset 14, -4
ARM GAS  C:\Users\poornima\AppData\Local\Temp\ccI9K5HH.s 			page 29


 847 0002 00AF     		add	r7, sp, #0
 848              		.cfi_def_cfa_register 7
 741:Generated_Source\PSoC4/CapSense.c ****     /* Clears status/control variable and set sensorIndex */
 742:Generated_Source\PSoC4/CapSense.c ****     CapSense_csdStatusVar = 0u;
 849              		.loc 1 742 0
 850 0004 124B     		ldr	r3, .L40
 851 0006 0022     		mov	r2, #0
 852 0008 1A70     		strb	r2, [r3]
 743:Generated_Source\PSoC4/CapSense.c ****     CapSense_sensorIndex = 0xFFu;
 853              		.loc 1 743 0
 854 000a 124B     		ldr	r3, .L40+4
 855 000c FF22     		mov	r2, #255
 856 000e 1A70     		strb	r2, [r3]
 744:Generated_Source\PSoC4/CapSense.c **** 
 745:Generated_Source\PSoC4/CapSense.c ****     /* Find next sensor */
 746:Generated_Source\PSoC4/CapSense.c ****     CapSense_sensorIndex = (uint8)CapSense_FindNextSensor(CapSense_sensorIndex);
 857              		.loc 1 746 0
 858 0010 104B     		ldr	r3, .L40+4
 859 0012 1B78     		ldrb	r3, [r3]
 860 0014 DBB2     		uxtb	r3, r3
 861 0016 181C     		mov	r0, r3
 862 0018 FFF7FEFF 		bl	CapSense_FindNextSensor
 863 001c 031C     		mov	r3, r0
 864 001e 1A1C     		mov	r2, r3
 865 0020 0C4B     		ldr	r3, .L40+4
 866 0022 1A70     		strb	r2, [r3]
 747:Generated_Source\PSoC4/CapSense.c **** 
 748:Generated_Source\PSoC4/CapSense.c ****     /* Check end of scan condition */
 749:Generated_Source\PSoC4/CapSense.c ****     if(CapSense_sensorIndex < CapSense_TOTAL_SENSOR_COUNT)
 867              		.loc 1 749 0
 868 0024 0B4B     		ldr	r3, .L40+4
 869 0026 1B78     		ldrb	r3, [r3]
 870 0028 DBB2     		uxtb	r3, r3
 871 002a 0F2B     		cmp	r3, #15
 872 002c 0DD8     		bhi	.L38
 750:Generated_Source\PSoC4/CapSense.c ****     {
 751:Generated_Source\PSoC4/CapSense.c ****         CapSense_csdStatusVar |= CapSense_SW_STS_BUSY;
 873              		.loc 1 751 0
 874 002e 084B     		ldr	r3, .L40
 875 0030 1B78     		ldrb	r3, [r3]
 876 0032 DBB2     		uxtb	r3, r3
 877 0034 0122     		mov	r2, #1
 878 0036 1343     		orr	r3, r2
 879 0038 DAB2     		uxtb	r2, r3
 880 003a 054B     		ldr	r3, .L40
 881 003c 1A70     		strb	r2, [r3]
 752:Generated_Source\PSoC4/CapSense.c ****         CapSense_PreScan((uint32)CapSense_sensorIndex);
 882              		.loc 1 752 0
 883 003e 054B     		ldr	r3, .L40+4
 884 0040 1B78     		ldrb	r3, [r3]
 885 0042 DBB2     		uxtb	r3, r3
 886 0044 181C     		mov	r0, r3
 887 0046 FFF7FEFF 		bl	CapSense_PreScan
 888              	.L38:
 753:Generated_Source\PSoC4/CapSense.c ****     }
 754:Generated_Source\PSoC4/CapSense.c **** }
 889              		.loc 1 754 0
ARM GAS  C:\Users\poornima\AppData\Local\Temp\ccI9K5HH.s 			page 30


 890 004a BD46     		mov	sp, r7
 891              		@ sp needed
 892 004c 80BD     		pop	{r7, pc}
 893              	.L41:
 894 004e C046     		.align	2
 895              	.L40:
 896 0050 00000000 		.word	CapSense_csdStatusVar
 897 0054 00000000 		.word	CapSense_sensorIndex
 898              		.cfi_endproc
 899              	.LFE43:
 900              		.size	CapSense_ScanEnabledWidgets, .-CapSense_ScanEnabledWidgets
 901              		.section	.text.CapSense_IsBusy,"ax",%progbits
 902              		.align	2
 903              		.global	CapSense_IsBusy
 904              		.code	16
 905              		.thumb_func
 906              		.type	CapSense_IsBusy, %function
 907              	CapSense_IsBusy:
 908              	.LFB44:
 755:Generated_Source\PSoC4/CapSense.c **** 
 756:Generated_Source\PSoC4/CapSense.c **** 
 757:Generated_Source\PSoC4/CapSense.c **** /*******************************************************************************
 758:Generated_Source\PSoC4/CapSense.c **** * Function Name: CapSense_IsBusy
 759:Generated_Source\PSoC4/CapSense.c **** ********************************************************************************
 760:Generated_Source\PSoC4/CapSense.c **** *
 761:Generated_Source\PSoC4/CapSense.c **** * Summary:
 762:Generated_Source\PSoC4/CapSense.c **** *  Returns the state of the CapSense component. 1 means that scanning in
 763:Generated_Source\PSoC4/CapSense.c **** *  progress and 0 means that scanning is complete.
 764:Generated_Source\PSoC4/CapSense.c **** *
 765:Generated_Source\PSoC4/CapSense.c **** * Parameters:
 766:Generated_Source\PSoC4/CapSense.c **** *  None
 767:Generated_Source\PSoC4/CapSense.c **** *
 768:Generated_Source\PSoC4/CapSense.c **** * Return:
 769:Generated_Source\PSoC4/CapSense.c **** *  Returns the state of scanning. 1 - scanning in progress, 0 - scanning
 770:Generated_Source\PSoC4/CapSense.c **** *  completed.
 771:Generated_Source\PSoC4/CapSense.c **** *
 772:Generated_Source\PSoC4/CapSense.c **** * Global Variables:
 773:Generated_Source\PSoC4/CapSense.c **** *  CapSense_csdStatusVar - used to provide the status and mode of the scanning process.
 774:Generated_Source\PSoC4/CapSense.c **** *  Checks the busy status.
 775:Generated_Source\PSoC4/CapSense.c **** *
 776:Generated_Source\PSoC4/CapSense.c **** * Side Effects:
 777:Generated_Source\PSoC4/CapSense.c **** *  None
 778:Generated_Source\PSoC4/CapSense.c **** *
 779:Generated_Source\PSoC4/CapSense.c **** *******************************************************************************/
 780:Generated_Source\PSoC4/CapSense.c **** uint32 CapSense_IsBusy(void)
 781:Generated_Source\PSoC4/CapSense.c **** {
 909              		.loc 1 781 0
 910              		.cfi_startproc
 911 0000 80B5     		push	{r7, lr}
 912              		.cfi_def_cfa_offset 8
 913              		.cfi_offset 7, -8
 914              		.cfi_offset 14, -4
 915 0002 00AF     		add	r7, sp, #0
 916              		.cfi_def_cfa_register 7
 782:Generated_Source\PSoC4/CapSense.c ****     return ((uint32)((0u != (CapSense_csdStatusVar & CapSense_SW_STS_BUSY)) ? 1u : 0u));
 917              		.loc 1 782 0
 918 0004 044B     		ldr	r3, .L44
ARM GAS  C:\Users\poornima\AppData\Local\Temp\ccI9K5HH.s 			page 31


 919 0006 1B78     		ldrb	r3, [r3]
 920 0008 DBB2     		uxtb	r3, r3
 921 000a 1A1C     		mov	r2, r3
 922 000c 0123     		mov	r3, #1
 923 000e 1340     		and	r3, r2
 783:Generated_Source\PSoC4/CapSense.c **** }
 924              		.loc 1 783 0
 925 0010 181C     		mov	r0, r3
 926 0012 BD46     		mov	sp, r7
 927              		@ sp needed
 928 0014 80BD     		pop	{r7, pc}
 929              	.L45:
 930 0016 C046     		.align	2
 931              	.L44:
 932 0018 00000000 		.word	CapSense_csdStatusVar
 933              		.cfi_endproc
 934              	.LFE44:
 935              		.size	CapSense_IsBusy, .-CapSense_IsBusy
 936              		.section	.text.CapSense_ReadSensorRaw,"ax",%progbits
 937              		.align	2
 938              		.global	CapSense_ReadSensorRaw
 939              		.code	16
 940              		.thumb_func
 941              		.type	CapSense_ReadSensorRaw, %function
 942              	CapSense_ReadSensorRaw:
 943              	.LFB45:
 784:Generated_Source\PSoC4/CapSense.c **** 
 785:Generated_Source\PSoC4/CapSense.c **** 
 786:Generated_Source\PSoC4/CapSense.c **** /*******************************************************************************
 787:Generated_Source\PSoC4/CapSense.c **** * Function Name: CapSense_ReadSensorRaw
 788:Generated_Source\PSoC4/CapSense.c **** ********************************************************************************
 789:Generated_Source\PSoC4/CapSense.c **** *
 790:Generated_Source\PSoC4/CapSense.c **** * Summary:
 791:Generated_Source\PSoC4/CapSense.c **** *  Returns sensor raw data from the global CapSense_sensorRaw[ ] array.
 792:Generated_Source\PSoC4/CapSense.c **** *  Each scan sensor has a unique number within the sensor array.
 793:Generated_Source\PSoC4/CapSense.c **** *  This number is assigned by the CapSense customizer in sequence.
 794:Generated_Source\PSoC4/CapSense.c **** *  Raw data can be used to perform calculations outside of the CapSense
 795:Generated_Source\PSoC4/CapSense.c **** *  provided framework.
 796:Generated_Source\PSoC4/CapSense.c **** *
 797:Generated_Source\PSoC4/CapSense.c **** * Parameters:
 798:Generated_Source\PSoC4/CapSense.c **** *  sensor:  Sensor number.
 799:Generated_Source\PSoC4/CapSense.c **** *
 800:Generated_Source\PSoC4/CapSense.c **** * Return:
 801:Generated_Source\PSoC4/CapSense.c **** *  Returns the current raw data value for a defined sensor number.
 802:Generated_Source\PSoC4/CapSense.c **** *
 803:Generated_Source\PSoC4/CapSense.c **** * Global Variables:
 804:Generated_Source\PSoC4/CapSense.c **** *  CapSense_sensorRaw[] - used to store sensors raw data.
 805:Generated_Source\PSoC4/CapSense.c **** *
 806:Generated_Source\PSoC4/CapSense.c **** * Side Effects:
 807:Generated_Source\PSoC4/CapSense.c **** *  None
 808:Generated_Source\PSoC4/CapSense.c **** *
 809:Generated_Source\PSoC4/CapSense.c **** *******************************************************************************/
 810:Generated_Source\PSoC4/CapSense.c **** uint16 CapSense_ReadSensorRaw(uint32 sensor)
 811:Generated_Source\PSoC4/CapSense.c **** {
 944              		.loc 1 811 0
 945              		.cfi_startproc
 946 0000 80B5     		push	{r7, lr}
ARM GAS  C:\Users\poornima\AppData\Local\Temp\ccI9K5HH.s 			page 32


 947              		.cfi_def_cfa_offset 8
 948              		.cfi_offset 7, -8
 949              		.cfi_offset 14, -4
 950 0002 82B0     		sub	sp, sp, #8
 951              		.cfi_def_cfa_offset 16
 952 0004 00AF     		add	r7, sp, #0
 953              		.cfi_def_cfa_register 7
 954 0006 7860     		str	r0, [r7, #4]
 812:Generated_Source\PSoC4/CapSense.c ****     return CapSense_sensorRaw[sensor];
 955              		.loc 1 812 0
 956 0008 034B     		ldr	r3, .L48
 957 000a 7A68     		ldr	r2, [r7, #4]
 958 000c 5200     		lsl	r2, r2, #1
 959 000e D35A     		ldrh	r3, [r2, r3]
 813:Generated_Source\PSoC4/CapSense.c **** }
 960              		.loc 1 813 0
 961 0010 181C     		mov	r0, r3
 962 0012 BD46     		mov	sp, r7
 963 0014 02B0     		add	sp, sp, #8
 964              		@ sp needed
 965 0016 80BD     		pop	{r7, pc}
 966              	.L49:
 967              		.align	2
 968              	.L48:
 969 0018 00000000 		.word	CapSense_sensorRaw
 970              		.cfi_endproc
 971              	.LFE45:
 972              		.size	CapSense_ReadSensorRaw, .-CapSense_ReadSensorRaw
 973              		.section	.text.CapSense_WriteSensorRaw,"ax",%progbits
 974              		.align	2
 975              		.global	CapSense_WriteSensorRaw
 976              		.code	16
 977              		.thumb_func
 978              		.type	CapSense_WriteSensorRaw, %function
 979              	CapSense_WriteSensorRaw:
 980              	.LFB46:
 814:Generated_Source\PSoC4/CapSense.c **** 
 815:Generated_Source\PSoC4/CapSense.c **** 
 816:Generated_Source\PSoC4/CapSense.c **** /*******************************************************************************
 817:Generated_Source\PSoC4/CapSense.c **** * Function Name: CapSense_WriteSensorRaw
 818:Generated_Source\PSoC4/CapSense.c **** ********************************************************************************
 819:Generated_Source\PSoC4/CapSense.c **** *
 820:Generated_Source\PSoC4/CapSense.c **** * Summary:
 821:Generated_Source\PSoC4/CapSense.c **** *  This API writes the raw count value passed as an argument to the sensor Raw count array.
 822:Generated_Source\PSoC4/CapSense.c **** *
 823:Generated_Source\PSoC4/CapSense.c **** * Parameters:
 824:Generated_Source\PSoC4/CapSense.c **** *  sensor:  Sensor number.
 825:Generated_Source\PSoC4/CapSense.c **** *  value: Raw count value.
 826:Generated_Source\PSoC4/CapSense.c **** *
 827:Generated_Source\PSoC4/CapSense.c **** * Global Variables:
 828:Generated_Source\PSoC4/CapSense.c **** *  CapSense_sensorRaw[] - used to store sensors raw data.
 829:Generated_Source\PSoC4/CapSense.c **** *
 830:Generated_Source\PSoC4/CapSense.c **** * Return:
 831:Generated_Source\PSoC4/CapSense.c **** *  None
 832:Generated_Source\PSoC4/CapSense.c **** *
 833:Generated_Source\PSoC4/CapSense.c **** * Side Effects:
 834:Generated_Source\PSoC4/CapSense.c **** *  None
ARM GAS  C:\Users\poornima\AppData\Local\Temp\ccI9K5HH.s 			page 33


 835:Generated_Source\PSoC4/CapSense.c **** *
 836:Generated_Source\PSoC4/CapSense.c **** *******************************************************************************/
 837:Generated_Source\PSoC4/CapSense.c **** void CapSense_WriteSensorRaw(uint32 sensor, uint16 value)
 838:Generated_Source\PSoC4/CapSense.c **** {
 981              		.loc 1 838 0
 982              		.cfi_startproc
 983 0000 80B5     		push	{r7, lr}
 984              		.cfi_def_cfa_offset 8
 985              		.cfi_offset 7, -8
 986              		.cfi_offset 14, -4
 987 0002 82B0     		sub	sp, sp, #8
 988              		.cfi_def_cfa_offset 16
 989 0004 00AF     		add	r7, sp, #0
 990              		.cfi_def_cfa_register 7
 991 0006 7860     		str	r0, [r7, #4]
 992 0008 0A1C     		mov	r2, r1
 993 000a BB1C     		add	r3, r7, #2
 994 000c 1A80     		strh	r2, [r3]
 839:Generated_Source\PSoC4/CapSense.c ****     CapSense_sensorRaw[sensor] = value;
 995              		.loc 1 839 0
 996 000e 044B     		ldr	r3, .L51
 997 0010 7A68     		ldr	r2, [r7, #4]
 998 0012 5200     		lsl	r2, r2, #1
 999 0014 B91C     		add	r1, r7, #2
 1000 0016 0988     		ldrh	r1, [r1]
 1001 0018 D152     		strh	r1, [r2, r3]
 840:Generated_Source\PSoC4/CapSense.c **** }
 1002              		.loc 1 840 0
 1003 001a BD46     		mov	sp, r7
 1004 001c 02B0     		add	sp, sp, #8
 1005              		@ sp needed
 1006 001e 80BD     		pop	{r7, pc}
 1007              	.L52:
 1008              		.align	2
 1009              	.L51:
 1010 0020 00000000 		.word	CapSense_sensorRaw
 1011              		.cfi_endproc
 1012              	.LFE46:
 1013              		.size	CapSense_WriteSensorRaw, .-CapSense_WriteSensorRaw
 1014              		.section	.text.CapSense_SetScanResolution,"ax",%progbits
 1015              		.align	2
 1016              		.global	CapSense_SetScanResolution
 1017              		.code	16
 1018              		.thumb_func
 1019              		.type	CapSense_SetScanResolution, %function
 1020              	CapSense_SetScanResolution:
 1021              	.LFB47:
 841:Generated_Source\PSoC4/CapSense.c **** 
 842:Generated_Source\PSoC4/CapSense.c **** 
 843:Generated_Source\PSoC4/CapSense.c **** #if (CapSense_TUNING_METHOD != CapSense__TUNING_NONE)
 844:Generated_Source\PSoC4/CapSense.c ****     /*******************************************************************************
 845:Generated_Source\PSoC4/CapSense.c ****     * Function Name: CapSense_SetScanResolution
 846:Generated_Source\PSoC4/CapSense.c ****     ********************************************************************************
 847:Generated_Source\PSoC4/CapSense.c ****     *
 848:Generated_Source\PSoC4/CapSense.c ****     * Summary:
 849:Generated_Source\PSoC4/CapSense.c ****     *  Sets a value of the sensor scan resolution for a widget.
 850:Generated_Source\PSoC4/CapSense.c ****     *  The MIN resolution can be set 8-bit. The MAX Resolution can be set 16 bit.
ARM GAS  C:\Users\poornima\AppData\Local\Temp\ccI9K5HH.s 			page 34


 851:Generated_Source\PSoC4/CapSense.c ****     *  This function is not available for the tuning mode "None".
 852:Generated_Source\PSoC4/CapSense.c ****     *
 853:Generated_Source\PSoC4/CapSense.c ****     * Parameters:
 854:Generated_Source\PSoC4/CapSense.c ****     *  widget:     Widget index.
 855:Generated_Source\PSoC4/CapSense.c ****     *  resolution: Represents the resolution value. The following defines which are available in th
 856:Generated_Source\PSoC4/CapSense.c ****     *              CapSense.h file should be used:
 857:Generated_Source\PSoC4/CapSense.c ****     *              CapSense_RESOLUTION_6_BITS
 858:Generated_Source\PSoC4/CapSense.c ****     *              CapSense_RESOLUTION_7_BITS
 859:Generated_Source\PSoC4/CapSense.c ****     *              CapSense_RESOLUTION_8_BITS
 860:Generated_Source\PSoC4/CapSense.c ****     *              CapSense_RESOLUTION_9_BITS
 861:Generated_Source\PSoC4/CapSense.c ****     *              CapSense_RESOLUTION_10_BITS
 862:Generated_Source\PSoC4/CapSense.c ****     *              CapSense_RESOLUTION_11_BITS
 863:Generated_Source\PSoC4/CapSense.c ****     *              CapSense_RESOLUTION_12_BITS
 864:Generated_Source\PSoC4/CapSense.c ****     *              CapSense_RESOLUTION_13_BITS
 865:Generated_Source\PSoC4/CapSense.c ****     *              CapSense_RESOLUTION_14_BITS
 866:Generated_Source\PSoC4/CapSense.c ****     *              CapSense_RESOLUTION_15_BITS
 867:Generated_Source\PSoC4/CapSense.c ****     *              CapSense_RESOLUTION_16_BITS
 868:Generated_Source\PSoC4/CapSense.c ****     *
 869:Generated_Source\PSoC4/CapSense.c ****     * Return:
 870:Generated_Source\PSoC4/CapSense.c ****     *  None
 871:Generated_Source\PSoC4/CapSense.c ****     *
 872:Generated_Source\PSoC4/CapSense.c ****     * Global Variables:
 873:Generated_Source\PSoC4/CapSense.c ****     *  CapSense_widgetResolution[] - used to store scan resolution of each widget.
 874:Generated_Source\PSoC4/CapSense.c ****     *
 875:Generated_Source\PSoC4/CapSense.c ****     * Side Effects:
 876:Generated_Source\PSoC4/CapSense.c ****     *  None
 877:Generated_Source\PSoC4/CapSense.c ****     *
 878:Generated_Source\PSoC4/CapSense.c ****     *******************************************************************************/
 879:Generated_Source\PSoC4/CapSense.c ****     void CapSense_SetScanResolution(uint32 widget, uint32 resolution)
 880:Generated_Source\PSoC4/CapSense.c ****     {
 1022              		.loc 1 880 0
 1023              		.cfi_startproc
 1024 0000 80B5     		push	{r7, lr}
 1025              		.cfi_def_cfa_offset 8
 1026              		.cfi_offset 7, -8
 1027              		.cfi_offset 14, -4
 1028 0002 82B0     		sub	sp, sp, #8
 1029              		.cfi_def_cfa_offset 16
 1030 0004 00AF     		add	r7, sp, #0
 1031              		.cfi_def_cfa_register 7
 1032 0006 7860     		str	r0, [r7, #4]
 1033 0008 3960     		str	r1, [r7]
 881:Generated_Source\PSoC4/CapSense.c ****         CapSense_widgetResolution[widget] = resolution;
 1034              		.loc 1 881 0
 1035 000a 044B     		ldr	r3, .L54
 1036 000c 7A68     		ldr	r2, [r7, #4]
 1037 000e 9200     		lsl	r2, r2, #2
 1038 0010 3968     		ldr	r1, [r7]
 1039 0012 D150     		str	r1, [r2, r3]
 882:Generated_Source\PSoC4/CapSense.c ****     }
 1040              		.loc 1 882 0
 1041 0014 BD46     		mov	sp, r7
 1042 0016 02B0     		add	sp, sp, #8
 1043              		@ sp needed
 1044 0018 80BD     		pop	{r7, pc}
 1045              	.L55:
 1046 001a C046     		.align	2
ARM GAS  C:\Users\poornima\AppData\Local\Temp\ccI9K5HH.s 			page 35


 1047              	.L54:
 1048 001c 00000000 		.word	CapSense_widgetResolution
 1049              		.cfi_endproc
 1050              	.LFE47:
 1051              		.size	CapSense_SetScanResolution, .-CapSense_SetScanResolution
 1052              		.section	.text.CapSense_GetScanResolution,"ax",%progbits
 1053              		.align	2
 1054              		.global	CapSense_GetScanResolution
 1055              		.code	16
 1056              		.thumb_func
 1057              		.type	CapSense_GetScanResolution, %function
 1058              	CapSense_GetScanResolution:
 1059              	.LFB48:
 883:Generated_Source\PSoC4/CapSense.c **** #endif /* (CapSense_TUNING_METHOD != CapSense__TUNING_NONE) */
 884:Generated_Source\PSoC4/CapSense.c **** 
 885:Generated_Source\PSoC4/CapSense.c **** 
 886:Generated_Source\PSoC4/CapSense.c **** /*******************************************************************************
 887:Generated_Source\PSoC4/CapSense.c **** * Function Name: CapSense_GetScanResolution
 888:Generated_Source\PSoC4/CapSense.c **** ********************************************************************************
 889:Generated_Source\PSoC4/CapSense.c **** *
 890:Generated_Source\PSoC4/CapSense.c **** * Summary:
 891:Generated_Source\PSoC4/CapSense.c **** *  Returns the resolution value for the appropriate sensor.
 892:Generated_Source\PSoC4/CapSense.c **** *  This function is not available for tuning mode "None".
 893:Generated_Source\PSoC4/CapSense.c **** *
 894:Generated_Source\PSoC4/CapSense.c **** * Parameters:
 895:Generated_Source\PSoC4/CapSense.c **** *  widget:     Widget index.
 896:Generated_Source\PSoC4/CapSense.c **** *
 897:Generated_Source\PSoC4/CapSense.c **** * Return:
 898:Generated_Source\PSoC4/CapSense.c **** *  resolution: Returns the resolution value for the appropriate sensor.
 899:Generated_Source\PSoC4/CapSense.c **** *              The resolution values are defined in the CapSense.h file
 900:Generated_Source\PSoC4/CapSense.c **** *              The defines are encountered below:
 901:Generated_Source\PSoC4/CapSense.c **** *              CapSense_RESOLUTION_6_BITS
 902:Generated_Source\PSoC4/CapSense.c **** *              CapSense_RESOLUTION_7_BITS
 903:Generated_Source\PSoC4/CapSense.c **** *              CapSense_RESOLUTION_8_BITS
 904:Generated_Source\PSoC4/CapSense.c **** *              CapSense_RESOLUTION_9_BITS
 905:Generated_Source\PSoC4/CapSense.c **** *              CapSense_RESOLUTION_10_BITS
 906:Generated_Source\PSoC4/CapSense.c **** *              CapSense_RESOLUTION_11_BITS
 907:Generated_Source\PSoC4/CapSense.c **** *              CapSense_RESOLUTION_12_BITS
 908:Generated_Source\PSoC4/CapSense.c **** *              CapSense_RESOLUTION_13_BITS
 909:Generated_Source\PSoC4/CapSense.c **** *              CapSense_RESOLUTION_14_BITS
 910:Generated_Source\PSoC4/CapSense.c **** *              CapSense_RESOLUTION_15_BITS
 911:Generated_Source\PSoC4/CapSense.c **** *              CapSense_RESOLUTION_16_BITS
 912:Generated_Source\PSoC4/CapSense.c **** *
 913:Generated_Source\PSoC4/CapSense.c **** * Global Variables:
 914:Generated_Source\PSoC4/CapSense.c **** *  CapSense_widgetResolution[] - used to store scan resolution of every widget.
 915:Generated_Source\PSoC4/CapSense.c **** *
 916:Generated_Source\PSoC4/CapSense.c **** * Side Effects:
 917:Generated_Source\PSoC4/CapSense.c **** *  None
 918:Generated_Source\PSoC4/CapSense.c **** *
 919:Generated_Source\PSoC4/CapSense.c **** *******************************************************************************/
 920:Generated_Source\PSoC4/CapSense.c **** uint32 CapSense_GetScanResolution(uint32 widget)
 921:Generated_Source\PSoC4/CapSense.c **** {
 1060              		.loc 1 921 0
 1061              		.cfi_startproc
 1062 0000 80B5     		push	{r7, lr}
 1063              		.cfi_def_cfa_offset 8
 1064              		.cfi_offset 7, -8
ARM GAS  C:\Users\poornima\AppData\Local\Temp\ccI9K5HH.s 			page 36


 1065              		.cfi_offset 14, -4
 1066 0002 82B0     		sub	sp, sp, #8
 1067              		.cfi_def_cfa_offset 16
 1068 0004 00AF     		add	r7, sp, #0
 1069              		.cfi_def_cfa_register 7
 1070 0006 7860     		str	r0, [r7, #4]
 922:Generated_Source\PSoC4/CapSense.c ****     return(CapSense_widgetResolution[widget]);
 1071              		.loc 1 922 0
 1072 0008 034B     		ldr	r3, .L58
 1073 000a 7A68     		ldr	r2, [r7, #4]
 1074 000c 9200     		lsl	r2, r2, #2
 1075 000e D358     		ldr	r3, [r2, r3]
 923:Generated_Source\PSoC4/CapSense.c **** }
 1076              		.loc 1 923 0
 1077 0010 181C     		mov	r0, r3
 1078 0012 BD46     		mov	sp, r7
 1079 0014 02B0     		add	sp, sp, #8
 1080              		@ sp needed
 1081 0016 80BD     		pop	{r7, pc}
 1082              	.L59:
 1083              		.align	2
 1084              	.L58:
 1085 0018 00000000 		.word	CapSense_widgetResolution
 1086              		.cfi_endproc
 1087              	.LFE48:
 1088              		.size	CapSense_GetScanResolution, .-CapSense_GetScanResolution
 1089              		.section	.text.CapSense_ClearSensors,"ax",%progbits
 1090              		.align	2
 1091              		.global	CapSense_ClearSensors
 1092              		.code	16
 1093              		.thumb_func
 1094              		.type	CapSense_ClearSensors, %function
 1095              	CapSense_ClearSensors:
 1096              	.LFB49:
 924:Generated_Source\PSoC4/CapSense.c **** 
 925:Generated_Source\PSoC4/CapSense.c **** 
 926:Generated_Source\PSoC4/CapSense.c **** /*******************************************************************************
 927:Generated_Source\PSoC4/CapSense.c **** * Function Name: CapSense_ClearSensors
 928:Generated_Source\PSoC4/CapSense.c **** ********************************************************************************
 929:Generated_Source\PSoC4/CapSense.c **** *
 930:Generated_Source\PSoC4/CapSense.c **** * Summary:
 931:Generated_Source\PSoC4/CapSense.c **** *  Resets all the sensors to the non-sampling state by sequentially disconnecting
 932:Generated_Source\PSoC4/CapSense.c **** *  all the sensors from Analog MUX Bus and putting them to an inactive state.
 933:Generated_Source\PSoC4/CapSense.c **** *
 934:Generated_Source\PSoC4/CapSense.c **** * Parameters:
 935:Generated_Source\PSoC4/CapSense.c **** *  None
 936:Generated_Source\PSoC4/CapSense.c **** *
 937:Generated_Source\PSoC4/CapSense.c **** * Return:
 938:Generated_Source\PSoC4/CapSense.c **** *  None
 939:Generated_Source\PSoC4/CapSense.c **** *
 940:Generated_Source\PSoC4/CapSense.c **** * Global Variables:
 941:Generated_Source\PSoC4/CapSense.c **** *  None
 942:Generated_Source\PSoC4/CapSense.c **** *
 943:Generated_Source\PSoC4/CapSense.c **** * Side Effects:
 944:Generated_Source\PSoC4/CapSense.c **** *  None
 945:Generated_Source\PSoC4/CapSense.c **** *
 946:Generated_Source\PSoC4/CapSense.c **** *******************************************************************************/
ARM GAS  C:\Users\poornima\AppData\Local\Temp\ccI9K5HH.s 			page 37


 947:Generated_Source\PSoC4/CapSense.c **** void CapSense_ClearSensors(void)
 948:Generated_Source\PSoC4/CapSense.c **** {
 1097              		.loc 1 948 0
 1098              		.cfi_startproc
 1099 0000 80B5     		push	{r7, lr}
 1100              		.cfi_def_cfa_offset 8
 1101              		.cfi_offset 7, -8
 1102              		.cfi_offset 14, -4
 1103 0002 82B0     		sub	sp, sp, #8
 1104              		.cfi_def_cfa_offset 16
 1105 0004 00AF     		add	r7, sp, #0
 1106              		.cfi_def_cfa_register 7
 949:Generated_Source\PSoC4/CapSense.c ****     uint32 snsIndex;
 950:Generated_Source\PSoC4/CapSense.c **** 
 951:Generated_Source\PSoC4/CapSense.c ****     for (snsIndex = 0u; snsIndex < CapSense_TOTAL_SENSOR_COUNT; snsIndex++)
 1107              		.loc 1 951 0
 1108 0006 0023     		mov	r3, #0
 1109 0008 7B60     		str	r3, [r7, #4]
 1110 000a 06E0     		b	.L61
 1111              	.L62:
 952:Generated_Source\PSoC4/CapSense.c ****     {
 953:Generated_Source\PSoC4/CapSense.c ****         CapSense_DisableScanSlot(snsIndex);
 1112              		.loc 1 953 0 discriminator 3
 1113 000c 7B68     		ldr	r3, [r7, #4]
 1114 000e 181C     		mov	r0, r3
 1115 0010 FFF7FEFF 		bl	CapSense_DisableSensor
 951:Generated_Source\PSoC4/CapSense.c ****     {
 1116              		.loc 1 951 0 discriminator 3
 1117 0014 7B68     		ldr	r3, [r7, #4]
 1118 0016 0133     		add	r3, r3, #1
 1119 0018 7B60     		str	r3, [r7, #4]
 1120              	.L61:
 951:Generated_Source\PSoC4/CapSense.c ****     {
 1121              		.loc 1 951 0 is_stmt 0 discriminator 1
 1122 001a 7B68     		ldr	r3, [r7, #4]
 1123 001c 0F2B     		cmp	r3, #15
 1124 001e F5D9     		bls	.L62
 954:Generated_Source\PSoC4/CapSense.c ****     }
 955:Generated_Source\PSoC4/CapSense.c **** }
 1125              		.loc 1 955 0 is_stmt 1
 1126 0020 BD46     		mov	sp, r7
 1127 0022 02B0     		add	sp, sp, #8
 1128              		@ sp needed
 1129 0024 80BD     		pop	{r7, pc}
 1130              		.cfi_endproc
 1131              	.LFE49:
 1132              		.size	CapSense_ClearSensors, .-CapSense_ClearSensors
 1133 0026 C046     		.section	.text.CapSense_EnableSensor,"ax",%progbits
 1134              		.align	2
 1135              		.global	CapSense_EnableSensor
 1136              		.code	16
 1137              		.thumb_func
 1138              		.type	CapSense_EnableSensor, %function
 1139              	CapSense_EnableSensor:
 1140              	.LFB50:
 956:Generated_Source\PSoC4/CapSense.c **** 
 957:Generated_Source\PSoC4/CapSense.c **** 
ARM GAS  C:\Users\poornima\AppData\Local\Temp\ccI9K5HH.s 			page 38


 958:Generated_Source\PSoC4/CapSense.c **** #if (CapSense_IS_COMPLEX_SCANSLOTS)
 959:Generated_Source\PSoC4/CapSense.c ****     /*******************************************************************************
 960:Generated_Source\PSoC4/CapSense.c ****     * Function Name: CapSense_EnableScanSlot
 961:Generated_Source\PSoC4/CapSense.c ****     ********************************************************************************
 962:Generated_Source\PSoC4/CapSense.c ****     *
 963:Generated_Source\PSoC4/CapSense.c ****     * Summary:
 964:Generated_Source\PSoC4/CapSense.c ****     *  Configures the selected slot to measure during the next measurement
 965:Generated_Source\PSoC4/CapSense.c ****     *  cycle. The corresponding pin/pins are set to Analog High-Z mode and
 966:Generated_Source\PSoC4/CapSense.c ****     *  connected to the Analog Mux Bus. This also enables the comparator function.
 967:Generated_Source\PSoC4/CapSense.c ****     *
 968:Generated_Source\PSoC4/CapSense.c ****     * Parameters:
 969:Generated_Source\PSoC4/CapSense.c ****     *  slot:  Slot number.
 970:Generated_Source\PSoC4/CapSense.c ****     *
 971:Generated_Source\PSoC4/CapSense.c ****     * Return:
 972:Generated_Source\PSoC4/CapSense.c ****     *  None
 973:Generated_Source\PSoC4/CapSense.c ****     *
 974:Generated_Source\PSoC4/CapSense.c ****     * Global Constants:
 975:Generated_Source\PSoC4/CapSense.c ****     *  CapSense_portTable[]  - used to store the port number that pin
 976:Generated_Source\PSoC4/CapSense.c ****     *  belongs to for each sensor.
 977:Generated_Source\PSoC4/CapSense.c ****     *  CapSense_maskTable[]  - used to store the pin within the port for
 978:Generated_Source\PSoC4/CapSense.c ****     *  each sensor.
 979:Generated_Source\PSoC4/CapSense.c ****     *  CapSense_indexTable[] - used to store indexes of complex sensors.
 980:Generated_Source\PSoC4/CapSense.c ****     *  The offset and position in this array are stored in a port and mask table for
 981:Generated_Source\PSoC4/CapSense.c ****     *  complex sensors.
 982:Generated_Source\PSoC4/CapSense.c ****     *  Bit 7 (msb) is used to define the sensor type: single or complex.
 983:Generated_Source\PSoC4/CapSense.c ****     *
 984:Generated_Source\PSoC4/CapSense.c ****     * Side Effects:
 985:Generated_Source\PSoC4/CapSense.c ****     *  None
 986:Generated_Source\PSoC4/CapSense.c ****     *
 987:Generated_Source\PSoC4/CapSense.c ****     *******************************************************************************/
 988:Generated_Source\PSoC4/CapSense.c ****     void CapSense_EnableScanSlot(uint32 slot)
 989:Generated_Source\PSoC4/CapSense.c ****     {
 990:Generated_Source\PSoC4/CapSense.c ****         uint8 j;
 991:Generated_Source\PSoC4/CapSense.c ****         uint8 snsNumber;
 992:Generated_Source\PSoC4/CapSense.c ****         const uint8 *index;
 993:Generated_Source\PSoC4/CapSense.c ****         /* Read sensor type: single or complex */
 994:Generated_Source\PSoC4/CapSense.c ****         uint8 snsType = CapSense_portTable[slot];
 995:Generated_Source\PSoC4/CapSense.c **** 
 996:Generated_Source\PSoC4/CapSense.c ****         /* Check if sensor is complex */
 997:Generated_Source\PSoC4/CapSense.c ****         if ((snsType & CapSense_COMPLEX_SS_FLAG) == 0u)
 998:Generated_Source\PSoC4/CapSense.c ****         {
 999:Generated_Source\PSoC4/CapSense.c ****             /* Enable sensor (single) */
1000:Generated_Source\PSoC4/CapSense.c ****             CapSense_EnableSensor(slot);
1001:Generated_Source\PSoC4/CapSense.c ****         }
1002:Generated_Source\PSoC4/CapSense.c ****         else
1003:Generated_Source\PSoC4/CapSense.c ****         {
1004:Generated_Source\PSoC4/CapSense.c ****             /* Enable complex sensor */
1005:Generated_Source\PSoC4/CapSense.c ****             snsType &= ~CapSense_COMPLEX_SS_FLAG;
1006:Generated_Source\PSoC4/CapSense.c ****             index = &CapSense_indexTable[snsType];
1007:Generated_Source\PSoC4/CapSense.c ****             snsNumber = CapSense_maskTable[slot];
1008:Generated_Source\PSoC4/CapSense.c **** 
1009:Generated_Source\PSoC4/CapSense.c ****             for (j = 0u; j < snsNumber; j++)
1010:Generated_Source\PSoC4/CapSense.c ****             {
1011:Generated_Source\PSoC4/CapSense.c ****                 CapSense_EnableSensor(index[j]);
1012:Generated_Source\PSoC4/CapSense.c ****             }
1013:Generated_Source\PSoC4/CapSense.c ****         }
1014:Generated_Source\PSoC4/CapSense.c ****     }
ARM GAS  C:\Users\poornima\AppData\Local\Temp\ccI9K5HH.s 			page 39


1015:Generated_Source\PSoC4/CapSense.c **** 
1016:Generated_Source\PSoC4/CapSense.c **** 
1017:Generated_Source\PSoC4/CapSense.c ****     /*******************************************************************************
1018:Generated_Source\PSoC4/CapSense.c ****     * Function Name: CapSense_DisableScanSlot
1019:Generated_Source\PSoC4/CapSense.c ****     ********************************************************************************
1020:Generated_Source\PSoC4/CapSense.c ****     *
1021:Generated_Source\PSoC4/CapSense.c ****     * Summary:
1022:Generated_Source\PSoC4/CapSense.c ****     *  Disables the selected slot. The corresponding pin/pins is/are disconnected
1023:Generated_Source\PSoC4/CapSense.c ****     *  from the Analog Mux Bus and connected to GND, High_Z or Shield electrode.
1024:Generated_Source\PSoC4/CapSense.c ****     *
1025:Generated_Source\PSoC4/CapSense.c ****     * Parameters:
1026:Generated_Source\PSoC4/CapSense.c ****     *  slot:  Slot number.
1027:Generated_Source\PSoC4/CapSense.c ****     *
1028:Generated_Source\PSoC4/CapSense.c ****     * Return:
1029:Generated_Source\PSoC4/CapSense.c ****     *  None
1030:Generated_Source\PSoC4/CapSense.c ****     *
1031:Generated_Source\PSoC4/CapSense.c ****     * Global Variables:
1032:Generated_Source\PSoC4/CapSense.c ****     *  CapSense_portTable[]  - used to store the port number that pin
1033:Generated_Source\PSoC4/CapSense.c ****     *  belongs to for each sensor.
1034:Generated_Source\PSoC4/CapSense.c ****     *  CapSense_maskTable[]  - used to store the pin within the port for
1035:Generated_Source\PSoC4/CapSense.c ****     *  each sensor.
1036:Generated_Source\PSoC4/CapSense.c ****     *  CapSense_indexTable[] - used to store indexes of complex sensors.
1037:Generated_Source\PSoC4/CapSense.c ****     *  The offset and position in this array are stored in a port and mask table for
1038:Generated_Source\PSoC4/CapSense.c ****     *  complex sensors.
1039:Generated_Source\PSoC4/CapSense.c ****     *  7bit(msb) is used to define the sensor type: single or complex.
1040:Generated_Source\PSoC4/CapSense.c ****     *
1041:Generated_Source\PSoC4/CapSense.c ****     * Side Effects:
1042:Generated_Source\PSoC4/CapSense.c ****     *  None
1043:Generated_Source\PSoC4/CapSense.c ****     *
1044:Generated_Source\PSoC4/CapSense.c ****     *******************************************************************************/
1045:Generated_Source\PSoC4/CapSense.c ****     void CapSense_DisableScanSlot(uint32 slot)
1046:Generated_Source\PSoC4/CapSense.c ****     {
1047:Generated_Source\PSoC4/CapSense.c ****         uint8 j;
1048:Generated_Source\PSoC4/CapSense.c ****         uint8 snsNumber;
1049:Generated_Source\PSoC4/CapSense.c ****         const uint8 *index;
1050:Generated_Source\PSoC4/CapSense.c **** 
1051:Generated_Source\PSoC4/CapSense.c ****         /* Read sensor type: single or complex */
1052:Generated_Source\PSoC4/CapSense.c ****         uint8 snsType = CapSense_portTable[slot];
1053:Generated_Source\PSoC4/CapSense.c **** 
1054:Generated_Source\PSoC4/CapSense.c ****         /* Check if sensor is complex */
1055:Generated_Source\PSoC4/CapSense.c ****         if ((snsType & CapSense_COMPLEX_SS_FLAG) == 0u)
1056:Generated_Source\PSoC4/CapSense.c ****         {
1057:Generated_Source\PSoC4/CapSense.c ****             /* Disable sensor (single) */
1058:Generated_Source\PSoC4/CapSense.c ****             CapSense_DisableSensor(slot);
1059:Generated_Source\PSoC4/CapSense.c ****         }
1060:Generated_Source\PSoC4/CapSense.c ****         else
1061:Generated_Source\PSoC4/CapSense.c ****         {
1062:Generated_Source\PSoC4/CapSense.c ****             /* Disable complex sensor */
1063:Generated_Source\PSoC4/CapSense.c ****             snsType &= ~CapSense_COMPLEX_SS_FLAG;
1064:Generated_Source\PSoC4/CapSense.c ****             index = &CapSense_indexTable[snsType];
1065:Generated_Source\PSoC4/CapSense.c ****             snsNumber = CapSense_maskTable[slot];
1066:Generated_Source\PSoC4/CapSense.c **** 
1067:Generated_Source\PSoC4/CapSense.c ****             for (j=0; j < snsNumber; j++)
1068:Generated_Source\PSoC4/CapSense.c ****             {
1069:Generated_Source\PSoC4/CapSense.c ****                 CapSense_DisableSensor(index[j]);
1070:Generated_Source\PSoC4/CapSense.c ****             }
1071:Generated_Source\PSoC4/CapSense.c ****         }
ARM GAS  C:\Users\poornima\AppData\Local\Temp\ccI9K5HH.s 			page 40


1072:Generated_Source\PSoC4/CapSense.c ****     }
1073:Generated_Source\PSoC4/CapSense.c **** #endif  /* CapSense_IS_COMPLEX_SCANSLOTS */
1074:Generated_Source\PSoC4/CapSense.c **** 
1075:Generated_Source\PSoC4/CapSense.c **** 
1076:Generated_Source\PSoC4/CapSense.c **** /*******************************************************************************
1077:Generated_Source\PSoC4/CapSense.c **** * Function Name: CapSense_EnableSensor
1078:Generated_Source\PSoC4/CapSense.c **** ********************************************************************************
1079:Generated_Source\PSoC4/CapSense.c **** *
1080:Generated_Source\PSoC4/CapSense.c **** * Summary:
1081:Generated_Source\PSoC4/CapSense.c **** *  Configures the selected sensor to measure during the next measurement cycle.
1082:Generated_Source\PSoC4/CapSense.c **** *  The corresponding pins are set to Analog High-Z mode and connected to the
1083:Generated_Source\PSoC4/CapSense.c **** *  Analog Mux Bus. This also enables the comparator function.
1084:Generated_Source\PSoC4/CapSense.c **** *
1085:Generated_Source\PSoC4/CapSense.c **** * Parameters:
1086:Generated_Source\PSoC4/CapSense.c **** *  sensor:  Sensor number.
1087:Generated_Source\PSoC4/CapSense.c **** *
1088:Generated_Source\PSoC4/CapSense.c **** * Return:
1089:Generated_Source\PSoC4/CapSense.c **** *  None
1090:Generated_Source\PSoC4/CapSense.c **** *
1091:Generated_Source\PSoC4/CapSense.c **** * Global Variables:
1092:Generated_Source\PSoC4/CapSense.c **** *  CapSense_portTable[] - used to store the port number that pin
1093:Generated_Source\PSoC4/CapSense.c **** *  belongs to for each sensor.
1094:Generated_Source\PSoC4/CapSense.c **** *  CapSense_pinShiftTbl[] - used to store position of pin that
1095:Generated_Source\PSoC4/CapSense.c **** *  configured as sensor in port.
1096:Generated_Source\PSoC4/CapSense.c **** *  CapSense_prtSelTbl[] - Contains pointers to the HSIOM
1097:Generated_Source\PSoC4/CapSense.c **** *  registers for each port.
1098:Generated_Source\PSoC4/CapSense.c **** *  CapSense_PrtCfgTb[] - Contains pointers to the port config
1099:Generated_Source\PSoC4/CapSense.c **** *  registers for each port.
1100:Generated_Source\PSoC4/CapSense.c **** *
1101:Generated_Source\PSoC4/CapSense.c **** * Side Effects:
1102:Generated_Source\PSoC4/CapSense.c **** *  None
1103:Generated_Source\PSoC4/CapSense.c **** *
1104:Generated_Source\PSoC4/CapSense.c **** *******************************************************************************/
1105:Generated_Source\PSoC4/CapSense.c **** void CapSense_EnableSensor(uint32 sensor)
1106:Generated_Source\PSoC4/CapSense.c **** {
 1141              		.loc 1 1106 0
 1142              		.cfi_startproc
 1143 0000 90B5     		push	{r4, r7, lr}
 1144              		.cfi_def_cfa_offset 12
 1145              		.cfi_offset 4, -12
 1146              		.cfi_offset 7, -8
 1147              		.cfi_offset 14, -4
 1148 0002 87B0     		sub	sp, sp, #28
 1149              		.cfi_def_cfa_offset 40
 1150 0004 00AF     		add	r7, sp, #0
 1151              		.cfi_def_cfa_register 7
 1152 0006 7860     		str	r0, [r7, #4]
1107:Generated_Source\PSoC4/CapSense.c ****     uint8  pinModeShift;
1108:Generated_Source\PSoC4/CapSense.c ****     uint8  pinHSIOMShift;
1109:Generated_Source\PSoC4/CapSense.c ****     uint8 interruptState;
1110:Generated_Source\PSoC4/CapSense.c ****     uint32 newRegisterValue;
1111:Generated_Source\PSoC4/CapSense.c ****     uint32 port;
1112:Generated_Source\PSoC4/CapSense.c **** 
1113:Generated_Source\PSoC4/CapSense.c ****     port = (uint32) CapSense_portTable[sensor];
 1153              		.loc 1 1113 0
 1154 0008 2B4A     		ldr	r2, .L64
 1155 000a 7B68     		ldr	r3, [r7, #4]
ARM GAS  C:\Users\poornima\AppData\Local\Temp\ccI9K5HH.s 			page 41


 1156 000c D318     		add	r3, r2, r3
 1157 000e 1B78     		ldrb	r3, [r3]
 1158 0010 7B61     		str	r3, [r7, #20]
1114:Generated_Source\PSoC4/CapSense.c ****     pinModeShift = CapSense_pinShiftTbl[sensor]  * CapSense_PC_PIN_CFG_SIZE;
 1159              		.loc 1 1114 0
 1160 0012 2A4A     		ldr	r2, .L64+4
 1161 0014 7B68     		ldr	r3, [r7, #4]
 1162 0016 D318     		add	r3, r2, r3
 1163 0018 1B78     		ldrb	r3, [r3]
 1164 001a 1322     		mov	r2, #19
 1165 001c BA18     		add	r2, r7, r2
 1166 001e 191C     		add	r1, r3, #0
 1167 0020 0B1C     		add	r3, r1, #0
 1168 0022 DB18     		add	r3, r3, r3
 1169 0024 5B18     		add	r3, r3, r1
 1170 0026 1370     		strb	r3, [r2]
1115:Generated_Source\PSoC4/CapSense.c ****     pinHSIOMShift = CapSense_pinShiftTbl[sensor] * CapSense_HSIOM_PIN_CFG_SIZE;
 1171              		.loc 1 1115 0
 1172 0028 244A     		ldr	r2, .L64+4
 1173 002a 7B68     		ldr	r3, [r7, #4]
 1174 002c D318     		add	r3, r2, r3
 1175 002e 1A78     		ldrb	r2, [r3]
 1176 0030 1223     		mov	r3, #18
 1177 0032 FB18     		add	r3, r7, r3
 1178 0034 9200     		lsl	r2, r2, #2
 1179 0036 1A70     		strb	r2, [r3]
1116:Generated_Source\PSoC4/CapSense.c **** 
1117:Generated_Source\PSoC4/CapSense.c ****     interruptState = CyEnterCriticalSection();
 1180              		.loc 1 1117 0
 1181 0038 1123     		mov	r3, #17
 1182 003a FC18     		add	r4, r7, r3
 1183 003c FFF7FEFF 		bl	CyEnterCriticalSection
 1184 0040 031C     		mov	r3, r0
 1185 0042 2370     		strb	r3, [r4]
1118:Generated_Source\PSoC4/CapSense.c **** 
1119:Generated_Source\PSoC4/CapSense.c ****     newRegisterValue = *CapSense_prtSelTbl[port];
 1186              		.loc 1 1119 0
 1187 0044 1E4B     		ldr	r3, .L64+8
 1188 0046 7A69     		ldr	r2, [r7, #20]
 1189 0048 9200     		lsl	r2, r2, #2
 1190 004a D358     		ldr	r3, [r2, r3]
 1191 004c 1B68     		ldr	r3, [r3]
 1192 004e FB60     		str	r3, [r7, #12]
1120:Generated_Source\PSoC4/CapSense.c ****     newRegisterValue &= ~(CapSense_CSD_HSIOM_MASK << pinHSIOMShift);
 1193              		.loc 1 1120 0
 1194 0050 1223     		mov	r3, #18
 1195 0052 FB18     		add	r3, r7, r3
 1196 0054 1B78     		ldrb	r3, [r3]
 1197 0056 0F22     		mov	r2, #15
 1198 0058 9A40     		lsl	r2, r2, r3
 1199 005a 131C     		mov	r3, r2
 1200 005c DA43     		mvn	r2, r3
 1201 005e FB68     		ldr	r3, [r7, #12]
 1202 0060 1340     		and	r3, r2
 1203 0062 FB60     		str	r3, [r7, #12]
1121:Generated_Source\PSoC4/CapSense.c ****     newRegisterValue |= (uint32)((uint32)CapSense_CSD_SENSE_PORT_MODE << pinHSIOMShift);
 1204              		.loc 1 1121 0
ARM GAS  C:\Users\poornima\AppData\Local\Temp\ccI9K5HH.s 			page 42


 1205 0064 1223     		mov	r3, #18
 1206 0066 FB18     		add	r3, r7, r3
 1207 0068 1B78     		ldrb	r3, [r3]
 1208 006a 0422     		mov	r2, #4
 1209 006c 9A40     		lsl	r2, r2, r3
 1210 006e 131C     		mov	r3, r2
 1211 0070 FA68     		ldr	r2, [r7, #12]
 1212 0072 1343     		orr	r3, r2
 1213 0074 FB60     		str	r3, [r7, #12]
1122:Generated_Source\PSoC4/CapSense.c **** 
1123:Generated_Source\PSoC4/CapSense.c ****     *CapSense_prtCfgTbl[port] &= (uint32)~((uint32)CapSense_CSD_PIN_MODE_MASK << pinModeShift);
 1214              		.loc 1 1123 0
 1215 0076 134B     		ldr	r3, .L64+12
 1216 0078 7A69     		ldr	r2, [r7, #20]
 1217 007a 9200     		lsl	r2, r2, #2
 1218 007c D358     		ldr	r3, [r2, r3]
 1219 007e 114A     		ldr	r2, .L64+12
 1220 0080 7969     		ldr	r1, [r7, #20]
 1221 0082 8900     		lsl	r1, r1, #2
 1222 0084 8A58     		ldr	r2, [r1, r2]
 1223 0086 1268     		ldr	r2, [r2]
 1224 0088 1321     		mov	r1, #19
 1225 008a 7918     		add	r1, r7, r1
 1226 008c 0978     		ldrb	r1, [r1]
 1227 008e 0720     		mov	r0, #7
 1228 0090 8840     		lsl	r0, r0, r1
 1229 0092 011C     		mov	r1, r0
 1230 0094 C943     		mvn	r1, r1
 1231 0096 0A40     		and	r2, r1
 1232 0098 1A60     		str	r2, [r3]
1124:Generated_Source\PSoC4/CapSense.c ****     *CapSense_prtSelTbl[port] = newRegisterValue;
 1233              		.loc 1 1124 0
 1234 009a 094B     		ldr	r3, .L64+8
 1235 009c 7A69     		ldr	r2, [r7, #20]
 1236 009e 9200     		lsl	r2, r2, #2
 1237 00a0 D358     		ldr	r3, [r2, r3]
 1238 00a2 FA68     		ldr	r2, [r7, #12]
 1239 00a4 1A60     		str	r2, [r3]
1125:Generated_Source\PSoC4/CapSense.c **** 
1126:Generated_Source\PSoC4/CapSense.c ****     CyExitCriticalSection(interruptState);
 1240              		.loc 1 1126 0
 1241 00a6 1123     		mov	r3, #17
 1242 00a8 FB18     		add	r3, r7, r3
 1243 00aa 1B78     		ldrb	r3, [r3]
 1244 00ac 181C     		mov	r0, r3
 1245 00ae FFF7FEFF 		bl	CyExitCriticalSection
1127:Generated_Source\PSoC4/CapSense.c **** }
 1246              		.loc 1 1127 0
 1247 00b2 BD46     		mov	sp, r7
 1248 00b4 07B0     		add	sp, sp, #28
 1249              		@ sp needed
 1250 00b6 90BD     		pop	{r4, r7, pc}
 1251              	.L65:
 1252              		.align	2
 1253              	.L64:
 1254 00b8 00000000 		.word	CapSense_portTable
 1255 00bc 00000000 		.word	CapSense_pinShiftTbl
ARM GAS  C:\Users\poornima\AppData\Local\Temp\ccI9K5HH.s 			page 43


 1256 00c0 00000000 		.word	CapSense_prtSelTbl
 1257 00c4 00000000 		.word	CapSense_prtCfgTbl
 1258              		.cfi_endproc
 1259              	.LFE50:
 1260              		.size	CapSense_EnableSensor, .-CapSense_EnableSensor
 1261              		.section	.text.CapSense_DisableSensor,"ax",%progbits
 1262              		.align	2
 1263              		.global	CapSense_DisableSensor
 1264              		.code	16
 1265              		.thumb_func
 1266              		.type	CapSense_DisableSensor, %function
 1267              	CapSense_DisableSensor:
 1268              	.LFB51:
1128:Generated_Source\PSoC4/CapSense.c **** 
1129:Generated_Source\PSoC4/CapSense.c **** 
1130:Generated_Source\PSoC4/CapSense.c **** /*******************************************************************************
1131:Generated_Source\PSoC4/CapSense.c **** * Function Name: CapSense_DisableSensor
1132:Generated_Source\PSoC4/CapSense.c **** ********************************************************************************
1133:Generated_Source\PSoC4/CapSense.c **** *
1134:Generated_Source\PSoC4/CapSense.c **** * Summary:
1135:Generated_Source\PSoC4/CapSense.c **** *  Disables the selected sensor. The corresponding pin is disconnected from the
1136:Generated_Source\PSoC4/CapSense.c **** *  Analog Mux Bus and connected to GND, High_Z or Shield electrode.
1137:Generated_Source\PSoC4/CapSense.c **** *
1138:Generated_Source\PSoC4/CapSense.c **** * Parameters:
1139:Generated_Source\PSoC4/CapSense.c **** *  sensor:  Sensor number
1140:Generated_Source\PSoC4/CapSense.c **** *
1141:Generated_Source\PSoC4/CapSense.c **** * Return:
1142:Generated_Source\PSoC4/CapSense.c **** *  None
1143:Generated_Source\PSoC4/CapSense.c **** *
1144:Generated_Source\PSoC4/CapSense.c **** * Global Variables:
1145:Generated_Source\PSoC4/CapSense.c **** *  CapSense_portTable[] - used to store the port number that pin
1146:Generated_Source\PSoC4/CapSense.c **** *  belongs to for each sensor.
1147:Generated_Source\PSoC4/CapSense.c **** *  CapSense_pinShiftTbl[] - used to store position of pin that
1148:Generated_Source\PSoC4/CapSense.c **** *  configured as a sensor in the port.
1149:Generated_Source\PSoC4/CapSense.c **** *  CapSense_prtSelTbl[] - Contains pointers to the HSIOM
1150:Generated_Source\PSoC4/CapSense.c **** *  registers for each port.
1151:Generated_Source\PSoC4/CapSense.c **** *  CapSense_PrtCfgTb[] - Contains pointers to the port config
1152:Generated_Source\PSoC4/CapSense.c **** *  registers for each port.
1153:Generated_Source\PSoC4/CapSense.c **** *
1154:Generated_Source\PSoC4/CapSense.c **** * Side Effects:
1155:Generated_Source\PSoC4/CapSense.c **** *  None
1156:Generated_Source\PSoC4/CapSense.c **** *
1157:Generated_Source\PSoC4/CapSense.c **** *******************************************************************************/
1158:Generated_Source\PSoC4/CapSense.c **** void CapSense_DisableSensor(uint32 sensor)
1159:Generated_Source\PSoC4/CapSense.c **** {
 1269              		.loc 1 1159 0
 1270              		.cfi_startproc
 1271 0000 90B5     		push	{r4, r7, lr}
 1272              		.cfi_def_cfa_offset 12
 1273              		.cfi_offset 4, -12
 1274              		.cfi_offset 7, -8
 1275              		.cfi_offset 14, -4
 1276 0002 89B0     		sub	sp, sp, #36
 1277              		.cfi_def_cfa_offset 48
 1278 0004 00AF     		add	r7, sp, #0
 1279              		.cfi_def_cfa_register 7
 1280 0006 7860     		str	r0, [r7, #4]
ARM GAS  C:\Users\poornima\AppData\Local\Temp\ccI9K5HH.s 			page 44


1160:Generated_Source\PSoC4/CapSense.c ****     uint8 interruptState;
1161:Generated_Source\PSoC4/CapSense.c ****     uint32 newRegisterValue;
1162:Generated_Source\PSoC4/CapSense.c **** 
1163:Generated_Source\PSoC4/CapSense.c ****     uint32 port = (uint32) CapSense_portTable[sensor];
 1281              		.loc 1 1163 0
 1282 0008 3D4A     		ldr	r2, .L69
 1283 000a 7B68     		ldr	r3, [r7, #4]
 1284 000c D318     		add	r3, r2, r3
 1285 000e 1B78     		ldrb	r3, [r3]
 1286 0010 7B61     		str	r3, [r7, #20]
1164:Generated_Source\PSoC4/CapSense.c ****     uint8  pinHSIOMShift = CapSense_pinShiftTbl[sensor] * CapSense_HSIOM_PIN_CFG_SIZE;
 1287              		.loc 1 1164 0
 1288 0012 3C4A     		ldr	r2, .L69+4
 1289 0014 7B68     		ldr	r3, [r7, #4]
 1290 0016 D318     		add	r3, r2, r3
 1291 0018 1A78     		ldrb	r2, [r3]
 1292 001a 1323     		mov	r3, #19
 1293 001c FB18     		add	r3, r7, r3
 1294 001e 9200     		lsl	r2, r2, #2
 1295 0020 1A70     		strb	r2, [r3]
1165:Generated_Source\PSoC4/CapSense.c ****     uint8  pinModeShift = CapSense_pinShiftTbl[sensor]  * CapSense_PC_PIN_CFG_SIZE;
 1296              		.loc 1 1165 0
 1297 0022 384A     		ldr	r2, .L69+4
 1298 0024 7B68     		ldr	r3, [r7, #4]
 1299 0026 D318     		add	r3, r2, r3
 1300 0028 1B78     		ldrb	r3, [r3]
 1301 002a 1222     		mov	r2, #18
 1302 002c BA18     		add	r2, r7, r2
 1303 002e 191C     		add	r1, r3, #0
 1304 0030 0B1C     		add	r3, r1, #0
 1305 0032 DB18     		add	r3, r3, r3
 1306 0034 5B18     		add	r3, r3, r1
 1307 0036 1370     		strb	r3, [r2]
1166:Generated_Source\PSoC4/CapSense.c **** 
1167:Generated_Source\PSoC4/CapSense.c ****     uint32 inactiveConnect = CapSense_SNS_HIZANALOG_CONNECT;
 1308              		.loc 1 1167 0
 1309 0038 0023     		mov	r3, #0
 1310 003a FB61     		str	r3, [r7, #28]
1168:Generated_Source\PSoC4/CapSense.c ****     uint32 sensorState = CapSense_unscannedSnsDriveMode[sensor];
 1311              		.loc 1 1168 0
 1312 003c 324A     		ldr	r2, .L69+8
 1313 003e 7B68     		ldr	r3, [r7, #4]
 1314 0040 D318     		add	r3, r2, r3
 1315 0042 1B78     		ldrb	r3, [r3]
 1316 0044 BB61     		str	r3, [r7, #24]
1169:Generated_Source\PSoC4/CapSense.c **** 
1170:Generated_Source\PSoC4/CapSense.c ****     *CapSense_prtSelTbl[port] &= ~(CapSense_CSD_HSIOM_MASK << pinHSIOMShift);
 1317              		.loc 1 1170 0
 1318 0046 314B     		ldr	r3, .L69+12
 1319 0048 7A69     		ldr	r2, [r7, #20]
 1320 004a 9200     		lsl	r2, r2, #2
 1321 004c D358     		ldr	r3, [r2, r3]
 1322 004e 2F4A     		ldr	r2, .L69+12
 1323 0050 7969     		ldr	r1, [r7, #20]
 1324 0052 8900     		lsl	r1, r1, #2
 1325 0054 8A58     		ldr	r2, [r1, r2]
 1326 0056 1268     		ldr	r2, [r2]
ARM GAS  C:\Users\poornima\AppData\Local\Temp\ccI9K5HH.s 			page 45


 1327 0058 1321     		mov	r1, #19
 1328 005a 7918     		add	r1, r7, r1
 1329 005c 0978     		ldrb	r1, [r1]
 1330 005e 0F20     		mov	r0, #15
 1331 0060 8840     		lsl	r0, r0, r1
 1332 0062 011C     		mov	r1, r0
 1333 0064 C943     		mvn	r1, r1
 1334 0066 0A40     		and	r2, r1
 1335 0068 1A60     		str	r2, [r3]
1171:Generated_Source\PSoC4/CapSense.c **** 
1172:Generated_Source\PSoC4/CapSense.c ****     #if(CapSense_IS_SHIELD_ENABLE != 0)
1173:Generated_Source\PSoC4/CapSense.c ****     if(sensorState != (uint32)CapSense__SHIELD)
1174:Generated_Source\PSoC4/CapSense.c ****     {
1175:Generated_Source\PSoC4/CapSense.c ****     #else
1176:Generated_Source\PSoC4/CapSense.c ****         /* Connected to Ground if shield is disabled */
1177:Generated_Source\PSoC4/CapSense.c ****         if(sensorState == (uint32)CapSense__SHIELD)
 1336              		.loc 1 1177 0
 1337 006a BB69     		ldr	r3, [r7, #24]
 1338 006c 022B     		cmp	r3, #2
 1339 006e 01D1     		bne	.L67
1178:Generated_Source\PSoC4/CapSense.c ****         {
1179:Generated_Source\PSoC4/CapSense.c ****             sensorState = (uint32)CapSense__GROUND;
 1340              		.loc 1 1179 0
 1341 0070 0023     		mov	r3, #0
 1342 0072 BB61     		str	r3, [r7, #24]
 1343              	.L67:
1180:Generated_Source\PSoC4/CapSense.c ****         }
1181:Generated_Source\PSoC4/CapSense.c ****     #endif /* (CapSense_IS_SHIELD_ENABLE) */
1182:Generated_Source\PSoC4/CapSense.c ****         if(sensorState != (uint32)CapSense__HIZ_ANALOG)
 1344              		.loc 1 1182 0
 1345 0074 BB69     		ldr	r3, [r7, #24]
 1346 0076 012B     		cmp	r3, #1
 1347 0078 01D0     		beq	.L68
1183:Generated_Source\PSoC4/CapSense.c ****         {
1184:Generated_Source\PSoC4/CapSense.c ****             /* Connected to Ground */
1185:Generated_Source\PSoC4/CapSense.c ****             inactiveConnect = (uint32)CapSense_SNS_GROUND_CONNECT;
 1348              		.loc 1 1185 0
 1349 007a 0623     		mov	r3, #6
 1350 007c FB61     		str	r3, [r7, #28]
 1351              	.L68:
1186:Generated_Source\PSoC4/CapSense.c ****         }
1187:Generated_Source\PSoC4/CapSense.c **** 
1188:Generated_Source\PSoC4/CapSense.c ****         interruptState = CyEnterCriticalSection();
 1352              		.loc 1 1188 0
 1353 007e 1123     		mov	r3, #17
 1354 0080 FC18     		add	r4, r7, r3
 1355 0082 FFF7FEFF 		bl	CyEnterCriticalSection
 1356 0086 031C     		mov	r3, r0
 1357 0088 2370     		strb	r3, [r4]
1189:Generated_Source\PSoC4/CapSense.c **** 
1190:Generated_Source\PSoC4/CapSense.c ****         /* Set drive mode */
1191:Generated_Source\PSoC4/CapSense.c ****         newRegisterValue = *CapSense_prtCfgTbl[port];
 1358              		.loc 1 1191 0
 1359 008a 214B     		ldr	r3, .L69+16
 1360 008c 7A69     		ldr	r2, [r7, #20]
 1361 008e 9200     		lsl	r2, r2, #2
 1362 0090 D358     		ldr	r3, [r2, r3]
ARM GAS  C:\Users\poornima\AppData\Local\Temp\ccI9K5HH.s 			page 46


 1363 0092 1B68     		ldr	r3, [r3]
 1364 0094 FB60     		str	r3, [r7, #12]
1192:Generated_Source\PSoC4/CapSense.c ****         newRegisterValue &= ~(CapSense_CSD_PIN_MODE_MASK << pinModeShift);
 1365              		.loc 1 1192 0
 1366 0096 1223     		mov	r3, #18
 1367 0098 FB18     		add	r3, r7, r3
 1368 009a 1B78     		ldrb	r3, [r3]
 1369 009c 0722     		mov	r2, #7
 1370 009e 9A40     		lsl	r2, r2, r3
 1371 00a0 131C     		mov	r3, r2
 1372 00a2 DA43     		mvn	r2, r3
 1373 00a4 FB68     		ldr	r3, [r7, #12]
 1374 00a6 1340     		and	r3, r2
 1375 00a8 FB60     		str	r3, [r7, #12]
1193:Generated_Source\PSoC4/CapSense.c ****         newRegisterValue |=  (uint32)(inactiveConnect << pinModeShift);
 1376              		.loc 1 1193 0
 1377 00aa 1223     		mov	r3, #18
 1378 00ac FB18     		add	r3, r7, r3
 1379 00ae 1B78     		ldrb	r3, [r3]
 1380 00b0 FA69     		ldr	r2, [r7, #28]
 1381 00b2 9A40     		lsl	r2, r2, r3
 1382 00b4 131C     		mov	r3, r2
 1383 00b6 FA68     		ldr	r2, [r7, #12]
 1384 00b8 1343     		orr	r3, r2
 1385 00ba FB60     		str	r3, [r7, #12]
1194:Generated_Source\PSoC4/CapSense.c ****         *CapSense_prtCfgTbl[port] =  newRegisterValue;
 1386              		.loc 1 1194 0
 1387 00bc 144B     		ldr	r3, .L69+16
 1388 00be 7A69     		ldr	r2, [r7, #20]
 1389 00c0 9200     		lsl	r2, r2, #2
 1390 00c2 D358     		ldr	r3, [r2, r3]
 1391 00c4 FA68     		ldr	r2, [r7, #12]
 1392 00c6 1A60     		str	r2, [r3]
1195:Generated_Source\PSoC4/CapSense.c **** 
1196:Generated_Source\PSoC4/CapSense.c ****         CyExitCriticalSection(interruptState);
 1393              		.loc 1 1196 0
 1394 00c8 1123     		mov	r3, #17
 1395 00ca FB18     		add	r3, r7, r3
 1396 00cc 1B78     		ldrb	r3, [r3]
 1397 00ce 181C     		mov	r0, r3
 1398 00d0 FFF7FEFF 		bl	CyExitCriticalSection
1197:Generated_Source\PSoC4/CapSense.c **** 
1198:Generated_Source\PSoC4/CapSense.c ****         *CapSense_prtDRTbl[port]  &=  (uint32)~(uint32)((uint32)1u << CapSense_pinShiftTbl[sensor])
 1399              		.loc 1 1198 0
 1400 00d4 0F4B     		ldr	r3, .L69+20
 1401 00d6 7A69     		ldr	r2, [r7, #20]
 1402 00d8 9200     		lsl	r2, r2, #2
 1403 00da D358     		ldr	r3, [r2, r3]
 1404 00dc 0D4A     		ldr	r2, .L69+20
 1405 00de 7969     		ldr	r1, [r7, #20]
 1406 00e0 8900     		lsl	r1, r1, #2
 1407 00e2 8A58     		ldr	r2, [r1, r2]
 1408 00e4 1268     		ldr	r2, [r2]
 1409 00e6 0748     		ldr	r0, .L69+4
 1410 00e8 7968     		ldr	r1, [r7, #4]
 1411 00ea 4118     		add	r1, r0, r1
 1412 00ec 0978     		ldrb	r1, [r1]
ARM GAS  C:\Users\poornima\AppData\Local\Temp\ccI9K5HH.s 			page 47


 1413 00ee 081C     		mov	r0, r1
 1414 00f0 0121     		mov	r1, #1
 1415 00f2 8140     		lsl	r1, r1, r0
 1416 00f4 C943     		mvn	r1, r1
 1417 00f6 0A40     		and	r2, r1
 1418 00f8 1A60     		str	r2, [r3]
1199:Generated_Source\PSoC4/CapSense.c ****     #if(CapSense_IS_SHIELD_ENABLE != 0)
1200:Generated_Source\PSoC4/CapSense.c ****     }
1201:Generated_Source\PSoC4/CapSense.c ****     else
1202:Generated_Source\PSoC4/CapSense.c ****     {
1203:Generated_Source\PSoC4/CapSense.c ****         /* Connect to Shield */
1204:Generated_Source\PSoC4/CapSense.c ****         *CapSense_prtSelTbl[port] |= (CapSense_CSD_SHIELD_PORT_MODE << pinHSIOMShift);
1205:Generated_Source\PSoC4/CapSense.c ****     }
1206:Generated_Source\PSoC4/CapSense.c ****     #endif /* (CapSense_IS_SHIELD_ENABLE) */
1207:Generated_Source\PSoC4/CapSense.c **** }
 1419              		.loc 1 1207 0
 1420 00fa BD46     		mov	sp, r7
 1421 00fc 09B0     		add	sp, sp, #36
 1422              		@ sp needed
 1423 00fe 90BD     		pop	{r4, r7, pc}
 1424              	.L70:
 1425              		.align	2
 1426              	.L69:
 1427 0100 00000000 		.word	CapSense_portTable
 1428 0104 00000000 		.word	CapSense_pinShiftTbl
 1429 0108 00000000 		.word	CapSense_unscannedSnsDriveMode
 1430 010c 00000000 		.word	CapSense_prtSelTbl
 1431 0110 00000000 		.word	CapSense_prtCfgTbl
 1432 0114 00000000 		.word	CapSense_prtDRTbl
 1433              		.cfi_endproc
 1434              	.LFE51:
 1435              		.size	CapSense_DisableSensor, .-CapSense_DisableSensor
 1436              		.section	.text.CapSense_SetDriveModeAllPins,"ax",%progbits
 1437              		.align	2
 1438              		.global	CapSense_SetDriveModeAllPins
 1439              		.code	16
 1440              		.thumb_func
 1441              		.type	CapSense_SetDriveModeAllPins, %function
 1442              	CapSense_SetDriveModeAllPins:
 1443              	.LFB52:
1208:Generated_Source\PSoC4/CapSense.c **** 
1209:Generated_Source\PSoC4/CapSense.c **** 
1210:Generated_Source\PSoC4/CapSense.c **** /*******************************************************************************
1211:Generated_Source\PSoC4/CapSense.c **** * Function Name: CapSense_SetDriveModeAllPins
1212:Generated_Source\PSoC4/CapSense.c **** ********************************************************************************
1213:Generated_Source\PSoC4/CapSense.c **** *
1214:Generated_Source\PSoC4/CapSense.c **** * Summary:
1215:Generated_Source\PSoC4/CapSense.c **** * This API sets the drive mode of port pins used by the CapSense
1216:Generated_Source\PSoC4/CapSense.c **** * component (sensors, guard, shield, shield tank and Cmod) to drive the
1217:Generated_Source\PSoC4/CapSense.c **** * mode specified by the argument.
1218:Generated_Source\PSoC4/CapSense.c **** *
1219:Generated_Source\PSoC4/CapSense.c **** * Parameters:
1220:Generated_Source\PSoC4/CapSense.c **** *  driveMode:  Drive mode definition.
1221:Generated_Source\PSoC4/CapSense.c **** *
1222:Generated_Source\PSoC4/CapSense.c **** * Return:
1223:Generated_Source\PSoC4/CapSense.c **** *  None
1224:Generated_Source\PSoC4/CapSense.c **** *
ARM GAS  C:\Users\poornima\AppData\Local\Temp\ccI9K5HH.s 			page 48


1225:Generated_Source\PSoC4/CapSense.c **** * Global Variables:
1226:Generated_Source\PSoC4/CapSense.c **** *  CapSense_portTable[] - used to store the port number that pin
1227:Generated_Source\PSoC4/CapSense.c **** *  belongs to for each sensor.
1228:Generated_Source\PSoC4/CapSense.c **** *  CapSense_pinShiftTbl[] - used to store position of pin that
1229:Generated_Source\PSoC4/CapSense.c **** *  configured as a sensor in the port.
1230:Generated_Source\PSoC4/CapSense.c **** *
1231:Generated_Source\PSoC4/CapSense.c **** * Side Effects:
1232:Generated_Source\PSoC4/CapSense.c **** *  This API shall be called only after CapSense component is stopped.
1233:Generated_Source\PSoC4/CapSense.c **** *
1234:Generated_Source\PSoC4/CapSense.c **** *******************************************************************************/
1235:Generated_Source\PSoC4/CapSense.c **** void CapSense_SetDriveModeAllPins(uint32 driveMode)
1236:Generated_Source\PSoC4/CapSense.c **** {
 1444              		.loc 1 1236 0
 1445              		.cfi_startproc
 1446 0000 80B5     		push	{r7, lr}
 1447              		.cfi_def_cfa_offset 8
 1448              		.cfi_offset 7, -8
 1449              		.cfi_offset 14, -4
 1450 0002 86B0     		sub	sp, sp, #24
 1451              		.cfi_def_cfa_offset 32
 1452 0004 00AF     		add	r7, sp, #0
 1453              		.cfi_def_cfa_register 7
 1454 0006 7860     		str	r0, [r7, #4]
1237:Generated_Source\PSoC4/CapSense.c ****     uint8 curSensor;
1238:Generated_Source\PSoC4/CapSense.c ****     #if (CapSense_IS_COMPLEX_SCANSLOTS)
1239:Generated_Source\PSoC4/CapSense.c ****         uint8 snsNumber;
1240:Generated_Source\PSoC4/CapSense.c ****         uint8 snsType;
1241:Generated_Source\PSoC4/CapSense.c ****     #endif  /* CapSense_IS_COMPLEX_SCANSLOTS */
1242:Generated_Source\PSoC4/CapSense.c ****     uint32 prtNumberTmp;
1243:Generated_Source\PSoC4/CapSense.c ****     uint32 pinNumberTmp;
1244:Generated_Source\PSoC4/CapSense.c **** 
1245:Generated_Source\PSoC4/CapSense.c ****     for(curSensor = 0u; curSensor < CapSense_TOTAL_SENSOR_COUNT; curSensor++)
 1455              		.loc 1 1245 0
 1456 0008 1723     		mov	r3, #23
 1457 000a FB18     		add	r3, r7, r3
 1458 000c 0022     		mov	r2, #0
 1459 000e 1A70     		strb	r2, [r3]
 1460 0010 1AE0     		b	.L72
 1461              	.L73:
1246:Generated_Source\PSoC4/CapSense.c ****     {
1247:Generated_Source\PSoC4/CapSense.c ****         #if (CapSense_IS_COMPLEX_SCANSLOTS)
1248:Generated_Source\PSoC4/CapSense.c ****             /* Read sensor type: single or complex */
1249:Generated_Source\PSoC4/CapSense.c ****             snsType = CapSense_portTable[curSensor];
1250:Generated_Source\PSoC4/CapSense.c **** 
1251:Generated_Source\PSoC4/CapSense.c ****             /* Check if sensor is complex */
1252:Generated_Source\PSoC4/CapSense.c ****             if ((snsType & CapSense_COMPLEX_SS_FLAG) == 0u)
1253:Generated_Source\PSoC4/CapSense.c ****             {
1254:Generated_Source\PSoC4/CapSense.c ****                 /* The sensor is not complex */
1255:Generated_Source\PSoC4/CapSense.c ****                 snsNumber = curSensor;
1256:Generated_Source\PSoC4/CapSense.c ****             }
1257:Generated_Source\PSoC4/CapSense.c ****             else
1258:Generated_Source\PSoC4/CapSense.c ****             {
1259:Generated_Source\PSoC4/CapSense.c ****                 /* Get dedicated sensor ID of the complex sensor */
1260:Generated_Source\PSoC4/CapSense.c ****                 snsType &= ~CapSense_COMPLEX_SS_FLAG;
1261:Generated_Source\PSoC4/CapSense.c ****                 snsNumber = CapSense_indexTable[snsType];
1262:Generated_Source\PSoC4/CapSense.c ****             }
1263:Generated_Source\PSoC4/CapSense.c **** 
ARM GAS  C:\Users\poornima\AppData\Local\Temp\ccI9K5HH.s 			page 49


1264:Generated_Source\PSoC4/CapSense.c ****             prtNumberTmp = CapSense_portTable[snsNumber];
1265:Generated_Source\PSoC4/CapSense.c ****             pinNumberTmp = CapSense_pinShiftTbl[snsNumber];
1266:Generated_Source\PSoC4/CapSense.c ****         #else
1267:Generated_Source\PSoC4/CapSense.c ****             prtNumberTmp = CapSense_portTable[curSensor];
 1462              		.loc 1 1267 0 discriminator 3
 1463 0012 1723     		mov	r3, #23
 1464 0014 FB18     		add	r3, r7, r3
 1465 0016 1B78     		ldrb	r3, [r3]
 1466 0018 124A     		ldr	r2, .L74
 1467 001a D35C     		ldrb	r3, [r2, r3]
 1468 001c 3B61     		str	r3, [r7, #16]
1268:Generated_Source\PSoC4/CapSense.c ****             pinNumberTmp = CapSense_pinShiftTbl[curSensor];
 1469              		.loc 1 1268 0 discriminator 3
 1470 001e 1723     		mov	r3, #23
 1471 0020 FB18     		add	r3, r7, r3
 1472 0022 1B78     		ldrb	r3, [r3]
 1473 0024 104A     		ldr	r2, .L74+4
 1474 0026 D35C     		ldrb	r3, [r2, r3]
 1475 0028 FB60     		str	r3, [r7, #12]
1269:Generated_Source\PSoC4/CapSense.c ****         #endif  /* CapSense_IS_COMPLEX_SCANSLOTS */
1270:Generated_Source\PSoC4/CapSense.c **** 
1271:Generated_Source\PSoC4/CapSense.c ****         CapSense_SetPinDriveMode(driveMode, pinNumberTmp, prtNumberTmp);
 1476              		.loc 1 1271 0 discriminator 3
 1477 002a 7968     		ldr	r1, [r7, #4]
 1478 002c FA68     		ldr	r2, [r7, #12]
 1479 002e 3B69     		ldr	r3, [r7, #16]
 1480 0030 081C     		mov	r0, r1
 1481 0032 111C     		mov	r1, r2
 1482 0034 1A1C     		mov	r2, r3
 1483 0036 FFF7FEFF 		bl	CapSense_SetPinDriveMode
1245:Generated_Source\PSoC4/CapSense.c ****     {
 1484              		.loc 1 1245 0 discriminator 3
 1485 003a 1723     		mov	r3, #23
 1486 003c FB18     		add	r3, r7, r3
 1487 003e 1A78     		ldrb	r2, [r3]
 1488 0040 1723     		mov	r3, #23
 1489 0042 FB18     		add	r3, r7, r3
 1490 0044 0132     		add	r2, r2, #1
 1491 0046 1A70     		strb	r2, [r3]
 1492              	.L72:
1245:Generated_Source\PSoC4/CapSense.c ****     {
 1493              		.loc 1 1245 0 is_stmt 0 discriminator 1
 1494 0048 1723     		mov	r3, #23
 1495 004a FB18     		add	r3, r7, r3
 1496 004c 1B78     		ldrb	r3, [r3]
 1497 004e 0F2B     		cmp	r3, #15
 1498 0050 DFD9     		bls	.L73
1272:Generated_Source\PSoC4/CapSense.c ****     }
1273:Generated_Source\PSoC4/CapSense.c **** 
1274:Generated_Source\PSoC4/CapSense.c ****     CapSense_SetPinDriveMode(driveMode, (uint32)CapSense_CMOD_PIN_NUMBER, (uint32)CapSense_CMOD_PRT
 1499              		.loc 1 1274 0 is_stmt 1
 1500 0052 7B68     		ldr	r3, [r7, #4]
 1501 0054 181C     		mov	r0, r3
 1502 0056 0221     		mov	r1, #2
 1503 0058 0422     		mov	r2, #4
 1504 005a FFF7FEFF 		bl	CapSense_SetPinDriveMode
1275:Generated_Source\PSoC4/CapSense.c **** 
ARM GAS  C:\Users\poornima\AppData\Local\Temp\ccI9K5HH.s 			page 50


1276:Generated_Source\PSoC4/CapSense.c ****     #if(0u != CapSense_CSH_TANK_ENABLE)
1277:Generated_Source\PSoC4/CapSense.c ****         CapSense_SetPinDriveMode(driveMode, (uint32)CapSense_CTANK_PIN_NUMBER, (uint32)CapSense_CTA
1278:Generated_Source\PSoC4/CapSense.c ****     #endif /* (0u != CapSense_CSH_TANK_ENABLE) */
1279:Generated_Source\PSoC4/CapSense.c **** 
1280:Generated_Source\PSoC4/CapSense.c ****     #if(0u != CapSense_IS_SHIELD_ENABLE)
1281:Generated_Source\PSoC4/CapSense.c ****         CapSense_SetPinDriveMode(driveMode, (uint32)CapSense_SHIELD_PIN_NUMBER, (uint32)CapSense_SH
1282:Generated_Source\PSoC4/CapSense.c ****     #endif /* (0u != CapSense_IS_SHIELD_ENABLE) */
1283:Generated_Source\PSoC4/CapSense.c **** }
 1505              		.loc 1 1283 0
 1506 005e BD46     		mov	sp, r7
 1507 0060 06B0     		add	sp, sp, #24
 1508              		@ sp needed
 1509 0062 80BD     		pop	{r7, pc}
 1510              	.L75:
 1511              		.align	2
 1512              	.L74:
 1513 0064 00000000 		.word	CapSense_portTable
 1514 0068 00000000 		.word	CapSense_pinShiftTbl
 1515              		.cfi_endproc
 1516              	.LFE52:
 1517              		.size	CapSense_SetDriveModeAllPins, .-CapSense_SetDriveModeAllPins
 1518              		.section	.text.CapSense_RestoreDriveModeAllPins,"ax",%progbits
 1519              		.align	2
 1520              		.global	CapSense_RestoreDriveModeAllPins
 1521              		.code	16
 1522              		.thumb_func
 1523              		.type	CapSense_RestoreDriveModeAllPins, %function
 1524              	CapSense_RestoreDriveModeAllPins:
 1525              	.LFB53:
1284:Generated_Source\PSoC4/CapSense.c **** 
1285:Generated_Source\PSoC4/CapSense.c **** 
1286:Generated_Source\PSoC4/CapSense.c **** /*******************************************************************************
1287:Generated_Source\PSoC4/CapSense.c **** * Function Name: CapSense_RestoreDriveModeAllPins
1288:Generated_Source\PSoC4/CapSense.c **** ********************************************************************************
1289:Generated_Source\PSoC4/CapSense.c **** *
1290:Generated_Source\PSoC4/CapSense.c **** * Summary:
1291:Generated_Source\PSoC4/CapSense.c **** *  This API restores the drive for all the CapSense port pins to the original
1292:Generated_Source\PSoC4/CapSense.c **** *  state.
1293:Generated_Source\PSoC4/CapSense.c **** *
1294:Generated_Source\PSoC4/CapSense.c **** * Parameters:
1295:Generated_Source\PSoC4/CapSense.c **** *  None
1296:Generated_Source\PSoC4/CapSense.c **** *
1297:Generated_Source\PSoC4/CapSense.c **** * Return:
1298:Generated_Source\PSoC4/CapSense.c **** *  None
1299:Generated_Source\PSoC4/CapSense.c **** *
1300:Generated_Source\PSoC4/CapSense.c **** * Global Variables:
1301:Generated_Source\PSoC4/CapSense.c **** *  CapSense_prtSelTbl[] - Contains pointers to the HSIOM
1302:Generated_Source\PSoC4/CapSense.c **** *  registers for each port.
1303:Generated_Source\PSoC4/CapSense.c **** *
1304:Generated_Source\PSoC4/CapSense.c **** * Side Effects:
1305:Generated_Source\PSoC4/CapSense.c **** *  This API is called only after the CapSense component is stopped.
1306:Generated_Source\PSoC4/CapSense.c **** *
1307:Generated_Source\PSoC4/CapSense.c **** *******************************************************************************/
1308:Generated_Source\PSoC4/CapSense.c **** void CapSense_RestoreDriveModeAllPins(void)
1309:Generated_Source\PSoC4/CapSense.c **** {
 1526              		.loc 1 1309 0
 1527              		.cfi_startproc
ARM GAS  C:\Users\poornima\AppData\Local\Temp\ccI9K5HH.s 			page 51


 1528 0000 80B5     		push	{r7, lr}
 1529              		.cfi_def_cfa_offset 8
 1530              		.cfi_offset 7, -8
 1531              		.cfi_offset 14, -4
 1532 0002 82B0     		sub	sp, sp, #8
 1533              		.cfi_def_cfa_offset 16
 1534 0004 00AF     		add	r7, sp, #0
 1535              		.cfi_def_cfa_register 7
1310:Generated_Source\PSoC4/CapSense.c ****     uint32 newRegisterValue;
1311:Generated_Source\PSoC4/CapSense.c **** 
1312:Generated_Source\PSoC4/CapSense.c ****     CapSense_SetDriveModeAllPins(CY_SYS_PINS_DM_ALG_HIZ);
 1536              		.loc 1 1312 0
 1537 0006 0020     		mov	r0, #0
 1538 0008 FFF7FEFF 		bl	CapSense_SetDriveModeAllPins
1313:Generated_Source\PSoC4/CapSense.c **** 
1314:Generated_Source\PSoC4/CapSense.c ****     newRegisterValue = CapSense_CMOD_CONNECTION_REG;
 1539              		.loc 1 1314 0
 1540 000c 084B     		ldr	r3, .L77
 1541 000e 1B68     		ldr	r3, [r3]
 1542 0010 7B60     		str	r3, [r7, #4]
1315:Generated_Source\PSoC4/CapSense.c ****     newRegisterValue &= ~(CapSense_CSD_CMOD_CONNECTION_MASK);
 1543              		.loc 1 1315 0
 1544 0012 7B68     		ldr	r3, [r7, #4]
 1545 0014 074A     		ldr	r2, .L77+4
 1546 0016 1340     		and	r3, r2
 1547 0018 7B60     		str	r3, [r7, #4]
1316:Generated_Source\PSoC4/CapSense.c ****     newRegisterValue |= CapSense_CSD_CMOD_TO_AMUXBUS_A;
 1548              		.loc 1 1316 0
 1549 001a 7B68     		ldr	r3, [r7, #4]
 1550 001c C022     		mov	r2, #192
 1551 001e D200     		lsl	r2, r2, #3
 1552 0020 1343     		orr	r3, r2
 1553 0022 7B60     		str	r3, [r7, #4]
1317:Generated_Source\PSoC4/CapSense.c ****     CapSense_CMOD_CONNECTION_REG = newRegisterValue;
 1554              		.loc 1 1317 0
 1555 0024 024B     		ldr	r3, .L77
 1556 0026 7A68     		ldr	r2, [r7, #4]
 1557 0028 1A60     		str	r2, [r3]
1318:Generated_Source\PSoC4/CapSense.c **** 
1319:Generated_Source\PSoC4/CapSense.c ****     #if(0u != CapSense_CSH_TANK_ENABLE)
1320:Generated_Source\PSoC4/CapSense.c ****         newRegisterValue = CapSense_CTANK_CONNECTION_REG;
1321:Generated_Source\PSoC4/CapSense.c ****         newRegisterValue &= ~(CapSense_CSD_CTANK_CONNECTION_MASK);
1322:Generated_Source\PSoC4/CapSense.c ****         newRegisterValue |= CapSense_CSD_CTANK_TO_AMUXBUS_B;
1323:Generated_Source\PSoC4/CapSense.c ****         CapSense_CTANK_CONNECTION_REG = newRegisterValue;
1324:Generated_Source\PSoC4/CapSense.c ****     #endif/* (0u != CapSense_CSH_TANK_ENABLE) */
1325:Generated_Source\PSoC4/CapSense.c **** 
1326:Generated_Source\PSoC4/CapSense.c ****     #if(0u != CapSense_IS_SHIELD_ENABLE)
1327:Generated_Source\PSoC4/CapSense.c ****         newRegisterValue = *CapSense_prtSelTbl[CapSense_SHIELD_PORT_NUMBER];
1328:Generated_Source\PSoC4/CapSense.c ****         newRegisterValue &= ~(CapSense_CSD_HSIOM_MASK << ((uint32)CapSense_SHIELD_PIN_NUMBER * CapS
1329:Generated_Source\PSoC4/CapSense.c ****         newRegisterValue |= (CapSense_CSD_SHIELD_PORT_MODE << ((uint32)CapSense_SHIELD_PIN_NUMBER *
1330:Generated_Source\PSoC4/CapSense.c ****         *CapSense_prtSelTbl[CapSense_SHIELD_PORT_NUMBER] = newRegisterValue;
1331:Generated_Source\PSoC4/CapSense.c ****     #endif /* (0u != CapSense_IS_SHIELD_ENABLE) */
1332:Generated_Source\PSoC4/CapSense.c **** }
 1558              		.loc 1 1332 0
 1559 002a BD46     		mov	sp, r7
 1560 002c 02B0     		add	sp, sp, #8
 1561              		@ sp needed
ARM GAS  C:\Users\poornima\AppData\Local\Temp\ccI9K5HH.s 			page 52


 1562 002e 80BD     		pop	{r7, pc}
 1563              	.L78:
 1564              		.align	2
 1565              	.L77:
 1566 0030 00040240 		.word	1073873920
 1567 0034 FFF0FFFF 		.word	-3841
 1568              		.cfi_endproc
 1569              	.LFE53:
 1570              		.size	CapSense_RestoreDriveModeAllPins, .-CapSense_RestoreDriveModeAllPins
 1571              		.section	.text.CapSense_SetPinDriveMode,"ax",%progbits
 1572              		.align	2
 1573              		.global	CapSense_SetPinDriveMode
 1574              		.code	16
 1575              		.thumb_func
 1576              		.type	CapSense_SetPinDriveMode, %function
 1577              	CapSense_SetPinDriveMode:
 1578              	.LFB54:
1333:Generated_Source\PSoC4/CapSense.c **** 
1334:Generated_Source\PSoC4/CapSense.c **** 
1335:Generated_Source\PSoC4/CapSense.c **** /*******************************************************************************
1336:Generated_Source\PSoC4/CapSense.c **** * Function Name: CapSense_SetPinDriveMode
1337:Generated_Source\PSoC4/CapSense.c **** ********************************************************************************
1338:Generated_Source\PSoC4/CapSense.c **** *
1339:Generated_Source\PSoC4/CapSense.c **** * Summary:
1340:Generated_Source\PSoC4/CapSense.c **** * This API sets the drive mode for the appropriate port/pin.
1341:Generated_Source\PSoC4/CapSense.c **** *
1342:Generated_Source\PSoC4/CapSense.c **** * Parameters:
1343:Generated_Source\PSoC4/CapSense.c **** *  driveMode:  Drive mode definition.
1344:Generated_Source\PSoC4/CapSense.c **** *  portNumber: contains port number (0, 1, 2).
1345:Generated_Source\PSoC4/CapSense.c **** *  pinNumber: contains pin number (0, 1, 2, ... , 7).
1346:Generated_Source\PSoC4/CapSense.c **** *
1347:Generated_Source\PSoC4/CapSense.c **** * Return:
1348:Generated_Source\PSoC4/CapSense.c **** *  None
1349:Generated_Source\PSoC4/CapSense.c **** *
1350:Generated_Source\PSoC4/CapSense.c **** * Global Variables:
1351:Generated_Source\PSoC4/CapSense.c **** *  CapSense_prtSelTbl[] - Contains pointers to the HSIOM
1352:Generated_Source\PSoC4/CapSense.c **** *  registers for each port.
1353:Generated_Source\PSoC4/CapSense.c **** *  CapSense_prtCfgTb[] - Contains pointers to the port config
1354:Generated_Source\PSoC4/CapSense.c **** *  registers for each port.
1355:Generated_Source\PSoC4/CapSense.c **** *
1356:Generated_Source\PSoC4/CapSense.c **** * Side Effects:
1357:Generated_Source\PSoC4/CapSense.c **** *  This API is called only after CapSense component is stopped.
1358:Generated_Source\PSoC4/CapSense.c **** *
1359:Generated_Source\PSoC4/CapSense.c **** *******************************************************************************/
1360:Generated_Source\PSoC4/CapSense.c **** void CapSense_SetPinDriveMode(uint32 driveMode, uint32 pinNumber, uint32 portNumber)
1361:Generated_Source\PSoC4/CapSense.c **** {
 1579              		.loc 1 1361 0
 1580              		.cfi_startproc
 1581 0000 80B5     		push	{r7, lr}
 1582              		.cfi_def_cfa_offset 8
 1583              		.cfi_offset 7, -8
 1584              		.cfi_offset 14, -4
 1585 0002 86B0     		sub	sp, sp, #24
 1586              		.cfi_def_cfa_offset 32
 1587 0004 00AF     		add	r7, sp, #0
 1588              		.cfi_def_cfa_register 7
 1589 0006 F860     		str	r0, [r7, #12]
ARM GAS  C:\Users\poornima\AppData\Local\Temp\ccI9K5HH.s 			page 53


 1590 0008 B960     		str	r1, [r7, #8]
 1591 000a 7A60     		str	r2, [r7, #4]
1362:Generated_Source\PSoC4/CapSense.c ****     uint32  pinModeShift;
1363:Generated_Source\PSoC4/CapSense.c ****     uint32 newRegisterValue;
1364:Generated_Source\PSoC4/CapSense.c **** 
1365:Generated_Source\PSoC4/CapSense.c ****     pinModeShift  = pinNumber * CapSense_PC_PIN_CFG_SIZE;
 1592              		.loc 1 1365 0
 1593 000c BA68     		ldr	r2, [r7, #8]
 1594 000e 131C     		mov	r3, r2
 1595 0010 5B00     		lsl	r3, r3, #1
 1596 0012 9B18     		add	r3, r3, r2
 1597 0014 7B61     		str	r3, [r7, #20]
1366:Generated_Source\PSoC4/CapSense.c **** 
1367:Generated_Source\PSoC4/CapSense.c ****     newRegisterValue = *CapSense_prtCfgTbl[portNumber];
 1598              		.loc 1 1367 0
 1599 0016 0F4B     		ldr	r3, .L80
 1600 0018 7A68     		ldr	r2, [r7, #4]
 1601 001a 9200     		lsl	r2, r2, #2
 1602 001c D358     		ldr	r3, [r2, r3]
 1603 001e 1B68     		ldr	r3, [r3]
 1604 0020 3B61     		str	r3, [r7, #16]
1368:Generated_Source\PSoC4/CapSense.c ****     newRegisterValue &= ~(CapSense_CSD_PIN_MODE_MASK << pinModeShift);
 1605              		.loc 1 1368 0
 1606 0022 7B69     		ldr	r3, [r7, #20]
 1607 0024 0722     		mov	r2, #7
 1608 0026 9A40     		lsl	r2, r2, r3
 1609 0028 131C     		mov	r3, r2
 1610 002a DA43     		mvn	r2, r3
 1611 002c 3B69     		ldr	r3, [r7, #16]
 1612 002e 1340     		and	r3, r2
 1613 0030 3B61     		str	r3, [r7, #16]
1369:Generated_Source\PSoC4/CapSense.c ****     newRegisterValue |=  (uint32)((uint32)driveMode << pinModeShift);
 1614              		.loc 1 1369 0
 1615 0032 7B69     		ldr	r3, [r7, #20]
 1616 0034 FA68     		ldr	r2, [r7, #12]
 1617 0036 9A40     		lsl	r2, r2, r3
 1618 0038 131C     		mov	r3, r2
 1619 003a 3A69     		ldr	r2, [r7, #16]
 1620 003c 1343     		orr	r3, r2
 1621 003e 3B61     		str	r3, [r7, #16]
1370:Generated_Source\PSoC4/CapSense.c ****     *CapSense_prtCfgTbl[portNumber] =  newRegisterValue;
 1622              		.loc 1 1370 0
 1623 0040 044B     		ldr	r3, .L80
 1624 0042 7A68     		ldr	r2, [r7, #4]
 1625 0044 9200     		lsl	r2, r2, #2
 1626 0046 D358     		ldr	r3, [r2, r3]
 1627 0048 3A69     		ldr	r2, [r7, #16]
 1628 004a 1A60     		str	r2, [r3]
1371:Generated_Source\PSoC4/CapSense.c **** }
 1629              		.loc 1 1371 0
 1630 004c BD46     		mov	sp, r7
 1631 004e 06B0     		add	sp, sp, #24
 1632              		@ sp needed
 1633 0050 80BD     		pop	{r7, pc}
 1634              	.L81:
 1635 0052 C046     		.align	2
 1636              	.L80:
ARM GAS  C:\Users\poornima\AppData\Local\Temp\ccI9K5HH.s 			page 54


 1637 0054 00000000 		.word	CapSense_prtCfgTbl
 1638              		.cfi_endproc
 1639              	.LFE54:
 1640              		.size	CapSense_SetPinDriveMode, .-CapSense_SetPinDriveMode
 1641              		.section	.text.CapSense_PreScan,"ax",%progbits
 1642              		.align	2
 1643              		.global	CapSense_PreScan
 1644              		.code	16
 1645              		.thumb_func
 1646              		.type	CapSense_PreScan, %function
 1647              	CapSense_PreScan:
 1648              	.LFB55:
1372:Generated_Source\PSoC4/CapSense.c **** 
1373:Generated_Source\PSoC4/CapSense.c **** 
1374:Generated_Source\PSoC4/CapSense.c **** /*******************************************************************************
1375:Generated_Source\PSoC4/CapSense.c **** * Function Name: CapSense_PreScan
1376:Generated_Source\PSoC4/CapSense.c **** ********************************************************************************
1377:Generated_Source\PSoC4/CapSense.c **** *
1378:Generated_Source\PSoC4/CapSense.c **** * Summary:
1379:Generated_Source\PSoC4/CapSense.c **** *  Sets required settings, enables a sensor, removes Vref from AMUX and starts the
1380:Generated_Source\PSoC4/CapSense.c **** *  scanning process of the sensor.
1381:Generated_Source\PSoC4/CapSense.c **** *
1382:Generated_Source\PSoC4/CapSense.c **** * Parameters:
1383:Generated_Source\PSoC4/CapSense.c **** *  sensor:  Sensor number.
1384:Generated_Source\PSoC4/CapSense.c **** *
1385:Generated_Source\PSoC4/CapSense.c **** * Return:
1386:Generated_Source\PSoC4/CapSense.c **** *  None
1387:Generated_Source\PSoC4/CapSense.c **** *
1388:Generated_Source\PSoC4/CapSense.c **** * Global Variables:
1389:Generated_Source\PSoC4/CapSense.c **** * CapSense_widgetNumber[] - This array contains numbers of widgets for each sensor.
1390:Generated_Source\PSoC4/CapSense.c **** * CapSense_widgetResolution[] - Contains the widget resolution.
1391:Generated_Source\PSoC4/CapSense.c **** *
1392:Generated_Source\PSoC4/CapSense.c **** * Side Effects:
1393:Generated_Source\PSoC4/CapSense.c **** *  None
1394:Generated_Source\PSoC4/CapSense.c **** *
1395:Generated_Source\PSoC4/CapSense.c **** *******************************************************************************/
1396:Generated_Source\PSoC4/CapSense.c **** void CapSense_PreScan(uint32 sensor)
1397:Generated_Source\PSoC4/CapSense.c **** {
 1649              		.loc 1 1397 0
 1650              		.cfi_startproc
 1651 0000 90B5     		push	{r4, r7, lr}
 1652              		.cfi_def_cfa_offset 12
 1653              		.cfi_offset 4, -12
 1654              		.cfi_offset 7, -8
 1655              		.cfi_offset 14, -4
 1656 0002 87B0     		sub	sp, sp, #28
 1657              		.cfi_def_cfa_offset 40
 1658 0004 00AF     		add	r7, sp, #0
 1659              		.cfi_def_cfa_register 7
 1660 0006 7860     		str	r0, [r7, #4]
1398:Generated_Source\PSoC4/CapSense.c ****     uint8 widget;
1399:Generated_Source\PSoC4/CapSense.c ****     uint8 interruptState;
1400:Generated_Source\PSoC4/CapSense.c ****     uint32 newRegValue;
1401:Generated_Source\PSoC4/CapSense.c ****     uint32 counterResolution;
1402:Generated_Source\PSoC4/CapSense.c **** 
1403:Generated_Source\PSoC4/CapSense.c ****     #if(CapSense_PRS_OPTIONS == CapSense__PRS_AUTO)
1404:Generated_Source\PSoC4/CapSense.c ****         uint8 senseClkDivMath;
ARM GAS  C:\Users\poornima\AppData\Local\Temp\ccI9K5HH.s 			page 55


1405:Generated_Source\PSoC4/CapSense.c ****         uint8 sampleClkDivMath;
1406:Generated_Source\PSoC4/CapSense.c ****     #endif /* (CapSense_PRS_OPTIONS == CapSense__PRS_AUTO) */
1407:Generated_Source\PSoC4/CapSense.c **** 
1408:Generated_Source\PSoC4/CapSense.c ****     #if ((CapSense_TUNING_METHOD == CapSense__TUNING_AUTO) &&\
1409:Generated_Source\PSoC4/CapSense.c ****          (0 != CapSense_IS_OVERSAMPLING_EN))
1410:Generated_Source\PSoC4/CapSense.c ****         uint32 oversamplingFactor;
1411:Generated_Source\PSoC4/CapSense.c ****     #endif /* ((CapSense_TUNING_METHOD == CapSense__TUNING_AUTO) &&\
1412:Generated_Source\PSoC4/CapSense.c ****                (0 != CapSense_IS_OVERSAMPLING_EN)) */
1413:Generated_Source\PSoC4/CapSense.c **** 
1414:Generated_Source\PSoC4/CapSense.c ****     /* Define widget sensor belongs to */
1415:Generated_Source\PSoC4/CapSense.c ****     widget = CapSense_widgetNumber[sensor];
 1661              		.loc 1 1415 0
 1662 0008 1723     		mov	r3, #23
 1663 000a FB18     		add	r3, r7, r3
 1664 000c 4249     		ldr	r1, .L84
 1665 000e 7A68     		ldr	r2, [r7, #4]
 1666 0010 8A18     		add	r2, r1, r2
 1667 0012 1278     		ldrb	r2, [r2]
 1668 0014 1A70     		strb	r2, [r3]
1416:Generated_Source\PSoC4/CapSense.c **** 
1417:Generated_Source\PSoC4/CapSense.c ****     /* Recalculate Counter Resolution to MSB 16 bits */
1418:Generated_Source\PSoC4/CapSense.c ****     counterResolution = CapSense_widgetResolution[widget];
 1669              		.loc 1 1418 0
 1670 0016 1723     		mov	r3, #23
 1671 0018 FB18     		add	r3, r7, r3
 1672 001a 1A78     		ldrb	r2, [r3]
 1673 001c 3F4B     		ldr	r3, .L84+4
 1674 001e 9200     		lsl	r2, r2, #2
 1675 0020 D358     		ldr	r3, [r2, r3]
 1676 0022 3B61     		str	r3, [r7, #16]
1419:Generated_Source\PSoC4/CapSense.c **** 
1420:Generated_Source\PSoC4/CapSense.c ****     #if ((CapSense_TUNING_METHOD == CapSense__TUNING_AUTO) &&\
1421:Generated_Source\PSoC4/CapSense.c ****          (0 != CapSense_IS_OVERSAMPLING_EN))
1422:Generated_Source\PSoC4/CapSense.c ****         oversamplingFactor = CapSense_GetBitValue(CapSense_scanSpeedTbl, sensor);
1423:Generated_Source\PSoC4/CapSense.c **** 
1424:Generated_Source\PSoC4/CapSense.c ****         if(counterResolution < CapSense_RESOLUTION_16_BITS)
1425:Generated_Source\PSoC4/CapSense.c ****         {
1426:Generated_Source\PSoC4/CapSense.c ****             counterResolution <<= oversamplingFactor;
1427:Generated_Source\PSoC4/CapSense.c ****             counterResolution |= (uint32)(CapSense_RESOLUTION_8_BITS);
1428:Generated_Source\PSoC4/CapSense.c ****         }
1429:Generated_Source\PSoC4/CapSense.c ****     #endif /* ((CapSense_TUNING_METHOD == CapSense__TUNING_AUTO) &&\
1430:Generated_Source\PSoC4/CapSense.c ****                (0 != CapSense_IS_OVERSAMPLING_EN)) */
1431:Generated_Source\PSoC4/CapSense.c **** 
1432:Generated_Source\PSoC4/CapSense.c ****     #if (0u != CapSense_IS_M0S8PERI_BLOCK)
1433:Generated_Source\PSoC4/CapSense.c ****         CapSense_SenseClk_Stop();
 1677              		.loc 1 1433 0
 1678 0024 FFF7FEFF 		bl	CapSense_SenseClk_Stop
1434:Generated_Source\PSoC4/CapSense.c ****         CapSense_SampleClk_Stop();
 1679              		.loc 1 1434 0
 1680 0028 FFF7FEFF 		bl	CapSense_SampleClk_Stop
1435:Generated_Source\PSoC4/CapSense.c ****     #endif /* (0u != CapSense_IS_M0S8PERI_BLOCK) */
1436:Generated_Source\PSoC4/CapSense.c **** 
1437:Generated_Source\PSoC4/CapSense.c ****     #if (0u != CapSense_MULTIPLE_FREQUENCY_SET)
1438:Generated_Source\PSoC4/CapSense.c ****         CapSense_SampleClk_SetDividerValue((uint16)CapSense_sampleClkDividerVal[sensor]);
 1681              		.loc 1 1438 0
 1682 002c 3C4A     		ldr	r2, .L84+8
 1683 002e 7B68     		ldr	r3, [r7, #4]
ARM GAS  C:\Users\poornima\AppData\Local\Temp\ccI9K5HH.s 			page 56


 1684 0030 D318     		add	r3, r2, r3
 1685 0032 1B78     		ldrb	r3, [r3]
 1686 0034 9BB2     		uxth	r3, r3
 1687 0036 013B     		sub	r3, r3, #1
 1688 0038 9BB2     		uxth	r3, r3
 1689 003a 181C     		mov	r0, r3
 1690 003c 0021     		mov	r1, #0
 1691 003e FFF7FEFF 		bl	CapSense_SampleClk_SetFractionalDividerRegister
1439:Generated_Source\PSoC4/CapSense.c ****         CapSense_SenseClk_SetDividerValue((uint16)CapSense_senseClkDividerVal[sensor]);
 1692              		.loc 1 1439 0
 1693 0042 384A     		ldr	r2, .L84+12
 1694 0044 7B68     		ldr	r3, [r7, #4]
 1695 0046 D318     		add	r3, r2, r3
 1696 0048 1B78     		ldrb	r3, [r3]
 1697 004a 9BB2     		uxth	r3, r3
 1698 004c 013B     		sub	r3, r3, #1
 1699 004e 9BB2     		uxth	r3, r3
 1700 0050 181C     		mov	r0, r3
 1701 0052 0021     		mov	r1, #0
 1702 0054 FFF7FEFF 		bl	CapSense_SenseClk_SetFractionalDividerRegister
1440:Generated_Source\PSoC4/CapSense.c ****     #else
1441:Generated_Source\PSoC4/CapSense.c ****         CapSense_SampleClk_SetDividerValue((uint16)CapSense_sampleClkDividerVal);
1442:Generated_Source\PSoC4/CapSense.c ****         CapSense_SenseClk_SetDividerValue((uint16)CapSense_senseClkDividerVal);
1443:Generated_Source\PSoC4/CapSense.c ****     #endif /* (0u != CapSense_MULTIPLE_FREQUENCY_SET) */
1444:Generated_Source\PSoC4/CapSense.c **** 
1445:Generated_Source\PSoC4/CapSense.c ****     #if (0u != CapSense_IS_M0S8PERI_BLOCK)
1446:Generated_Source\PSoC4/CapSense.c ****         CapSense_SampleClk_Start();
 1703              		.loc 1 1446 0
 1704 0058 FF20     		mov	r0, #255
 1705 005a FFF7FEFF 		bl	CapSense_SampleClk_StartEx
1447:Generated_Source\PSoC4/CapSense.c ****         CapSense_SenseClk_StartEx(CapSense_SampleClk__DIV_ID);
 1706              		.loc 1 1447 0
 1707 005e 4020     		mov	r0, #64
 1708 0060 FFF7FEFF 		bl	CapSense_SenseClk_StartEx
1448:Generated_Source\PSoC4/CapSense.c **** 
1449:Generated_Source\PSoC4/CapSense.c ****         #if(CapSense_PRS_OPTIONS == CapSense__PRS_NONE)
1450:Generated_Source\PSoC4/CapSense.c ****             CyIntDisable(CapSense_ISR_NUMBER);
1451:Generated_Source\PSoC4/CapSense.c ****             CapSense_CSD_CNT_REG = CapSense_ONE_CYCLE;
1452:Generated_Source\PSoC4/CapSense.c ****             while(0u != (CapSense_CSD_CNT_REG & CapSense_RESOLUTION_16_BITS))
1453:Generated_Source\PSoC4/CapSense.c ****             {
1454:Generated_Source\PSoC4/CapSense.c ****             /* Wait until scanning is complete */
1455:Generated_Source\PSoC4/CapSense.c ****             }
1456:Generated_Source\PSoC4/CapSense.c ****             CapSense_CSD_INTR_REG = 1u;
1457:Generated_Source\PSoC4/CapSense.c ****             CyIntClearPending(CapSense_ISR_NUMBER);
1458:Generated_Source\PSoC4/CapSense.c ****             CyIntEnable(CapSense_ISR_NUMBER);
1459:Generated_Source\PSoC4/CapSense.c ****         #endif /* CapSense_PRS_OPTIONS == CapSense__PRS_NONE */
1460:Generated_Source\PSoC4/CapSense.c ****     #endif /* (0u != CapSense_IS_M0S8PERI_BLOCK) */
1461:Generated_Source\PSoC4/CapSense.c **** 
1462:Generated_Source\PSoC4/CapSense.c **** #if(CapSense_PRS_OPTIONS != CapSense__PRS_NONE)
1463:Generated_Source\PSoC4/CapSense.c **** 
1464:Generated_Source\PSoC4/CapSense.c ****     #if(CapSense_TUNING_METHOD == CapSense__TUNING_AUTO)
1465:Generated_Source\PSoC4/CapSense.c ****         if(CapSense_prescalersTuningDone != 0u)
 1709              		.loc 1 1465 0
 1710 0064 304B     		ldr	r3, .L84+16
 1711 0066 1B78     		ldrb	r3, [r3]
 1712 0068 002B     		cmp	r3, #0
 1713 006a 0FD0     		beq	.L83
ARM GAS  C:\Users\poornima\AppData\Local\Temp\ccI9K5HH.s 			page 57


1466:Generated_Source\PSoC4/CapSense.c ****         {
1467:Generated_Source\PSoC4/CapSense.c ****     #endif /* (CapSense_TUNING_METHOD == CapSense__TUNING_AUTO) */
1468:Generated_Source\PSoC4/CapSense.c **** 
1469:Generated_Source\PSoC4/CapSense.c ****             CyIntDisable(CapSense_ISR_NUMBER);
 1714              		.loc 1 1469 0
 1715 006c 1120     		mov	r0, #17
 1716 006e FFF7FEFF 		bl	CyIntDisable
1470:Generated_Source\PSoC4/CapSense.c **** 
1471:Generated_Source\PSoC4/CapSense.c ****             newRegValue = CapSense_CSD_CFG_REG;
 1717              		.loc 1 1471 0
 1718 0072 2E4B     		ldr	r3, .L84+20
 1719 0074 1B68     		ldr	r3, [r3]
 1720 0076 FB60     		str	r3, [r7, #12]
1472:Generated_Source\PSoC4/CapSense.c ****             newRegValue |= CapSense_CSD_CFG_PRS_SELECT;
 1721              		.loc 1 1472 0
 1722 0078 FB68     		ldr	r3, [r7, #12]
 1723 007a 4022     		mov	r2, #64
 1724 007c 1343     		orr	r3, r2
 1725 007e FB60     		str	r3, [r7, #12]
1473:Generated_Source\PSoC4/CapSense.c **** 
1474:Generated_Source\PSoC4/CapSense.c ****             #if(CapSense_PRS_OPTIONS == CapSense__PRS_AUTO)
1475:Generated_Source\PSoC4/CapSense.c **** 
1476:Generated_Source\PSoC4/CapSense.c ****                 newRegValue &= ~(CapSense_PRS_MODE_MASK);
1477:Generated_Source\PSoC4/CapSense.c **** 
1478:Generated_Source\PSoC4/CapSense.c ****                 #if (0u != CapSense_MULTIPLE_FREQUENCY_SET)
1479:Generated_Source\PSoC4/CapSense.c ****                     senseClkDivMath = CapSense_senseClkDividerVal[sensor];
1480:Generated_Source\PSoC4/CapSense.c ****                     sampleClkDivMath = CapSense_sampleClkDividerVal[sensor];
1481:Generated_Source\PSoC4/CapSense.c ****                 #else
1482:Generated_Source\PSoC4/CapSense.c ****                     senseClkDivMath = CapSense_senseClkDividerVal;
1483:Generated_Source\PSoC4/CapSense.c ****                     sampleClkDivMath = CapSense_sampleClkDividerVal;
1484:Generated_Source\PSoC4/CapSense.c ****                 #endif /* ( CapSense_MULTIPLE_FREQUENCY_SET) */
1485:Generated_Source\PSoC4/CapSense.c **** 
1486:Generated_Source\PSoC4/CapSense.c ****                 #if(0u == CapSense_IS_M0S8PERI_BLOCK)
1487:Generated_Source\PSoC4/CapSense.c ****                     senseClkDivMath *= sampleClkDivMath;
1488:Generated_Source\PSoC4/CapSense.c ****                 #endif /* (0u == CapSense_IS_M0S8PERI_BLOCK) */
1489:Generated_Source\PSoC4/CapSense.c **** 
1490:Generated_Source\PSoC4/CapSense.c ****                 if((senseClkDivMath * CapSense_RESOLUTION_12_BITS) <
1491:Generated_Source\PSoC4/CapSense.c ****                    (sampleClkDivMath * CapSense_widgetResolution[widget]))
1492:Generated_Source\PSoC4/CapSense.c ****                 {
1493:Generated_Source\PSoC4/CapSense.c ****                     newRegValue |= CapSense_CSD_PRS_12_BIT;
1494:Generated_Source\PSoC4/CapSense.c ****                 }
1495:Generated_Source\PSoC4/CapSense.c ****             #endif /* (CapSense_PRS_OPTIONS == CapSense__PRS_AUTO) */
1496:Generated_Source\PSoC4/CapSense.c **** 
1497:Generated_Source\PSoC4/CapSense.c ****             CapSense_CSD_CFG_REG = newRegValue;
 1726              		.loc 1 1497 0
 1727 0080 2A4B     		ldr	r3, .L84+20
 1728 0082 FA68     		ldr	r2, [r7, #12]
 1729 0084 1A60     		str	r2, [r3]
1498:Generated_Source\PSoC4/CapSense.c **** 
1499:Generated_Source\PSoC4/CapSense.c ****             CyIntEnable(CapSense_ISR_NUMBER);
 1730              		.loc 1 1499 0
 1731 0086 1120     		mov	r0, #17
 1732 0088 FFF7FEFF 		bl	CyIntEnable
 1733              	.L83:
1500:Generated_Source\PSoC4/CapSense.c **** 
1501:Generated_Source\PSoC4/CapSense.c ****     #if(CapSense_TUNING_METHOD == CapSense__TUNING_AUTO)
1502:Generated_Source\PSoC4/CapSense.c ****         }
ARM GAS  C:\Users\poornima\AppData\Local\Temp\ccI9K5HH.s 			page 58


1503:Generated_Source\PSoC4/CapSense.c ****     #endif /* (CapSense_PRS_OPTIONS != CapSense__PRS_NONE) */
1504:Generated_Source\PSoC4/CapSense.c **** 
1505:Generated_Source\PSoC4/CapSense.c **** #endif /* (CapSense_PRS_OPTIONS == CapSense__PRS_NONE) */
1506:Generated_Source\PSoC4/CapSense.c **** 
1507:Generated_Source\PSoC4/CapSense.c ****     /* Set Idac Value */
1508:Generated_Source\PSoC4/CapSense.c ****     CyIntDisable(CapSense_ISR_NUMBER);
 1734              		.loc 1 1508 0
 1735 008c 1120     		mov	r0, #17
 1736 008e FFF7FEFF 		bl	CyIntDisable
1509:Generated_Source\PSoC4/CapSense.c ****     newRegValue = CapSense_CSD_IDAC_REG;
 1737              		.loc 1 1509 0
 1738 0092 274B     		ldr	r3, .L84+24
 1739 0094 1B68     		ldr	r3, [r3]
 1740 0096 FB60     		str	r3, [r7, #12]
1510:Generated_Source\PSoC4/CapSense.c **** 
1511:Generated_Source\PSoC4/CapSense.c **** #if (CapSense_IDAC_CNT == 1u)
1512:Generated_Source\PSoC4/CapSense.c ****     newRegValue &= ~(CapSense_CSD_IDAC1_DATA_MASK);
1513:Generated_Source\PSoC4/CapSense.c ****     newRegValue |= CapSense_modulationIDAC[sensor];
1514:Generated_Source\PSoC4/CapSense.c **** #else
1515:Generated_Source\PSoC4/CapSense.c ****     newRegValue &= ~(CapSense_CSD_IDAC1_DATA_MASK | CapSense_CSD_IDAC2_DATA_MASK);
 1741              		.loc 1 1515 0
 1742 0098 FB68     		ldr	r3, [r7, #12]
 1743 009a 264A     		ldr	r2, .L84+28
 1744 009c 1340     		and	r3, r2
 1745 009e FB60     		str	r3, [r7, #12]
1516:Generated_Source\PSoC4/CapSense.c ****     newRegValue |= (CapSense_modulationIDAC[sensor] |
 1746              		.loc 1 1516 0
 1747 00a0 254A     		ldr	r2, .L84+32
 1748 00a2 7B68     		ldr	r3, [r7, #4]
 1749 00a4 D318     		add	r3, r2, r3
 1750 00a6 1B78     		ldrb	r3, [r3]
 1751 00a8 191C     		mov	r1, r3
1517:Generated_Source\PSoC4/CapSense.c ****                             (uint32)((uint32)CapSense_compensationIDAC[sensor] <<
 1752              		.loc 1 1517 0
 1753 00aa 244A     		ldr	r2, .L84+36
 1754 00ac 7B68     		ldr	r3, [r7, #4]
 1755 00ae D318     		add	r3, r2, r3
 1756 00b0 1B78     		ldrb	r3, [r3]
 1757 00b2 1B04     		lsl	r3, r3, #16
1516:Generated_Source\PSoC4/CapSense.c ****     newRegValue |= (CapSense_modulationIDAC[sensor] |
 1758              		.loc 1 1516 0
 1759 00b4 0B43     		orr	r3, r1
 1760 00b6 FA68     		ldr	r2, [r7, #12]
 1761 00b8 1343     		orr	r3, r2
 1762 00ba FB60     		str	r3, [r7, #12]
1518:Generated_Source\PSoC4/CapSense.c ****                             CapSense_CSD_IDAC2_DATA_OFFSET));
1519:Generated_Source\PSoC4/CapSense.c **** #endif /* (CapSense_IDAC_CNT == 1u) */
1520:Generated_Source\PSoC4/CapSense.c **** 
1521:Generated_Source\PSoC4/CapSense.c ****     CapSense_CSD_IDAC_REG = newRegValue;
 1763              		.loc 1 1521 0
 1764 00bc 1C4B     		ldr	r3, .L84+24
 1765 00be FA68     		ldr	r2, [r7, #12]
 1766 00c0 1A60     		str	r2, [r3]
1522:Generated_Source\PSoC4/CapSense.c **** 
1523:Generated_Source\PSoC4/CapSense.c **** #if(CapSense_CMOD_PREGARGE_OPTION == CapSense__CAPPRIOBUF)
1524:Generated_Source\PSoC4/CapSense.c ****     newRegValue = CapSense_CMOD_CONNECTION_REG;
1525:Generated_Source\PSoC4/CapSense.c ****     newRegValue &= ~(CapSense_CSD_CMOD_CONNECTION_MASK);
ARM GAS  C:\Users\poornima\AppData\Local\Temp\ccI9K5HH.s 			page 59


1526:Generated_Source\PSoC4/CapSense.c ****     newRegValue |= CapSense_CSD_CMOD_TO_AMUXBUS_A;
1527:Generated_Source\PSoC4/CapSense.c ****     CapSense_CMOD_CONNECTION_REG = newRegValue;
1528:Generated_Source\PSoC4/CapSense.c **** 
1529:Generated_Source\PSoC4/CapSense.c ****     newRegValue = CapSense_CMOD_PORT_PC_REG;
1530:Generated_Source\PSoC4/CapSense.c ****     newRegValue &= ~(CapSense_CSD_CMOD_PC_MASK);
1531:Generated_Source\PSoC4/CapSense.c ****     newRegValue |= CapSense_CMOD_PC_HIGH_Z_MODE;
1532:Generated_Source\PSoC4/CapSense.c ****     CapSense_CMOD_PORT_PC_REG = newRegValue;
1533:Generated_Source\PSoC4/CapSense.c **** #endif /* (CapSense_CMOD_PREGARGE_OPTION == CapSense__CAPPRIOBUF) */
1534:Generated_Source\PSoC4/CapSense.c **** 
1535:Generated_Source\PSoC4/CapSense.c ****     /* Disconnect Vref Buffer from AMUX */
1536:Generated_Source\PSoC4/CapSense.c ****     newRegValue = CapSense_CSD_CFG_REG;
 1767              		.loc 1 1536 0
 1768 00c2 1A4B     		ldr	r3, .L84+20
 1769 00c4 1B68     		ldr	r3, [r3]
 1770 00c6 FB60     		str	r3, [r7, #12]
1537:Generated_Source\PSoC4/CapSense.c ****     newRegValue &= ~(CapSense_PRECHARGE_CONFIG_MASK);
 1771              		.loc 1 1537 0
 1772 00c8 FB68     		ldr	r3, [r7, #12]
 1773 00ca 1D4A     		ldr	r2, .L84+40
 1774 00cc 1340     		and	r3, r2
 1775 00ce FB60     		str	r3, [r7, #12]
1538:Generated_Source\PSoC4/CapSense.c ****     newRegValue |= CapSense_CTANK_PRECHARGE_CONFIG;
 1776              		.loc 1 1538 0
 1777 00d0 FB68     		ldr	r3, [r7, #12]
 1778 00d2 1C4A     		ldr	r2, .L84+44
 1779 00d4 1343     		orr	r3, r2
 1780 00d6 FB60     		str	r3, [r7, #12]
1539:Generated_Source\PSoC4/CapSense.c **** 
1540:Generated_Source\PSoC4/CapSense.c ****     CyIntEnable(CapSense_ISR_NUMBER);
 1781              		.loc 1 1540 0
 1782 00d8 1120     		mov	r0, #17
 1783 00da FFF7FEFF 		bl	CyIntEnable
1541:Generated_Source\PSoC4/CapSense.c **** 
1542:Generated_Source\PSoC4/CapSense.c ****     /* Enable Sensor */
1543:Generated_Source\PSoC4/CapSense.c ****     CapSense_EnableScanSlot(sensor);
 1784              		.loc 1 1543 0
 1785 00de 7B68     		ldr	r3, [r7, #4]
 1786 00e0 181C     		mov	r0, r3
 1787 00e2 FFF7FEFF 		bl	CapSense_EnableSensor
1544:Generated_Source\PSoC4/CapSense.c **** 
1545:Generated_Source\PSoC4/CapSense.c ****     interruptState = CyEnterCriticalSection();
 1788              		.loc 1 1545 0
 1789 00e6 0B23     		mov	r3, #11
 1790 00e8 FC18     		add	r4, r7, r3
 1791 00ea FFF7FEFF 		bl	CyEnterCriticalSection
 1792 00ee 031C     		mov	r3, r0
 1793 00f0 2370     		strb	r3, [r4]
1546:Generated_Source\PSoC4/CapSense.c ****     CapSense_CSD_CFG_REG = newRegValue;
 1794              		.loc 1 1546 0
 1795 00f2 0E4B     		ldr	r3, .L84+20
 1796 00f4 FA68     		ldr	r2, [r7, #12]
 1797 00f6 1A60     		str	r2, [r3]
1547:Generated_Source\PSoC4/CapSense.c **** 
1548:Generated_Source\PSoC4/CapSense.c ****     /* `#START CapSense_PreSettlingDelay_Debug` */
1549:Generated_Source\PSoC4/CapSense.c **** 
1550:Generated_Source\PSoC4/CapSense.c ****     /* `#END` */
1551:Generated_Source\PSoC4/CapSense.c **** 
ARM GAS  C:\Users\poornima\AppData\Local\Temp\ccI9K5HH.s 			page 60


1552:Generated_Source\PSoC4/CapSense.c **** #ifdef CapSense_PRE_SCAN_PRE_SETTLING_DELAY_DEBUG_CALLBACK
1553:Generated_Source\PSoC4/CapSense.c ****     CapSense_PreScan_Pre_SettlingDelay_Debug_Callback();
1554:Generated_Source\PSoC4/CapSense.c **** #endif /* CapSense_PRE_SCAN_PRE_SETTLING_DELAY_DEBUG_CALLBACK */
1555:Generated_Source\PSoC4/CapSense.c **** 
1556:Generated_Source\PSoC4/CapSense.c ****     CyDelayCycles(CapSense_GLITCH_ELIMINATION_CYCLES);
 1798              		.loc 1 1556 0
 1799 00f8 0020     		mov	r0, #0
 1800 00fa FFF7FEFF 		bl	CyDelayCycles
1557:Generated_Source\PSoC4/CapSense.c **** 
1558:Generated_Source\PSoC4/CapSense.c ****     /* `#START CapSense_PreScan_Debug` */
1559:Generated_Source\PSoC4/CapSense.c **** 
1560:Generated_Source\PSoC4/CapSense.c ****     /* `#END` */
1561:Generated_Source\PSoC4/CapSense.c **** 
1562:Generated_Source\PSoC4/CapSense.c **** #ifdef CapSense_PRE_SCAN_DEBUG_CALLBACK
1563:Generated_Source\PSoC4/CapSense.c ****     CapSense_PreScan_Debug_Callback();
1564:Generated_Source\PSoC4/CapSense.c **** #endif /* CapSense_PRE_SCAN_DEBUG_CALLBACK */
1565:Generated_Source\PSoC4/CapSense.c **** 
1566:Generated_Source\PSoC4/CapSense.c ****     CapSense_CSD_CNT_REG = counterResolution;
 1801              		.loc 1 1566 0
 1802 00fe 124B     		ldr	r3, .L84+48
 1803 0100 3A69     		ldr	r2, [r7, #16]
 1804 0102 1A60     		str	r2, [r3]
1567:Generated_Source\PSoC4/CapSense.c ****     CyExitCriticalSection(interruptState);
 1805              		.loc 1 1567 0
 1806 0104 0B23     		mov	r3, #11
 1807 0106 FB18     		add	r3, r7, r3
 1808 0108 1B78     		ldrb	r3, [r3]
 1809 010a 181C     		mov	r0, r3
 1810 010c FFF7FEFF 		bl	CyExitCriticalSection
1568:Generated_Source\PSoC4/CapSense.c **** }
 1811              		.loc 1 1568 0
 1812 0110 BD46     		mov	sp, r7
 1813 0112 07B0     		add	sp, sp, #28
 1814              		@ sp needed
 1815 0114 90BD     		pop	{r4, r7, pc}
 1816              	.L85:
 1817 0116 C046     		.align	2
 1818              	.L84:
 1819 0118 00000000 		.word	CapSense_widgetNumber
 1820 011c 00000000 		.word	CapSense_widgetResolution
 1821 0120 00000000 		.word	CapSense_sampleClkDividerVal
 1822 0124 00000000 		.word	CapSense_senseClkDividerVal
 1823 0128 00000000 		.word	CapSense_prescalersTuningDone
 1824 012c 04002840 		.word	1076363268
 1825 0130 08002840 		.word	1076363272
 1826 0134 00FF80FF 		.word	-8323328
 1827 0138 00000000 		.word	CapSense_modulationIDAC
 1828 013c 00000000 		.word	CapSense_compensationIDAC
 1829 0140 FF1FDFFF 		.word	-2154497
 1830 0144 20002000 		.word	2097184
 1831 0148 0C002840 		.word	1076363276
 1832              		.cfi_endproc
 1833              	.LFE55:
 1834              		.size	CapSense_PreScan, .-CapSense_PreScan
 1835              		.section	.text.CapSense_PostScan,"ax",%progbits
 1836              		.align	2
 1837              		.global	CapSense_PostScan
ARM GAS  C:\Users\poornima\AppData\Local\Temp\ccI9K5HH.s 			page 61


 1838              		.code	16
 1839              		.thumb_func
 1840              		.type	CapSense_PostScan, %function
 1841              	CapSense_PostScan:
 1842              	.LFB56:
1569:Generated_Source\PSoC4/CapSense.c **** 
1570:Generated_Source\PSoC4/CapSense.c **** 
1571:Generated_Source\PSoC4/CapSense.c **** /*******************************************************************************
1572:Generated_Source\PSoC4/CapSense.c **** * Function Name: CapSense_PostScan
1573:Generated_Source\PSoC4/CapSense.c **** ********************************************************************************
1574:Generated_Source\PSoC4/CapSense.c **** *
1575:Generated_Source\PSoC4/CapSense.c **** * Summary:
1576:Generated_Source\PSoC4/CapSense.c **** *  Stores the results of measurement in the CapSense_sensorRaw[] array,
1577:Generated_Source\PSoC4/CapSense.c **** *  sets the scanning sensor in the non-sampling state, turns off Idac(Current Source IDAC),
1578:Generated_Source\PSoC4/CapSense.c **** *  disconnects the IDAC(Sink mode), and applies Vref on AMUX.
1579:Generated_Source\PSoC4/CapSense.c **** *
1580:Generated_Source\PSoC4/CapSense.c **** * Parameters:
1581:Generated_Source\PSoC4/CapSense.c **** *  sensor:  Sensor number.
1582:Generated_Source\PSoC4/CapSense.c **** *
1583:Generated_Source\PSoC4/CapSense.c **** * Return:
1584:Generated_Source\PSoC4/CapSense.c **** *  None
1585:Generated_Source\PSoC4/CapSense.c **** *
1586:Generated_Source\PSoC4/CapSense.c **** * Global Variables:
1587:Generated_Source\PSoC4/CapSense.c **** *  CapSense_sensorRaw[] - used to store sensors raw data.
1588:Generated_Source\PSoC4/CapSense.c **** *
1589:Generated_Source\PSoC4/CapSense.c **** * Side Effects:
1590:Generated_Source\PSoC4/CapSense.c **** *  None
1591:Generated_Source\PSoC4/CapSense.c **** *
1592:Generated_Source\PSoC4/CapSense.c **** *******************************************************************************/
1593:Generated_Source\PSoC4/CapSense.c **** void CapSense_PostScan(uint32 sensor)
1594:Generated_Source\PSoC4/CapSense.c **** {
 1843              		.loc 1 1594 0
 1844              		.cfi_startproc
 1845 0000 80B5     		push	{r7, lr}
 1846              		.cfi_def_cfa_offset 8
 1847              		.cfi_offset 7, -8
 1848              		.cfi_offset 14, -4
 1849 0002 84B0     		sub	sp, sp, #16
 1850              		.cfi_def_cfa_offset 24
 1851 0004 00AF     		add	r7, sp, #0
 1852              		.cfi_def_cfa_register 7
 1853 0006 7860     		str	r0, [r7, #4]
1595:Generated_Source\PSoC4/CapSense.c ****     uint32 newRegValue;
1596:Generated_Source\PSoC4/CapSense.c **** #if ((CapSense_TUNING_METHOD == CapSense__TUNING_AUTO) &&\
1597:Generated_Source\PSoC4/CapSense.c ****      (0 != CapSense_IS_OVERSAMPLING_EN))
1598:Generated_Source\PSoC4/CapSense.c ****     uint32 oversamplingFactor;
1599:Generated_Source\PSoC4/CapSense.c ****     uint32 widget;
1600:Generated_Source\PSoC4/CapSense.c **** #endif /* ((CapSense_TUNING_METHOD == CapSense__TUNING_AUTO) &&\
1601:Generated_Source\PSoC4/CapSense.c ****            (0 != CapSense_IS_OVERSAMPLING_EN)) */
1602:Generated_Source\PSoC4/CapSense.c **** 
1603:Generated_Source\PSoC4/CapSense.c ****     /* `#START CapSense_PostScan_Debug` */
1604:Generated_Source\PSoC4/CapSense.c **** 
1605:Generated_Source\PSoC4/CapSense.c ****     /* `#END` */
1606:Generated_Source\PSoC4/CapSense.c **** 
1607:Generated_Source\PSoC4/CapSense.c **** #ifdef CapSense_POST_SCAN_DEBUG_CALLBACK
1608:Generated_Source\PSoC4/CapSense.c ****     CapSense_PostScan_Debug_Callback();
1609:Generated_Source\PSoC4/CapSense.c **** #endif /* CapSense_POST_SCAN_DEBUG_Callback */
ARM GAS  C:\Users\poornima\AppData\Local\Temp\ccI9K5HH.s 			page 62


1610:Generated_Source\PSoC4/CapSense.c **** 
1611:Generated_Source\PSoC4/CapSense.c ****     /* Read SlotResult from Raw Counter */
1612:Generated_Source\PSoC4/CapSense.c ****     CapSense_sensorRaw[sensor]  = (uint16)CapSense_CSD_CNT_REG;
 1854              		.loc 1 1612 0
 1855 0008 144B     		ldr	r3, .L87
 1856 000a 1B68     		ldr	r3, [r3]
 1857 000c 99B2     		uxth	r1, r3
 1858 000e 144B     		ldr	r3, .L87+4
 1859 0010 7A68     		ldr	r2, [r7, #4]
 1860 0012 5200     		lsl	r2, r2, #1
 1861 0014 D152     		strh	r1, [r2, r3]
1613:Generated_Source\PSoC4/CapSense.c **** 
1614:Generated_Source\PSoC4/CapSense.c **** #if ((CapSense_TUNING_METHOD == CapSense__TUNING_AUTO) &&\
1615:Generated_Source\PSoC4/CapSense.c ****      (0 != CapSense_IS_OVERSAMPLING_EN))
1616:Generated_Source\PSoC4/CapSense.c ****     widget = CapSense_widgetNumber[sensor];
1617:Generated_Source\PSoC4/CapSense.c ****     if(CapSense_widgetResolution[widget] < CapSense_RESOLUTION_16_BITS)
1618:Generated_Source\PSoC4/CapSense.c ****     {
1619:Generated_Source\PSoC4/CapSense.c ****         oversamplingFactor = CapSense_GetBitValue(CapSense_scanSpeedTbl, sensor);
1620:Generated_Source\PSoC4/CapSense.c ****         CapSense_sensorRaw[sensor] >>= oversamplingFactor;
1621:Generated_Source\PSoC4/CapSense.c ****     }
1622:Generated_Source\PSoC4/CapSense.c **** #endif /* ((CapSense_TUNING_METHOD == CapSense__TUNING_AUTO) &&\
1623:Generated_Source\PSoC4/CapSense.c ****            (0 != CapSense_IS_OVERSAMPLING_EN)) */
1624:Generated_Source\PSoC4/CapSense.c **** 
1625:Generated_Source\PSoC4/CapSense.c ****     /* Disable Sensor */
1626:Generated_Source\PSoC4/CapSense.c ****     CapSense_DisableScanSlot(sensor);
 1862              		.loc 1 1626 0
 1863 0016 7B68     		ldr	r3, [r7, #4]
 1864 0018 181C     		mov	r0, r3
 1865 001a FFF7FEFF 		bl	CapSense_DisableSensor
1627:Generated_Source\PSoC4/CapSense.c **** 
1628:Generated_Source\PSoC4/CapSense.c ****     CyIntDisable(CapSense_ISR_NUMBER);
 1866              		.loc 1 1628 0
 1867 001e 1120     		mov	r0, #17
 1868 0020 FFF7FEFF 		bl	CyIntDisable
1629:Generated_Source\PSoC4/CapSense.c **** 
1630:Generated_Source\PSoC4/CapSense.c **** #if(CapSense_CMOD_PREGARGE_OPTION == CapSense__CAPPRIOBUF)
1631:Generated_Source\PSoC4/CapSense.c ****     newRegValue = CapSense_CMOD_CONNECTION_REG;
1632:Generated_Source\PSoC4/CapSense.c ****     newRegValue &= ~(CapSense_CSD_CMOD_CONNECTION_MASK);
1633:Generated_Source\PSoC4/CapSense.c ****     newRegValue |= CapSense_CSD_CMOD_TO_AMUXBUS_B;
1634:Generated_Source\PSoC4/CapSense.c ****     CapSense_CMOD_CONNECTION_REG = newRegValue;
1635:Generated_Source\PSoC4/CapSense.c **** 
1636:Generated_Source\PSoC4/CapSense.c ****     newRegValue = CapSense_CMOD_PORT_PC_REG;
1637:Generated_Source\PSoC4/CapSense.c ****     newRegValue &= ~(CapSense_CSD_CMOD_PC_MASK);
1638:Generated_Source\PSoC4/CapSense.c ****     newRegValue |= CapSense_CMOD_PC_STRONG_MODE;
1639:Generated_Source\PSoC4/CapSense.c ****     CapSense_CMOD_PORT_PC_REG = newRegValue;
1640:Generated_Source\PSoC4/CapSense.c **** 
1641:Generated_Source\PSoC4/CapSense.c ****     newRegValue = CapSense_CMOD_PORT_DR_REG;
1642:Generated_Source\PSoC4/CapSense.c ****     newRegValue &= ~(CapSense_CMOD_DR_MASK);
1643:Generated_Source\PSoC4/CapSense.c ****     newRegValue |= CapSense_CMOD_DR_CONFIG;
1644:Generated_Source\PSoC4/CapSense.c ****     CapSense_CMOD_PORT_DR_REG = newRegValue;
1645:Generated_Source\PSoC4/CapSense.c **** #endif /* (CapSense_CMOD_PREGARGE_OPTION == CapSense__CAPPRIOBUF) */
1646:Generated_Source\PSoC4/CapSense.c **** 
1647:Generated_Source\PSoC4/CapSense.c ****     /* Connect Vref Buffer to AMUX bus  */
1648:Generated_Source\PSoC4/CapSense.c ****     newRegValue = CapSense_CSD_CFG_REG;
 1869              		.loc 1 1648 0
 1870 0024 0F4B     		ldr	r3, .L87+8
 1871 0026 1B68     		ldr	r3, [r3]
ARM GAS  C:\Users\poornima\AppData\Local\Temp\ccI9K5HH.s 			page 63


 1872 0028 FB60     		str	r3, [r7, #12]
1649:Generated_Source\PSoC4/CapSense.c ****     newRegValue &= ~(CapSense_PRECHARGE_CONFIG_MASK);
 1873              		.loc 1 1649 0
 1874 002a FB68     		ldr	r3, [r7, #12]
 1875 002c 0E4A     		ldr	r2, .L87+12
 1876 002e 1340     		and	r3, r2
 1877 0030 FB60     		str	r3, [r7, #12]
1650:Generated_Source\PSoC4/CapSense.c ****     newRegValue |= CapSense_CMOD_PRECHARGE_CONFIG;
 1878              		.loc 1 1650 0
 1879 0032 FB68     		ldr	r3, [r7, #12]
 1880 0034 A022     		mov	r2, #160
 1881 0036 1202     		lsl	r2, r2, #8
 1882 0038 1343     		orr	r3, r2
 1883 003a FB60     		str	r3, [r7, #12]
1651:Generated_Source\PSoC4/CapSense.c ****     CapSense_CSD_CFG_REG = newRegValue;
 1884              		.loc 1 1651 0
 1885 003c 094B     		ldr	r3, .L87+8
 1886 003e FA68     		ldr	r2, [r7, #12]
 1887 0040 1A60     		str	r2, [r3]
1652:Generated_Source\PSoC4/CapSense.c **** 
1653:Generated_Source\PSoC4/CapSense.c ****     /* Set Idac Value = 0 */
1654:Generated_Source\PSoC4/CapSense.c **** #if (CapSense_IDAC_CNT == 1u)
1655:Generated_Source\PSoC4/CapSense.c ****     CapSense_CSD_IDAC_REG &= ~(CapSense_CSD_IDAC1_DATA_MASK);
1656:Generated_Source\PSoC4/CapSense.c **** #else
1657:Generated_Source\PSoC4/CapSense.c ****     CapSense_CSD_IDAC_REG &= ~(CapSense_CSD_IDAC1_DATA_MASK | CapSense_CSD_IDAC2_DATA_MASK);
 1888              		.loc 1 1657 0
 1889 0042 0A4B     		ldr	r3, .L87+16
 1890 0044 094A     		ldr	r2, .L87+16
 1891 0046 1268     		ldr	r2, [r2]
 1892 0048 0949     		ldr	r1, .L87+20
 1893 004a 0A40     		and	r2, r1
 1894 004c 1A60     		str	r2, [r3]
1658:Generated_Source\PSoC4/CapSense.c **** #endif /* (CapSense_IDAC_CNT == 1u) */
1659:Generated_Source\PSoC4/CapSense.c **** 
1660:Generated_Source\PSoC4/CapSense.c ****     CyIntEnable(CapSense_ISR_NUMBER);
 1895              		.loc 1 1660 0
 1896 004e 1120     		mov	r0, #17
 1897 0050 FFF7FEFF 		bl	CyIntEnable
1661:Generated_Source\PSoC4/CapSense.c **** }
 1898              		.loc 1 1661 0
 1899 0054 BD46     		mov	sp, r7
 1900 0056 04B0     		add	sp, sp, #16
 1901              		@ sp needed
 1902 0058 80BD     		pop	{r7, pc}
 1903              	.L88:
 1904 005a C046     		.align	2
 1905              	.L87:
 1906 005c 0C002840 		.word	1076363276
 1907 0060 00000000 		.word	CapSense_sensorRaw
 1908 0064 04002840 		.word	1076363268
 1909 0068 FF1FDFFF 		.word	-2154497
 1910 006c 08002840 		.word	1076363272
 1911 0070 00FF80FF 		.word	-8323328
 1912              		.cfi_endproc
 1913              	.LFE56:
 1914              		.size	CapSense_PostScan, .-CapSense_PostScan
 1915              		.section	.text.CapSense_EnableShieldElectrode,"ax",%progbits
ARM GAS  C:\Users\poornima\AppData\Local\Temp\ccI9K5HH.s 			page 64


 1916              		.align	2
 1917              		.global	CapSense_EnableShieldElectrode
 1918              		.code	16
 1919              		.thumb_func
 1920              		.type	CapSense_EnableShieldElectrode, %function
 1921              	CapSense_EnableShieldElectrode:
 1922              	.LFB57:
1662:Generated_Source\PSoC4/CapSense.c **** 
1663:Generated_Source\PSoC4/CapSense.c **** 
1664:Generated_Source\PSoC4/CapSense.c **** /*******************************************************************************
1665:Generated_Source\PSoC4/CapSense.c **** * Function Name: CapSense_EnableShieldElectrode
1666:Generated_Source\PSoC4/CapSense.c **** ********************************************************************************
1667:Generated_Source\PSoC4/CapSense.c **** *
1668:Generated_Source\PSoC4/CapSense.c **** * Summary:
1669:Generated_Source\PSoC4/CapSense.c **** *  This API enables or disables the shield electrode on a specified port pin.
1670:Generated_Source\PSoC4/CapSense.c **** *
1671:Generated_Source\PSoC4/CapSense.c **** * Parameters:
1672:Generated_Source\PSoC4/CapSense.c **** *  portNumber: contains the shield electrode port number (0, 1, 2).
1673:Generated_Source\PSoC4/CapSense.c **** *  pinNumber: contains the shield electrode pin number (0, 1, 2, ... , 7).
1674:Generated_Source\PSoC4/CapSense.c **** *
1675:Generated_Source\PSoC4/CapSense.c **** * Return:
1676:Generated_Source\PSoC4/CapSense.c **** *  None
1677:Generated_Source\PSoC4/CapSense.c **** *
1678:Generated_Source\PSoC4/CapSense.c **** * Global Variables:
1679:Generated_Source\PSoC4/CapSense.c **** *  CapSense_prtCfgTbl[] - Contains pointers to the port config registers for each port.
1680:Generated_Source\PSoC4/CapSense.c **** *  CapSense_prtSelTbl[] - Contains pointers to the HSIOM registers for each port.
1681:Generated_Source\PSoC4/CapSense.c **** *
1682:Generated_Source\PSoC4/CapSense.c **** * Side Effects:
1683:Generated_Source\PSoC4/CapSense.c **** *  None
1684:Generated_Source\PSoC4/CapSense.c **** *
1685:Generated_Source\PSoC4/CapSense.c **** *******************************************************************************/
1686:Generated_Source\PSoC4/CapSense.c **** void CapSense_EnableShieldElectrode(uint32 pinNumber, uint32 portNumber)
1687:Generated_Source\PSoC4/CapSense.c **** {
 1923              		.loc 1 1687 0
 1924              		.cfi_startproc
 1925 0000 80B5     		push	{r7, lr}
 1926              		.cfi_def_cfa_offset 8
 1927              		.cfi_offset 7, -8
 1928              		.cfi_offset 14, -4
 1929 0002 84B0     		sub	sp, sp, #16
 1930              		.cfi_def_cfa_offset 24
 1931 0004 00AF     		add	r7, sp, #0
 1932              		.cfi_def_cfa_register 7
 1933 0006 7860     		str	r0, [r7, #4]
 1934 0008 3960     		str	r1, [r7]
1688:Generated_Source\PSoC4/CapSense.c ****     uint32 newRegValue;
1689:Generated_Source\PSoC4/CapSense.c **** 
1690:Generated_Source\PSoC4/CapSense.c ****     *CapSense_prtCfgTbl[portNumber] &= ~(CapSense_CSD_PIN_MODE_MASK << (pinNumber * CapSense_PC_PIN
 1935              		.loc 1 1690 0
 1936 000a 194B     		ldr	r3, .L90
 1937 000c 3A68     		ldr	r2, [r7]
 1938 000e 9200     		lsl	r2, r2, #2
 1939 0010 D258     		ldr	r2, [r2, r3]
 1940 0012 174B     		ldr	r3, .L90
 1941 0014 3968     		ldr	r1, [r7]
 1942 0016 8900     		lsl	r1, r1, #2
 1943 0018 CB58     		ldr	r3, [r1, r3]
ARM GAS  C:\Users\poornima\AppData\Local\Temp\ccI9K5HH.s 			page 65


 1944 001a 1868     		ldr	r0, [r3]
 1945 001c 7968     		ldr	r1, [r7, #4]
 1946 001e 0B1C     		mov	r3, r1
 1947 0020 5B00     		lsl	r3, r3, #1
 1948 0022 5B18     		add	r3, r3, r1
 1949 0024 191C     		mov	r1, r3
 1950 0026 0723     		mov	r3, #7
 1951 0028 8B40     		lsl	r3, r3, r1
 1952 002a DB43     		mvn	r3, r3
 1953 002c 0340     		and	r3, r0
 1954 002e 1360     		str	r3, [r2]
1691:Generated_Source\PSoC4/CapSense.c ****     newRegValue = *CapSense_prtSelTbl[portNumber];
 1955              		.loc 1 1691 0
 1956 0030 104B     		ldr	r3, .L90+4
 1957 0032 3A68     		ldr	r2, [r7]
 1958 0034 9200     		lsl	r2, r2, #2
 1959 0036 D358     		ldr	r3, [r2, r3]
 1960 0038 1B68     		ldr	r3, [r3]
 1961 003a FB60     		str	r3, [r7, #12]
1692:Generated_Source\PSoC4/CapSense.c ****     newRegValue &= ~(CapSense_CSD_HSIOM_MASK << (pinNumber * CapSense_HSIOM_PIN_CFG_SIZE));
 1962              		.loc 1 1692 0
 1963 003c 7B68     		ldr	r3, [r7, #4]
 1964 003e 9B00     		lsl	r3, r3, #2
 1965 0040 1A1C     		mov	r2, r3
 1966 0042 0F23     		mov	r3, #15
 1967 0044 9340     		lsl	r3, r3, r2
 1968 0046 DA43     		mvn	r2, r3
 1969 0048 FB68     		ldr	r3, [r7, #12]
 1970 004a 1340     		and	r3, r2
 1971 004c FB60     		str	r3, [r7, #12]
1693:Generated_Source\PSoC4/CapSense.c ****     newRegValue |= (CapSense_CSD_SHIELD_PORT_MODE << (pinNumber * CapSense_HSIOM_PIN_CFG_SIZE));
 1972              		.loc 1 1693 0
 1973 004e 7B68     		ldr	r3, [r7, #4]
 1974 0050 9B00     		lsl	r3, r3, #2
 1975 0052 1A1C     		mov	r2, r3
 1976 0054 0523     		mov	r3, #5
 1977 0056 9340     		lsl	r3, r3, r2
 1978 0058 FA68     		ldr	r2, [r7, #12]
 1979 005a 1343     		orr	r3, r2
 1980 005c FB60     		str	r3, [r7, #12]
1694:Generated_Source\PSoC4/CapSense.c ****     *CapSense_prtSelTbl[portNumber] = newRegValue;
 1981              		.loc 1 1694 0
 1982 005e 054B     		ldr	r3, .L90+4
 1983 0060 3A68     		ldr	r2, [r7]
 1984 0062 9200     		lsl	r2, r2, #2
 1985 0064 D358     		ldr	r3, [r2, r3]
 1986 0066 FA68     		ldr	r2, [r7, #12]
 1987 0068 1A60     		str	r2, [r3]
1695:Generated_Source\PSoC4/CapSense.c **** }
 1988              		.loc 1 1695 0
 1989 006a BD46     		mov	sp, r7
 1990 006c 04B0     		add	sp, sp, #16
 1991              		@ sp needed
 1992 006e 80BD     		pop	{r7, pc}
 1993              	.L91:
 1994              		.align	2
 1995              	.L90:
ARM GAS  C:\Users\poornima\AppData\Local\Temp\ccI9K5HH.s 			page 66


 1996 0070 00000000 		.word	CapSense_prtCfgTbl
 1997 0074 00000000 		.word	CapSense_prtSelTbl
 1998              		.cfi_endproc
 1999              	.LFE57:
 2000              		.size	CapSense_EnableShieldElectrode, .-CapSense_EnableShieldElectrode
 2001              		.section	.text.CapSense_SetShieldDelay,"ax",%progbits
 2002              		.align	2
 2003              		.global	CapSense_SetShieldDelay
 2004              		.code	16
 2005              		.thumb_func
 2006              		.type	CapSense_SetShieldDelay, %function
 2007              	CapSense_SetShieldDelay:
 2008              	.LFB58:
1696:Generated_Source\PSoC4/CapSense.c **** 
1697:Generated_Source\PSoC4/CapSense.c **** 
1698:Generated_Source\PSoC4/CapSense.c **** /*******************************************************************************
1699:Generated_Source\PSoC4/CapSense.c **** * Function Name: CapSense_SetShieldDelay
1700:Generated_Source\PSoC4/CapSense.c **** ********************************************************************************
1701:Generated_Source\PSoC4/CapSense.c **** *
1702:Generated_Source\PSoC4/CapSense.c **** * Summary:
1703:Generated_Source\PSoC4/CapSense.c **** *  This API sets a shield delay.
1704:Generated_Source\PSoC4/CapSense.c **** *
1705:Generated_Source\PSoC4/CapSense.c **** * Parameters:
1706:Generated_Source\PSoC4/CapSense.c **** *  delay:  shield delay value:
1707:Generated_Source\PSoC4/CapSense.c **** *                               0 - no delay
1708:Generated_Source\PSoC4/CapSense.c **** *                               1 - 1 cycle delay
1709:Generated_Source\PSoC4/CapSense.c **** *                               2 - 2 cycles delay
1710:Generated_Source\PSoC4/CapSense.c **** *
1711:Generated_Source\PSoC4/CapSense.c **** * Return:
1712:Generated_Source\PSoC4/CapSense.c **** *  None
1713:Generated_Source\PSoC4/CapSense.c **** *
1714:Generated_Source\PSoC4/CapSense.c **** * Global Variables:
1715:Generated_Source\PSoC4/CapSense.c **** *  None
1716:Generated_Source\PSoC4/CapSense.c **** *
1717:Generated_Source\PSoC4/CapSense.c **** * Side Effects:
1718:Generated_Source\PSoC4/CapSense.c **** *  None
1719:Generated_Source\PSoC4/CapSense.c **** *
1720:Generated_Source\PSoC4/CapSense.c **** *******************************************************************************/
1721:Generated_Source\PSoC4/CapSense.c **** void CapSense_SetShieldDelay(uint32 delay)
1722:Generated_Source\PSoC4/CapSense.c **** {
 2009              		.loc 1 1722 0
 2010              		.cfi_startproc
 2011 0000 80B5     		push	{r7, lr}
 2012              		.cfi_def_cfa_offset 8
 2013              		.cfi_offset 7, -8
 2014              		.cfi_offset 14, -4
 2015 0002 84B0     		sub	sp, sp, #16
 2016              		.cfi_def_cfa_offset 24
 2017 0004 00AF     		add	r7, sp, #0
 2018              		.cfi_def_cfa_register 7
 2019 0006 7860     		str	r0, [r7, #4]
1723:Generated_Source\PSoC4/CapSense.c ****     uint32 newRegValue;
1724:Generated_Source\PSoC4/CapSense.c **** 
1725:Generated_Source\PSoC4/CapSense.c ****     delay &= 0x03u;
 2020              		.loc 1 1725 0
 2021 0008 7B68     		ldr	r3, [r7, #4]
 2022 000a 0322     		mov	r2, #3
ARM GAS  C:\Users\poornima\AppData\Local\Temp\ccI9K5HH.s 			page 67


 2023 000c 1340     		and	r3, r2
 2024 000e 7B60     		str	r3, [r7, #4]
1726:Generated_Source\PSoC4/CapSense.c **** 
1727:Generated_Source\PSoC4/CapSense.c ****     newRegValue = CapSense_CSD_CFG_REG;
 2025              		.loc 1 1727 0
 2026 0010 064B     		ldr	r3, .L93
 2027 0012 1B68     		ldr	r3, [r3]
 2028 0014 FB60     		str	r3, [r7, #12]
1728:Generated_Source\PSoC4/CapSense.c ****     newRegValue &= (uint32)(~(uint32)CapSense_SHIELD_DELAY);
1729:Generated_Source\PSoC4/CapSense.c ****     newRegValue |= (delay << CapSense_CSD_CFG_SHIELD_DELAY_POS);
 2029              		.loc 1 1729 0
 2030 0016 7B68     		ldr	r3, [r7, #4]
 2031 0018 5B02     		lsl	r3, r3, #9
 2032 001a FA68     		ldr	r2, [r7, #12]
 2033 001c 1343     		orr	r3, r2
 2034 001e FB60     		str	r3, [r7, #12]
1730:Generated_Source\PSoC4/CapSense.c ****     CapSense_CSD_CFG_REG = newRegValue;
 2035              		.loc 1 1730 0
 2036 0020 024B     		ldr	r3, .L93
 2037 0022 FA68     		ldr	r2, [r7, #12]
 2038 0024 1A60     		str	r2, [r3]
1731:Generated_Source\PSoC4/CapSense.c **** }
 2039              		.loc 1 1731 0
 2040 0026 BD46     		mov	sp, r7
 2041 0028 04B0     		add	sp, sp, #16
 2042              		@ sp needed
 2043 002a 80BD     		pop	{r7, pc}
 2044              	.L94:
 2045              		.align	2
 2046              	.L93:
 2047 002c 04002840 		.word	1076363268
 2048              		.cfi_endproc
 2049              	.LFE58:
 2050              		.size	CapSense_SetShieldDelay, .-CapSense_SetShieldDelay
 2051              		.section	.text.CapSense_ReadCurrentScanningSensor,"ax",%progbits
 2052              		.align	2
 2053              		.global	CapSense_ReadCurrentScanningSensor
 2054              		.code	16
 2055              		.thumb_func
 2056              		.type	CapSense_ReadCurrentScanningSensor, %function
 2057              	CapSense_ReadCurrentScanningSensor:
 2058              	.LFB59:
1732:Generated_Source\PSoC4/CapSense.c **** 
1733:Generated_Source\PSoC4/CapSense.c **** 
1734:Generated_Source\PSoC4/CapSense.c **** /*******************************************************************************
1735:Generated_Source\PSoC4/CapSense.c **** * Function Name: CapSense_ReadCurrentScanningSensor
1736:Generated_Source\PSoC4/CapSense.c **** ********************************************************************************
1737:Generated_Source\PSoC4/CapSense.c **** *
1738:Generated_Source\PSoC4/CapSense.c **** * Summary:
1739:Generated_Source\PSoC4/CapSense.c **** *  This API returns scanning sensor number when sensor scan is in progress.
1740:Generated_Source\PSoC4/CapSense.c **** *  When sensor scan is completed the API returns
1741:Generated_Source\PSoC4/CapSense.c **** *  $INSTANCE_NAME`_NOT_SENSOR (0xFFFFFFFF) (when no sensor is scanned).
1742:Generated_Source\PSoC4/CapSense.c **** *
1743:Generated_Source\PSoC4/CapSense.c **** * Parameters:
1744:Generated_Source\PSoC4/CapSense.c **** *   None.
1745:Generated_Source\PSoC4/CapSense.c **** *
1746:Generated_Source\PSoC4/CapSense.c **** * Return:
ARM GAS  C:\Users\poornima\AppData\Local\Temp\ccI9K5HH.s 			page 68


1747:Generated_Source\PSoC4/CapSense.c **** *  Returns Sensor number if sensor is being scanned and
1748:Generated_Source\PSoC4/CapSense.c **** *  $INSTANCE_NAME`_NOT_SENSOR (0xFFFFFFFF) if scanning is complete.
1749:Generated_Source\PSoC4/CapSense.c **** *
1750:Generated_Source\PSoC4/CapSense.c **** * Global Variables:
1751:Generated_Source\PSoC4/CapSense.c **** *  CapSense_sensorIndex - the sensor number is being scanned.
1752:Generated_Source\PSoC4/CapSense.c **** *
1753:Generated_Source\PSoC4/CapSense.c **** * Side Effects:
1754:Generated_Source\PSoC4/CapSense.c **** *  None
1755:Generated_Source\PSoC4/CapSense.c **** *
1756:Generated_Source\PSoC4/CapSense.c **** *******************************************************************************/
1757:Generated_Source\PSoC4/CapSense.c **** uint32 CapSense_ReadCurrentScanningSensor(void)
1758:Generated_Source\PSoC4/CapSense.c **** {
 2059              		.loc 1 1758 0
 2060              		.cfi_startproc
 2061 0000 80B5     		push	{r7, lr}
 2062              		.cfi_def_cfa_offset 8
 2063              		.cfi_offset 7, -8
 2064              		.cfi_offset 14, -4
 2065 0002 00AF     		add	r7, sp, #0
 2066              		.cfi_def_cfa_register 7
1759:Generated_Source\PSoC4/CapSense.c ****     return ((uint32)(( 0u != (CapSense_csdStatusVar & CapSense_SW_STS_BUSY)) ?
 2067              		.loc 1 1759 0
 2068 0004 074B     		ldr	r3, .L99
 2069 0006 1B78     		ldrb	r3, [r3]
 2070 0008 DBB2     		uxtb	r3, r3
 2071 000a 1A1C     		mov	r2, r3
 2072 000c 0123     		mov	r3, #1
 2073 000e 1340     		and	r3, r2
 2074 0010 03D0     		beq	.L96
 2075              		.loc 1 1759 0 is_stmt 0 discriminator 1
 2076 0012 054B     		ldr	r3, .L99+4
 2077 0014 1B78     		ldrb	r3, [r3]
 2078 0016 DBB2     		uxtb	r3, r3
 2079 0018 01E0     		b	.L97
 2080              	.L96:
 2081              		.loc 1 1759 0 discriminator 2
 2082 001a 0123     		mov	r3, #1
 2083 001c 5B42     		neg	r3, r3
 2084              	.L97:
1760:Generated_Source\PSoC4/CapSense.c ****                      CapSense_sensorIndex : CapSense_NOT_SENSOR));
1761:Generated_Source\PSoC4/CapSense.c **** }
 2085              		.loc 1 1761 0 is_stmt 1 discriminator 4
 2086 001e 181C     		mov	r0, r3
 2087 0020 BD46     		mov	sp, r7
 2088              		@ sp needed
 2089 0022 80BD     		pop	{r7, pc}
 2090              	.L100:
 2091              		.align	2
 2092              	.L99:
 2093 0024 00000000 		.word	CapSense_csdStatusVar
 2094 0028 00000000 		.word	CapSense_sensorIndex
 2095              		.cfi_endproc
 2096              	.LFE59:
 2097              		.size	CapSense_ReadCurrentScanningSensor, .-CapSense_ReadCurrentScanningSensor
 2098              		.section	.text.CapSense_GetBitValue,"ax",%progbits
 2099              		.align	2
 2100              		.global	CapSense_GetBitValue
ARM GAS  C:\Users\poornima\AppData\Local\Temp\ccI9K5HH.s 			page 69


 2101              		.code	16
 2102              		.thumb_func
 2103              		.type	CapSense_GetBitValue, %function
 2104              	CapSense_GetBitValue:
 2105              	.LFB60:
1762:Generated_Source\PSoC4/CapSense.c **** 
1763:Generated_Source\PSoC4/CapSense.c **** 
1764:Generated_Source\PSoC4/CapSense.c **** /*******************************************************************************
1765:Generated_Source\PSoC4/CapSense.c **** * Function Name: CapSense_GetBitValue
1766:Generated_Source\PSoC4/CapSense.c **** ********************************************************************************
1767:Generated_Source\PSoC4/CapSense.c **** *
1768:Generated_Source\PSoC4/CapSense.c **** * Summary:
1769:Generated_Source\PSoC4/CapSense.c **** *  The API returns a bit status of the bit in the table array which contains the masks.
1770:Generated_Source\PSoC4/CapSense.c **** *
1771:Generated_Source\PSoC4/CapSense.c **** * Parameters:
1772:Generated_Source\PSoC4/CapSense.c **** *  table[] - array with bit masks.
1773:Generated_Source\PSoC4/CapSense.c **** *  position - position of bit in the table[] array.
1774:Generated_Source\PSoC4/CapSense.c **** *
1775:Generated_Source\PSoC4/CapSense.c **** * Return:
1776:Generated_Source\PSoC4/CapSense.c **** *  0 - bit is not set; 1 - bit is set.
1777:Generated_Source\PSoC4/CapSense.c **** *
1778:Generated_Source\PSoC4/CapSense.c **** * Global Variables:
1779:Generated_Source\PSoC4/CapSense.c **** *  None
1780:Generated_Source\PSoC4/CapSense.c **** *
1781:Generated_Source\PSoC4/CapSense.c **** * Side Effects:
1782:Generated_Source\PSoC4/CapSense.c **** *  None
1783:Generated_Source\PSoC4/CapSense.c **** *
1784:Generated_Source\PSoC4/CapSense.c **** *******************************************************************************/
1785:Generated_Source\PSoC4/CapSense.c **** uint32 CapSense_GetBitValue(const uint8 table[], uint32 position)
1786:Generated_Source\PSoC4/CapSense.c **** {
 2106              		.loc 1 1786 0
 2107              		.cfi_startproc
 2108 0000 80B5     		push	{r7, lr}
 2109              		.cfi_def_cfa_offset 8
 2110              		.cfi_offset 7, -8
 2111              		.cfi_offset 14, -4
 2112 0002 84B0     		sub	sp, sp, #16
 2113              		.cfi_def_cfa_offset 24
 2114 0004 00AF     		add	r7, sp, #0
 2115              		.cfi_def_cfa_register 7
 2116 0006 7860     		str	r0, [r7, #4]
 2117 0008 3960     		str	r1, [r7]
1787:Generated_Source\PSoC4/CapSense.c ****     uint32 offset;
1788:Generated_Source\PSoC4/CapSense.c ****     uint8 enMask;
1789:Generated_Source\PSoC4/CapSense.c **** 
1790:Generated_Source\PSoC4/CapSense.c ****     /* position is divided by 8 to calculate the element of the
1791:Generated_Source\PSoC4/CapSense.c ****        table[] array that contains the enable bit
1792:Generated_Source\PSoC4/CapSense.c ****        for an appropriate sensor.
1793:Generated_Source\PSoC4/CapSense.c ****     */
1794:Generated_Source\PSoC4/CapSense.c ****     offset = (position >> 3u);
 2118              		.loc 1 1794 0
 2119 000a 3B68     		ldr	r3, [r7]
 2120 000c DB08     		lsr	r3, r3, #3
 2121 000e FB60     		str	r3, [r7, #12]
1795:Generated_Source\PSoC4/CapSense.c **** 
1796:Generated_Source\PSoC4/CapSense.c ****     /* The enMask calculation for the appropriate sensor. Operation (position & 0x07u)
1797:Generated_Source\PSoC4/CapSense.c ****        intends to calculate the enable bit offset for the 8-bit element of the
ARM GAS  C:\Users\poornima\AppData\Local\Temp\ccI9K5HH.s 			page 70


1798:Generated_Source\PSoC4/CapSense.c ****        table[] array.
1799:Generated_Source\PSoC4/CapSense.c ****     */
1800:Generated_Source\PSoC4/CapSense.c ****     enMask = 0x01u << (position & 0x07u);
 2122              		.loc 1 1800 0
 2123 0010 3B68     		ldr	r3, [r7]
 2124 0012 0722     		mov	r2, #7
 2125 0014 1340     		and	r3, r2
 2126 0016 0122     		mov	r2, #1
 2127 0018 9A40     		lsl	r2, r2, r3
 2128 001a 0B23     		mov	r3, #11
 2129 001c FB18     		add	r3, r7, r3
 2130 001e 1A70     		strb	r2, [r3]
1801:Generated_Source\PSoC4/CapSense.c **** 
1802:Generated_Source\PSoC4/CapSense.c ****     return ((0u !=(table[offset] & enMask)) ? 1Lu : 0Lu);
 2131              		.loc 1 1802 0
 2132 0020 7A68     		ldr	r2, [r7, #4]
 2133 0022 FB68     		ldr	r3, [r7, #12]
 2134 0024 D318     		add	r3, r2, r3
 2135 0026 1B78     		ldrb	r3, [r3]
 2136 0028 0B22     		mov	r2, #11
 2137 002a BA18     		add	r2, r7, r2
 2138 002c 1278     		ldrb	r2, [r2]
 2139 002e 1340     		and	r3, r2
 2140 0030 DBB2     		uxtb	r3, r3
 2141 0032 002B     		cmp	r3, #0
 2142 0034 01D0     		beq	.L102
 2143              		.loc 1 1802 0 is_stmt 0 discriminator 1
 2144 0036 0123     		mov	r3, #1
 2145 0038 00E0     		b	.L103
 2146              	.L102:
 2147              		.loc 1 1802 0 discriminator 2
 2148 003a 0023     		mov	r3, #0
 2149              	.L103:
1803:Generated_Source\PSoC4/CapSense.c **** }
 2150              		.loc 1 1803 0 is_stmt 1 discriminator 4
 2151 003c 181C     		mov	r0, r3
 2152 003e BD46     		mov	sp, r7
 2153 0040 04B0     		add	sp, sp, #16
 2154              		@ sp needed
 2155 0042 80BD     		pop	{r7, pc}
 2156              		.cfi_endproc
 2157              	.LFE60:
 2158              		.size	CapSense_GetBitValue, .-CapSense_GetBitValue
 2159              		.section	.text.CapSense_SetBitValue,"ax",%progbits
 2160              		.align	2
 2161              		.global	CapSense_SetBitValue
 2162              		.code	16
 2163              		.thumb_func
 2164              		.type	CapSense_SetBitValue, %function
 2165              	CapSense_SetBitValue:
 2166              	.LFB61:
1804:Generated_Source\PSoC4/CapSense.c **** 
1805:Generated_Source\PSoC4/CapSense.c **** 
1806:Generated_Source\PSoC4/CapSense.c **** /*******************************************************************************
1807:Generated_Source\PSoC4/CapSense.c **** * Function Name: CapSense_SetBitValue
1808:Generated_Source\PSoC4/CapSense.c **** ********************************************************************************
1809:Generated_Source\PSoC4/CapSense.c **** *
ARM GAS  C:\Users\poornima\AppData\Local\Temp\ccI9K5HH.s 			page 71


1810:Generated_Source\PSoC4/CapSense.c **** * Summary:
1811:Generated_Source\PSoC4/CapSense.c **** *  The API sets a bit status of the bit in the table array which contains masks.
1812:Generated_Source\PSoC4/CapSense.c **** *
1813:Generated_Source\PSoC4/CapSense.c **** * Parameters:
1814:Generated_Source\PSoC4/CapSense.c **** *  table[] - array with bit masks.
1815:Generated_Source\PSoC4/CapSense.c **** *  position - position of bit in the table[] array.
1816:Generated_Source\PSoC4/CapSense.c **** *  value: 0 - bit is not set; 1 - bit is set.
1817:Generated_Source\PSoC4/CapSense.c **** *
1818:Generated_Source\PSoC4/CapSense.c **** * Return:
1819:Generated_Source\PSoC4/CapSense.c **** *  None
1820:Generated_Source\PSoC4/CapSense.c **** *
1821:Generated_Source\PSoC4/CapSense.c **** * Global Variables:
1822:Generated_Source\PSoC4/CapSense.c **** *  None
1823:Generated_Source\PSoC4/CapSense.c **** *
1824:Generated_Source\PSoC4/CapSense.c **** * Side Effects:
1825:Generated_Source\PSoC4/CapSense.c **** *  None
1826:Generated_Source\PSoC4/CapSense.c **** *
1827:Generated_Source\PSoC4/CapSense.c **** *******************************************************************************/
1828:Generated_Source\PSoC4/CapSense.c **** void CapSense_SetBitValue(uint8 table[], uint32 position, uint32 value)
1829:Generated_Source\PSoC4/CapSense.c **** {
 2167              		.loc 1 1829 0
 2168              		.cfi_startproc
 2169 0000 80B5     		push	{r7, lr}
 2170              		.cfi_def_cfa_offset 8
 2171              		.cfi_offset 7, -8
 2172              		.cfi_offset 14, -4
 2173 0002 86B0     		sub	sp, sp, #24
 2174              		.cfi_def_cfa_offset 32
 2175 0004 00AF     		add	r7, sp, #0
 2176              		.cfi_def_cfa_register 7
 2177 0006 F860     		str	r0, [r7, #12]
 2178 0008 B960     		str	r1, [r7, #8]
 2179 000a 7A60     		str	r2, [r7, #4]
1830:Generated_Source\PSoC4/CapSense.c ****     uint32 offset;
1831:Generated_Source\PSoC4/CapSense.c ****     uint8 enMask;
1832:Generated_Source\PSoC4/CapSense.c **** 
1833:Generated_Source\PSoC4/CapSense.c ****     /* position is divided by 8 to calculate the element of the
1834:Generated_Source\PSoC4/CapSense.c ****        table[] array that contains the enable bit
1835:Generated_Source\PSoC4/CapSense.c ****        for an appropriate sensor.
1836:Generated_Source\PSoC4/CapSense.c ****     */
1837:Generated_Source\PSoC4/CapSense.c ****     offset = (position >> 3u);
 2180              		.loc 1 1837 0
 2181 000c BB68     		ldr	r3, [r7, #8]
 2182 000e DB08     		lsr	r3, r3, #3
 2183 0010 7B61     		str	r3, [r7, #20]
1838:Generated_Source\PSoC4/CapSense.c **** 
1839:Generated_Source\PSoC4/CapSense.c ****     /* The enMask calculation for the appropriate sensor. Operation (position & 0x07u)
1840:Generated_Source\PSoC4/CapSense.c ****        intends to calculate the enable bit offset for the 8-bit element of the
1841:Generated_Source\PSoC4/CapSense.c ****        table[] array.
1842:Generated_Source\PSoC4/CapSense.c ****     */
1843:Generated_Source\PSoC4/CapSense.c ****     enMask = 0x01u << (position & 0x07u);
 2184              		.loc 1 1843 0
 2185 0012 BB68     		ldr	r3, [r7, #8]
 2186 0014 0722     		mov	r2, #7
 2187 0016 1340     		and	r3, r2
 2188 0018 0122     		mov	r2, #1
 2189 001a 9A40     		lsl	r2, r2, r3
ARM GAS  C:\Users\poornima\AppData\Local\Temp\ccI9K5HH.s 			page 72


 2190 001c 1323     		mov	r3, #19
 2191 001e FB18     		add	r3, r7, r3
 2192 0020 1A70     		strb	r2, [r3]
1844:Generated_Source\PSoC4/CapSense.c **** 
1845:Generated_Source\PSoC4/CapSense.c ****     if(0u != value)
 2193              		.loc 1 1845 0
 2194 0022 7B68     		ldr	r3, [r7, #4]
 2195 0024 002B     		cmp	r3, #0
 2196 0026 0DD0     		beq	.L106
1846:Generated_Source\PSoC4/CapSense.c ****     {
1847:Generated_Source\PSoC4/CapSense.c ****         table[offset] |= enMask;
 2197              		.loc 1 1847 0
 2198 0028 FA68     		ldr	r2, [r7, #12]
 2199 002a 7B69     		ldr	r3, [r7, #20]
 2200 002c D318     		add	r3, r2, r3
 2201 002e F968     		ldr	r1, [r7, #12]
 2202 0030 7A69     		ldr	r2, [r7, #20]
 2203 0032 8A18     		add	r2, r1, r2
 2204 0034 1178     		ldrb	r1, [r2]
 2205 0036 1322     		mov	r2, #19
 2206 0038 BA18     		add	r2, r7, r2
 2207 003a 1278     		ldrb	r2, [r2]
 2208 003c 0A43     		orr	r2, r1
 2209 003e D2B2     		uxtb	r2, r2
 2210 0040 1A70     		strb	r2, [r3]
 2211 0042 0EE0     		b	.L105
 2212              	.L106:
1848:Generated_Source\PSoC4/CapSense.c ****     }
1849:Generated_Source\PSoC4/CapSense.c ****     else
1850:Generated_Source\PSoC4/CapSense.c ****     {
1851:Generated_Source\PSoC4/CapSense.c ****         table[offset] &= (uint8)~(enMask);
 2213              		.loc 1 1851 0
 2214 0044 FA68     		ldr	r2, [r7, #12]
 2215 0046 7B69     		ldr	r3, [r7, #20]
 2216 0048 D318     		add	r3, r2, r3
 2217 004a F968     		ldr	r1, [r7, #12]
 2218 004c 7A69     		ldr	r2, [r7, #20]
 2219 004e 8A18     		add	r2, r1, r2
 2220 0050 1278     		ldrb	r2, [r2]
 2221 0052 1321     		mov	r1, #19
 2222 0054 7918     		add	r1, r7, r1
 2223 0056 0978     		ldrb	r1, [r1]
 2224 0058 C943     		mvn	r1, r1
 2225 005a C9B2     		uxtb	r1, r1
 2226 005c 0A40     		and	r2, r1
 2227 005e D2B2     		uxtb	r2, r2
 2228 0060 1A70     		strb	r2, [r3]
 2229              	.L105:
1852:Generated_Source\PSoC4/CapSense.c ****     }
1853:Generated_Source\PSoC4/CapSense.c **** }
 2230              		.loc 1 1853 0
 2231 0062 BD46     		mov	sp, r7
 2232 0064 06B0     		add	sp, sp, #24
 2233              		@ sp needed
 2234 0066 80BD     		pop	{r7, pc}
 2235              		.cfi_endproc
 2236              	.LFE61:
ARM GAS  C:\Users\poornima\AppData\Local\Temp\ccI9K5HH.s 			page 73


 2237              		.size	CapSense_SetBitValue, .-CapSense_SetBitValue
 2238              		.section	.text.CapSense_GetSenseClkDivider,"ax",%progbits
 2239              		.align	2
 2240              		.global	CapSense_GetSenseClkDivider
 2241              		.code	16
 2242              		.thumb_func
 2243              		.type	CapSense_GetSenseClkDivider, %function
 2244              	CapSense_GetSenseClkDivider:
 2245              	.LFB62:
1854:Generated_Source\PSoC4/CapSense.c **** 
1855:Generated_Source\PSoC4/CapSense.c **** 
1856:Generated_Source\PSoC4/CapSense.c **** 
1857:Generated_Source\PSoC4/CapSense.c **** /*******************************************************************************
1858:Generated_Source\PSoC4/CapSense.c **** * Function Name: CapSense_GetSenseClkDivider
1859:Generated_Source\PSoC4/CapSense.c **** ********************************************************************************
1860:Generated_Source\PSoC4/CapSense.c **** *
1861:Generated_Source\PSoC4/CapSense.c **** * Summary:
1862:Generated_Source\PSoC4/CapSense.c **** *  This API returns a value of the sense clock divider for the  sensor.
1863:Generated_Source\PSoC4/CapSense.c **** *
1864:Generated_Source\PSoC4/CapSense.c **** * Parameters:
1865:Generated_Source\PSoC4/CapSense.c **** *  sensor: sensor index. The index value can be
1866:Generated_Source\PSoC4/CapSense.c **** *  from 0 to (CapSense_TOTAL_SENSOR_COUNT-1).
1867:Generated_Source\PSoC4/CapSense.c **** *
1868:Generated_Source\PSoC4/CapSense.c **** * Return:
1869:Generated_Source\PSoC4/CapSense.c **** *  This API returns the sense clock divider of the sensor.
1870:Generated_Source\PSoC4/CapSense.c **** *
1871:Generated_Source\PSoC4/CapSense.c **** * Global Variables:
1872:Generated_Source\PSoC4/CapSense.c **** *  CapSense_senseClkDividerVal[] - stores the sense clock divider values.
1873:Generated_Source\PSoC4/CapSense.c **** *
1874:Generated_Source\PSoC4/CapSense.c **** * Side Effects:
1875:Generated_Source\PSoC4/CapSense.c **** *  None
1876:Generated_Source\PSoC4/CapSense.c **** *
1877:Generated_Source\PSoC4/CapSense.c **** *******************************************************************************/
1878:Generated_Source\PSoC4/CapSense.c **** uint32 CapSense_GetSenseClkDivider(uint32 sensor)
1879:Generated_Source\PSoC4/CapSense.c **** {
 2246              		.loc 1 1879 0
 2247              		.cfi_startproc
 2248 0000 80B5     		push	{r7, lr}
 2249              		.cfi_def_cfa_offset 8
 2250              		.cfi_offset 7, -8
 2251              		.cfi_offset 14, -4
 2252 0002 82B0     		sub	sp, sp, #8
 2253              		.cfi_def_cfa_offset 16
 2254 0004 00AF     		add	r7, sp, #0
 2255              		.cfi_def_cfa_register 7
 2256 0006 7860     		str	r0, [r7, #4]
1880:Generated_Source\PSoC4/CapSense.c ****     #if(0u != CapSense_MULTIPLE_FREQUENCY_SET)
1881:Generated_Source\PSoC4/CapSense.c ****         return((uint32)CapSense_senseClkDividerVal[sensor]);
 2257              		.loc 1 1881 0
 2258 0008 034A     		ldr	r2, .L110
 2259 000a 7B68     		ldr	r3, [r7, #4]
 2260 000c D318     		add	r3, r2, r3
 2261 000e 1B78     		ldrb	r3, [r3]
1882:Generated_Source\PSoC4/CapSense.c ****     #else
1883:Generated_Source\PSoC4/CapSense.c ****         return((uint32)CapSense_senseClkDividerVal);
1884:Generated_Source\PSoC4/CapSense.c ****     #endif /* (0u != CapSense_MULTIPLE_FREQUENCY_SET) */
1885:Generated_Source\PSoC4/CapSense.c **** }
ARM GAS  C:\Users\poornima\AppData\Local\Temp\ccI9K5HH.s 			page 74


 2262              		.loc 1 1885 0
 2263 0010 181C     		mov	r0, r3
 2264 0012 BD46     		mov	sp, r7
 2265 0014 02B0     		add	sp, sp, #8
 2266              		@ sp needed
 2267 0016 80BD     		pop	{r7, pc}
 2268              	.L111:
 2269              		.align	2
 2270              	.L110:
 2271 0018 00000000 		.word	CapSense_senseClkDividerVal
 2272              		.cfi_endproc
 2273              	.LFE62:
 2274              		.size	CapSense_GetSenseClkDivider, .-CapSense_GetSenseClkDivider
 2275              		.section	.text.CapSense_SetSenseClkDivider,"ax",%progbits
 2276              		.align	2
 2277              		.global	CapSense_SetSenseClkDivider
 2278              		.code	16
 2279              		.thumb_func
 2280              		.type	CapSense_SetSenseClkDivider, %function
 2281              	CapSense_SetSenseClkDivider:
 2282              	.LFB63:
1886:Generated_Source\PSoC4/CapSense.c **** 
1887:Generated_Source\PSoC4/CapSense.c **** #if (CapSense_TUNING_METHOD != CapSense__TUNING_NONE)
1888:Generated_Source\PSoC4/CapSense.c ****     /*******************************************************************************
1889:Generated_Source\PSoC4/CapSense.c ****     * Function Name: CapSense_SetSenseClkDivider
1890:Generated_Source\PSoC4/CapSense.c ****     ********************************************************************************
1891:Generated_Source\PSoC4/CapSense.c ****     *
1892:Generated_Source\PSoC4/CapSense.c ****     * Summary:
1893:Generated_Source\PSoC4/CapSense.c ****     *  This API sets a value of the sense clock divider for the  sensor.
1894:Generated_Source\PSoC4/CapSense.c ****     *
1895:Generated_Source\PSoC4/CapSense.c ****     * Parameters:
1896:Generated_Source\PSoC4/CapSense.c ****     *  sensor:  Sensor index.
1897:Generated_Source\PSoC4/CapSense.c ****     *  senseClk: represents the sense clock value.
1898:Generated_Source\PSoC4/CapSense.c ****     *
1899:Generated_Source\PSoC4/CapSense.c ****     * Return:
1900:Generated_Source\PSoC4/CapSense.c ****     *  None.
1901:Generated_Source\PSoC4/CapSense.c ****     *
1902:Generated_Source\PSoC4/CapSense.c ****     * Global Variables:
1903:Generated_Source\PSoC4/CapSense.c ****     *  CapSense_senseClkDividerVal[] - stores the sense clock divider values.
1904:Generated_Source\PSoC4/CapSense.c ****     *
1905:Generated_Source\PSoC4/CapSense.c ****     * Side Effects:
1906:Generated_Source\PSoC4/CapSense.c ****     *  None
1907:Generated_Source\PSoC4/CapSense.c ****     *
1908:Generated_Source\PSoC4/CapSense.c ****     *******************************************************************************/
1909:Generated_Source\PSoC4/CapSense.c ****     void CapSense_SetSenseClkDivider(uint32 sensor, uint32 senseClk)
1910:Generated_Source\PSoC4/CapSense.c ****     {
 2283              		.loc 1 1910 0
 2284              		.cfi_startproc
 2285 0000 80B5     		push	{r7, lr}
 2286              		.cfi_def_cfa_offset 8
 2287              		.cfi_offset 7, -8
 2288              		.cfi_offset 14, -4
 2289 0002 82B0     		sub	sp, sp, #8
 2290              		.cfi_def_cfa_offset 16
 2291 0004 00AF     		add	r7, sp, #0
 2292              		.cfi_def_cfa_register 7
 2293 0006 7860     		str	r0, [r7, #4]
ARM GAS  C:\Users\poornima\AppData\Local\Temp\ccI9K5HH.s 			page 75


 2294 0008 3960     		str	r1, [r7]
1911:Generated_Source\PSoC4/CapSense.c ****         #if(0u != CapSense_MULTIPLE_FREQUENCY_SET)
1912:Generated_Source\PSoC4/CapSense.c ****             CapSense_senseClkDividerVal[sensor] = (uint8)senseClk;
 2295              		.loc 1 1912 0
 2296 000a 3B68     		ldr	r3, [r7]
 2297 000c D9B2     		uxtb	r1, r3
 2298 000e 044A     		ldr	r2, .L113
 2299 0010 7B68     		ldr	r3, [r7, #4]
 2300 0012 D318     		add	r3, r2, r3
 2301 0014 0A1C     		add	r2, r1, #0
 2302 0016 1A70     		strb	r2, [r3]
1913:Generated_Source\PSoC4/CapSense.c ****         #else
1914:Generated_Source\PSoC4/CapSense.c ****             CapSense_senseClkDividerVal = (uint8)senseClk;
1915:Generated_Source\PSoC4/CapSense.c ****         #endif /* (0u != CapSense_MULTIPLE_FREQUENCY_SET) */
1916:Generated_Source\PSoC4/CapSense.c ****     }
 2303              		.loc 1 1916 0
 2304 0018 BD46     		mov	sp, r7
 2305 001a 02B0     		add	sp, sp, #8
 2306              		@ sp needed
 2307 001c 80BD     		pop	{r7, pc}
 2308              	.L114:
 2309 001e C046     		.align	2
 2310              	.L113:
 2311 0020 00000000 		.word	CapSense_senseClkDividerVal
 2312              		.cfi_endproc
 2313              	.LFE63:
 2314              		.size	CapSense_SetSenseClkDivider, .-CapSense_SetSenseClkDivider
 2315              		.section	.text.CapSense_GetModulatorClkDivider,"ax",%progbits
 2316              		.align	2
 2317              		.global	CapSense_GetModulatorClkDivider
 2318              		.code	16
 2319              		.thumb_func
 2320              		.type	CapSense_GetModulatorClkDivider, %function
 2321              	CapSense_GetModulatorClkDivider:
 2322              	.LFB64:
1917:Generated_Source\PSoC4/CapSense.c **** #endif /* (CapSense_TUNING_METHOD != CapSense__TUNING_NONE) */
1918:Generated_Source\PSoC4/CapSense.c **** 
1919:Generated_Source\PSoC4/CapSense.c **** 
1920:Generated_Source\PSoC4/CapSense.c **** /*******************************************************************************
1921:Generated_Source\PSoC4/CapSense.c **** * Function Name: CapSense_GetModulatorClkDivider
1922:Generated_Source\PSoC4/CapSense.c **** ********************************************************************************
1923:Generated_Source\PSoC4/CapSense.c **** *
1924:Generated_Source\PSoC4/CapSense.c **** * Summary:
1925:Generated_Source\PSoC4/CapSense.c **** *  This API returns a value of the modulator sample clock divider for the  sensor.
1926:Generated_Source\PSoC4/CapSense.c **** *
1927:Generated_Source\PSoC4/CapSense.c **** * Parameters:
1928:Generated_Source\PSoC4/CapSense.c **** *  sensor: sensor index. The value of index can be
1929:Generated_Source\PSoC4/CapSense.c **** *  from 0 to (CapSense_TOTAL_SENSOR_COUNT-1).
1930:Generated_Source\PSoC4/CapSense.c **** *
1931:Generated_Source\PSoC4/CapSense.c **** * Return:
1932:Generated_Source\PSoC4/CapSense.c **** *  This API returns the modulator sample clock divider for the  sensor.
1933:Generated_Source\PSoC4/CapSense.c **** *
1934:Generated_Source\PSoC4/CapSense.c **** * Global Variables:
1935:Generated_Source\PSoC4/CapSense.c **** *  CapSense_sampleClkDividerVal[] - stores the modulator sample divider values.
1936:Generated_Source\PSoC4/CapSense.c **** *
1937:Generated_Source\PSoC4/CapSense.c **** * Side Effects:
1938:Generated_Source\PSoC4/CapSense.c **** *  None
ARM GAS  C:\Users\poornima\AppData\Local\Temp\ccI9K5HH.s 			page 76


1939:Generated_Source\PSoC4/CapSense.c **** *
1940:Generated_Source\PSoC4/CapSense.c **** *******************************************************************************/
1941:Generated_Source\PSoC4/CapSense.c **** uint32 CapSense_GetModulatorClkDivider(uint32 sensor)
1942:Generated_Source\PSoC4/CapSense.c **** {
 2323              		.loc 1 1942 0
 2324              		.cfi_startproc
 2325 0000 80B5     		push	{r7, lr}
 2326              		.cfi_def_cfa_offset 8
 2327              		.cfi_offset 7, -8
 2328              		.cfi_offset 14, -4
 2329 0002 82B0     		sub	sp, sp, #8
 2330              		.cfi_def_cfa_offset 16
 2331 0004 00AF     		add	r7, sp, #0
 2332              		.cfi_def_cfa_register 7
 2333 0006 7860     		str	r0, [r7, #4]
1943:Generated_Source\PSoC4/CapSense.c ****     #if(0u != CapSense_MULTIPLE_FREQUENCY_SET)
1944:Generated_Source\PSoC4/CapSense.c ****         return((uint32)CapSense_sampleClkDividerVal[sensor]);
 2334              		.loc 1 1944 0
 2335 0008 034A     		ldr	r2, .L117
 2336 000a 7B68     		ldr	r3, [r7, #4]
 2337 000c D318     		add	r3, r2, r3
 2338 000e 1B78     		ldrb	r3, [r3]
1945:Generated_Source\PSoC4/CapSense.c ****     #else
1946:Generated_Source\PSoC4/CapSense.c ****         return((uint32)CapSense_sampleClkDividerVal);
1947:Generated_Source\PSoC4/CapSense.c ****     #endif /* (0u != CapSense_MULTIPLE_FREQUENCY_SET) */
1948:Generated_Source\PSoC4/CapSense.c **** }
 2339              		.loc 1 1948 0
 2340 0010 181C     		mov	r0, r3
 2341 0012 BD46     		mov	sp, r7
 2342 0014 02B0     		add	sp, sp, #8
 2343              		@ sp needed
 2344 0016 80BD     		pop	{r7, pc}
 2345              	.L118:
 2346              		.align	2
 2347              	.L117:
 2348 0018 00000000 		.word	CapSense_sampleClkDividerVal
 2349              		.cfi_endproc
 2350              	.LFE64:
 2351              		.size	CapSense_GetModulatorClkDivider, .-CapSense_GetModulatorClkDivider
 2352              		.section	.text.CapSense_SetModulatorClkDivider,"ax",%progbits
 2353              		.align	2
 2354              		.global	CapSense_SetModulatorClkDivider
 2355              		.code	16
 2356              		.thumb_func
 2357              		.type	CapSense_SetModulatorClkDivider, %function
 2358              	CapSense_SetModulatorClkDivider:
 2359              	.LFB65:
1949:Generated_Source\PSoC4/CapSense.c **** 
1950:Generated_Source\PSoC4/CapSense.c **** #if (CapSense_TUNING_METHOD != CapSense__TUNING_NONE)
1951:Generated_Source\PSoC4/CapSense.c ****     /*******************************************************************************
1952:Generated_Source\PSoC4/CapSense.c ****     * Function Name: CapSense_SetModulatorClkDivider
1953:Generated_Source\PSoC4/CapSense.c ****     ********************************************************************************
1954:Generated_Source\PSoC4/CapSense.c ****     *
1955:Generated_Source\PSoC4/CapSense.c ****     * Summary:
1956:Generated_Source\PSoC4/CapSense.c ****     *  This API sets a value of the modulator sample clock divider for the  sensor.
1957:Generated_Source\PSoC4/CapSense.c ****     *
1958:Generated_Source\PSoC4/CapSense.c ****     * Parameters:
ARM GAS  C:\Users\poornima\AppData\Local\Temp\ccI9K5HH.s 			page 77


1959:Generated_Source\PSoC4/CapSense.c ****     *  sensor:  Sensor index.
1960:Generated_Source\PSoC4/CapSense.c ****     *  modulatorClk: represents the modulator sample clock value.
1961:Generated_Source\PSoC4/CapSense.c ****     *
1962:Generated_Source\PSoC4/CapSense.c ****     * Return:
1963:Generated_Source\PSoC4/CapSense.c ****     *  None.
1964:Generated_Source\PSoC4/CapSense.c ****     *
1965:Generated_Source\PSoC4/CapSense.c ****     * Global Variables:
1966:Generated_Source\PSoC4/CapSense.c ****     *  CapSense_sampleClkDividerVal[] - stores the modulator sample divider values.
1967:Generated_Source\PSoC4/CapSense.c ****     *
1968:Generated_Source\PSoC4/CapSense.c ****     * Side Effects:
1969:Generated_Source\PSoC4/CapSense.c ****     *  None
1970:Generated_Source\PSoC4/CapSense.c ****     *
1971:Generated_Source\PSoC4/CapSense.c ****     *******************************************************************************/
1972:Generated_Source\PSoC4/CapSense.c ****     void CapSense_SetModulatorClkDivider(uint32 sensor, uint32 modulatorClk)
1973:Generated_Source\PSoC4/CapSense.c ****     {
 2360              		.loc 1 1973 0
 2361              		.cfi_startproc
 2362 0000 80B5     		push	{r7, lr}
 2363              		.cfi_def_cfa_offset 8
 2364              		.cfi_offset 7, -8
 2365              		.cfi_offset 14, -4
 2366 0002 82B0     		sub	sp, sp, #8
 2367              		.cfi_def_cfa_offset 16
 2368 0004 00AF     		add	r7, sp, #0
 2369              		.cfi_def_cfa_register 7
 2370 0006 7860     		str	r0, [r7, #4]
 2371 0008 3960     		str	r1, [r7]
1974:Generated_Source\PSoC4/CapSense.c ****         #if(0u != CapSense_MULTIPLE_FREQUENCY_SET)
1975:Generated_Source\PSoC4/CapSense.c ****             CapSense_sampleClkDividerVal[sensor] = (uint8)modulatorClk;
 2372              		.loc 1 1975 0
 2373 000a 3B68     		ldr	r3, [r7]
 2374 000c D9B2     		uxtb	r1, r3
 2375 000e 044A     		ldr	r2, .L120
 2376 0010 7B68     		ldr	r3, [r7, #4]
 2377 0012 D318     		add	r3, r2, r3
 2378 0014 0A1C     		add	r2, r1, #0
 2379 0016 1A70     		strb	r2, [r3]
1976:Generated_Source\PSoC4/CapSense.c ****         #else
1977:Generated_Source\PSoC4/CapSense.c ****             CapSense_sampleClkDividerVal = (uint8)modulatorClk;
1978:Generated_Source\PSoC4/CapSense.c ****         #endif /* (0u != CapSense_MULTIPLE_FREQUENCY_SET) */
1979:Generated_Source\PSoC4/CapSense.c ****     }
 2380              		.loc 1 1979 0
 2381 0018 BD46     		mov	sp, r7
 2382 001a 02B0     		add	sp, sp, #8
 2383              		@ sp needed
 2384 001c 80BD     		pop	{r7, pc}
 2385              	.L121:
 2386 001e C046     		.align	2
 2387              	.L120:
 2388 0020 00000000 		.word	CapSense_sampleClkDividerVal
 2389              		.cfi_endproc
 2390              	.LFE65:
 2391              		.size	CapSense_SetModulatorClkDivider, .-CapSense_SetModulatorClkDivider
 2392              		.section	.text.CapSense_GetModulationIDAC,"ax",%progbits
 2393              		.align	2
 2394              		.global	CapSense_GetModulationIDAC
 2395              		.code	16
ARM GAS  C:\Users\poornima\AppData\Local\Temp\ccI9K5HH.s 			page 78


 2396              		.thumb_func
 2397              		.type	CapSense_GetModulationIDAC, %function
 2398              	CapSense_GetModulationIDAC:
 2399              	.LFB66:
1980:Generated_Source\PSoC4/CapSense.c **** #endif /* (CapSense_TUNING_METHOD != CapSense__TUNING_NONE) */
1981:Generated_Source\PSoC4/CapSense.c **** 
1982:Generated_Source\PSoC4/CapSense.c **** /*******************************************************************************
1983:Generated_Source\PSoC4/CapSense.c **** * Function Name: CapSense_GetModulationIDAC
1984:Generated_Source\PSoC4/CapSense.c **** ********************************************************************************
1985:Generated_Source\PSoC4/CapSense.c **** *
1986:Generated_Source\PSoC4/CapSense.c **** * Summary:
1987:Generated_Source\PSoC4/CapSense.c **** *  This API returns a value of the modulation IDAC for the  sensor.
1988:Generated_Source\PSoC4/CapSense.c **** *
1989:Generated_Source\PSoC4/CapSense.c **** * Parameters:
1990:Generated_Source\PSoC4/CapSense.c **** *  sensor: sensor index. The index value can be
1991:Generated_Source\PSoC4/CapSense.c **** *  from 0 to (CapSense_TOTAL_SENSOR_COUNT-1).
1992:Generated_Source\PSoC4/CapSense.c **** *
1993:Generated_Source\PSoC4/CapSense.c **** * Return:
1994:Generated_Source\PSoC4/CapSense.c **** *  This API returns the modulation IDAC of the sensor.
1995:Generated_Source\PSoC4/CapSense.c **** *
1996:Generated_Source\PSoC4/CapSense.c **** * Global Variables:
1997:Generated_Source\PSoC4/CapSense.c **** *  CapSense_modulationIDAC[] - stores modulation IDAC values.
1998:Generated_Source\PSoC4/CapSense.c **** *
1999:Generated_Source\PSoC4/CapSense.c **** * Side Effects:
2000:Generated_Source\PSoC4/CapSense.c **** *  None
2001:Generated_Source\PSoC4/CapSense.c **** *
2002:Generated_Source\PSoC4/CapSense.c **** *******************************************************************************/
2003:Generated_Source\PSoC4/CapSense.c **** uint32 CapSense_GetModulationIDAC(uint32 sensor)
2004:Generated_Source\PSoC4/CapSense.c **** {
 2400              		.loc 1 2004 0
 2401              		.cfi_startproc
 2402 0000 80B5     		push	{r7, lr}
 2403              		.cfi_def_cfa_offset 8
 2404              		.cfi_offset 7, -8
 2405              		.cfi_offset 14, -4
 2406 0002 82B0     		sub	sp, sp, #8
 2407              		.cfi_def_cfa_offset 16
 2408 0004 00AF     		add	r7, sp, #0
 2409              		.cfi_def_cfa_register 7
 2410 0006 7860     		str	r0, [r7, #4]
2005:Generated_Source\PSoC4/CapSense.c ****         return((uint32)CapSense_modulationIDAC[sensor]);
 2411              		.loc 1 2005 0
 2412 0008 034A     		ldr	r2, .L124
 2413 000a 7B68     		ldr	r3, [r7, #4]
 2414 000c D318     		add	r3, r2, r3
 2415 000e 1B78     		ldrb	r3, [r3]
2006:Generated_Source\PSoC4/CapSense.c **** }
 2416              		.loc 1 2006 0
 2417 0010 181C     		mov	r0, r3
 2418 0012 BD46     		mov	sp, r7
 2419 0014 02B0     		add	sp, sp, #8
 2420              		@ sp needed
 2421 0016 80BD     		pop	{r7, pc}
 2422              	.L125:
 2423              		.align	2
 2424              	.L124:
 2425 0018 00000000 		.word	CapSense_modulationIDAC
ARM GAS  C:\Users\poornima\AppData\Local\Temp\ccI9K5HH.s 			page 79


 2426              		.cfi_endproc
 2427              	.LFE66:
 2428              		.size	CapSense_GetModulationIDAC, .-CapSense_GetModulationIDAC
 2429              		.section	.text.CapSense_SetModulationIDAC,"ax",%progbits
 2430              		.align	2
 2431              		.global	CapSense_SetModulationIDAC
 2432              		.code	16
 2433              		.thumb_func
 2434              		.type	CapSense_SetModulationIDAC, %function
 2435              	CapSense_SetModulationIDAC:
 2436              	.LFB67:
2007:Generated_Source\PSoC4/CapSense.c **** 
2008:Generated_Source\PSoC4/CapSense.c **** #if (CapSense_TUNING_METHOD != CapSense__TUNING_NONE)
2009:Generated_Source\PSoC4/CapSense.c ****     /*******************************************************************************
2010:Generated_Source\PSoC4/CapSense.c ****     * Function Name: CapSense_SetModulationIDAC
2011:Generated_Source\PSoC4/CapSense.c ****     ********************************************************************************
2012:Generated_Source\PSoC4/CapSense.c ****     *
2013:Generated_Source\PSoC4/CapSense.c ****     * Summary:
2014:Generated_Source\PSoC4/CapSense.c ****     *  This API sets a value of the modulation IDAC for the  sensor.
2015:Generated_Source\PSoC4/CapSense.c ****     *
2016:Generated_Source\PSoC4/CapSense.c ****     * Parameters:
2017:Generated_Source\PSoC4/CapSense.c ****     *  sensor:  Sensor index.
2018:Generated_Source\PSoC4/CapSense.c ****     *  compIdacValue: represents the modulation IDAC data register value.
2019:Generated_Source\PSoC4/CapSense.c ****     *
2020:Generated_Source\PSoC4/CapSense.c ****     * Return:
2021:Generated_Source\PSoC4/CapSense.c ****     *  None.
2022:Generated_Source\PSoC4/CapSense.c ****     *
2023:Generated_Source\PSoC4/CapSense.c ****     * Global Variables:
2024:Generated_Source\PSoC4/CapSense.c ****     *  CapSense_modulationIDAC[] - array with modulation IDAC values
2025:Generated_Source\PSoC4/CapSense.c ****     *
2026:Generated_Source\PSoC4/CapSense.c ****     * Side Effects:
2027:Generated_Source\PSoC4/CapSense.c ****     *  None
2028:Generated_Source\PSoC4/CapSense.c ****     *
2029:Generated_Source\PSoC4/CapSense.c ****     *******************************************************************************/
2030:Generated_Source\PSoC4/CapSense.c ****     void CapSense_SetModulationIDAC(uint32 sensor, uint32 modIdacValue)
2031:Generated_Source\PSoC4/CapSense.c ****     {
 2437              		.loc 1 2031 0
 2438              		.cfi_startproc
 2439 0000 80B5     		push	{r7, lr}
 2440              		.cfi_def_cfa_offset 8
 2441              		.cfi_offset 7, -8
 2442              		.cfi_offset 14, -4
 2443 0002 82B0     		sub	sp, sp, #8
 2444              		.cfi_def_cfa_offset 16
 2445 0004 00AF     		add	r7, sp, #0
 2446              		.cfi_def_cfa_register 7
 2447 0006 7860     		str	r0, [r7, #4]
 2448 0008 3960     		str	r1, [r7]
2032:Generated_Source\PSoC4/CapSense.c ****         CapSense_modulationIDAC[sensor] = (uint8)modIdacValue;
 2449              		.loc 1 2032 0
 2450 000a 3B68     		ldr	r3, [r7]
 2451 000c D9B2     		uxtb	r1, r3
 2452 000e 044A     		ldr	r2, .L127
 2453 0010 7B68     		ldr	r3, [r7, #4]
 2454 0012 D318     		add	r3, r2, r3
 2455 0014 0A1C     		add	r2, r1, #0
 2456 0016 1A70     		strb	r2, [r3]
ARM GAS  C:\Users\poornima\AppData\Local\Temp\ccI9K5HH.s 			page 80


2033:Generated_Source\PSoC4/CapSense.c ****     }
 2457              		.loc 1 2033 0
 2458 0018 BD46     		mov	sp, r7
 2459 001a 02B0     		add	sp, sp, #8
 2460              		@ sp needed
 2461 001c 80BD     		pop	{r7, pc}
 2462              	.L128:
 2463 001e C046     		.align	2
 2464              	.L127:
 2465 0020 00000000 		.word	CapSense_modulationIDAC
 2466              		.cfi_endproc
 2467              	.LFE67:
 2468              		.size	CapSense_SetModulationIDAC, .-CapSense_SetModulationIDAC
 2469              		.section	.text.CapSense_GetCompensationIDAC,"ax",%progbits
 2470              		.align	2
 2471              		.global	CapSense_GetCompensationIDAC
 2472              		.code	16
 2473              		.thumb_func
 2474              		.type	CapSense_GetCompensationIDAC, %function
 2475              	CapSense_GetCompensationIDAC:
 2476              	.LFB68:
2034:Generated_Source\PSoC4/CapSense.c **** #endif /* (CapSense_TUNING_METHOD != CapSense__TUNING_NONE) */
2035:Generated_Source\PSoC4/CapSense.c **** 
2036:Generated_Source\PSoC4/CapSense.c **** 
2037:Generated_Source\PSoC4/CapSense.c **** #if(CapSense_IDAC_CNT > 1u)
2038:Generated_Source\PSoC4/CapSense.c ****     /*******************************************************************************
2039:Generated_Source\PSoC4/CapSense.c ****     * Function Name: CapSense_GetCompensationIDAC
2040:Generated_Source\PSoC4/CapSense.c ****     ********************************************************************************
2041:Generated_Source\PSoC4/CapSense.c ****     *
2042:Generated_Source\PSoC4/CapSense.c ****     * Summary:
2043:Generated_Source\PSoC4/CapSense.c ****     *  This API returns a value of the compensation IDAC for the  sensor.
2044:Generated_Source\PSoC4/CapSense.c ****     *
2045:Generated_Source\PSoC4/CapSense.c ****     * Parameters:
2046:Generated_Source\PSoC4/CapSense.c ****     *  sensor: sensor index. The index value can be
2047:Generated_Source\PSoC4/CapSense.c ****     *  from 0 to (CapSense_TOTAL_SENSOR_COUNT-1).
2048:Generated_Source\PSoC4/CapSense.c ****     *
2049:Generated_Source\PSoC4/CapSense.c ****     * Return:
2050:Generated_Source\PSoC4/CapSense.c ****     *  This API returns the compensation IDAC of the sensor.
2051:Generated_Source\PSoC4/CapSense.c ****     *
2052:Generated_Source\PSoC4/CapSense.c ****     * Global Variables:
2053:Generated_Source\PSoC4/CapSense.c ****     *  CapSense_compensationIDAC[] - stores the compensation IDAC values.
2054:Generated_Source\PSoC4/CapSense.c ****     *
2055:Generated_Source\PSoC4/CapSense.c ****     * Side Effects:
2056:Generated_Source\PSoC4/CapSense.c ****     *  None
2057:Generated_Source\PSoC4/CapSense.c ****     *
2058:Generated_Source\PSoC4/CapSense.c ****     *******************************************************************************/
2059:Generated_Source\PSoC4/CapSense.c ****     uint32 CapSense_GetCompensationIDAC(uint32 sensor)
2060:Generated_Source\PSoC4/CapSense.c ****     {
 2477              		.loc 1 2060 0
 2478              		.cfi_startproc
 2479 0000 80B5     		push	{r7, lr}
 2480              		.cfi_def_cfa_offset 8
 2481              		.cfi_offset 7, -8
 2482              		.cfi_offset 14, -4
 2483 0002 82B0     		sub	sp, sp, #8
 2484              		.cfi_def_cfa_offset 16
 2485 0004 00AF     		add	r7, sp, #0
ARM GAS  C:\Users\poornima\AppData\Local\Temp\ccI9K5HH.s 			page 81


 2486              		.cfi_def_cfa_register 7
 2487 0006 7860     		str	r0, [r7, #4]
2061:Generated_Source\PSoC4/CapSense.c ****         return((uint32)CapSense_compensationIDAC[sensor]);
 2488              		.loc 1 2061 0
 2489 0008 034A     		ldr	r2, .L131
 2490 000a 7B68     		ldr	r3, [r7, #4]
 2491 000c D318     		add	r3, r2, r3
 2492 000e 1B78     		ldrb	r3, [r3]
2062:Generated_Source\PSoC4/CapSense.c ****     }
 2493              		.loc 1 2062 0
 2494 0010 181C     		mov	r0, r3
 2495 0012 BD46     		mov	sp, r7
 2496 0014 02B0     		add	sp, sp, #8
 2497              		@ sp needed
 2498 0016 80BD     		pop	{r7, pc}
 2499              	.L132:
 2500              		.align	2
 2501              	.L131:
 2502 0018 00000000 		.word	CapSense_compensationIDAC
 2503              		.cfi_endproc
 2504              	.LFE68:
 2505              		.size	CapSense_GetCompensationIDAC, .-CapSense_GetCompensationIDAC
 2506              		.section	.text.CapSense_SetCompensationIDAC,"ax",%progbits
 2507              		.align	2
 2508              		.global	CapSense_SetCompensationIDAC
 2509              		.code	16
 2510              		.thumb_func
 2511              		.type	CapSense_SetCompensationIDAC, %function
 2512              	CapSense_SetCompensationIDAC:
 2513              	.LFB69:
2063:Generated_Source\PSoC4/CapSense.c **** #endif /* (CapSense_IDAC_CNT > 1u) */
2064:Generated_Source\PSoC4/CapSense.c **** 
2065:Generated_Source\PSoC4/CapSense.c **** 
2066:Generated_Source\PSoC4/CapSense.c **** #if((CapSense_TUNING_METHOD != CapSense__TUNING_NONE) && (CapSense_IDAC_CNT > 1u))
2067:Generated_Source\PSoC4/CapSense.c ****     /*******************************************************************************
2068:Generated_Source\PSoC4/CapSense.c ****     * Function Name: CapSense_SetCompensationIDAC
2069:Generated_Source\PSoC4/CapSense.c ****     ********************************************************************************
2070:Generated_Source\PSoC4/CapSense.c ****     *
2071:Generated_Source\PSoC4/CapSense.c ****     * Summary:
2072:Generated_Source\PSoC4/CapSense.c ****     *  This API sets a value of compensation IDAC for the  sensor.
2073:Generated_Source\PSoC4/CapSense.c ****     *
2074:Generated_Source\PSoC4/CapSense.c ****     * Parameters:
2075:Generated_Source\PSoC4/CapSense.c ****     *  sensor:  Sensor index.
2076:Generated_Source\PSoC4/CapSense.c ****     *  compIdacValue: represents the compensation IDAC data register value.
2077:Generated_Source\PSoC4/CapSense.c ****     *
2078:Generated_Source\PSoC4/CapSense.c ****     * Return:
2079:Generated_Source\PSoC4/CapSense.c ****     *  None.
2080:Generated_Source\PSoC4/CapSense.c ****     *
2081:Generated_Source\PSoC4/CapSense.c ****     * Global Variables:
2082:Generated_Source\PSoC4/CapSense.c ****     *  CapSense_compensationIDAC[] - an array with compensation IDAC values
2083:Generated_Source\PSoC4/CapSense.c ****     *
2084:Generated_Source\PSoC4/CapSense.c ****     * Side Effects:
2085:Generated_Source\PSoC4/CapSense.c ****     *  None
2086:Generated_Source\PSoC4/CapSense.c ****     *
2087:Generated_Source\PSoC4/CapSense.c ****     *******************************************************************************/
2088:Generated_Source\PSoC4/CapSense.c ****     void CapSense_SetCompensationIDAC(uint32 sensor, uint32 compIdacValue)
2089:Generated_Source\PSoC4/CapSense.c ****     {
ARM GAS  C:\Users\poornima\AppData\Local\Temp\ccI9K5HH.s 			page 82


 2514              		.loc 1 2089 0
 2515              		.cfi_startproc
 2516 0000 80B5     		push	{r7, lr}
 2517              		.cfi_def_cfa_offset 8
 2518              		.cfi_offset 7, -8
 2519              		.cfi_offset 14, -4
 2520 0002 82B0     		sub	sp, sp, #8
 2521              		.cfi_def_cfa_offset 16
 2522 0004 00AF     		add	r7, sp, #0
 2523              		.cfi_def_cfa_register 7
 2524 0006 7860     		str	r0, [r7, #4]
 2525 0008 3960     		str	r1, [r7]
2090:Generated_Source\PSoC4/CapSense.c ****         CapSense_compensationIDAC[sensor] = (uint8)compIdacValue;
 2526              		.loc 1 2090 0
 2527 000a 3B68     		ldr	r3, [r7]
 2528 000c D9B2     		uxtb	r1, r3
 2529 000e 044A     		ldr	r2, .L134
 2530 0010 7B68     		ldr	r3, [r7, #4]
 2531 0012 D318     		add	r3, r2, r3
 2532 0014 0A1C     		add	r2, r1, #0
 2533 0016 1A70     		strb	r2, [r3]
2091:Generated_Source\PSoC4/CapSense.c ****     }
 2534              		.loc 1 2091 0
 2535 0018 BD46     		mov	sp, r7
 2536 001a 02B0     		add	sp, sp, #8
 2537              		@ sp needed
 2538 001c 80BD     		pop	{r7, pc}
 2539              	.L135:
 2540 001e C046     		.align	2
 2541              	.L134:
 2542 0020 00000000 		.word	CapSense_compensationIDAC
 2543              		.cfi_endproc
 2544              	.LFE69:
 2545              		.size	CapSense_SetCompensationIDAC, .-CapSense_SetCompensationIDAC
 2546              		.section	.text.CapSense_GetIDACRange,"ax",%progbits
 2547              		.align	2
 2548              		.global	CapSense_GetIDACRange
 2549              		.code	16
 2550              		.thumb_func
 2551              		.type	CapSense_GetIDACRange, %function
 2552              	CapSense_GetIDACRange:
 2553              	.LFB70:
2092:Generated_Source\PSoC4/CapSense.c **** #endif /* ((CapSense_TUNING_METHOD != CapSense__TUNING_NONE) && (CapSense_IDAC_CNT > 1u)) */
2093:Generated_Source\PSoC4/CapSense.c **** 
2094:Generated_Source\PSoC4/CapSense.c **** /*******************************************************************************
2095:Generated_Source\PSoC4/CapSense.c **** * Function Name: CapSense_GetIDACRange
2096:Generated_Source\PSoC4/CapSense.c **** ********************************************************************************
2097:Generated_Source\PSoC4/CapSense.c **** *
2098:Generated_Source\PSoC4/CapSense.c **** * Summary:
2099:Generated_Source\PSoC4/CapSense.c **** *  This API returns a value that indicates the IDAC range used by the
2100:Generated_Source\PSoC4/CapSense.c **** *  component to scan sensors. The IDAC range is common for all the sensors.
2101:Generated_Source\PSoC4/CapSense.c **** *
2102:Generated_Source\PSoC4/CapSense.c **** * Parameters:
2103:Generated_Source\PSoC4/CapSense.c **** *  None
2104:Generated_Source\PSoC4/CapSense.c **** *
2105:Generated_Source\PSoC4/CapSense.c **** * Return:
2106:Generated_Source\PSoC4/CapSense.c **** *  This API Returns a value that indicates the IDAC range:
ARM GAS  C:\Users\poornima\AppData\Local\Temp\ccI9K5HH.s 			page 83


2107:Generated_Source\PSoC4/CapSense.c **** *      0 - IDAC range set to 4x
2108:Generated_Source\PSoC4/CapSense.c **** *      1 - IDAC range set to 8x
2109:Generated_Source\PSoC4/CapSense.c **** *
2110:Generated_Source\PSoC4/CapSense.c **** * Global Variables:
2111:Generated_Source\PSoC4/CapSense.c **** *  None
2112:Generated_Source\PSoC4/CapSense.c **** *
2113:Generated_Source\PSoC4/CapSense.c **** * Side Effects:
2114:Generated_Source\PSoC4/CapSense.c **** *  None
2115:Generated_Source\PSoC4/CapSense.c **** *
2116:Generated_Source\PSoC4/CapSense.c **** *******************************************************************************/
2117:Generated_Source\PSoC4/CapSense.c **** uint32 CapSense_GetIDACRange(void)
2118:Generated_Source\PSoC4/CapSense.c **** {
 2554              		.loc 1 2118 0
 2555              		.cfi_startproc
 2556 0000 80B5     		push	{r7, lr}
 2557              		.cfi_def_cfa_offset 8
 2558              		.cfi_offset 7, -8
 2559              		.cfi_offset 14, -4
 2560 0002 00AF     		add	r7, sp, #0
 2561              		.cfi_def_cfa_register 7
2119:Generated_Source\PSoC4/CapSense.c ****     return((0u != (CapSense_CSD_IDAC_REG & CapSense_CSD_IDAC1_RANGE_8X)) ? 1uL : 0uL);
 2562              		.loc 1 2119 0
 2563 0004 054B     		ldr	r3, .L140
 2564 0006 1A68     		ldr	r2, [r3]
 2565 0008 8023     		mov	r3, #128
 2566 000a DB00     		lsl	r3, r3, #3
 2567 000c 1340     		and	r3, r2
 2568 000e 01D0     		beq	.L137
 2569              		.loc 1 2119 0 is_stmt 0 discriminator 1
 2570 0010 0123     		mov	r3, #1
 2571 0012 00E0     		b	.L138
 2572              	.L137:
 2573              		.loc 1 2119 0 discriminator 2
 2574 0014 0023     		mov	r3, #0
 2575              	.L138:
2120:Generated_Source\PSoC4/CapSense.c **** }
 2576              		.loc 1 2120 0 is_stmt 1 discriminator 4
 2577 0016 181C     		mov	r0, r3
 2578 0018 BD46     		mov	sp, r7
 2579              		@ sp needed
 2580 001a 80BD     		pop	{r7, pc}
 2581              	.L141:
 2582              		.align	2
 2583              	.L140:
 2584 001c 08002840 		.word	1076363272
 2585              		.cfi_endproc
 2586              	.LFE70:
 2587              		.size	CapSense_GetIDACRange, .-CapSense_GetIDACRange
 2588              		.section	.text.CapSense_SetIDACRange,"ax",%progbits
 2589              		.align	2
 2590              		.global	CapSense_SetIDACRange
 2591              		.code	16
 2592              		.thumb_func
 2593              		.type	CapSense_SetIDACRange, %function
 2594              	CapSense_SetIDACRange:
 2595              	.LFB71:
2121:Generated_Source\PSoC4/CapSense.c **** 
ARM GAS  C:\Users\poornima\AppData\Local\Temp\ccI9K5HH.s 			page 84


2122:Generated_Source\PSoC4/CapSense.c **** #if (CapSense_TUNING_METHOD != CapSense__TUNING_NONE)
2123:Generated_Source\PSoC4/CapSense.c ****     /*******************************************************************************
2124:Generated_Source\PSoC4/CapSense.c ****     * Function Name: CapSense_SetIDACRange
2125:Generated_Source\PSoC4/CapSense.c ****     ********************************************************************************
2126:Generated_Source\PSoC4/CapSense.c ****     *
2127:Generated_Source\PSoC4/CapSense.c ****     * Summary:
2128:Generated_Source\PSoC4/CapSense.c ****     *  This API sets the IDAC range to the 4x (1.2uA/bit) or 8x (2.4uA/bit) mode.
2129:Generated_Source\PSoC4/CapSense.c ****     *  The IDAC range is common for all the sensors and common for the modulation and
2130:Generated_Source\PSoC4/CapSense.c ****     *  compensation IDACs.
2131:Generated_Source\PSoC4/CapSense.c ****     *
2132:Generated_Source\PSoC4/CapSense.c ****     * Parameters:
2133:Generated_Source\PSoC4/CapSense.c ****     *  iDacRange:  represents value for IDAC range
2134:Generated_Source\PSoC4/CapSense.c ****     *  0 -  IDAC range set to 4x (1.2uA/bit)
2135:Generated_Source\PSoC4/CapSense.c ****     *  1 or >1 - IDAC range set to 8x (2.4uA/bit)
2136:Generated_Source\PSoC4/CapSense.c ****     *
2137:Generated_Source\PSoC4/CapSense.c ****     * Return:
2138:Generated_Source\PSoC4/CapSense.c ****     *  None.
2139:Generated_Source\PSoC4/CapSense.c ****     *
2140:Generated_Source\PSoC4/CapSense.c ****     * Global Variables:
2141:Generated_Source\PSoC4/CapSense.c ****     *  None
2142:Generated_Source\PSoC4/CapSense.c ****     *
2143:Generated_Source\PSoC4/CapSense.c ****     * Side Effects:
2144:Generated_Source\PSoC4/CapSense.c ****     *  None
2145:Generated_Source\PSoC4/CapSense.c ****     *
2146:Generated_Source\PSoC4/CapSense.c ****     *******************************************************************************/
2147:Generated_Source\PSoC4/CapSense.c ****     void CapSense_SetIDACRange(uint32 iDacRange)
2148:Generated_Source\PSoC4/CapSense.c ****     {
 2596              		.loc 1 2148 0
 2597              		.cfi_startproc
 2598 0000 80B5     		push	{r7, lr}
 2599              		.cfi_def_cfa_offset 8
 2600              		.cfi_offset 7, -8
 2601              		.cfi_offset 14, -4
 2602 0002 82B0     		sub	sp, sp, #8
 2603              		.cfi_def_cfa_offset 16
 2604 0004 00AF     		add	r7, sp, #0
 2605              		.cfi_def_cfa_register 7
 2606 0006 7860     		str	r0, [r7, #4]
2149:Generated_Source\PSoC4/CapSense.c ****         if(iDacRange != 0u)
 2607              		.loc 1 2149 0
 2608 0008 7B68     		ldr	r3, [r7, #4]
 2609 000a 002B     		cmp	r3, #0
 2610 000c 06D0     		beq	.L143
2150:Generated_Source\PSoC4/CapSense.c ****         {
2151:Generated_Source\PSoC4/CapSense.c ****             /*  IDAC range = 8x (2.4uA/bit) */
2152:Generated_Source\PSoC4/CapSense.c ****             CapSense_CSD_IDAC_REG |= (CapSense_CSD_IDAC1_RANGE_8X |\
 2611              		.loc 1 2152 0
 2612 000e 084B     		ldr	r3, .L145
 2613 0010 074A     		ldr	r2, .L145
 2614 0012 1268     		ldr	r2, [r2]
 2615 0014 0749     		ldr	r1, .L145+4
 2616 0016 0A43     		orr	r2, r1
 2617 0018 1A60     		str	r2, [r3]
 2618 001a 05E0     		b	.L142
 2619              	.L143:
2153:Generated_Source\PSoC4/CapSense.c ****                                               CapSense_CSD_IDAC2_RANGE_8X);
2154:Generated_Source\PSoC4/CapSense.c ****         }
ARM GAS  C:\Users\poornima\AppData\Local\Temp\ccI9K5HH.s 			page 85


2155:Generated_Source\PSoC4/CapSense.c ****         else
2156:Generated_Source\PSoC4/CapSense.c ****         {
2157:Generated_Source\PSoC4/CapSense.c ****             /*  IDAC range = 4x (1.2uA/bit) */
2158:Generated_Source\PSoC4/CapSense.c ****             /*  IDAC range = 8x (2.4uA/bit) */
2159:Generated_Source\PSoC4/CapSense.c ****             CapSense_CSD_IDAC_REG &= ~(CapSense_CSD_IDAC1_RANGE_8X |\
 2620              		.loc 1 2159 0
 2621 001c 044B     		ldr	r3, .L145
 2622 001e 044A     		ldr	r2, .L145
 2623 0020 1268     		ldr	r2, [r2]
 2624 0022 0549     		ldr	r1, .L145+8
 2625 0024 0A40     		and	r2, r1
 2626 0026 1A60     		str	r2, [r3]
 2627              	.L142:
2160:Generated_Source\PSoC4/CapSense.c ****                                                CapSense_CSD_IDAC2_RANGE_8X);
2161:Generated_Source\PSoC4/CapSense.c ****         }
2162:Generated_Source\PSoC4/CapSense.c ****     }
 2628              		.loc 1 2162 0
 2629 0028 BD46     		mov	sp, r7
 2630 002a 02B0     		add	sp, sp, #8
 2631              		@ sp needed
 2632 002c 80BD     		pop	{r7, pc}
 2633              	.L146:
 2634 002e C046     		.align	2
 2635              	.L145:
 2636 0030 08002840 		.word	1076363272
 2637 0034 00040004 		.word	67109888
 2638 0038 FFFBFFFB 		.word	-67109889
 2639              		.cfi_endproc
 2640              	.LFE71:
 2641              		.size	CapSense_SetIDACRange, .-CapSense_SetIDACRange
 2642              		.section	.text.CapSense_GetSensorRaw,"ax",%progbits
 2643              		.align	2
 2644              		.global	CapSense_GetSensorRaw
 2645              		.code	16
 2646              		.thumb_func
 2647              		.type	CapSense_GetSensorRaw, %function
 2648              	CapSense_GetSensorRaw:
 2649              	.LFB72:
2163:Generated_Source\PSoC4/CapSense.c **** #endif /* (CapSense_TUNING_METHOD != CapSense__TUNING_NONE) */
2164:Generated_Source\PSoC4/CapSense.c **** 
2165:Generated_Source\PSoC4/CapSense.c **** 
2166:Generated_Source\PSoC4/CapSense.c **** #if((0u != CapSense_AUTOCALIBRATION_ENABLE) || (CapSense_TUNING_METHOD == CapSense__TUNING_AUTO))
2167:Generated_Source\PSoC4/CapSense.c ****     /*******************************************************************************
2168:Generated_Source\PSoC4/CapSense.c ****     * Function Name: CapSense_GetSensorRaw
2169:Generated_Source\PSoC4/CapSense.c ****     ********************************************************************************
2170:Generated_Source\PSoC4/CapSense.c ****     *
2171:Generated_Source\PSoC4/CapSense.c ****     * Summary:
2172:Generated_Source\PSoC4/CapSense.c ****     *  The API updates and gets uprated raw data from the sensor.
2173:Generated_Source\PSoC4/CapSense.c ****     *
2174:Generated_Source\PSoC4/CapSense.c ****     * Parameters:
2175:Generated_Source\PSoC4/CapSense.c ****     *  sensor - Sensor number.
2176:Generated_Source\PSoC4/CapSense.c ****     *
2177:Generated_Source\PSoC4/CapSense.c ****     * Return:
2178:Generated_Source\PSoC4/CapSense.c ****     *  Returns the current raw data value for a defined sensor number.
2179:Generated_Source\PSoC4/CapSense.c ****     *
2180:Generated_Source\PSoC4/CapSense.c ****     * Global Variables:
2181:Generated_Source\PSoC4/CapSense.c ****     *  None
ARM GAS  C:\Users\poornima\AppData\Local\Temp\ccI9K5HH.s 			page 86


2182:Generated_Source\PSoC4/CapSense.c ****     *
2183:Generated_Source\PSoC4/CapSense.c ****     * Side Effects:
2184:Generated_Source\PSoC4/CapSense.c ****     *  None
2185:Generated_Source\PSoC4/CapSense.c ****     *
2186:Generated_Source\PSoC4/CapSense.c ****     *******************************************************************************/
2187:Generated_Source\PSoC4/CapSense.c ****     uint16  CapSense_GetSensorRaw(uint32 sensor)
2188:Generated_Source\PSoC4/CapSense.c ****     {
 2650              		.loc 1 2188 0
 2651              		.cfi_startproc
 2652 0000 80B5     		push	{r7, lr}
 2653              		.cfi_def_cfa_offset 8
 2654              		.cfi_offset 7, -8
 2655              		.cfi_offset 14, -4
 2656 0002 84B0     		sub	sp, sp, #16
 2657              		.cfi_def_cfa_offset 24
 2658 0004 00AF     		add	r7, sp, #0
 2659              		.cfi_def_cfa_register 7
 2660 0006 7860     		str	r0, [r7, #4]
2189:Generated_Source\PSoC4/CapSense.c ****         uint32 curSample;
2190:Generated_Source\PSoC4/CapSense.c ****         uint32 avgVal = 0u;
 2661              		.loc 1 2190 0
 2662 0008 0023     		mov	r3, #0
 2663 000a BB60     		str	r3, [r7, #8]
2191:Generated_Source\PSoC4/CapSense.c **** 
2192:Generated_Source\PSoC4/CapSense.c ****         for(curSample = 0u; curSample < CapSense_AVG_SAMPLES_NUM; curSample++)
 2664              		.loc 1 2192 0
 2665 000c 0023     		mov	r3, #0
 2666 000e FB60     		str	r3, [r7, #12]
 2667 0010 15E0     		b	.L148
 2668              	.L150:
2193:Generated_Source\PSoC4/CapSense.c ****         {
2194:Generated_Source\PSoC4/CapSense.c **** 
2195:Generated_Source\PSoC4/CapSense.c ****             CapSense_ScanSensor((uint32)sensor);
 2669              		.loc 1 2195 0
 2670 0012 7B68     		ldr	r3, [r7, #4]
 2671 0014 181C     		mov	r0, r3
 2672 0016 FFF7FEFF 		bl	CapSense_ScanSensor
2196:Generated_Source\PSoC4/CapSense.c ****             while(CapSense_IsBusy() == 1u)
 2673              		.loc 1 2196 0
 2674 001a C046     		mov	r8, r8
 2675              	.L149:
 2676              		.loc 1 2196 0 is_stmt 0 discriminator 1
 2677 001c FFF7FEFF 		bl	CapSense_IsBusy
 2678 0020 031E     		sub	r3, r0, #0
 2679 0022 012B     		cmp	r3, #1
 2680 0024 FAD0     		beq	.L149
2197:Generated_Source\PSoC4/CapSense.c ****             {
2198:Generated_Source\PSoC4/CapSense.c ****                 /* Wait while sensor is busy */
2199:Generated_Source\PSoC4/CapSense.c ****             }
2200:Generated_Source\PSoC4/CapSense.c ****             avgVal += CapSense_ReadSensorRaw((uint32)sensor);
 2681              		.loc 1 2200 0 is_stmt 1 discriminator 2
 2682 0026 7B68     		ldr	r3, [r7, #4]
 2683 0028 181C     		mov	r0, r3
 2684 002a FFF7FEFF 		bl	CapSense_ReadSensorRaw
 2685 002e 031C     		mov	r3, r0
 2686 0030 1A1C     		mov	r2, r3
 2687 0032 BB68     		ldr	r3, [r7, #8]
ARM GAS  C:\Users\poornima\AppData\Local\Temp\ccI9K5HH.s 			page 87


 2688 0034 9B18     		add	r3, r3, r2
 2689 0036 BB60     		str	r3, [r7, #8]
2192:Generated_Source\PSoC4/CapSense.c ****         {
 2690              		.loc 1 2192 0 discriminator 2
 2691 0038 FB68     		ldr	r3, [r7, #12]
 2692 003a 0133     		add	r3, r3, #1
 2693 003c FB60     		str	r3, [r7, #12]
 2694              	.L148:
2192:Generated_Source\PSoC4/CapSense.c ****         {
 2695              		.loc 1 2192 0 is_stmt 0 discriminator 1
 2696 003e FB68     		ldr	r3, [r7, #12]
 2697 0040 002B     		cmp	r3, #0
 2698 0042 E6D0     		beq	.L150
2201:Generated_Source\PSoC4/CapSense.c ****         }
2202:Generated_Source\PSoC4/CapSense.c **** 
2203:Generated_Source\PSoC4/CapSense.c ****         return((uint16)(avgVal / CapSense_AVG_SAMPLES_NUM));
 2699              		.loc 1 2203 0 is_stmt 1
 2700 0044 BB68     		ldr	r3, [r7, #8]
 2701 0046 9BB2     		uxth	r3, r3
2204:Generated_Source\PSoC4/CapSense.c ****     }
 2702              		.loc 1 2204 0
 2703 0048 181C     		mov	r0, r3
 2704 004a BD46     		mov	sp, r7
 2705 004c 04B0     		add	sp, sp, #16
 2706              		@ sp needed
 2707 004e 80BD     		pop	{r7, pc}
 2708              		.cfi_endproc
 2709              	.LFE72:
 2710              		.size	CapSense_GetSensorRaw, .-CapSense_GetSensorRaw
 2711              		.section	.text.CapSense_SetUnscannedSensorState,"ax",%progbits
 2712              		.align	2
 2713              		.global	CapSense_SetUnscannedSensorState
 2714              		.code	16
 2715              		.thumb_func
 2716              		.type	CapSense_SetUnscannedSensorState, %function
 2717              	CapSense_SetUnscannedSensorState:
 2718              	.LFB73:
2205:Generated_Source\PSoC4/CapSense.c **** #endif /* ((0u != CapSense_AUTOCALIBRATION_ENABLE) && (CapSense_TUNING_METHOD == CapSense__TUNING_A
2206:Generated_Source\PSoC4/CapSense.c **** 
2207:Generated_Source\PSoC4/CapSense.c **** 
2208:Generated_Source\PSoC4/CapSense.c **** #if((0u != CapSense_AUTOCALIBRATION_ENABLE) && (CapSense_TUNING_METHOD != CapSense__TUNING_AUTO))
2209:Generated_Source\PSoC4/CapSense.c ****     /*******************************************************************************
2210:Generated_Source\PSoC4/CapSense.c ****     * Function Name: CapSense_CalibrateSensor
2211:Generated_Source\PSoC4/CapSense.c ****     ********************************************************************************
2212:Generated_Source\PSoC4/CapSense.c ****     *
2213:Generated_Source\PSoC4/CapSense.c ****     * Summary:
2214:Generated_Source\PSoC4/CapSense.c ****     *  Computes the one sensor IDAC value, which provides the raw signal on
2215:Generated_Source\PSoC4/CapSense.c ****     *  a specified level, with a specified prescaler, speed, and resolution.
2216:Generated_Source\PSoC4/CapSense.c ****     *
2217:Generated_Source\PSoC4/CapSense.c ****     * Parameters:
2218:Generated_Source\PSoC4/CapSense.c ****     *  sensor - Sensor Number.
2219:Generated_Source\PSoC4/CapSense.c ****     *
2220:Generated_Source\PSoC4/CapSense.c ****     *  rawLevel -  Raw data level which should be reached during the calibration
2221:Generated_Source\PSoC4/CapSense.c ****     *              procedure.
2222:Generated_Source\PSoC4/CapSense.c ****     *
2223:Generated_Source\PSoC4/CapSense.c ****     *  idacLevelsTbl - Pointer to the modulatorIdac data register configuration table.
2224:Generated_Source\PSoC4/CapSense.c ****     *
ARM GAS  C:\Users\poornima\AppData\Local\Temp\ccI9K5HH.s 			page 88


2225:Generated_Source\PSoC4/CapSense.c ****     * Return:
2226:Generated_Source\PSoC4/CapSense.c ****     *  None
2227:Generated_Source\PSoC4/CapSense.c ****     *
2228:Generated_Source\PSoC4/CapSense.c ****     *******************************************************************************/
2229:Generated_Source\PSoC4/CapSense.c ****     void CapSense_CalibrateSensor(uint32 sensor, uint32 rawLevel, uint8 idacLevelsTbl[])
2230:Generated_Source\PSoC4/CapSense.c ****     {
2231:Generated_Source\PSoC4/CapSense.c ****         uint8 mask;
2232:Generated_Source\PSoC4/CapSense.c ****         uint16 rawData;
2233:Generated_Source\PSoC4/CapSense.c **** 
2234:Generated_Source\PSoC4/CapSense.c ****         rawData = 0u;
2235:Generated_Source\PSoC4/CapSense.c **** 
2236:Generated_Source\PSoC4/CapSense.c ****         mask = 0x80u;
2237:Generated_Source\PSoC4/CapSense.c ****         /* Init IDAC for null Channel */
2238:Generated_Source\PSoC4/CapSense.c ****         idacLevelsTbl[sensor] = 0x00u;
2239:Generated_Source\PSoC4/CapSense.c **** 
2240:Generated_Source\PSoC4/CapSense.c ****         do
2241:Generated_Source\PSoC4/CapSense.c ****         {
2242:Generated_Source\PSoC4/CapSense.c ****             /* Set bit for null Channel */
2243:Generated_Source\PSoC4/CapSense.c ****             idacLevelsTbl[sensor] |= mask;
2244:Generated_Source\PSoC4/CapSense.c **** 
2245:Generated_Source\PSoC4/CapSense.c ****             /* Scan null Channel and get Rawdata */
2246:Generated_Source\PSoC4/CapSense.c ****             rawData = CapSense_GetSensorRaw(sensor);
2247:Generated_Source\PSoC4/CapSense.c **** 
2248:Generated_Source\PSoC4/CapSense.c ****             /* Decrease IDAC until Rawdata reaches rawLevel */
2249:Generated_Source\PSoC4/CapSense.c ****             if(rawData < rawLevel)
2250:Generated_Source\PSoC4/CapSense.c ****             {
2251:Generated_Source\PSoC4/CapSense.c ****                 /* Reset bit for null Channel  */
2252:Generated_Source\PSoC4/CapSense.c ****                 idacLevelsTbl[sensor] &= (uint8)~mask;
2253:Generated_Source\PSoC4/CapSense.c ****             }
2254:Generated_Source\PSoC4/CapSense.c **** 
2255:Generated_Source\PSoC4/CapSense.c ****             mask >>= 1u;
2256:Generated_Source\PSoC4/CapSense.c ****         }
2257:Generated_Source\PSoC4/CapSense.c ****         while(mask > 0u);
2258:Generated_Source\PSoC4/CapSense.c **** 
2259:Generated_Source\PSoC4/CapSense.c ****     }
2260:Generated_Source\PSoC4/CapSense.c **** #endif /* ((0u != CapSense_AUTOCALIBRATION_ENABLE) && (CapSense_TUNING_METHOD != CapSense__TUNING_A
2261:Generated_Source\PSoC4/CapSense.c **** 
2262:Generated_Source\PSoC4/CapSense.c **** 
2263:Generated_Source\PSoC4/CapSense.c **** /*******************************************************************************
2264:Generated_Source\PSoC4/CapSense.c **** * Function Name: CapSense_SetUnscannedSensorState
2265:Generated_Source\PSoC4/CapSense.c **** ********************************************************************************
2266:Generated_Source\PSoC4/CapSense.c **** *
2267:Generated_Source\PSoC4/CapSense.c **** * Summary:
2268:Generated_Source\PSoC4/CapSense.c **** *  This API sets a state for un-scanned sensors.
2269:Generated_Source\PSoC4/CapSense.c **** *  It is possible to set the state to Ground, High-Z, or the shield electrode.
2270:Generated_Source\PSoC4/CapSense.c **** *  The un-scanned sensor can be connected to a shield electrode only if the shield is
2271:Generated_Source\PSoC4/CapSense.c **** *  enabled. If the shield is disabled and this API is called with the parameter which
2272:Generated_Source\PSoC4/CapSense.c **** *  indicates the shield state, the un-scanned sensor will be connected to Ground.
2273:Generated_Source\PSoC4/CapSense.c **** *
2274:Generated_Source\PSoC4/CapSense.c **** * Parameters:
2275:Generated_Source\PSoC4/CapSense.c **** *  sensor - Sensor Number.
2276:Generated_Source\PSoC4/CapSense.c **** *  sensorState: This parameter indicates un-scanned sensor state:
2277:Generated_Source\PSoC4/CapSense.c **** *
2278:Generated_Source\PSoC4/CapSense.c **** *     CapSense__GROUND 0
2279:Generated_Source\PSoC4/CapSense.c **** *     CapSense__HIZ_ANALOG 1
2280:Generated_Source\PSoC4/CapSense.c **** *     CapSense__SHIELD 2
2281:Generated_Source\PSoC4/CapSense.c **** *
ARM GAS  C:\Users\poornima\AppData\Local\Temp\ccI9K5HH.s 			page 89


2282:Generated_Source\PSoC4/CapSense.c **** * Return:
2283:Generated_Source\PSoC4/CapSense.c **** *  None.
2284:Generated_Source\PSoC4/CapSense.c **** *
2285:Generated_Source\PSoC4/CapSense.c **** * Global Variables:
2286:Generated_Source\PSoC4/CapSense.c **** *  CapSense_unscannedSnsDriveMode[] - used to store the state for
2287:Generated_Source\PSoC4/CapSense.c **** *  un-scanned sensors.
2288:Generated_Source\PSoC4/CapSense.c **** *
2289:Generated_Source\PSoC4/CapSense.c **** * Side Effects:
2290:Generated_Source\PSoC4/CapSense.c **** *  None
2291:Generated_Source\PSoC4/CapSense.c **** *
2292:Generated_Source\PSoC4/CapSense.c **** *******************************************************************************/
2293:Generated_Source\PSoC4/CapSense.c **** void CapSense_SetUnscannedSensorState(uint32 sensor, uint32 sensorState)
2294:Generated_Source\PSoC4/CapSense.c **** {
 2719              		.loc 1 2294 0
 2720              		.cfi_startproc
 2721 0000 80B5     		push	{r7, lr}
 2722              		.cfi_def_cfa_offset 8
 2723              		.cfi_offset 7, -8
 2724              		.cfi_offset 14, -4
 2725 0002 82B0     		sub	sp, sp, #8
 2726              		.cfi_def_cfa_offset 16
 2727 0004 00AF     		add	r7, sp, #0
 2728              		.cfi_def_cfa_register 7
 2729 0006 7860     		str	r0, [r7, #4]
 2730 0008 3960     		str	r1, [r7]
2295:Generated_Source\PSoC4/CapSense.c ****     #if(CapSense_IS_COMPLEX_SCANSLOTS)
2296:Generated_Source\PSoC4/CapSense.c ****         uint8 snsType;
2297:Generated_Source\PSoC4/CapSense.c ****         uint8 curSensor;
2298:Generated_Source\PSoC4/CapSense.c ****         uint16 snsNumber;
2299:Generated_Source\PSoC4/CapSense.c **** 
2300:Generated_Source\PSoC4/CapSense.c ****         /* Read sensor type: single or complex */
2301:Generated_Source\PSoC4/CapSense.c ****         snsType = CapSense_portTable[sensor];
2302:Generated_Source\PSoC4/CapSense.c **** 
2303:Generated_Source\PSoC4/CapSense.c ****         /* Check if sensor is complex */
2304:Generated_Source\PSoC4/CapSense.c ****         if(0u != (snsType & CapSense_COMPLEX_SS_FLAG))
2305:Generated_Source\PSoC4/CapSense.c ****         {
2306:Generated_Source\PSoC4/CapSense.c ****             snsType &= (uint8)~CapSense_COMPLEX_SS_FLAG;
2307:Generated_Source\PSoC4/CapSense.c ****             snsNumber = (uint16)CapSense_maskTable[sensor];
2308:Generated_Source\PSoC4/CapSense.c **** 
2309:Generated_Source\PSoC4/CapSense.c ****             for (curSensor=0u; curSensor < snsNumber; curSensor++)
2310:Generated_Source\PSoC4/CapSense.c ****             {
2311:Generated_Source\PSoC4/CapSense.c ****                 sensor = CapSense_indexTable[snsType + curSensor];
2312:Generated_Source\PSoC4/CapSense.c ****                 CapSense_unscannedSnsDriveMode[sensor] = (uint8)sensorState;
2313:Generated_Source\PSoC4/CapSense.c ****             }
2314:Generated_Source\PSoC4/CapSense.c ****         }
2315:Generated_Source\PSoC4/CapSense.c ****         else
2316:Generated_Source\PSoC4/CapSense.c ****         {
2317:Generated_Source\PSoC4/CapSense.c ****             CapSense_unscannedSnsDriveMode[sensor] = (uint8)sensorState;
2318:Generated_Source\PSoC4/CapSense.c ****         }
2319:Generated_Source\PSoC4/CapSense.c ****     #else
2320:Generated_Source\PSoC4/CapSense.c ****         CapSense_unscannedSnsDriveMode[sensor] = (uint8)sensorState;
 2731              		.loc 1 2320 0
 2732 000a 3B68     		ldr	r3, [r7]
 2733 000c D9B2     		uxtb	r1, r3
 2734 000e 044A     		ldr	r2, .L153
 2735 0010 7B68     		ldr	r3, [r7, #4]
 2736 0012 D318     		add	r3, r2, r3
ARM GAS  C:\Users\poornima\AppData\Local\Temp\ccI9K5HH.s 			page 90


 2737 0014 0A1C     		add	r2, r1, #0
 2738 0016 1A70     		strb	r2, [r3]
2321:Generated_Source\PSoC4/CapSense.c ****     #endif /* (CapSense_IS_COMPLEX_SCANSLOTS) */
2322:Generated_Source\PSoC4/CapSense.c **** }
 2739              		.loc 1 2322 0
 2740 0018 BD46     		mov	sp, r7
 2741 001a 02B0     		add	sp, sp, #8
 2742              		@ sp needed
 2743 001c 80BD     		pop	{r7, pc}
 2744              	.L154:
 2745 001e C046     		.align	2
 2746              	.L153:
 2747 0020 00000000 		.word	CapSense_unscannedSnsDriveMode
 2748              		.cfi_endproc
 2749              	.LFE73:
 2750              		.size	CapSense_SetUnscannedSensorState, .-CapSense_SetUnscannedSensorState
 2751              		.section	.text.CapSense_NormalizeWidgets,"ax",%progbits
 2752              		.align	2
 2753              		.global	CapSense_NormalizeWidgets
 2754              		.code	16
 2755              		.thumb_func
 2756              		.type	CapSense_NormalizeWidgets, %function
 2757              	CapSense_NormalizeWidgets:
 2758              	.LFB74:
2323:Generated_Source\PSoC4/CapSense.c **** 
2324:Generated_Source\PSoC4/CapSense.c **** #if(0u != CapSense_TOTAL_CENTROIDS_COUNT)
2325:Generated_Source\PSoC4/CapSense.c **** /*******************************************************************************
2326:Generated_Source\PSoC4/CapSense.c **** * Function Name: CapSense_NormalizeWidgets
2327:Generated_Source\PSoC4/CapSense.c **** ********************************************************************************
2328:Generated_Source\PSoC4/CapSense.c **** *
2329:Generated_Source\PSoC4/CapSense.c **** * Summary:
2330:Generated_Source\PSoC4/CapSense.c **** *  This API aligns all the parameters of the widget to the maximum parameter.
2331:Generated_Source\PSoC4/CapSense.c **** *
2332:Generated_Source\PSoC4/CapSense.c **** * Parameters:
2333:Generated_Source\PSoC4/CapSense.c **** *  uint32 widgetsNum: Number of widgets.
2334:Generated_Source\PSoC4/CapSense.c **** *  uint8 *dataPrt: pointer to array with widget parameters.
2335:Generated_Source\PSoC4/CapSense.c **** *
2336:Generated_Source\PSoC4/CapSense.c **** * Return:
2337:Generated_Source\PSoC4/CapSense.c **** *  None
2338:Generated_Source\PSoC4/CapSense.c **** *
2339:Generated_Source\PSoC4/CapSense.c **** * Global Variables:
2340:Generated_Source\PSoC4/CapSense.c **** *  CapSense_numberOfSensors[] - Number of sensors in the widget.
2341:Generated_Source\PSoC4/CapSense.c **** *  CapSense_rawDataIndex[currentWidget] - Contains the  1st sensor
2342:Generated_Source\PSoC4/CapSense.c **** *  position in the widget.
2343:Generated_Source\PSoC4/CapSense.c **** *
2344:Generated_Source\PSoC4/CapSense.c **** * Side Effects:
2345:Generated_Source\PSoC4/CapSense.c **** *  None
2346:Generated_Source\PSoC4/CapSense.c **** *
2347:Generated_Source\PSoC4/CapSense.c **** *******************************************************************************/
2348:Generated_Source\PSoC4/CapSense.c **** void CapSense_NormalizeWidgets(uint32 widgetsNum, uint8 dataPtr[])
2349:Generated_Source\PSoC4/CapSense.c **** {
 2759              		.loc 1 2349 0
 2760              		.cfi_startproc
 2761 0000 80B5     		push	{r7, lr}
 2762              		.cfi_def_cfa_offset 8
 2763              		.cfi_offset 7, -8
 2764              		.cfi_offset 14, -4
ARM GAS  C:\Users\poornima\AppData\Local\Temp\ccI9K5HH.s 			page 91


 2765 0002 88B0     		sub	sp, sp, #32
 2766              		.cfi_def_cfa_offset 40
 2767 0004 00AF     		add	r7, sp, #0
 2768              		.cfi_def_cfa_register 7
 2769 0006 7860     		str	r0, [r7, #4]
 2770 0008 3960     		str	r1, [r7]
2350:Generated_Source\PSoC4/CapSense.c ****     uint32 currentWidget;
2351:Generated_Source\PSoC4/CapSense.c ****     uint32 currentSensor;
2352:Generated_Source\PSoC4/CapSense.c ****     uint32 lastSensor;
2353:Generated_Source\PSoC4/CapSense.c ****     uint32 sensorsPerWidget;
2354:Generated_Source\PSoC4/CapSense.c ****     uint32 maxPerWidget;
2355:Generated_Source\PSoC4/CapSense.c **** 
2356:Generated_Source\PSoC4/CapSense.c ****     for(currentWidget = 0u; currentWidget < widgetsNum; currentWidget++)
 2771              		.loc 1 2356 0
 2772 000a 0023     		mov	r3, #0
 2773 000c FB61     		str	r3, [r7, #28]
 2774 000e 3AE0     		b	.L156
 2775              	.L162:
2357:Generated_Source\PSoC4/CapSense.c ****     {
2358:Generated_Source\PSoC4/CapSense.c ****         maxPerWidget = 0u;
 2776              		.loc 1 2358 0
 2777 0010 0023     		mov	r3, #0
 2778 0012 7B61     		str	r3, [r7, #20]
2359:Generated_Source\PSoC4/CapSense.c **** 
2360:Generated_Source\PSoC4/CapSense.c ****         sensorsPerWidget = CapSense_numberOfSensors[currentWidget];
 2779              		.loc 1 2360 0
 2780 0014 1F4A     		ldr	r2, .L163
 2781 0016 FB69     		ldr	r3, [r7, #28]
 2782 0018 D318     		add	r3, r2, r3
 2783 001a 1B78     		ldrb	r3, [r3]
 2784 001c 3B61     		str	r3, [r7, #16]
2361:Generated_Source\PSoC4/CapSense.c ****         currentSensor = CapSense_rawDataIndex[currentWidget];
 2785              		.loc 1 2361 0
 2786 001e 1E4A     		ldr	r2, .L163+4
 2787 0020 FB69     		ldr	r3, [r7, #28]
 2788 0022 D318     		add	r3, r2, r3
 2789 0024 1B78     		ldrb	r3, [r3]
 2790 0026 BB61     		str	r3, [r7, #24]
2362:Generated_Source\PSoC4/CapSense.c ****         lastSensor = currentSensor + sensorsPerWidget;
 2791              		.loc 1 2362 0
 2792 0028 BA69     		ldr	r2, [r7, #24]
 2793 002a 3B69     		ldr	r3, [r7, #16]
 2794 002c D318     		add	r3, r2, r3
 2795 002e FB60     		str	r3, [r7, #12]
2363:Generated_Source\PSoC4/CapSense.c **** 
2364:Generated_Source\PSoC4/CapSense.c ****         while(currentSensor < lastSensor)
 2796              		.loc 1 2364 0
 2797 0030 0FE0     		b	.L157
 2798              	.L159:
2365:Generated_Source\PSoC4/CapSense.c ****         {
2366:Generated_Source\PSoC4/CapSense.c ****             if(maxPerWidget < dataPtr[currentSensor])
 2799              		.loc 1 2366 0
 2800 0032 3A68     		ldr	r2, [r7]
 2801 0034 BB69     		ldr	r3, [r7, #24]
 2802 0036 D318     		add	r3, r2, r3
 2803 0038 1B78     		ldrb	r3, [r3]
 2804 003a 1A1E     		sub	r2, r3, #0
ARM GAS  C:\Users\poornima\AppData\Local\Temp\ccI9K5HH.s 			page 92


 2805 003c 7B69     		ldr	r3, [r7, #20]
 2806 003e 9A42     		cmp	r2, r3
 2807 0040 04D9     		bls	.L158
2367:Generated_Source\PSoC4/CapSense.c ****             {
2368:Generated_Source\PSoC4/CapSense.c ****                 maxPerWidget = dataPtr[currentSensor];
 2808              		.loc 1 2368 0
 2809 0042 3A68     		ldr	r2, [r7]
 2810 0044 BB69     		ldr	r3, [r7, #24]
 2811 0046 D318     		add	r3, r2, r3
 2812 0048 1B78     		ldrb	r3, [r3]
 2813 004a 7B61     		str	r3, [r7, #20]
 2814              	.L158:
2369:Generated_Source\PSoC4/CapSense.c ****             }
2370:Generated_Source\PSoC4/CapSense.c ****             currentSensor++;
 2815              		.loc 1 2370 0
 2816 004c BB69     		ldr	r3, [r7, #24]
 2817 004e 0133     		add	r3, r3, #1
 2818 0050 BB61     		str	r3, [r7, #24]
 2819              	.L157:
2364:Generated_Source\PSoC4/CapSense.c ****         {
 2820              		.loc 1 2364 0
 2821 0052 BA69     		ldr	r2, [r7, #24]
 2822 0054 FB68     		ldr	r3, [r7, #12]
 2823 0056 9A42     		cmp	r2, r3
 2824 0058 EBD3     		bcc	.L159
2371:Generated_Source\PSoC4/CapSense.c ****         }
2372:Generated_Source\PSoC4/CapSense.c **** 
2373:Generated_Source\PSoC4/CapSense.c ****         currentSensor = CapSense_rawDataIndex[currentWidget];
 2825              		.loc 1 2373 0
 2826 005a 0F4A     		ldr	r2, .L163+4
 2827 005c FB69     		ldr	r3, [r7, #28]
 2828 005e D318     		add	r3, r2, r3
 2829 0060 1B78     		ldrb	r3, [r3]
 2830 0062 BB61     		str	r3, [r7, #24]
2374:Generated_Source\PSoC4/CapSense.c **** 
2375:Generated_Source\PSoC4/CapSense.c ****         while(currentSensor < lastSensor)
 2831              		.loc 1 2375 0
 2832 0064 08E0     		b	.L160
 2833              	.L161:
2376:Generated_Source\PSoC4/CapSense.c ****         {
2377:Generated_Source\PSoC4/CapSense.c ****             dataPtr[currentSensor] = (uint8)maxPerWidget;
 2834              		.loc 1 2377 0
 2835 0066 3A68     		ldr	r2, [r7]
 2836 0068 BB69     		ldr	r3, [r7, #24]
 2837 006a D318     		add	r3, r2, r3
 2838 006c 7A69     		ldr	r2, [r7, #20]
 2839 006e D2B2     		uxtb	r2, r2
 2840 0070 1A70     		strb	r2, [r3]
2378:Generated_Source\PSoC4/CapSense.c ****             currentSensor++;
 2841              		.loc 1 2378 0
 2842 0072 BB69     		ldr	r3, [r7, #24]
 2843 0074 0133     		add	r3, r3, #1
 2844 0076 BB61     		str	r3, [r7, #24]
 2845              	.L160:
2375:Generated_Source\PSoC4/CapSense.c ****         {
 2846              		.loc 1 2375 0
 2847 0078 BA69     		ldr	r2, [r7, #24]
ARM GAS  C:\Users\poornima\AppData\Local\Temp\ccI9K5HH.s 			page 93


 2848 007a FB68     		ldr	r3, [r7, #12]
 2849 007c 9A42     		cmp	r2, r3
 2850 007e F2D3     		bcc	.L161
2356:Generated_Source\PSoC4/CapSense.c ****     {
 2851              		.loc 1 2356 0 discriminator 2
 2852 0080 FB69     		ldr	r3, [r7, #28]
 2853 0082 0133     		add	r3, r3, #1
 2854 0084 FB61     		str	r3, [r7, #28]
 2855              	.L156:
2356:Generated_Source\PSoC4/CapSense.c ****     {
 2856              		.loc 1 2356 0 is_stmt 0 discriminator 1
 2857 0086 FA69     		ldr	r2, [r7, #28]
 2858 0088 7B68     		ldr	r3, [r7, #4]
 2859 008a 9A42     		cmp	r2, r3
 2860 008c C0D3     		bcc	.L162
2379:Generated_Source\PSoC4/CapSense.c ****         }
2380:Generated_Source\PSoC4/CapSense.c ****     }
2381:Generated_Source\PSoC4/CapSense.c **** }
 2861              		.loc 1 2381 0 is_stmt 1
 2862 008e BD46     		mov	sp, r7
 2863 0090 08B0     		add	sp, sp, #32
 2864              		@ sp needed
 2865 0092 80BD     		pop	{r7, pc}
 2866              	.L164:
 2867              		.align	2
 2868              	.L163:
 2869 0094 00000000 		.word	CapSense_numberOfSensors
 2870 0098 00000000 		.word	CapSense_rawDataIndex
 2871              		.cfi_endproc
 2872              	.LFE74:
 2873              		.size	CapSense_NormalizeWidgets, .-CapSense_NormalizeWidgets
 2874              		.bss
 2875              	CapSense_initVar.5293:
 2876 0024 00       		.space	1
 2877 0025 000000   		.text
 2878              	.Letext0:
 2879              		.file 2 "Generated_Source\\PSoC4\\cytypes.h"
 2880              		.file 3 "Generated_Source\\PSoC4\\CapSense_CSHL.h"
 2881              		.section	.debug_info,"",%progbits
 2882              	.Ldebug_info0:
 2883 0000 0A0C0000 		.4byte	0xc0a
 2884 0004 0400     		.2byte	0x4
 2885 0006 00000000 		.4byte	.Ldebug_abbrev0
 2886 000a 04       		.byte	0x4
 2887 000b 01       		.uleb128 0x1
 2888 000c 39050000 		.4byte	.LASF124
 2889 0010 01       		.byte	0x1
 2890 0011 A6020000 		.4byte	.LASF125
 2891 0015 56030000 		.4byte	.LASF126
 2892 0019 00000000 		.4byte	.Ldebug_ranges0+0
 2893 001d 00000000 		.4byte	0
 2894 0021 00000000 		.4byte	.Ldebug_line0
 2895 0025 02       		.uleb128 0x2
 2896 0026 01       		.byte	0x1
 2897 0027 06       		.byte	0x6
 2898 0028 27090000 		.4byte	.LASF0
 2899 002c 02       		.uleb128 0x2
ARM GAS  C:\Users\poornima\AppData\Local\Temp\ccI9K5HH.s 			page 94


 2900 002d 01       		.byte	0x1
 2901 002e 08       		.byte	0x8
 2902 002f 57080000 		.4byte	.LASF1
 2903 0033 02       		.uleb128 0x2
 2904 0034 02       		.byte	0x2
 2905 0035 05       		.byte	0x5
 2906 0036 16070000 		.4byte	.LASF2
 2907 003a 02       		.uleb128 0x2
 2908 003b 02       		.byte	0x2
 2909 003c 07       		.byte	0x7
 2910 003d 3B090000 		.4byte	.LASF3
 2911 0041 02       		.uleb128 0x2
 2912 0042 04       		.byte	0x4
 2913 0043 05       		.byte	0x5
 2914 0044 20070000 		.4byte	.LASF4
 2915 0048 02       		.uleb128 0x2
 2916 0049 04       		.byte	0x4
 2917 004a 07       		.byte	0x7
 2918 004b 39080000 		.4byte	.LASF5
 2919 004f 02       		.uleb128 0x2
 2920 0050 08       		.byte	0x8
 2921 0051 05       		.byte	0x5
 2922 0052 FD040000 		.4byte	.LASF6
 2923 0056 02       		.uleb128 0x2
 2924 0057 08       		.byte	0x8
 2925 0058 07       		.byte	0x7
 2926 0059 17020000 		.4byte	.LASF7
 2927 005d 03       		.uleb128 0x3
 2928 005e 04       		.byte	0x4
 2929 005f 05       		.byte	0x5
 2930 0060 696E7400 		.ascii	"int\000"
 2931 0064 02       		.uleb128 0x2
 2932 0065 04       		.byte	0x4
 2933 0066 07       		.byte	0x7
 2934 0067 6B000000 		.4byte	.LASF8
 2935 006b 04       		.uleb128 0x4
 2936 006c 5A090000 		.4byte	.LASF9
 2937 0070 02       		.byte	0x2
 2938 0071 3801     		.2byte	0x138
 2939 0073 2C000000 		.4byte	0x2c
 2940 0077 04       		.uleb128 0x4
 2941 0078 7A040000 		.4byte	.LASF10
 2942 007c 02       		.byte	0x2
 2943 007d 3901     		.2byte	0x139
 2944 007f 3A000000 		.4byte	0x3a
 2945 0083 04       		.uleb128 0x4
 2946 0084 38060000 		.4byte	.LASF11
 2947 0088 02       		.byte	0x2
 2948 0089 3A01     		.2byte	0x13a
 2949 008b 48000000 		.4byte	0x48
 2950 008f 02       		.uleb128 0x2
 2951 0090 04       		.byte	0x4
 2952 0091 04       		.byte	0x4
 2953 0092 11020000 		.4byte	.LASF12
 2954 0096 02       		.uleb128 0x2
 2955 0097 08       		.byte	0x8
 2956 0098 04       		.byte	0x4
ARM GAS  C:\Users\poornima\AppData\Local\Temp\ccI9K5HH.s 			page 95


 2957 0099 60090000 		.4byte	.LASF13
 2958 009d 02       		.uleb128 0x2
 2959 009e 01       		.byte	0x1
 2960 009f 08       		.byte	0x8
 2961 00a0 46040000 		.4byte	.LASF14
 2962 00a4 04       		.uleb128 0x4
 2963 00a5 A4000000 		.4byte	.LASF15
 2964 00a9 02       		.byte	0x2
 2965 00aa E201     		.2byte	0x1e2
 2966 00ac B0000000 		.4byte	0xb0
 2967 00b0 05       		.uleb128 0x5
 2968 00b1 6B000000 		.4byte	0x6b
 2969 00b5 04       		.uleb128 0x4
 2970 00b6 5D060000 		.4byte	.LASF16
 2971 00ba 02       		.byte	0x2
 2972 00bb E401     		.2byte	0x1e4
 2973 00bd C1000000 		.4byte	0xc1
 2974 00c1 05       		.uleb128 0x5
 2975 00c2 83000000 		.4byte	0x83
 2976 00c6 02       		.uleb128 0x2
 2977 00c7 04       		.byte	0x4
 2978 00c8 07       		.byte	0x7
 2979 00c9 30080000 		.4byte	.LASF17
 2980 00cd 06       		.uleb128 0x6
 2981 00ce 04       		.byte	0x4
 2982 00cf 6B000000 		.4byte	0x6b
 2983 00d3 06       		.uleb128 0x6
 2984 00d4 04       		.byte	0x4
 2985 00d5 D9000000 		.4byte	0xd9
 2986 00d9 07       		.uleb128 0x7
 2987 00da 6B000000 		.4byte	0x6b
 2988 00de 08       		.uleb128 0x8
 2989 00df C8060000 		.4byte	.LASF18
 2990 00e3 01       		.byte	0x1
 2991 00e4 E4       		.byte	0xe4
 2992 00e5 00000000 		.4byte	.LFB35
 2993 00e9 36000000 		.4byte	.LFE35-.LFB35
 2994 00ed 01       		.uleb128 0x1
 2995 00ee 9C       		.byte	0x9c
 2996 00ef 02010000 		.4byte	0x102
 2997 00f3 09       		.uleb128 0x9
 2998 00f4 67090000 		.4byte	.LASF20
 2999 00f8 01       		.byte	0x1
 3000 00f9 E6       		.byte	0xe6
 3001 00fa 83000000 		.4byte	0x83
 3002 00fe 02       		.uleb128 0x2
 3003 00ff 91       		.byte	0x91
 3004 0100 74       		.sleb128 -12
 3005 0101 00       		.byte	0
 3006 0102 0A       		.uleb128 0xa
 3007 0103 6F010000 		.4byte	.LASF19
 3008 0107 01       		.byte	0x1
 3009 0108 2501     		.2byte	0x125
 3010 010a 00000000 		.4byte	.LFB36
 3011 010e C0000000 		.4byte	.LFE36-.LFB36
 3012 0112 01       		.uleb128 0x1
 3013 0113 9C       		.byte	0x9c
ARM GAS  C:\Users\poornima\AppData\Local\Temp\ccI9K5HH.s 			page 96


 3014 0114 28010000 		.4byte	0x128
 3015 0118 0B       		.uleb128 0xb
 3016 0119 4E090000 		.4byte	.LASF21
 3017 011d 01       		.byte	0x1
 3018 011e 2701     		.2byte	0x127
 3019 0120 83000000 		.4byte	0x83
 3020 0124 02       		.uleb128 0x2
 3021 0125 91       		.byte	0x91
 3022 0126 74       		.sleb128 -12
 3023 0127 00       		.byte	0
 3024 0128 0A       		.uleb128 0xa
 3025 0129 3A030000 		.4byte	.LASF22
 3026 012d 01       		.byte	0x1
 3027 012e 7A01     		.2byte	0x17a
 3028 0130 00000000 		.4byte	.LFB37
 3029 0134 54000000 		.4byte	.LFE37-.LFB37
 3030 0138 01       		.uleb128 0x1
 3031 0139 9C       		.byte	0x9c
 3032 013a 4E010000 		.4byte	0x14e
 3033 013e 0B       		.uleb128 0xb
 3034 013f 4E090000 		.4byte	.LASF21
 3035 0143 01       		.byte	0x1
 3036 0144 7C01     		.2byte	0x17c
 3037 0146 83000000 		.4byte	0x83
 3038 014a 02       		.uleb128 0x2
 3039 014b 91       		.byte	0x91
 3040 014c 74       		.sleb128 -12
 3041 014d 00       		.byte	0
 3042 014e 0A       		.uleb128 0xa
 3043 014f B4000000 		.4byte	.LASF23
 3044 0153 01       		.byte	0x1
 3045 0154 B501     		.2byte	0x1b5
 3046 0156 00000000 		.4byte	.LFB38
 3047 015a 44000000 		.4byte	.LFE38-.LFB38
 3048 015e 01       		.uleb128 0x1
 3049 015f 9C       		.byte	0x9c
 3050 0160 77010000 		.4byte	0x177
 3051 0164 0B       		.uleb128 0xb
 3052 0165 F8030000 		.4byte	.LASF24
 3053 0169 01       		.byte	0x1
 3054 016a B801     		.2byte	0x1b8
 3055 016c 6B000000 		.4byte	0x6b
 3056 0170 05       		.uleb128 0x5
 3057 0171 03       		.byte	0x3
 3058 0172 24000000 		.4byte	CapSense_initVar.5293
 3059 0176 00       		.byte	0
 3060 0177 0C       		.uleb128 0xc
 3061 0178 A9010000 		.4byte	.LASF33
 3062 017c 01       		.byte	0x1
 3063 017d 1102     		.2byte	0x211
 3064 017f 00000000 		.4byte	.LFB39
 3065 0183 38000000 		.4byte	.LFE39-.LFB39
 3066 0187 01       		.uleb128 0x1
 3067 0188 9C       		.byte	0x9c
 3068 0189 0D       		.uleb128 0xd
 3069 018a 51040000 		.4byte	.LASF35
 3070 018e 01       		.byte	0x1
ARM GAS  C:\Users\poornima\AppData\Local\Temp\ccI9K5HH.s 			page 97


 3071 018f 3702     		.2byte	0x237
 3072 0191 6B000000 		.4byte	0x6b
 3073 0195 00000000 		.4byte	.LFB40
 3074 0199 48000000 		.4byte	.LFE40-.LFB40
 3075 019d 01       		.uleb128 0x1
 3076 019e 9C       		.byte	0x9c
 3077 019f C2010000 		.4byte	0x1c2
 3078 01a3 0E       		.uleb128 0xe
 3079 01a4 49060000 		.4byte	.LASF27
 3080 01a8 01       		.byte	0x1
 3081 01a9 3702     		.2byte	0x237
 3082 01ab 6B000000 		.4byte	0x6b
 3083 01af 02       		.uleb128 0x2
 3084 01b0 91       		.byte	0x91
 3085 01b1 6F       		.sleb128 -17
 3086 01b2 0B       		.uleb128 0xb
 3087 01b3 0B050000 		.4byte	.LASF25
 3088 01b7 01       		.byte	0x1
 3089 01b8 3902     		.2byte	0x239
 3090 01ba 83000000 		.4byte	0x83
 3091 01be 02       		.uleb128 0x2
 3092 01bf 91       		.byte	0x91
 3093 01c0 74       		.sleb128 -12
 3094 01c1 00       		.byte	0
 3095 01c2 0A       		.uleb128 0xa
 3096 01c3 C6030000 		.4byte	.LASF26
 3097 01c7 01       		.byte	0x1
 3098 01c8 6702     		.2byte	0x267
 3099 01ca 00000000 		.4byte	.LFB41
 3100 01ce 34000000 		.4byte	.LFE41-.LFB41
 3101 01d2 01       		.uleb128 0x1
 3102 01d3 9C       		.byte	0x9c
 3103 01d4 E8010000 		.4byte	0x1e8
 3104 01d8 0E       		.uleb128 0xe
 3105 01d9 2C040000 		.4byte	.LASF28
 3106 01dd 01       		.byte	0x1
 3107 01de 6702     		.2byte	0x267
 3108 01e0 83000000 		.4byte	0x83
 3109 01e4 02       		.uleb128 0x2
 3110 01e5 91       		.byte	0x91
 3111 01e6 74       		.sleb128 -12
 3112 01e7 00       		.byte	0
 3113 01e8 0A       		.uleb128 0xa
 3114 01e9 C3000000 		.4byte	.LASF29
 3115 01ed 01       		.byte	0x1
 3116 01ee 8E02     		.2byte	0x28e
 3117 01f0 00000000 		.4byte	.LFB42
 3118 01f4 E0000000 		.4byte	.LFE42-.LFB42
 3119 01f8 01       		.uleb128 0x1
 3120 01f9 9C       		.byte	0x9c
 3121 01fa 3B020000 		.4byte	0x23b
 3122 01fe 0E       		.uleb128 0xe
 3123 01ff 43020000 		.4byte	.LASF30
 3124 0203 01       		.byte	0x1
 3125 0204 8E02     		.2byte	0x28e
 3126 0206 83000000 		.4byte	0x83
 3127 020a 02       		.uleb128 0x2
ARM GAS  C:\Users\poornima\AppData\Local\Temp\ccI9K5HH.s 			page 98


 3128 020b 91       		.byte	0x91
 3129 020c 64       		.sleb128 -28
 3130 020d 0B       		.uleb128 0xb
 3131 020e E7030000 		.4byte	.LASF31
 3132 0212 01       		.byte	0x1
 3133 0213 9002     		.2byte	0x290
 3134 0215 83000000 		.4byte	0x83
 3135 0219 02       		.uleb128 0x2
 3136 021a 91       		.byte	0x91
 3137 021b 74       		.sleb128 -12
 3138 021c 0B       		.uleb128 0xb
 3139 021d 52060000 		.4byte	.LASF32
 3140 0221 01       		.byte	0x1
 3141 0222 9102     		.2byte	0x291
 3142 0224 83000000 		.4byte	0x83
 3143 0228 02       		.uleb128 0x2
 3144 0229 91       		.byte	0x91
 3145 022a 6C       		.sleb128 -20
 3146 022b 0B       		.uleb128 0xb
 3147 022c 49060000 		.4byte	.LASF27
 3148 0230 01       		.byte	0x1
 3149 0231 9202     		.2byte	0x292
 3150 0233 83000000 		.4byte	0x83
 3151 0237 02       		.uleb128 0x2
 3152 0238 91       		.byte	0x91
 3153 0239 70       		.sleb128 -16
 3154 023a 00       		.byte	0
 3155 023b 0C       		.uleb128 0xc
 3156 023c C9040000 		.4byte	.LASF34
 3157 0240 01       		.byte	0x1
 3158 0241 E302     		.2byte	0x2e3
 3159 0243 00000000 		.4byte	.LFB43
 3160 0247 58000000 		.4byte	.LFE43-.LFB43
 3161 024b 01       		.uleb128 0x1
 3162 024c 9C       		.byte	0x9c
 3163 024d 0F       		.uleb128 0xf
 3164 024e 08010000 		.4byte	.LASF66
 3165 0252 01       		.byte	0x1
 3166 0253 0C03     		.2byte	0x30c
 3167 0255 83000000 		.4byte	0x83
 3168 0259 00000000 		.4byte	.LFB44
 3169 025d 1C000000 		.4byte	.LFE44-.LFB44
 3170 0261 01       		.uleb128 0x1
 3171 0262 9C       		.byte	0x9c
 3172 0263 10       		.uleb128 0x10
 3173 0264 77080000 		.4byte	.LASF36
 3174 0268 01       		.byte	0x1
 3175 0269 2A03     		.2byte	0x32a
 3176 026b 77000000 		.4byte	0x77
 3177 026f 00000000 		.4byte	.LFB45
 3178 0273 1C000000 		.4byte	.LFE45-.LFB45
 3179 0277 01       		.uleb128 0x1
 3180 0278 9C       		.byte	0x9c
 3181 0279 8D020000 		.4byte	0x28d
 3182 027d 0E       		.uleb128 0xe
 3183 027e 2C040000 		.4byte	.LASF28
 3184 0282 01       		.byte	0x1
ARM GAS  C:\Users\poornima\AppData\Local\Temp\ccI9K5HH.s 			page 99


 3185 0283 2A03     		.2byte	0x32a
 3186 0285 83000000 		.4byte	0x83
 3187 0289 02       		.uleb128 0x2
 3188 028a 91       		.byte	0x91
 3189 028b 74       		.sleb128 -12
 3190 028c 00       		.byte	0
 3191 028d 11       		.uleb128 0x11
 3192 028e 06030000 		.4byte	.LASF37
 3193 0292 01       		.byte	0x1
 3194 0293 4503     		.2byte	0x345
 3195 0295 00000000 		.4byte	.LFB46
 3196 0299 24000000 		.4byte	.LFE46-.LFB46
 3197 029d 01       		.uleb128 0x1
 3198 029e 9C       		.byte	0x9c
 3199 029f C2020000 		.4byte	0x2c2
 3200 02a3 0E       		.uleb128 0xe
 3201 02a4 2C040000 		.4byte	.LASF28
 3202 02a8 01       		.byte	0x1
 3203 02a9 4503     		.2byte	0x345
 3204 02ab 83000000 		.4byte	0x83
 3205 02af 02       		.uleb128 0x2
 3206 02b0 91       		.byte	0x91
 3207 02b1 74       		.sleb128 -12
 3208 02b2 0E       		.uleb128 0xe
 3209 02b3 EF020000 		.4byte	.LASF38
 3210 02b7 01       		.byte	0x1
 3211 02b8 4503     		.2byte	0x345
 3212 02ba 77000000 		.4byte	0x77
 3213 02be 02       		.uleb128 0x2
 3214 02bf 91       		.byte	0x91
 3215 02c0 72       		.sleb128 -14
 3216 02c1 00       		.byte	0
 3217 02c2 11       		.uleb128 0x11
 3218 02c3 AB030000 		.4byte	.LASF39
 3219 02c7 01       		.byte	0x1
 3220 02c8 6F03     		.2byte	0x36f
 3221 02ca 00000000 		.4byte	.LFB47
 3222 02ce 20000000 		.4byte	.LFE47-.LFB47
 3223 02d2 01       		.uleb128 0x1
 3224 02d3 9C       		.byte	0x9c
 3225 02d4 F7020000 		.4byte	0x2f7
 3226 02d8 0E       		.uleb128 0xe
 3227 02d9 43020000 		.4byte	.LASF30
 3228 02dd 01       		.byte	0x1
 3229 02de 6F03     		.2byte	0x36f
 3230 02e0 83000000 		.4byte	0x83
 3231 02e4 02       		.uleb128 0x2
 3232 02e5 91       		.byte	0x91
 3233 02e6 74       		.sleb128 -12
 3234 02e7 0E       		.uleb128 0xe
 3235 02e8 81040000 		.4byte	.LASF40
 3236 02ec 01       		.byte	0x1
 3237 02ed 6F03     		.2byte	0x36f
 3238 02ef 83000000 		.4byte	0x83
 3239 02f3 02       		.uleb128 0x2
 3240 02f4 91       		.byte	0x91
 3241 02f5 70       		.sleb128 -16
ARM GAS  C:\Users\poornima\AppData\Local\Temp\ccI9K5HH.s 			page 100


 3242 02f6 00       		.byte	0
 3243 02f7 10       		.uleb128 0x10
 3244 02f8 8B020000 		.4byte	.LASF41
 3245 02fc 01       		.byte	0x1
 3246 02fd 9803     		.2byte	0x398
 3247 02ff 83000000 		.4byte	0x83
 3248 0303 00000000 		.4byte	.LFB48
 3249 0307 1C000000 		.4byte	.LFE48-.LFB48
 3250 030b 01       		.uleb128 0x1
 3251 030c 9C       		.byte	0x9c
 3252 030d 21030000 		.4byte	0x321
 3253 0311 0E       		.uleb128 0xe
 3254 0312 43020000 		.4byte	.LASF30
 3255 0316 01       		.byte	0x1
 3256 0317 9803     		.2byte	0x398
 3257 0319 83000000 		.4byte	0x83
 3258 031d 02       		.uleb128 0x2
 3259 031e 91       		.byte	0x91
 3260 031f 74       		.sleb128 -12
 3261 0320 00       		.byte	0
 3262 0321 0A       		.uleb128 0xa
 3263 0322 CA010000 		.4byte	.LASF42
 3264 0326 01       		.byte	0x1
 3265 0327 B303     		.2byte	0x3b3
 3266 0329 00000000 		.4byte	.LFB49
 3267 032d 26000000 		.4byte	.LFE49-.LFB49
 3268 0331 01       		.uleb128 0x1
 3269 0332 9C       		.byte	0x9c
 3270 0333 47030000 		.4byte	0x347
 3271 0337 0B       		.uleb128 0xb
 3272 0338 49060000 		.4byte	.LASF27
 3273 033c 01       		.byte	0x1
 3274 033d B503     		.2byte	0x3b5
 3275 033f 83000000 		.4byte	0x83
 3276 0343 02       		.uleb128 0x2
 3277 0344 91       		.byte	0x91
 3278 0345 74       		.sleb128 -12
 3279 0346 00       		.byte	0
 3280 0347 0A       		.uleb128 0xa
 3281 0348 C7050000 		.4byte	.LASF43
 3282 034c 01       		.byte	0x1
 3283 034d 5104     		.2byte	0x451
 3284 034f 00000000 		.4byte	.LFB50
 3285 0353 C8000000 		.4byte	.LFE50-.LFB50
 3286 0357 01       		.uleb128 0x1
 3287 0358 9C       		.byte	0x9c
 3288 0359 B8030000 		.4byte	0x3b8
 3289 035d 0E       		.uleb128 0xe
 3290 035e 2C040000 		.4byte	.LASF28
 3291 0362 01       		.byte	0x1
 3292 0363 5104     		.2byte	0x451
 3293 0365 83000000 		.4byte	0x83
 3294 0369 02       		.uleb128 0x2
 3295 036a 91       		.byte	0x91
 3296 036b 5C       		.sleb128 -36
 3297 036c 0B       		.uleb128 0xb
 3298 036d 18010000 		.4byte	.LASF44
ARM GAS  C:\Users\poornima\AppData\Local\Temp\ccI9K5HH.s 			page 101


 3299 0371 01       		.byte	0x1
 3300 0372 5304     		.2byte	0x453
 3301 0374 6B000000 		.4byte	0x6b
 3302 0378 02       		.uleb128 0x2
 3303 0379 91       		.byte	0x91
 3304 037a 6B       		.sleb128 -21
 3305 037b 0B       		.uleb128 0xb
 3306 037c D7000000 		.4byte	.LASF45
 3307 0380 01       		.byte	0x1
 3308 0381 5404     		.2byte	0x454
 3309 0383 6B000000 		.4byte	0x6b
 3310 0387 02       		.uleb128 0x2
 3311 0388 91       		.byte	0x91
 3312 0389 6A       		.sleb128 -22
 3313 038a 0B       		.uleb128 0xb
 3314 038b 95000000 		.4byte	.LASF46
 3315 038f 01       		.byte	0x1
 3316 0390 5504     		.2byte	0x455
 3317 0392 6B000000 		.4byte	0x6b
 3318 0396 02       		.uleb128 0x2
 3319 0397 91       		.byte	0x91
 3320 0398 69       		.sleb128 -23
 3321 0399 0B       		.uleb128 0xb
 3322 039a F5020000 		.4byte	.LASF47
 3323 039e 01       		.byte	0x1
 3324 039f 5604     		.2byte	0x456
 3325 03a1 83000000 		.4byte	0x83
 3326 03a5 02       		.uleb128 0x2
 3327 03a6 91       		.byte	0x91
 3328 03a7 64       		.sleb128 -28
 3329 03a8 0B       		.uleb128 0xb
 3330 03a9 4B080000 		.4byte	.LASF48
 3331 03ad 01       		.byte	0x1
 3332 03ae 5704     		.2byte	0x457
 3333 03b0 83000000 		.4byte	0x83
 3334 03b4 02       		.uleb128 0x2
 3335 03b5 91       		.byte	0x91
 3336 03b6 6C       		.sleb128 -20
 3337 03b7 00       		.byte	0
 3338 03b8 0A       		.uleb128 0xa
 3339 03b9 58010000 		.4byte	.LASF49
 3340 03bd 01       		.byte	0x1
 3341 03be 8604     		.2byte	0x486
 3342 03c0 00000000 		.4byte	.LFB51
 3343 03c4 18010000 		.4byte	.LFE51-.LFB51
 3344 03c8 01       		.uleb128 0x1
 3345 03c9 9C       		.byte	0x9c
 3346 03ca 47040000 		.4byte	0x447
 3347 03ce 0E       		.uleb128 0xe
 3348 03cf 2C040000 		.4byte	.LASF28
 3349 03d3 01       		.byte	0x1
 3350 03d4 8604     		.2byte	0x486
 3351 03d6 83000000 		.4byte	0x83
 3352 03da 02       		.uleb128 0x2
 3353 03db 91       		.byte	0x91
 3354 03dc 54       		.sleb128 -44
 3355 03dd 0B       		.uleb128 0xb
ARM GAS  C:\Users\poornima\AppData\Local\Temp\ccI9K5HH.s 			page 102


 3356 03de 95000000 		.4byte	.LASF46
 3357 03e2 01       		.byte	0x1
 3358 03e3 8804     		.2byte	0x488
 3359 03e5 6B000000 		.4byte	0x6b
 3360 03e9 02       		.uleb128 0x2
 3361 03ea 91       		.byte	0x91
 3362 03eb 61       		.sleb128 -31
 3363 03ec 0B       		.uleb128 0xb
 3364 03ed F5020000 		.4byte	.LASF47
 3365 03f1 01       		.byte	0x1
 3366 03f2 8904     		.2byte	0x489
 3367 03f4 83000000 		.4byte	0x83
 3368 03f8 02       		.uleb128 0x2
 3369 03f9 91       		.byte	0x91
 3370 03fa 5C       		.sleb128 -36
 3371 03fb 0B       		.uleb128 0xb
 3372 03fc 4B080000 		.4byte	.LASF48
 3373 0400 01       		.byte	0x1
 3374 0401 8B04     		.2byte	0x48b
 3375 0403 83000000 		.4byte	0x83
 3376 0407 02       		.uleb128 0x2
 3377 0408 91       		.byte	0x91
 3378 0409 64       		.sleb128 -28
 3379 040a 0B       		.uleb128 0xb
 3380 040b D7000000 		.4byte	.LASF45
 3381 040f 01       		.byte	0x1
 3382 0410 8C04     		.2byte	0x48c
 3383 0412 6B000000 		.4byte	0x6b
 3384 0416 02       		.uleb128 0x2
 3385 0417 91       		.byte	0x91
 3386 0418 63       		.sleb128 -29
 3387 0419 0B       		.uleb128 0xb
 3388 041a 18010000 		.4byte	.LASF44
 3389 041e 01       		.byte	0x1
 3390 041f 8D04     		.2byte	0x48d
 3391 0421 6B000000 		.4byte	0x6b
 3392 0425 02       		.uleb128 0x2
 3393 0426 91       		.byte	0x91
 3394 0427 62       		.sleb128 -30
 3395 0428 0B       		.uleb128 0xb
 3396 0429 87010000 		.4byte	.LASF50
 3397 042d 01       		.byte	0x1
 3398 042e 8F04     		.2byte	0x48f
 3399 0430 83000000 		.4byte	0x83
 3400 0434 02       		.uleb128 0x2
 3401 0435 91       		.byte	0x91
 3402 0436 6C       		.sleb128 -20
 3403 0437 0B       		.uleb128 0xb
 3404 0438 4A030000 		.4byte	.LASF51
 3405 043c 01       		.byte	0x1
 3406 043d 9004     		.2byte	0x490
 3407 043f 83000000 		.4byte	0x83
 3408 0443 02       		.uleb128 0x2
 3409 0444 91       		.byte	0x91
 3410 0445 68       		.sleb128 -24
 3411 0446 00       		.byte	0
 3412 0447 0A       		.uleb128 0xa
ARM GAS  C:\Users\poornima\AppData\Local\Temp\ccI9K5HH.s 			page 103


 3413 0448 52070000 		.4byte	.LASF52
 3414 044c 01       		.byte	0x1
 3415 044d D304     		.2byte	0x4d3
 3416 044f 00000000 		.4byte	.LFB52
 3417 0453 6C000000 		.4byte	.LFE52-.LFB52
 3418 0457 01       		.uleb128 0x1
 3419 0458 9C       		.byte	0x9c
 3420 0459 9A040000 		.4byte	0x49a
 3421 045d 0E       		.uleb128 0xe
 3422 045e 71090000 		.4byte	.LASF53
 3423 0462 01       		.byte	0x1
 3424 0463 D304     		.2byte	0x4d3
 3425 0465 83000000 		.4byte	0x83
 3426 0469 02       		.uleb128 0x2
 3427 046a 91       		.byte	0x91
 3428 046b 64       		.sleb128 -28
 3429 046c 0B       		.uleb128 0xb
 3430 046d 67090000 		.4byte	.LASF20
 3431 0471 01       		.byte	0x1
 3432 0472 D504     		.2byte	0x4d5
 3433 0474 6B000000 		.4byte	0x6b
 3434 0478 02       		.uleb128 0x2
 3435 0479 91       		.byte	0x91
 3436 047a 77       		.sleb128 -9
 3437 047b 0B       		.uleb128 0xb
 3438 047c DA030000 		.4byte	.LASF54
 3439 0480 01       		.byte	0x1
 3440 0481 DA04     		.2byte	0x4da
 3441 0483 83000000 		.4byte	0x83
 3442 0487 02       		.uleb128 0x2
 3443 0488 91       		.byte	0x91
 3444 0489 70       		.sleb128 -16
 3445 048a 0B       		.uleb128 0xb
 3446 048b A6040000 		.4byte	.LASF55
 3447 048f 01       		.byte	0x1
 3448 0490 DB04     		.2byte	0x4db
 3449 0492 83000000 		.4byte	0x83
 3450 0496 02       		.uleb128 0x2
 3451 0497 91       		.byte	0x91
 3452 0498 6C       		.sleb128 -20
 3453 0499 00       		.byte	0
 3454 049a 0A       		.uleb128 0xa
 3455 049b 63060000 		.4byte	.LASF56
 3456 049f 01       		.byte	0x1
 3457 04a0 1C05     		.2byte	0x51c
 3458 04a2 00000000 		.4byte	.LFB53
 3459 04a6 38000000 		.4byte	.LFE53-.LFB53
 3460 04aa 01       		.uleb128 0x1
 3461 04ab 9C       		.byte	0x9c
 3462 04ac C0040000 		.4byte	0x4c0
 3463 04b0 0B       		.uleb128 0xb
 3464 04b1 F5020000 		.4byte	.LASF47
 3465 04b5 01       		.byte	0x1
 3466 04b6 1E05     		.2byte	0x51e
 3467 04b8 83000000 		.4byte	0x83
 3468 04bc 02       		.uleb128 0x2
 3469 04bd 91       		.byte	0x91
ARM GAS  C:\Users\poornima\AppData\Local\Temp\ccI9K5HH.s 			page 104


 3470 04be 74       		.sleb128 -12
 3471 04bf 00       		.byte	0
 3472 04c0 11       		.uleb128 0x11
 3473 04c1 FD060000 		.4byte	.LASF57
 3474 04c5 01       		.byte	0x1
 3475 04c6 5005     		.2byte	0x550
 3476 04c8 00000000 		.4byte	.LFB54
 3477 04cc 58000000 		.4byte	.LFE54-.LFB54
 3478 04d0 01       		.uleb128 0x1
 3479 04d1 9C       		.byte	0x9c
 3480 04d2 22050000 		.4byte	0x522
 3481 04d6 0E       		.uleb128 0xe
 3482 04d7 71090000 		.4byte	.LASF53
 3483 04db 01       		.byte	0x1
 3484 04dc 5005     		.2byte	0x550
 3485 04de 83000000 		.4byte	0x83
 3486 04e2 02       		.uleb128 0x2
 3487 04e3 91       		.byte	0x91
 3488 04e4 6C       		.sleb128 -20
 3489 04e5 0E       		.uleb128 0xe
 3490 04e6 3F060000 		.4byte	.LASF58
 3491 04ea 01       		.byte	0x1
 3492 04eb 5005     		.2byte	0x550
 3493 04ed 83000000 		.4byte	0x83
 3494 04f1 02       		.uleb128 0x2
 3495 04f2 91       		.byte	0x91
 3496 04f3 68       		.sleb128 -24
 3497 04f4 0E       		.uleb128 0xe
 3498 04f5 9A060000 		.4byte	.LASF59
 3499 04f9 01       		.byte	0x1
 3500 04fa 5005     		.2byte	0x550
 3501 04fc 83000000 		.4byte	0x83
 3502 0500 02       		.uleb128 0x2
 3503 0501 91       		.byte	0x91
 3504 0502 64       		.sleb128 -28
 3505 0503 0B       		.uleb128 0xb
 3506 0504 18010000 		.4byte	.LASF44
 3507 0508 01       		.byte	0x1
 3508 0509 5205     		.2byte	0x552
 3509 050b 83000000 		.4byte	0x83
 3510 050f 02       		.uleb128 0x2
 3511 0510 91       		.byte	0x91
 3512 0511 74       		.sleb128 -12
 3513 0512 0B       		.uleb128 0xb
 3514 0513 F5020000 		.4byte	.LASF47
 3515 0517 01       		.byte	0x1
 3516 0518 5305     		.2byte	0x553
 3517 051a 83000000 		.4byte	0x83
 3518 051e 02       		.uleb128 0x2
 3519 051f 91       		.byte	0x91
 3520 0520 70       		.sleb128 -16
 3521 0521 00       		.byte	0
 3522 0522 0A       		.uleb128 0xa
 3523 0523 93030000 		.4byte	.LASF60
 3524 0527 01       		.byte	0x1
 3525 0528 7405     		.2byte	0x574
 3526 052a 00000000 		.4byte	.LFB55
ARM GAS  C:\Users\poornima\AppData\Local\Temp\ccI9K5HH.s 			page 105


 3527 052e 4C010000 		.4byte	.LFE55-.LFB55
 3528 0532 01       		.uleb128 0x1
 3529 0533 9C       		.byte	0x9c
 3530 0534 84050000 		.4byte	0x584
 3531 0538 0E       		.uleb128 0xe
 3532 0539 2C040000 		.4byte	.LASF28
 3533 053d 01       		.byte	0x1
 3534 053e 7405     		.2byte	0x574
 3535 0540 83000000 		.4byte	0x83
 3536 0544 02       		.uleb128 0x2
 3537 0545 91       		.byte	0x91
 3538 0546 5C       		.sleb128 -36
 3539 0547 0B       		.uleb128 0xb
 3540 0548 43020000 		.4byte	.LASF30
 3541 054c 01       		.byte	0x1
 3542 054d 7605     		.2byte	0x576
 3543 054f 6B000000 		.4byte	0x6b
 3544 0553 02       		.uleb128 0x2
 3545 0554 91       		.byte	0x91
 3546 0555 6F       		.sleb128 -17
 3547 0556 0B       		.uleb128 0xb
 3548 0557 95000000 		.4byte	.LASF46
 3549 055b 01       		.byte	0x1
 3550 055c 7705     		.2byte	0x577
 3551 055e 6B000000 		.4byte	0x6b
 3552 0562 02       		.uleb128 0x2
 3553 0563 91       		.byte	0x91
 3554 0564 63       		.sleb128 -29
 3555 0565 0B       		.uleb128 0xb
 3556 0566 4E090000 		.4byte	.LASF21
 3557 056a 01       		.byte	0x1
 3558 056b 7805     		.2byte	0x578
 3559 056d 83000000 		.4byte	0x83
 3560 0571 02       		.uleb128 0x2
 3561 0572 91       		.byte	0x91
 3562 0573 64       		.sleb128 -28
 3563 0574 0B       		.uleb128 0xb
 3564 0575 65080000 		.4byte	.LASF61
 3565 0579 01       		.byte	0x1
 3566 057a 7905     		.2byte	0x579
 3567 057c 83000000 		.4byte	0x83
 3568 0580 02       		.uleb128 0x2
 3569 0581 91       		.byte	0x91
 3570 0582 68       		.sleb128 -24
 3571 0583 00       		.byte	0
 3572 0584 0A       		.uleb128 0xa
 3573 0585 16000000 		.4byte	.LASF62
 3574 0589 01       		.byte	0x1
 3575 058a 3906     		.2byte	0x639
 3576 058c 00000000 		.4byte	.LFB56
 3577 0590 74000000 		.4byte	.LFE56-.LFB56
 3578 0594 01       		.uleb128 0x1
 3579 0595 9C       		.byte	0x9c
 3580 0596 B9050000 		.4byte	0x5b9
 3581 059a 0E       		.uleb128 0xe
 3582 059b 2C040000 		.4byte	.LASF28
 3583 059f 01       		.byte	0x1
ARM GAS  C:\Users\poornima\AppData\Local\Temp\ccI9K5HH.s 			page 106


 3584 05a0 3906     		.2byte	0x639
 3585 05a2 83000000 		.4byte	0x83
 3586 05a6 02       		.uleb128 0x2
 3587 05a7 91       		.byte	0x91
 3588 05a8 6C       		.sleb128 -20
 3589 05a9 0B       		.uleb128 0xb
 3590 05aa 4E090000 		.4byte	.LASF21
 3591 05ae 01       		.byte	0x1
 3592 05af 3B06     		.2byte	0x63b
 3593 05b1 83000000 		.4byte	0x83
 3594 05b5 02       		.uleb128 0x2
 3595 05b6 91       		.byte	0x91
 3596 05b7 74       		.sleb128 -12
 3597 05b8 00       		.byte	0
 3598 05b9 11       		.uleb128 0x11
 3599 05ba F2010000 		.4byte	.LASF63
 3600 05be 01       		.byte	0x1
 3601 05bf 9606     		.2byte	0x696
 3602 05c1 00000000 		.4byte	.LFB57
 3603 05c5 78000000 		.4byte	.LFE57-.LFB57
 3604 05c9 01       		.uleb128 0x1
 3605 05ca 9C       		.byte	0x9c
 3606 05cb FD050000 		.4byte	0x5fd
 3607 05cf 0E       		.uleb128 0xe
 3608 05d0 3F060000 		.4byte	.LASF58
 3609 05d4 01       		.byte	0x1
 3610 05d5 9606     		.2byte	0x696
 3611 05d7 83000000 		.4byte	0x83
 3612 05db 02       		.uleb128 0x2
 3613 05dc 91       		.byte	0x91
 3614 05dd 6C       		.sleb128 -20
 3615 05de 0E       		.uleb128 0xe
 3616 05df 9A060000 		.4byte	.LASF59
 3617 05e3 01       		.byte	0x1
 3618 05e4 9606     		.2byte	0x696
 3619 05e6 83000000 		.4byte	0x83
 3620 05ea 02       		.uleb128 0x2
 3621 05eb 91       		.byte	0x91
 3622 05ec 68       		.sleb128 -24
 3623 05ed 0B       		.uleb128 0xb
 3624 05ee 4E090000 		.4byte	.LASF21
 3625 05f2 01       		.byte	0x1
 3626 05f3 9806     		.2byte	0x698
 3627 05f5 83000000 		.4byte	0x83
 3628 05f9 02       		.uleb128 0x2
 3629 05fa 91       		.byte	0x91
 3630 05fb 74       		.sleb128 -12
 3631 05fc 00       		.byte	0
 3632 05fd 11       		.uleb128 0x11
 3633 05fe 4A020000 		.4byte	.LASF64
 3634 0602 01       		.byte	0x1
 3635 0603 B906     		.2byte	0x6b9
 3636 0605 00000000 		.4byte	.LFB58
 3637 0609 30000000 		.4byte	.LFE58-.LFB58
 3638 060d 01       		.uleb128 0x1
 3639 060e 9C       		.byte	0x9c
 3640 060f 32060000 		.4byte	0x632
ARM GAS  C:\Users\poornima\AppData\Local\Temp\ccI9K5HH.s 			page 107


 3641 0613 0E       		.uleb128 0xe
 3642 0614 29070000 		.4byte	.LASF65
 3643 0618 01       		.byte	0x1
 3644 0619 B906     		.2byte	0x6b9
 3645 061b 83000000 		.4byte	0x83
 3646 061f 02       		.uleb128 0x2
 3647 0620 91       		.byte	0x91
 3648 0621 6C       		.sleb128 -20
 3649 0622 0B       		.uleb128 0xb
 3650 0623 4E090000 		.4byte	.LASF21
 3651 0627 01       		.byte	0x1
 3652 0628 BB06     		.2byte	0x6bb
 3653 062a 83000000 		.4byte	0x83
 3654 062e 02       		.uleb128 0x2
 3655 062f 91       		.byte	0x91
 3656 0630 74       		.sleb128 -12
 3657 0631 00       		.byte	0
 3658 0632 0F       		.uleb128 0xf
 3659 0633 2F070000 		.4byte	.LASF67
 3660 0637 01       		.byte	0x1
 3661 0638 DD06     		.2byte	0x6dd
 3662 063a 83000000 		.4byte	0x83
 3663 063e 00000000 		.4byte	.LFB59
 3664 0642 2C000000 		.4byte	.LFE59-.LFB59
 3665 0646 01       		.uleb128 0x1
 3666 0647 9C       		.byte	0x9c
 3667 0648 10       		.uleb128 0x10
 3668 0649 BE080000 		.4byte	.LASF68
 3669 064d 01       		.byte	0x1
 3670 064e F906     		.2byte	0x6f9
 3671 0650 83000000 		.4byte	0x83
 3672 0654 00000000 		.4byte	.LFB60
 3673 0658 44000000 		.4byte	.LFE60-.LFB60
 3674 065c 01       		.uleb128 0x1
 3675 065d 9C       		.byte	0x9c
 3676 065e 9F060000 		.4byte	0x69f
 3677 0662 0E       		.uleb128 0xe
 3678 0663 4B040000 		.4byte	.LASF69
 3679 0667 01       		.byte	0x1
 3680 0668 F906     		.2byte	0x6f9
 3681 066a D3000000 		.4byte	0xd3
 3682 066e 02       		.uleb128 0x2
 3683 066f 91       		.byte	0x91
 3684 0670 6C       		.sleb128 -20
 3685 0671 0E       		.uleb128 0xe
 3686 0672 7B090000 		.4byte	.LASF70
 3687 0676 01       		.byte	0x1
 3688 0677 F906     		.2byte	0x6f9
 3689 0679 83000000 		.4byte	0x83
 3690 067d 02       		.uleb128 0x2
 3691 067e 91       		.byte	0x91
 3692 067f 68       		.sleb128 -24
 3693 0680 0B       		.uleb128 0xb
 3694 0681 A4030000 		.4byte	.LASF71
 3695 0685 01       		.byte	0x1
 3696 0686 FB06     		.2byte	0x6fb
 3697 0688 83000000 		.4byte	0x83
ARM GAS  C:\Users\poornima\AppData\Local\Temp\ccI9K5HH.s 			page 108


 3698 068c 02       		.uleb128 0x2
 3699 068d 91       		.byte	0x91
 3700 068e 74       		.sleb128 -12
 3701 068f 0B       		.uleb128 0xb
 3702 0690 50080000 		.4byte	.LASF72
 3703 0694 01       		.byte	0x1
 3704 0695 FC06     		.2byte	0x6fc
 3705 0697 6B000000 		.4byte	0x6b
 3706 069b 02       		.uleb128 0x2
 3707 069c 91       		.byte	0x91
 3708 069d 73       		.sleb128 -13
 3709 069e 00       		.byte	0
 3710 069f 11       		.uleb128 0x11
 3711 06a0 A9080000 		.4byte	.LASF73
 3712 06a4 01       		.byte	0x1
 3713 06a5 2407     		.2byte	0x724
 3714 06a7 00000000 		.4byte	.LFB61
 3715 06ab 68000000 		.4byte	.LFE61-.LFB61
 3716 06af 01       		.uleb128 0x1
 3717 06b0 9C       		.byte	0x9c
 3718 06b1 01070000 		.4byte	0x701
 3719 06b5 0E       		.uleb128 0xe
 3720 06b6 4B040000 		.4byte	.LASF69
 3721 06ba 01       		.byte	0x1
 3722 06bb 2407     		.2byte	0x724
 3723 06bd CD000000 		.4byte	0xcd
 3724 06c1 02       		.uleb128 0x2
 3725 06c2 91       		.byte	0x91
 3726 06c3 6C       		.sleb128 -20
 3727 06c4 0E       		.uleb128 0xe
 3728 06c5 7B090000 		.4byte	.LASF70
 3729 06c9 01       		.byte	0x1
 3730 06ca 2407     		.2byte	0x724
 3731 06cc 83000000 		.4byte	0x83
 3732 06d0 02       		.uleb128 0x2
 3733 06d1 91       		.byte	0x91
 3734 06d2 68       		.sleb128 -24
 3735 06d3 0E       		.uleb128 0xe
 3736 06d4 EF020000 		.4byte	.LASF38
 3737 06d8 01       		.byte	0x1
 3738 06d9 2407     		.2byte	0x724
 3739 06db 83000000 		.4byte	0x83
 3740 06df 02       		.uleb128 0x2
 3741 06e0 91       		.byte	0x91
 3742 06e1 64       		.sleb128 -28
 3743 06e2 0B       		.uleb128 0xb
 3744 06e3 A4030000 		.4byte	.LASF71
 3745 06e7 01       		.byte	0x1
 3746 06e8 2607     		.2byte	0x726
 3747 06ea 83000000 		.4byte	0x83
 3748 06ee 02       		.uleb128 0x2
 3749 06ef 91       		.byte	0x91
 3750 06f0 74       		.sleb128 -12
 3751 06f1 0B       		.uleb128 0xb
 3752 06f2 50080000 		.4byte	.LASF72
 3753 06f6 01       		.byte	0x1
 3754 06f7 2707     		.2byte	0x727
ARM GAS  C:\Users\poornima\AppData\Local\Temp\ccI9K5HH.s 			page 109


 3755 06f9 6B000000 		.4byte	0x6b
 3756 06fd 02       		.uleb128 0x2
 3757 06fe 91       		.byte	0x91
 3758 06ff 73       		.sleb128 -13
 3759 0700 00       		.byte	0
 3760 0701 10       		.uleb128 0x10
 3761 0702 1C060000 		.4byte	.LASF74
 3762 0706 01       		.byte	0x1
 3763 0707 5607     		.2byte	0x756
 3764 0709 83000000 		.4byte	0x83
 3765 070d 00000000 		.4byte	.LFB62
 3766 0711 1C000000 		.4byte	.LFE62-.LFB62
 3767 0715 01       		.uleb128 0x1
 3768 0716 9C       		.byte	0x9c
 3769 0717 2B070000 		.4byte	0x72b
 3770 071b 0E       		.uleb128 0xe
 3771 071c 2C040000 		.4byte	.LASF28
 3772 0720 01       		.byte	0x1
 3773 0721 5607     		.2byte	0x756
 3774 0723 83000000 		.4byte	0x83
 3775 0727 02       		.uleb128 0x2
 3776 0728 91       		.byte	0x91
 3777 0729 74       		.sleb128 -12
 3778 072a 00       		.byte	0
 3779 072b 11       		.uleb128 0x11
 3780 072c E5000000 		.4byte	.LASF75
 3781 0730 01       		.byte	0x1
 3782 0731 7507     		.2byte	0x775
 3783 0733 00000000 		.4byte	.LFB63
 3784 0737 24000000 		.4byte	.LFE63-.LFB63
 3785 073b 01       		.uleb128 0x1
 3786 073c 9C       		.byte	0x9c
 3787 073d 60070000 		.4byte	0x760
 3788 0741 0E       		.uleb128 0xe
 3789 0742 2C040000 		.4byte	.LASF28
 3790 0746 01       		.byte	0x1
 3791 0747 7507     		.2byte	0x775
 3792 0749 83000000 		.4byte	0x83
 3793 074d 02       		.uleb128 0x2
 3794 074e 91       		.byte	0x91
 3795 074f 74       		.sleb128 -12
 3796 0750 0E       		.uleb128 0xe
 3797 0751 F4060000 		.4byte	.LASF76
 3798 0755 01       		.byte	0x1
 3799 0756 7507     		.2byte	0x775
 3800 0758 83000000 		.4byte	0x83
 3801 075c 02       		.uleb128 0x2
 3802 075d 91       		.byte	0x91
 3803 075e 70       		.sleb128 -16
 3804 075f 00       		.byte	0
 3805 0760 10       		.uleb128 0x10
 3806 0761 B0070000 		.4byte	.LASF77
 3807 0765 01       		.byte	0x1
 3808 0766 9507     		.2byte	0x795
 3809 0768 83000000 		.4byte	0x83
 3810 076c 00000000 		.4byte	.LFB64
 3811 0770 1C000000 		.4byte	.LFE64-.LFB64
ARM GAS  C:\Users\poornima\AppData\Local\Temp\ccI9K5HH.s 			page 110


 3812 0774 01       		.uleb128 0x1
 3813 0775 9C       		.byte	0x9c
 3814 0776 8A070000 		.4byte	0x78a
 3815 077a 0E       		.uleb128 0xe
 3816 077b 2C040000 		.4byte	.LASF28
 3817 077f 01       		.byte	0x1
 3818 0780 9507     		.2byte	0x795
 3819 0782 83000000 		.4byte	0x83
 3820 0786 02       		.uleb128 0x2
 3821 0787 91       		.byte	0x91
 3822 0788 74       		.sleb128 -12
 3823 0789 00       		.byte	0
 3824 078a 11       		.uleb128 0x11
 3825 078b DD050000 		.4byte	.LASF78
 3826 078f 01       		.byte	0x1
 3827 0790 B407     		.2byte	0x7b4
 3828 0792 00000000 		.4byte	.LFB65
 3829 0796 24000000 		.4byte	.LFE65-.LFB65
 3830 079a 01       		.uleb128 0x1
 3831 079b 9C       		.byte	0x9c
 3832 079c BF070000 		.4byte	0x7bf
 3833 07a0 0E       		.uleb128 0xe
 3834 07a1 2C040000 		.4byte	.LASF28
 3835 07a5 01       		.byte	0x1
 3836 07a6 B407     		.2byte	0x7b4
 3837 07a8 83000000 		.4byte	0x83
 3838 07ac 02       		.uleb128 0x2
 3839 07ad 91       		.byte	0x91
 3840 07ae 74       		.sleb128 -12
 3841 07af 0E       		.uleb128 0xe
 3842 07b0 E2020000 		.4byte	.LASF79
 3843 07b4 01       		.byte	0x1
 3844 07b5 B407     		.2byte	0x7b4
 3845 07b7 83000000 		.4byte	0x83
 3846 07bb 02       		.uleb128 0x2
 3847 07bc 91       		.byte	0x91
 3848 07bd 70       		.sleb128 -16
 3849 07be 00       		.byte	0
 3850 07bf 10       		.uleb128 0x10
 3851 07c0 0C090000 		.4byte	.LASF80
 3852 07c4 01       		.byte	0x1
 3853 07c5 D307     		.2byte	0x7d3
 3854 07c7 83000000 		.4byte	0x83
 3855 07cb 00000000 		.4byte	.LFB66
 3856 07cf 1C000000 		.4byte	.LFE66-.LFB66
 3857 07d3 01       		.uleb128 0x1
 3858 07d4 9C       		.byte	0x9c
 3859 07d5 E9070000 		.4byte	0x7e9
 3860 07d9 0E       		.uleb128 0xe
 3861 07da 2C040000 		.4byte	.LASF28
 3862 07de 01       		.byte	0x1
 3863 07df D307     		.2byte	0x7d3
 3864 07e1 83000000 		.4byte	0x83
 3865 07e5 02       		.uleb128 0x2
 3866 07e6 91       		.byte	0x91
 3867 07e7 74       		.sleb128 -12
 3868 07e8 00       		.byte	0
ARM GAS  C:\Users\poornima\AppData\Local\Temp\ccI9K5HH.s 			page 111


 3869 07e9 11       		.uleb128 0x11
 3870 07ea 8E080000 		.4byte	.LASF81
 3871 07ee 01       		.byte	0x1
 3872 07ef EE07     		.2byte	0x7ee
 3873 07f1 00000000 		.4byte	.LFB67
 3874 07f5 24000000 		.4byte	.LFE67-.LFB67
 3875 07f9 01       		.uleb128 0x1
 3876 07fa 9C       		.byte	0x9c
 3877 07fb 1E080000 		.4byte	0x81e
 3878 07ff 0E       		.uleb128 0xe
 3879 0800 2C040000 		.4byte	.LASF28
 3880 0804 01       		.byte	0x1
 3881 0805 EE07     		.2byte	0x7ee
 3882 0807 83000000 		.4byte	0x83
 3883 080b 02       		.uleb128 0x2
 3884 080c 91       		.byte	0x91
 3885 080d 74       		.sleb128 -12
 3886 080e 0E       		.uleb128 0xe
 3887 080f 23080000 		.4byte	.LASF82
 3888 0813 01       		.byte	0x1
 3889 0814 EE07     		.2byte	0x7ee
 3890 0816 83000000 		.4byte	0x83
 3891 081a 02       		.uleb128 0x2
 3892 081b 91       		.byte	0x91
 3893 081c 70       		.sleb128 -16
 3894 081d 00       		.byte	0
 3895 081e 10       		.uleb128 0x10
 3896 081f D3080000 		.4byte	.LASF83
 3897 0823 01       		.byte	0x1
 3898 0824 0B08     		.2byte	0x80b
 3899 0826 83000000 		.4byte	0x83
 3900 082a 00000000 		.4byte	.LFB68
 3901 082e 1C000000 		.4byte	.LFE68-.LFB68
 3902 0832 01       		.uleb128 0x1
 3903 0833 9C       		.byte	0x9c
 3904 0834 48080000 		.4byte	0x848
 3905 0838 0E       		.uleb128 0xe
 3906 0839 2C040000 		.4byte	.LASF28
 3907 083d 01       		.byte	0x1
 3908 083e 0B08     		.2byte	0x80b
 3909 0840 83000000 		.4byte	0x83
 3910 0844 02       		.uleb128 0x2
 3911 0845 91       		.byte	0x91
 3912 0846 74       		.sleb128 -12
 3913 0847 00       		.byte	0
 3914 0848 11       		.uleb128 0x11
 3915 0849 25010000 		.4byte	.LASF84
 3916 084d 01       		.byte	0x1
 3917 084e 2808     		.2byte	0x828
 3918 0850 00000000 		.4byte	.LFB69
 3919 0854 24000000 		.4byte	.LFE69-.LFB69
 3920 0858 01       		.uleb128 0x1
 3921 0859 9C       		.byte	0x9c
 3922 085a 7D080000 		.4byte	0x87d
 3923 085e 0E       		.uleb128 0xe
 3924 085f 2C040000 		.4byte	.LASF28
 3925 0863 01       		.byte	0x1
ARM GAS  C:\Users\poornima\AppData\Local\Temp\ccI9K5HH.s 			page 112


 3926 0864 2808     		.2byte	0x828
 3927 0866 83000000 		.4byte	0x83
 3928 086a 02       		.uleb128 0x2
 3929 086b 91       		.byte	0x91
 3930 086c 74       		.sleb128 -12
 3931 086d 0E       		.uleb128 0xe
 3932 086e 15080000 		.4byte	.LASF85
 3933 0872 01       		.byte	0x1
 3934 0873 2808     		.2byte	0x828
 3935 0875 83000000 		.4byte	0x83
 3936 0879 02       		.uleb128 0x2
 3937 087a 91       		.byte	0x91
 3938 087b 70       		.sleb128 -16
 3939 087c 00       		.byte	0
 3940 087d 0F       		.uleb128 0xf
 3941 087e B3040000 		.4byte	.LASF86
 3942 0882 01       		.byte	0x1
 3943 0883 4508     		.2byte	0x845
 3944 0885 83000000 		.4byte	0x83
 3945 0889 00000000 		.4byte	.LFB70
 3946 088d 20000000 		.4byte	.LFE70-.LFB70
 3947 0891 01       		.uleb128 0x1
 3948 0892 9C       		.byte	0x9c
 3949 0893 11       		.uleb128 0x11
 3950 0894 84060000 		.4byte	.LASF87
 3951 0898 01       		.byte	0x1
 3952 0899 6308     		.2byte	0x863
 3953 089b 00000000 		.4byte	.LFB71
 3954 089f 3C000000 		.4byte	.LFE71-.LFB71
 3955 08a3 01       		.uleb128 0x1
 3956 08a4 9C       		.byte	0x9c
 3957 08a5 B9080000 		.4byte	0x8b9
 3958 08a9 0E       		.uleb128 0xe
 3959 08aa EA070000 		.4byte	.LASF88
 3960 08ae 01       		.byte	0x1
 3961 08af 6308     		.2byte	0x863
 3962 08b1 83000000 		.4byte	0x83
 3963 08b5 02       		.uleb128 0x2
 3964 08b6 91       		.byte	0x91
 3965 08b7 74       		.sleb128 -12
 3966 08b8 00       		.byte	0
 3967 08b9 0D       		.uleb128 0xd
 3968 08ba B2060000 		.4byte	.LASF89
 3969 08be 01       		.byte	0x1
 3970 08bf 8B08     		.2byte	0x88b
 3971 08c1 77000000 		.4byte	0x77
 3972 08c5 00000000 		.4byte	.LFB72
 3973 08c9 50000000 		.4byte	.LFE72-.LFB72
 3974 08cd 01       		.uleb128 0x1
 3975 08ce 9C       		.byte	0x9c
 3976 08cf 01090000 		.4byte	0x901
 3977 08d3 0E       		.uleb128 0xe
 3978 08d4 2C040000 		.4byte	.LASF28
 3979 08d8 01       		.byte	0x1
 3980 08d9 8B08     		.2byte	0x88b
 3981 08db 83000000 		.4byte	0x83
 3982 08df 02       		.uleb128 0x2
ARM GAS  C:\Users\poornima\AppData\Local\Temp\ccI9K5HH.s 			page 113


 3983 08e0 91       		.byte	0x91
 3984 08e1 6C       		.sleb128 -20
 3985 08e2 0B       		.uleb128 0xb
 3986 08e3 22040000 		.4byte	.LASF90
 3987 08e7 01       		.byte	0x1
 3988 08e8 8D08     		.2byte	0x88d
 3989 08ea 83000000 		.4byte	0x83
 3990 08ee 02       		.uleb128 0x2
 3991 08ef 91       		.byte	0x91
 3992 08f0 74       		.sleb128 -12
 3993 08f1 0B       		.uleb128 0xb
 3994 08f2 01010000 		.4byte	.LASF91
 3995 08f6 01       		.byte	0x1
 3996 08f7 8E08     		.2byte	0x88e
 3997 08f9 83000000 		.4byte	0x83
 3998 08fd 02       		.uleb128 0x2
 3999 08fe 91       		.byte	0x91
 4000 08ff 70       		.sleb128 -16
 4001 0900 00       		.byte	0
 4002 0901 11       		.uleb128 0x11
 4003 0902 8F070000 		.4byte	.LASF92
 4004 0906 01       		.byte	0x1
 4005 0907 F508     		.2byte	0x8f5
 4006 0909 00000000 		.4byte	.LFB73
 4007 090d 24000000 		.4byte	.LFE73-.LFB73
 4008 0911 01       		.uleb128 0x1
 4009 0912 9C       		.byte	0x9c
 4010 0913 36090000 		.4byte	0x936
 4011 0917 0E       		.uleb128 0xe
 4012 0918 2C040000 		.4byte	.LASF28
 4013 091c 01       		.byte	0x1
 4014 091d F508     		.2byte	0x8f5
 4015 091f 83000000 		.4byte	0x83
 4016 0923 02       		.uleb128 0x2
 4017 0924 91       		.byte	0x91
 4018 0925 74       		.sleb128 -12
 4019 0926 0E       		.uleb128 0xe
 4020 0927 4A030000 		.4byte	.LASF51
 4021 092b 01       		.byte	0x1
 4022 092c F508     		.2byte	0x8f5
 4023 092e 83000000 		.4byte	0x83
 4024 0932 02       		.uleb128 0x2
 4025 0933 91       		.byte	0x91
 4026 0934 70       		.sleb128 -16
 4027 0935 00       		.byte	0
 4028 0936 11       		.uleb128 0x11
 4029 0937 C8020000 		.4byte	.LASF93
 4030 093b 01       		.byte	0x1
 4031 093c 2C09     		.2byte	0x92c
 4032 093e 00000000 		.4byte	.LFB74
 4033 0942 9C000000 		.4byte	.LFE74-.LFB74
 4034 0946 01       		.uleb128 0x1
 4035 0947 9C       		.byte	0x9c
 4036 0948 B6090000 		.4byte	0x9b6
 4037 094c 0E       		.uleb128 0xe
 4038 094d A9000000 		.4byte	.LASF94
 4039 0951 01       		.byte	0x1
ARM GAS  C:\Users\poornima\AppData\Local\Temp\ccI9K5HH.s 			page 114


 4040 0952 2C09     		.2byte	0x92c
 4041 0954 83000000 		.4byte	0x83
 4042 0958 02       		.uleb128 0x2
 4043 0959 91       		.byte	0x91
 4044 095a 5C       		.sleb128 -36
 4045 095b 0E       		.uleb128 0xe
 4046 095c 33090000 		.4byte	.LASF95
 4047 0960 01       		.byte	0x1
 4048 0961 2C09     		.2byte	0x92c
 4049 0963 CD000000 		.4byte	0xcd
 4050 0967 02       		.uleb128 0x2
 4051 0968 91       		.byte	0x91
 4052 0969 58       		.sleb128 -40
 4053 096a 0B       		.uleb128 0xb
 4054 096b 2B050000 		.4byte	.LASF96
 4055 096f 01       		.byte	0x1
 4056 0970 2E09     		.2byte	0x92e
 4057 0972 83000000 		.4byte	0x83
 4058 0976 02       		.uleb128 0x2
 4059 0977 91       		.byte	0x91
 4060 0978 74       		.sleb128 -12
 4061 0979 0B       		.uleb128 0xb
 4062 097a 07080000 		.4byte	.LASF97
 4063 097e 01       		.byte	0x1
 4064 097f 2F09     		.2byte	0x92f
 4065 0981 83000000 		.4byte	0x83
 4066 0985 02       		.uleb128 0x2
 4067 0986 91       		.byte	0x91
 4068 0987 70       		.sleb128 -16
 4069 0988 0B       		.uleb128 0xb
 4070 0989 52060000 		.4byte	.LASF32
 4071 098d 01       		.byte	0x1
 4072 098e 3009     		.2byte	0x930
 4073 0990 83000000 		.4byte	0x83
 4074 0994 02       		.uleb128 0x2
 4075 0995 91       		.byte	0x91
 4076 0996 64       		.sleb128 -28
 4077 0997 0B       		.uleb128 0xb
 4078 0998 E7030000 		.4byte	.LASF31
 4079 099c 01       		.byte	0x1
 4080 099d 3109     		.2byte	0x931
 4081 099f 83000000 		.4byte	0x83
 4082 09a3 02       		.uleb128 0x2
 4083 09a4 91       		.byte	0x91
 4084 09a5 68       		.sleb128 -24
 4085 09a6 0B       		.uleb128 0xb
 4086 09a7 A5060000 		.4byte	.LASF98
 4087 09ab 01       		.byte	0x1
 4088 09ac 3209     		.2byte	0x932
 4089 09ae 83000000 		.4byte	0x83
 4090 09b2 02       		.uleb128 0x2
 4091 09b3 91       		.byte	0x91
 4092 09b4 6C       		.sleb128 -20
 4093 09b5 00       		.byte	0
 4094 09b6 12       		.uleb128 0x12
 4095 09b7 F0080000 		.4byte	.LASF99
 4096 09bb 01       		.byte	0x1
ARM GAS  C:\Users\poornima\AppData\Local\Temp\ccI9K5HH.s 			page 115


 4097 09bc 24       		.byte	0x24
 4098 09bd 6B000000 		.4byte	0x6b
 4099 09c1 05       		.uleb128 0x5
 4100 09c2 03       		.byte	0x3
 4101 09c3 00000000 		.4byte	CapSense_lowLevelTuningDone
 4102 09c7 13       		.uleb128 0x13
 4103 09c8 6B000000 		.4byte	0x6b
 4104 09cc D7090000 		.4byte	0x9d7
 4105 09d0 14       		.uleb128 0x14
 4106 09d1 C6000000 		.4byte	0xc6
 4107 09d5 01       		.byte	0x1
 4108 09d6 00       		.byte	0
 4109 09d7 12       		.uleb128 0x12
 4110 09d8 00000000 		.4byte	.LASF100
 4111 09dc 01       		.byte	0x1
 4112 09dd 25       		.byte	0x25
 4113 09de C7090000 		.4byte	0x9c7
 4114 09e2 05       		.uleb128 0x5
 4115 09e3 03       		.byte	0x3
 4116 09e4 00000000 		.4byte	CapSense_scanSpeedTbl
 4117 09e8 12       		.uleb128 0x12
 4118 09e9 D6060000 		.4byte	.LASF101
 4119 09ed 01       		.byte	0x1
 4120 09ee 29       		.byte	0x29
 4121 09ef 6B000000 		.4byte	0x6b
 4122 09f3 05       		.uleb128 0x5
 4123 09f4 03       		.byte	0x3
 4124 09f5 00000000 		.4byte	CapSense_prescalersTuningDone
 4125 09f9 12       		.uleb128 0x12
 4126 09fa 28000000 		.4byte	.LASF102
 4127 09fe 01       		.byte	0x1
 4128 09ff 2D       		.byte	0x2d
 4129 0a00 B0000000 		.4byte	0xb0
 4130 0a04 05       		.uleb128 0x5
 4131 0a05 03       		.byte	0x3
 4132 0a06 00000000 		.4byte	CapSense_csdStatusVar
 4133 0a0a 12       		.uleb128 0x12
 4134 0a0b 2E020000 		.4byte	.LASF103
 4135 0a0f 01       		.byte	0x1
 4136 0a10 2E       		.byte	0x2e
 4137 0a11 B0000000 		.4byte	0xb0
 4138 0a15 05       		.uleb128 0x5
 4139 0a16 03       		.byte	0x3
 4140 0a17 00000000 		.4byte	CapSense_sensorIndex
 4141 0a1b 13       		.uleb128 0x13
 4142 0a1c 77000000 		.4byte	0x77
 4143 0a20 2B0A0000 		.4byte	0xa2b
 4144 0a24 14       		.uleb128 0x14
 4145 0a25 C6000000 		.4byte	0xc6
 4146 0a29 0F       		.byte	0xf
 4147 0a2a 00       		.byte	0
 4148 0a2b 12       		.uleb128 0x12
 4149 0a2c 33040000 		.4byte	.LASF104
 4150 0a30 01       		.byte	0x1
 4151 0a31 31       		.byte	0x31
 4152 0a32 1B0A0000 		.4byte	0xa1b
 4153 0a36 05       		.uleb128 0x5
ARM GAS  C:\Users\poornima\AppData\Local\Temp\ccI9K5HH.s 			page 116


 4154 0a37 03       		.byte	0x3
 4155 0a38 00000000 		.4byte	CapSense_sensorRaw
 4156 0a3c 13       		.uleb128 0x13
 4157 0a3d 6B000000 		.4byte	0x6b
 4158 0a41 4C0A0000 		.4byte	0xa4c
 4159 0a45 14       		.uleb128 0x14
 4160 0a46 C6000000 		.4byte	0xc6
 4161 0a4a 0F       		.byte	0xf
 4162 0a4b 00       		.byte	0
 4163 0a4c 12       		.uleb128 0x12
 4164 0a4d FD050000 		.4byte	.LASF105
 4165 0a51 01       		.byte	0x1
 4166 0a52 3B       		.byte	0x3b
 4167 0a53 3C0A0000 		.4byte	0xa3c
 4168 0a57 05       		.uleb128 0x5
 4169 0a58 03       		.byte	0x3
 4170 0a59 00000000 		.4byte	CapSense_unscannedSnsDriveMode
 4171 0a5d 12       		.uleb128 0x12
 4172 0a5e 6F070000 		.4byte	.LASF106
 4173 0a62 01       		.byte	0x1
 4174 0a63 3E       		.byte	0x3e
 4175 0a64 C7090000 		.4byte	0x9c7
 4176 0a68 05       		.uleb128 0x5
 4177 0a69 03       		.byte	0x3
 4178 0a6a 00000000 		.4byte	CapSense_sensorEnableMaskBackup
 4179 0a6e 12       		.uleb128 0x12
 4180 0a6f D0070000 		.4byte	.LASF107
 4181 0a73 01       		.byte	0x1
 4182 0a74 41       		.byte	0x41
 4183 0a75 C7090000 		.4byte	0x9c7
 4184 0a79 05       		.uleb128 0x5
 4185 0a7a 03       		.byte	0x3
 4186 0a7b 00000000 		.4byte	CapSense_sensorEnableMask
 4187 0a7f 12       		.uleb128 0x12
 4188 0a80 E5040000 		.4byte	.LASF108
 4189 0a84 01       		.byte	0x1
 4190 0a85 90       		.byte	0x90
 4191 0a86 3C0A0000 		.4byte	0xa3c
 4192 0a8a 05       		.uleb128 0x5
 4193 0a8b 03       		.byte	0x3
 4194 0a8c 00000000 		.4byte	CapSense_modulationIDAC
 4195 0a90 12       		.uleb128 0x12
 4196 0a91 3E000000 		.4byte	.LASF109
 4197 0a95 01       		.byte	0x1
 4198 0a96 91       		.byte	0x91
 4199 0a97 3C0A0000 		.4byte	0xa3c
 4200 0a9b 05       		.uleb128 0x5
 4201 0a9c 03       		.byte	0x3
 4202 0a9d 00000000 		.4byte	CapSense_compensationIDAC
 4203 0aa1 13       		.uleb128 0x13
 4204 0aa2 83000000 		.4byte	0x83
 4205 0aa6 B10A0000 		.4byte	0xab1
 4206 0aaa 14       		.uleb128 0x14
 4207 0aab C6000000 		.4byte	0xc6
 4208 0aaf 07       		.byte	0x7
 4209 0ab0 00       		.byte	0
 4210 0ab1 12       		.uleb128 0x12
ARM GAS  C:\Users\poornima\AppData\Local\Temp\ccI9K5HH.s 			page 117


 4211 0ab2 8C040000 		.4byte	.LASF110
 4212 0ab6 01       		.byte	0x1
 4213 0ab7 93       		.byte	0x93
 4214 0ab8 A10A0000 		.4byte	0xaa1
 4215 0abc 05       		.uleb128 0x5
 4216 0abd 03       		.byte	0x3
 4217 0abe 00000000 		.4byte	CapSense_widgetResolution
 4218 0ac2 12       		.uleb128 0x12
 4219 0ac3 1E030000 		.4byte	.LASF111
 4220 0ac7 01       		.byte	0x1
 4221 0ac8 9E       		.byte	0x9e
 4222 0ac9 3C0A0000 		.4byte	0xa3c
 4223 0acd 05       		.uleb128 0x5
 4224 0ace 03       		.byte	0x3
 4225 0acf 00000000 		.4byte	CapSense_senseClkDividerVal
 4226 0ad3 12       		.uleb128 0x12
 4227 0ad4 78000000 		.4byte	.LASF112
 4228 0ad8 01       		.byte	0x1
 4229 0ad9 9F       		.byte	0x9f
 4230 0ada 3C0A0000 		.4byte	0xa3c
 4231 0ade 05       		.uleb128 0x5
 4232 0adf 03       		.byte	0x3
 4233 0ae0 00000000 		.4byte	CapSense_sampleClkDividerVal
 4234 0ae4 12       		.uleb128 0x12
 4235 0ae5 62020000 		.4byte	.LASF113
 4236 0ae9 01       		.byte	0x1
 4237 0aea A1       		.byte	0xa1
 4238 0aeb F50A0000 		.4byte	0xaf5
 4239 0aef 05       		.uleb128 0x5
 4240 0af0 03       		.byte	0x3
 4241 0af1 00000000 		.4byte	CapSense_widgetNumber
 4242 0af5 07       		.uleb128 0x7
 4243 0af6 3C0A0000 		.4byte	0xa3c
 4244 0afa 13       		.uleb128 0x13
 4245 0afb 0A0B0000 		.4byte	0xb0a
 4246 0aff 0A0B0000 		.4byte	0xb0a
 4247 0b03 14       		.uleb128 0x14
 4248 0b04 C6000000 		.4byte	0xc6
 4249 0b08 07       		.byte	0x7
 4250 0b09 00       		.byte	0
 4251 0b0a 06       		.uleb128 0x6
 4252 0b0b 04       		.byte	0x4
 4253 0b0c 100B0000 		.4byte	0xb10
 4254 0b10 05       		.uleb128 0x5
 4255 0b11 48000000 		.4byte	0x48
 4256 0b15 12       		.uleb128 0x12
 4257 0b16 B7010000 		.4byte	.LASF114
 4258 0b1a 01       		.byte	0x1
 4259 0b1b AC       		.byte	0xac
 4260 0b1c 260B0000 		.4byte	0xb26
 4261 0b20 05       		.uleb128 0x5
 4262 0b21 03       		.byte	0x3
 4263 0b22 00000000 		.4byte	CapSense_prtSelTbl
 4264 0b26 07       		.uleb128 0x7
 4265 0b27 FA0A0000 		.4byte	0xafa
 4266 0b2b 12       		.uleb128 0x12
 4267 0b2c 78020000 		.4byte	.LASF115
ARM GAS  C:\Users\poornima\AppData\Local\Temp\ccI9K5HH.s 			page 118


 4268 0b30 01       		.byte	0x1
 4269 0b31 B7       		.byte	0xb7
 4270 0b32 3C0B0000 		.4byte	0xb3c
 4271 0b36 05       		.uleb128 0x5
 4272 0b37 03       		.byte	0x3
 4273 0b38 00000000 		.4byte	CapSense_prtCfgTbl
 4274 0b3c 07       		.uleb128 0x7
 4275 0b3d FA0A0000 		.4byte	0xafa
 4276 0b41 12       		.uleb128 0x12
 4277 0b42 E0010000 		.4byte	.LASF116
 4278 0b46 01       		.byte	0x1
 4279 0b47 C2       		.byte	0xc2
 4280 0b48 520B0000 		.4byte	0xb52
 4281 0b4c 05       		.uleb128 0x5
 4282 0b4d 03       		.byte	0x3
 4283 0b4e 00000000 		.4byte	CapSense_prtDRTbl
 4284 0b52 07       		.uleb128 0x7
 4285 0b53 FA0A0000 		.4byte	0xafa
 4286 0b57 13       		.uleb128 0x13
 4287 0b58 0A0B0000 		.4byte	0xb0a
 4288 0b5c 670B0000 		.4byte	0xb67
 4289 0b60 14       		.uleb128 0x14
 4290 0b61 C6000000 		.4byte	0xc6
 4291 0b65 0F       		.byte	0xf
 4292 0b66 00       		.byte	0
 4293 0b67 12       		.uleb128 0x12
 4294 0b68 69040000 		.4byte	.LASF117
 4295 0b6c 01       		.byte	0x1
 4296 0b6d 44       		.byte	0x44
 4297 0b6e 570B0000 		.4byte	0xb57
 4298 0b72 05       		.uleb128 0x5
 4299 0b73 03       		.byte	0x3
 4300 0b74 00000000 		.4byte	CapSense_pcTable
 4301 0b78 12       		.uleb128 0x12
 4302 0b79 F4070000 		.4byte	.LASF118
 4303 0b7d 01       		.byte	0x1
 4304 0b7e 57       		.byte	0x57
 4305 0b7f 890B0000 		.4byte	0xb89
 4306 0b83 05       		.uleb128 0x5
 4307 0b84 03       		.byte	0x3
 4308 0b85 00000000 		.4byte	CapSense_portTable
 4309 0b89 07       		.uleb128 0x7
 4310 0b8a 3C0A0000 		.4byte	0xa3c
 4311 0b8e 13       		.uleb128 0x13
 4312 0b8f 83000000 		.4byte	0x83
 4313 0b93 9E0B0000 		.4byte	0xb9e
 4314 0b97 14       		.uleb128 0x14
 4315 0b98 C6000000 		.4byte	0xc6
 4316 0b9c 0F       		.byte	0xf
 4317 0b9d 00       		.byte	0
 4318 0b9e 12       		.uleb128 0x12
 4319 0b9f 58000000 		.4byte	.LASF119
 4320 0ba3 01       		.byte	0x1
 4321 0ba4 6A       		.byte	0x6a
 4322 0ba5 AF0B0000 		.4byte	0xbaf
 4323 0ba9 05       		.uleb128 0x5
 4324 0baa 03       		.byte	0x3
ARM GAS  C:\Users\poornima\AppData\Local\Temp\ccI9K5HH.s 			page 119


 4325 0bab 00000000 		.4byte	CapSense_maskTable
 4326 0baf 07       		.uleb128 0x7
 4327 0bb0 8E0B0000 		.4byte	0xb8e
 4328 0bb4 12       		.uleb128 0x12
 4329 0bb5 16050000 		.4byte	.LASF120
 4330 0bb9 01       		.byte	0x1
 4331 0bba 7D       		.byte	0x7d
 4332 0bbb C50B0000 		.4byte	0xbc5
 4333 0bbf 05       		.uleb128 0x5
 4334 0bc0 03       		.byte	0x3
 4335 0bc1 00000000 		.4byte	CapSense_pinShiftTbl
 4336 0bc5 07       		.uleb128 0x7
 4337 0bc6 3C0A0000 		.4byte	0xa3c
 4338 0bca 13       		.uleb128 0x13
 4339 0bcb 6B000000 		.4byte	0x6b
 4340 0bcf DA0B0000 		.4byte	0xbda
 4341 0bd3 14       		.uleb128 0x14
 4342 0bd4 C6000000 		.4byte	0xc6
 4343 0bd8 07       		.byte	0x7
 4344 0bd9 00       		.byte	0
 4345 0bda 15       		.uleb128 0x15
 4346 0bdb 42010000 		.4byte	.LASF121
 4347 0bdf 03       		.byte	0x3
 4348 0be0 4101     		.2byte	0x141
 4349 0be2 E60B0000 		.4byte	0xbe6
 4350 0be6 07       		.uleb128 0x7
 4351 0be7 CA0B0000 		.4byte	0xbca
 4352 0beb 15       		.uleb128 0x15
 4353 0bec 09040000 		.4byte	.LASF122
 4354 0bf0 03       		.byte	0x3
 4355 0bf1 4201     		.2byte	0x142
 4356 0bf3 F70B0000 		.4byte	0xbf7
 4357 0bf7 07       		.uleb128 0x7
 4358 0bf8 CA0B0000 		.4byte	0xbca
 4359 0bfc 12       		.uleb128 0x12
 4360 0bfd 97010000 		.4byte	.LASF123
 4361 0c01 01       		.byte	0x1
 4362 0c02 37       		.byte	0x37
 4363 0c03 6B000000 		.4byte	0x6b
 4364 0c07 05       		.uleb128 0x5
 4365 0c08 03       		.byte	0x3
 4366 0c09 00000000 		.4byte	CapSense_csdTrim1
 4367 0c0d 00       		.byte	0
 4368              		.section	.debug_abbrev,"",%progbits
 4369              	.Ldebug_abbrev0:
 4370 0000 01       		.uleb128 0x1
 4371 0001 11       		.uleb128 0x11
 4372 0002 01       		.byte	0x1
 4373 0003 25       		.uleb128 0x25
 4374 0004 0E       		.uleb128 0xe
 4375 0005 13       		.uleb128 0x13
 4376 0006 0B       		.uleb128 0xb
 4377 0007 03       		.uleb128 0x3
 4378 0008 0E       		.uleb128 0xe
 4379 0009 1B       		.uleb128 0x1b
 4380 000a 0E       		.uleb128 0xe
 4381 000b 55       		.uleb128 0x55
ARM GAS  C:\Users\poornima\AppData\Local\Temp\ccI9K5HH.s 			page 120


 4382 000c 17       		.uleb128 0x17
 4383 000d 11       		.uleb128 0x11
 4384 000e 01       		.uleb128 0x1
 4385 000f 10       		.uleb128 0x10
 4386 0010 17       		.uleb128 0x17
 4387 0011 00       		.byte	0
 4388 0012 00       		.byte	0
 4389 0013 02       		.uleb128 0x2
 4390 0014 24       		.uleb128 0x24
 4391 0015 00       		.byte	0
 4392 0016 0B       		.uleb128 0xb
 4393 0017 0B       		.uleb128 0xb
 4394 0018 3E       		.uleb128 0x3e
 4395 0019 0B       		.uleb128 0xb
 4396 001a 03       		.uleb128 0x3
 4397 001b 0E       		.uleb128 0xe
 4398 001c 00       		.byte	0
 4399 001d 00       		.byte	0
 4400 001e 03       		.uleb128 0x3
 4401 001f 24       		.uleb128 0x24
 4402 0020 00       		.byte	0
 4403 0021 0B       		.uleb128 0xb
 4404 0022 0B       		.uleb128 0xb
 4405 0023 3E       		.uleb128 0x3e
 4406 0024 0B       		.uleb128 0xb
 4407 0025 03       		.uleb128 0x3
 4408 0026 08       		.uleb128 0x8
 4409 0027 00       		.byte	0
 4410 0028 00       		.byte	0
 4411 0029 04       		.uleb128 0x4
 4412 002a 16       		.uleb128 0x16
 4413 002b 00       		.byte	0
 4414 002c 03       		.uleb128 0x3
 4415 002d 0E       		.uleb128 0xe
 4416 002e 3A       		.uleb128 0x3a
 4417 002f 0B       		.uleb128 0xb
 4418 0030 3B       		.uleb128 0x3b
 4419 0031 05       		.uleb128 0x5
 4420 0032 49       		.uleb128 0x49
 4421 0033 13       		.uleb128 0x13
 4422 0034 00       		.byte	0
 4423 0035 00       		.byte	0
 4424 0036 05       		.uleb128 0x5
 4425 0037 35       		.uleb128 0x35
 4426 0038 00       		.byte	0
 4427 0039 49       		.uleb128 0x49
 4428 003a 13       		.uleb128 0x13
 4429 003b 00       		.byte	0
 4430 003c 00       		.byte	0
 4431 003d 06       		.uleb128 0x6
 4432 003e 0F       		.uleb128 0xf
 4433 003f 00       		.byte	0
 4434 0040 0B       		.uleb128 0xb
 4435 0041 0B       		.uleb128 0xb
 4436 0042 49       		.uleb128 0x49
 4437 0043 13       		.uleb128 0x13
 4438 0044 00       		.byte	0
ARM GAS  C:\Users\poornima\AppData\Local\Temp\ccI9K5HH.s 			page 121


 4439 0045 00       		.byte	0
 4440 0046 07       		.uleb128 0x7
 4441 0047 26       		.uleb128 0x26
 4442 0048 00       		.byte	0
 4443 0049 49       		.uleb128 0x49
 4444 004a 13       		.uleb128 0x13
 4445 004b 00       		.byte	0
 4446 004c 00       		.byte	0
 4447 004d 08       		.uleb128 0x8
 4448 004e 2E       		.uleb128 0x2e
 4449 004f 01       		.byte	0x1
 4450 0050 3F       		.uleb128 0x3f
 4451 0051 19       		.uleb128 0x19
 4452 0052 03       		.uleb128 0x3
 4453 0053 0E       		.uleb128 0xe
 4454 0054 3A       		.uleb128 0x3a
 4455 0055 0B       		.uleb128 0xb
 4456 0056 3B       		.uleb128 0x3b
 4457 0057 0B       		.uleb128 0xb
 4458 0058 27       		.uleb128 0x27
 4459 0059 19       		.uleb128 0x19
 4460 005a 11       		.uleb128 0x11
 4461 005b 01       		.uleb128 0x1
 4462 005c 12       		.uleb128 0x12
 4463 005d 06       		.uleb128 0x6
 4464 005e 40       		.uleb128 0x40
 4465 005f 18       		.uleb128 0x18
 4466 0060 9642     		.uleb128 0x2116
 4467 0062 19       		.uleb128 0x19
 4468 0063 01       		.uleb128 0x1
 4469 0064 13       		.uleb128 0x13
 4470 0065 00       		.byte	0
 4471 0066 00       		.byte	0
 4472 0067 09       		.uleb128 0x9
 4473 0068 34       		.uleb128 0x34
 4474 0069 00       		.byte	0
 4475 006a 03       		.uleb128 0x3
 4476 006b 0E       		.uleb128 0xe
 4477 006c 3A       		.uleb128 0x3a
 4478 006d 0B       		.uleb128 0xb
 4479 006e 3B       		.uleb128 0x3b
 4480 006f 0B       		.uleb128 0xb
 4481 0070 49       		.uleb128 0x49
 4482 0071 13       		.uleb128 0x13
 4483 0072 02       		.uleb128 0x2
 4484 0073 18       		.uleb128 0x18
 4485 0074 00       		.byte	0
 4486 0075 00       		.byte	0
 4487 0076 0A       		.uleb128 0xa
 4488 0077 2E       		.uleb128 0x2e
 4489 0078 01       		.byte	0x1
 4490 0079 3F       		.uleb128 0x3f
 4491 007a 19       		.uleb128 0x19
 4492 007b 03       		.uleb128 0x3
 4493 007c 0E       		.uleb128 0xe
 4494 007d 3A       		.uleb128 0x3a
 4495 007e 0B       		.uleb128 0xb
ARM GAS  C:\Users\poornima\AppData\Local\Temp\ccI9K5HH.s 			page 122


 4496 007f 3B       		.uleb128 0x3b
 4497 0080 05       		.uleb128 0x5
 4498 0081 27       		.uleb128 0x27
 4499 0082 19       		.uleb128 0x19
 4500 0083 11       		.uleb128 0x11
 4501 0084 01       		.uleb128 0x1
 4502 0085 12       		.uleb128 0x12
 4503 0086 06       		.uleb128 0x6
 4504 0087 40       		.uleb128 0x40
 4505 0088 18       		.uleb128 0x18
 4506 0089 9642     		.uleb128 0x2116
 4507 008b 19       		.uleb128 0x19
 4508 008c 01       		.uleb128 0x1
 4509 008d 13       		.uleb128 0x13
 4510 008e 00       		.byte	0
 4511 008f 00       		.byte	0
 4512 0090 0B       		.uleb128 0xb
 4513 0091 34       		.uleb128 0x34
 4514 0092 00       		.byte	0
 4515 0093 03       		.uleb128 0x3
 4516 0094 0E       		.uleb128 0xe
 4517 0095 3A       		.uleb128 0x3a
 4518 0096 0B       		.uleb128 0xb
 4519 0097 3B       		.uleb128 0x3b
 4520 0098 05       		.uleb128 0x5
 4521 0099 49       		.uleb128 0x49
 4522 009a 13       		.uleb128 0x13
 4523 009b 02       		.uleb128 0x2
 4524 009c 18       		.uleb128 0x18
 4525 009d 00       		.byte	0
 4526 009e 00       		.byte	0
 4527 009f 0C       		.uleb128 0xc
 4528 00a0 2E       		.uleb128 0x2e
 4529 00a1 00       		.byte	0
 4530 00a2 3F       		.uleb128 0x3f
 4531 00a3 19       		.uleb128 0x19
 4532 00a4 03       		.uleb128 0x3
 4533 00a5 0E       		.uleb128 0xe
 4534 00a6 3A       		.uleb128 0x3a
 4535 00a7 0B       		.uleb128 0xb
 4536 00a8 3B       		.uleb128 0x3b
 4537 00a9 05       		.uleb128 0x5
 4538 00aa 27       		.uleb128 0x27
 4539 00ab 19       		.uleb128 0x19
 4540 00ac 11       		.uleb128 0x11
 4541 00ad 01       		.uleb128 0x1
 4542 00ae 12       		.uleb128 0x12
 4543 00af 06       		.uleb128 0x6
 4544 00b0 40       		.uleb128 0x40
 4545 00b1 18       		.uleb128 0x18
 4546 00b2 9642     		.uleb128 0x2116
 4547 00b4 19       		.uleb128 0x19
 4548 00b5 00       		.byte	0
 4549 00b6 00       		.byte	0
 4550 00b7 0D       		.uleb128 0xd
 4551 00b8 2E       		.uleb128 0x2e
 4552 00b9 01       		.byte	0x1
ARM GAS  C:\Users\poornima\AppData\Local\Temp\ccI9K5HH.s 			page 123


 4553 00ba 3F       		.uleb128 0x3f
 4554 00bb 19       		.uleb128 0x19
 4555 00bc 03       		.uleb128 0x3
 4556 00bd 0E       		.uleb128 0xe
 4557 00be 3A       		.uleb128 0x3a
 4558 00bf 0B       		.uleb128 0xb
 4559 00c0 3B       		.uleb128 0x3b
 4560 00c1 05       		.uleb128 0x5
 4561 00c2 27       		.uleb128 0x27
 4562 00c3 19       		.uleb128 0x19
 4563 00c4 49       		.uleb128 0x49
 4564 00c5 13       		.uleb128 0x13
 4565 00c6 11       		.uleb128 0x11
 4566 00c7 01       		.uleb128 0x1
 4567 00c8 12       		.uleb128 0x12
 4568 00c9 06       		.uleb128 0x6
 4569 00ca 40       		.uleb128 0x40
 4570 00cb 18       		.uleb128 0x18
 4571 00cc 9642     		.uleb128 0x2116
 4572 00ce 19       		.uleb128 0x19
 4573 00cf 01       		.uleb128 0x1
 4574 00d0 13       		.uleb128 0x13
 4575 00d1 00       		.byte	0
 4576 00d2 00       		.byte	0
 4577 00d3 0E       		.uleb128 0xe
 4578 00d4 05       		.uleb128 0x5
 4579 00d5 00       		.byte	0
 4580 00d6 03       		.uleb128 0x3
 4581 00d7 0E       		.uleb128 0xe
 4582 00d8 3A       		.uleb128 0x3a
 4583 00d9 0B       		.uleb128 0xb
 4584 00da 3B       		.uleb128 0x3b
 4585 00db 05       		.uleb128 0x5
 4586 00dc 49       		.uleb128 0x49
 4587 00dd 13       		.uleb128 0x13
 4588 00de 02       		.uleb128 0x2
 4589 00df 18       		.uleb128 0x18
 4590 00e0 00       		.byte	0
 4591 00e1 00       		.byte	0
 4592 00e2 0F       		.uleb128 0xf
 4593 00e3 2E       		.uleb128 0x2e
 4594 00e4 00       		.byte	0
 4595 00e5 3F       		.uleb128 0x3f
 4596 00e6 19       		.uleb128 0x19
 4597 00e7 03       		.uleb128 0x3
 4598 00e8 0E       		.uleb128 0xe
 4599 00e9 3A       		.uleb128 0x3a
 4600 00ea 0B       		.uleb128 0xb
 4601 00eb 3B       		.uleb128 0x3b
 4602 00ec 05       		.uleb128 0x5
 4603 00ed 27       		.uleb128 0x27
 4604 00ee 19       		.uleb128 0x19
 4605 00ef 49       		.uleb128 0x49
 4606 00f0 13       		.uleb128 0x13
 4607 00f1 11       		.uleb128 0x11
 4608 00f2 01       		.uleb128 0x1
 4609 00f3 12       		.uleb128 0x12
ARM GAS  C:\Users\poornima\AppData\Local\Temp\ccI9K5HH.s 			page 124


 4610 00f4 06       		.uleb128 0x6
 4611 00f5 40       		.uleb128 0x40
 4612 00f6 18       		.uleb128 0x18
 4613 00f7 9742     		.uleb128 0x2117
 4614 00f9 19       		.uleb128 0x19
 4615 00fa 00       		.byte	0
 4616 00fb 00       		.byte	0
 4617 00fc 10       		.uleb128 0x10
 4618 00fd 2E       		.uleb128 0x2e
 4619 00fe 01       		.byte	0x1
 4620 00ff 3F       		.uleb128 0x3f
 4621 0100 19       		.uleb128 0x19
 4622 0101 03       		.uleb128 0x3
 4623 0102 0E       		.uleb128 0xe
 4624 0103 3A       		.uleb128 0x3a
 4625 0104 0B       		.uleb128 0xb
 4626 0105 3B       		.uleb128 0x3b
 4627 0106 05       		.uleb128 0x5
 4628 0107 27       		.uleb128 0x27
 4629 0108 19       		.uleb128 0x19
 4630 0109 49       		.uleb128 0x49
 4631 010a 13       		.uleb128 0x13
 4632 010b 11       		.uleb128 0x11
 4633 010c 01       		.uleb128 0x1
 4634 010d 12       		.uleb128 0x12
 4635 010e 06       		.uleb128 0x6
 4636 010f 40       		.uleb128 0x40
 4637 0110 18       		.uleb128 0x18
 4638 0111 9742     		.uleb128 0x2117
 4639 0113 19       		.uleb128 0x19
 4640 0114 01       		.uleb128 0x1
 4641 0115 13       		.uleb128 0x13
 4642 0116 00       		.byte	0
 4643 0117 00       		.byte	0
 4644 0118 11       		.uleb128 0x11
 4645 0119 2E       		.uleb128 0x2e
 4646 011a 01       		.byte	0x1
 4647 011b 3F       		.uleb128 0x3f
 4648 011c 19       		.uleb128 0x19
 4649 011d 03       		.uleb128 0x3
 4650 011e 0E       		.uleb128 0xe
 4651 011f 3A       		.uleb128 0x3a
 4652 0120 0B       		.uleb128 0xb
 4653 0121 3B       		.uleb128 0x3b
 4654 0122 05       		.uleb128 0x5
 4655 0123 27       		.uleb128 0x27
 4656 0124 19       		.uleb128 0x19
 4657 0125 11       		.uleb128 0x11
 4658 0126 01       		.uleb128 0x1
 4659 0127 12       		.uleb128 0x12
 4660 0128 06       		.uleb128 0x6
 4661 0129 40       		.uleb128 0x40
 4662 012a 18       		.uleb128 0x18
 4663 012b 9742     		.uleb128 0x2117
 4664 012d 19       		.uleb128 0x19
 4665 012e 01       		.uleb128 0x1
 4666 012f 13       		.uleb128 0x13
ARM GAS  C:\Users\poornima\AppData\Local\Temp\ccI9K5HH.s 			page 125


 4667 0130 00       		.byte	0
 4668 0131 00       		.byte	0
 4669 0132 12       		.uleb128 0x12
 4670 0133 34       		.uleb128 0x34
 4671 0134 00       		.byte	0
 4672 0135 03       		.uleb128 0x3
 4673 0136 0E       		.uleb128 0xe
 4674 0137 3A       		.uleb128 0x3a
 4675 0138 0B       		.uleb128 0xb
 4676 0139 3B       		.uleb128 0x3b
 4677 013a 0B       		.uleb128 0xb
 4678 013b 49       		.uleb128 0x49
 4679 013c 13       		.uleb128 0x13
 4680 013d 3F       		.uleb128 0x3f
 4681 013e 19       		.uleb128 0x19
 4682 013f 02       		.uleb128 0x2
 4683 0140 18       		.uleb128 0x18
 4684 0141 00       		.byte	0
 4685 0142 00       		.byte	0
 4686 0143 13       		.uleb128 0x13
 4687 0144 01       		.uleb128 0x1
 4688 0145 01       		.byte	0x1
 4689 0146 49       		.uleb128 0x49
 4690 0147 13       		.uleb128 0x13
 4691 0148 01       		.uleb128 0x1
 4692 0149 13       		.uleb128 0x13
 4693 014a 00       		.byte	0
 4694 014b 00       		.byte	0
 4695 014c 14       		.uleb128 0x14
 4696 014d 21       		.uleb128 0x21
 4697 014e 00       		.byte	0
 4698 014f 49       		.uleb128 0x49
 4699 0150 13       		.uleb128 0x13
 4700 0151 2F       		.uleb128 0x2f
 4701 0152 0B       		.uleb128 0xb
 4702 0153 00       		.byte	0
 4703 0154 00       		.byte	0
 4704 0155 15       		.uleb128 0x15
 4705 0156 34       		.uleb128 0x34
 4706 0157 00       		.byte	0
 4707 0158 03       		.uleb128 0x3
 4708 0159 0E       		.uleb128 0xe
 4709 015a 3A       		.uleb128 0x3a
 4710 015b 0B       		.uleb128 0xb
 4711 015c 3B       		.uleb128 0x3b
 4712 015d 05       		.uleb128 0x5
 4713 015e 49       		.uleb128 0x49
 4714 015f 13       		.uleb128 0x13
 4715 0160 3F       		.uleb128 0x3f
 4716 0161 19       		.uleb128 0x19
 4717 0162 3C       		.uleb128 0x3c
 4718 0163 19       		.uleb128 0x19
 4719 0164 00       		.byte	0
 4720 0165 00       		.byte	0
 4721 0166 00       		.byte	0
 4722              		.section	.debug_aranges,"",%progbits
 4723 0000 54010000 		.4byte	0x154
ARM GAS  C:\Users\poornima\AppData\Local\Temp\ccI9K5HH.s 			page 126


 4724 0004 0200     		.2byte	0x2
 4725 0006 00000000 		.4byte	.Ldebug_info0
 4726 000a 04       		.byte	0x4
 4727 000b 00       		.byte	0
 4728 000c 0000     		.2byte	0
 4729 000e 0000     		.2byte	0
 4730 0010 00000000 		.4byte	.LFB35
 4731 0014 36000000 		.4byte	.LFE35-.LFB35
 4732 0018 00000000 		.4byte	.LFB36
 4733 001c C0000000 		.4byte	.LFE36-.LFB36
 4734 0020 00000000 		.4byte	.LFB37
 4735 0024 54000000 		.4byte	.LFE37-.LFB37
 4736 0028 00000000 		.4byte	.LFB38
 4737 002c 44000000 		.4byte	.LFE38-.LFB38
 4738 0030 00000000 		.4byte	.LFB39
 4739 0034 38000000 		.4byte	.LFE39-.LFB39
 4740 0038 00000000 		.4byte	.LFB40
 4741 003c 48000000 		.4byte	.LFE40-.LFB40
 4742 0040 00000000 		.4byte	.LFB41
 4743 0044 34000000 		.4byte	.LFE41-.LFB41
 4744 0048 00000000 		.4byte	.LFB42
 4745 004c E0000000 		.4byte	.LFE42-.LFB42
 4746 0050 00000000 		.4byte	.LFB43
 4747 0054 58000000 		.4byte	.LFE43-.LFB43
 4748 0058 00000000 		.4byte	.LFB44
 4749 005c 1C000000 		.4byte	.LFE44-.LFB44
 4750 0060 00000000 		.4byte	.LFB45
 4751 0064 1C000000 		.4byte	.LFE45-.LFB45
 4752 0068 00000000 		.4byte	.LFB46
 4753 006c 24000000 		.4byte	.LFE46-.LFB46
 4754 0070 00000000 		.4byte	.LFB47
 4755 0074 20000000 		.4byte	.LFE47-.LFB47
 4756 0078 00000000 		.4byte	.LFB48
 4757 007c 1C000000 		.4byte	.LFE48-.LFB48
 4758 0080 00000000 		.4byte	.LFB49
 4759 0084 26000000 		.4byte	.LFE49-.LFB49
 4760 0088 00000000 		.4byte	.LFB50
 4761 008c C8000000 		.4byte	.LFE50-.LFB50
 4762 0090 00000000 		.4byte	.LFB51
 4763 0094 18010000 		.4byte	.LFE51-.LFB51
 4764 0098 00000000 		.4byte	.LFB52
 4765 009c 6C000000 		.4byte	.LFE52-.LFB52
 4766 00a0 00000000 		.4byte	.LFB53
 4767 00a4 38000000 		.4byte	.LFE53-.LFB53
 4768 00a8 00000000 		.4byte	.LFB54
 4769 00ac 58000000 		.4byte	.LFE54-.LFB54
 4770 00b0 00000000 		.4byte	.LFB55
 4771 00b4 4C010000 		.4byte	.LFE55-.LFB55
 4772 00b8 00000000 		.4byte	.LFB56
 4773 00bc 74000000 		.4byte	.LFE56-.LFB56
 4774 00c0 00000000 		.4byte	.LFB57
 4775 00c4 78000000 		.4byte	.LFE57-.LFB57
 4776 00c8 00000000 		.4byte	.LFB58
 4777 00cc 30000000 		.4byte	.LFE58-.LFB58
 4778 00d0 00000000 		.4byte	.LFB59
 4779 00d4 2C000000 		.4byte	.LFE59-.LFB59
 4780 00d8 00000000 		.4byte	.LFB60
ARM GAS  C:\Users\poornima\AppData\Local\Temp\ccI9K5HH.s 			page 127


 4781 00dc 44000000 		.4byte	.LFE60-.LFB60
 4782 00e0 00000000 		.4byte	.LFB61
 4783 00e4 68000000 		.4byte	.LFE61-.LFB61
 4784 00e8 00000000 		.4byte	.LFB62
 4785 00ec 1C000000 		.4byte	.LFE62-.LFB62
 4786 00f0 00000000 		.4byte	.LFB63
 4787 00f4 24000000 		.4byte	.LFE63-.LFB63
 4788 00f8 00000000 		.4byte	.LFB64
 4789 00fc 1C000000 		.4byte	.LFE64-.LFB64
 4790 0100 00000000 		.4byte	.LFB65
 4791 0104 24000000 		.4byte	.LFE65-.LFB65
 4792 0108 00000000 		.4byte	.LFB66
 4793 010c 1C000000 		.4byte	.LFE66-.LFB66
 4794 0110 00000000 		.4byte	.LFB67
 4795 0114 24000000 		.4byte	.LFE67-.LFB67
 4796 0118 00000000 		.4byte	.LFB68
 4797 011c 1C000000 		.4byte	.LFE68-.LFB68
 4798 0120 00000000 		.4byte	.LFB69
 4799 0124 24000000 		.4byte	.LFE69-.LFB69
 4800 0128 00000000 		.4byte	.LFB70
 4801 012c 20000000 		.4byte	.LFE70-.LFB70
 4802 0130 00000000 		.4byte	.LFB71
 4803 0134 3C000000 		.4byte	.LFE71-.LFB71
 4804 0138 00000000 		.4byte	.LFB72
 4805 013c 50000000 		.4byte	.LFE72-.LFB72
 4806 0140 00000000 		.4byte	.LFB73
 4807 0144 24000000 		.4byte	.LFE73-.LFB73
 4808 0148 00000000 		.4byte	.LFB74
 4809 014c 9C000000 		.4byte	.LFE74-.LFB74
 4810 0150 00000000 		.4byte	0
 4811 0154 00000000 		.4byte	0
 4812              		.section	.debug_ranges,"",%progbits
 4813              	.Ldebug_ranges0:
 4814 0000 00000000 		.4byte	.LFB35
 4815 0004 36000000 		.4byte	.LFE35
 4816 0008 00000000 		.4byte	.LFB36
 4817 000c C0000000 		.4byte	.LFE36
 4818 0010 00000000 		.4byte	.LFB37
 4819 0014 54000000 		.4byte	.LFE37
 4820 0018 00000000 		.4byte	.LFB38
 4821 001c 44000000 		.4byte	.LFE38
 4822 0020 00000000 		.4byte	.LFB39
 4823 0024 38000000 		.4byte	.LFE39
 4824 0028 00000000 		.4byte	.LFB40
 4825 002c 48000000 		.4byte	.LFE40
 4826 0030 00000000 		.4byte	.LFB41
 4827 0034 34000000 		.4byte	.LFE41
 4828 0038 00000000 		.4byte	.LFB42
 4829 003c E0000000 		.4byte	.LFE42
 4830 0040 00000000 		.4byte	.LFB43
 4831 0044 58000000 		.4byte	.LFE43
 4832 0048 00000000 		.4byte	.LFB44
 4833 004c 1C000000 		.4byte	.LFE44
 4834 0050 00000000 		.4byte	.LFB45
 4835 0054 1C000000 		.4byte	.LFE45
 4836 0058 00000000 		.4byte	.LFB46
 4837 005c 24000000 		.4byte	.LFE46
ARM GAS  C:\Users\poornima\AppData\Local\Temp\ccI9K5HH.s 			page 128


 4838 0060 00000000 		.4byte	.LFB47
 4839 0064 20000000 		.4byte	.LFE47
 4840 0068 00000000 		.4byte	.LFB48
 4841 006c 1C000000 		.4byte	.LFE48
 4842 0070 00000000 		.4byte	.LFB49
 4843 0074 26000000 		.4byte	.LFE49
 4844 0078 00000000 		.4byte	.LFB50
 4845 007c C8000000 		.4byte	.LFE50
 4846 0080 00000000 		.4byte	.LFB51
 4847 0084 18010000 		.4byte	.LFE51
 4848 0088 00000000 		.4byte	.LFB52
 4849 008c 6C000000 		.4byte	.LFE52
 4850 0090 00000000 		.4byte	.LFB53
 4851 0094 38000000 		.4byte	.LFE53
 4852 0098 00000000 		.4byte	.LFB54
 4853 009c 58000000 		.4byte	.LFE54
 4854 00a0 00000000 		.4byte	.LFB55
 4855 00a4 4C010000 		.4byte	.LFE55
 4856 00a8 00000000 		.4byte	.LFB56
 4857 00ac 74000000 		.4byte	.LFE56
 4858 00b0 00000000 		.4byte	.LFB57
 4859 00b4 78000000 		.4byte	.LFE57
 4860 00b8 00000000 		.4byte	.LFB58
 4861 00bc 30000000 		.4byte	.LFE58
 4862 00c0 00000000 		.4byte	.LFB59
 4863 00c4 2C000000 		.4byte	.LFE59
 4864 00c8 00000000 		.4byte	.LFB60
 4865 00cc 44000000 		.4byte	.LFE60
 4866 00d0 00000000 		.4byte	.LFB61
 4867 00d4 68000000 		.4byte	.LFE61
 4868 00d8 00000000 		.4byte	.LFB62
 4869 00dc 1C000000 		.4byte	.LFE62
 4870 00e0 00000000 		.4byte	.LFB63
 4871 00e4 24000000 		.4byte	.LFE63
 4872 00e8 00000000 		.4byte	.LFB64
 4873 00ec 1C000000 		.4byte	.LFE64
 4874 00f0 00000000 		.4byte	.LFB65
 4875 00f4 24000000 		.4byte	.LFE65
 4876 00f8 00000000 		.4byte	.LFB66
 4877 00fc 1C000000 		.4byte	.LFE66
 4878 0100 00000000 		.4byte	.LFB67
 4879 0104 24000000 		.4byte	.LFE67
 4880 0108 00000000 		.4byte	.LFB68
 4881 010c 1C000000 		.4byte	.LFE68
 4882 0110 00000000 		.4byte	.LFB69
 4883 0114 24000000 		.4byte	.LFE69
 4884 0118 00000000 		.4byte	.LFB70
 4885 011c 20000000 		.4byte	.LFE70
 4886 0120 00000000 		.4byte	.LFB71
 4887 0124 3C000000 		.4byte	.LFE71
 4888 0128 00000000 		.4byte	.LFB72
 4889 012c 50000000 		.4byte	.LFE72
 4890 0130 00000000 		.4byte	.LFB73
 4891 0134 24000000 		.4byte	.LFE73
 4892 0138 00000000 		.4byte	.LFB74
 4893 013c 9C000000 		.4byte	.LFE74
 4894 0140 00000000 		.4byte	0
ARM GAS  C:\Users\poornima\AppData\Local\Temp\ccI9K5HH.s 			page 129


 4895 0144 00000000 		.4byte	0
 4896              		.section	.debug_line,"",%progbits
 4897              	.Ldebug_line0:
 4898 0000 CE040000 		.section	.debug_str,"MS",%progbits,1
 4898      02005800 
 4898      00000201 
 4898      FB0E0D00 
 4898      01010101 
 4899              	.LASF100:
 4900 0000 43617053 		.ascii	"CapSense_scanSpeedTbl\000"
 4900      656E7365 
 4900      5F736361 
 4900      6E537065 
 4900      65645462 
 4901              	.LASF62:
 4902 0016 43617053 		.ascii	"CapSense_PostScan\000"
 4902      656E7365 
 4902      5F506F73 
 4902      74536361 
 4902      6E00
 4903              	.LASF102:
 4904 0028 43617053 		.ascii	"CapSense_csdStatusVar\000"
 4904      656E7365 
 4904      5F637364 
 4904      53746174 
 4904      75735661 
 4905              	.LASF109:
 4906 003e 43617053 		.ascii	"CapSense_compensationIDAC\000"
 4906      656E7365 
 4906      5F636F6D 
 4906      70656E73 
 4906      6174696F 
 4907              	.LASF119:
 4908 0058 43617053 		.ascii	"CapSense_maskTable\000"
 4908      656E7365 
 4908      5F6D6173 
 4908      6B546162 
 4908      6C6500
 4909              	.LASF8:
 4910 006b 756E7369 		.ascii	"unsigned int\000"
 4910      676E6564 
 4910      20696E74 
 4910      00
 4911              	.LASF112:
 4912 0078 43617053 		.ascii	"CapSense_sampleClkDividerVal\000"
 4912      656E7365 
 4912      5F73616D 
 4912      706C6543 
 4912      6C6B4469 
 4913              	.LASF46:
 4914 0095 696E7465 		.ascii	"interruptState\000"
 4914      72727570 
 4914      74537461 
 4914      746500
 4915              	.LASF15:
 4916 00a4 72656738 		.ascii	"reg8\000"
 4916      00
ARM GAS  C:\Users\poornima\AppData\Local\Temp\ccI9K5HH.s 			page 130


 4917              	.LASF94:
 4918 00a9 77696467 		.ascii	"widgetsNum\000"
 4918      6574734E 
 4918      756D00
 4919              	.LASF23:
 4920 00b4 43617053 		.ascii	"CapSense_Start\000"
 4920      656E7365 
 4920      5F537461 
 4920      727400
 4921              	.LASF29:
 4922 00c3 43617053 		.ascii	"CapSense_ScanWidget\000"
 4922      656E7365 
 4922      5F536361 
 4922      6E576964 
 4922      67657400 
 4923              	.LASF45:
 4924 00d7 70696E48 		.ascii	"pinHSIOMShift\000"
 4924      53494F4D 
 4924      53686966 
 4924      7400
 4925              	.LASF75:
 4926 00e5 43617053 		.ascii	"CapSense_SetSenseClkDivider\000"
 4926      656E7365 
 4926      5F536574 
 4926      53656E73 
 4926      65436C6B 
 4927              	.LASF91:
 4928 0101 61766756 		.ascii	"avgVal\000"
 4928      616C00
 4929              	.LASF66:
 4930 0108 43617053 		.ascii	"CapSense_IsBusy\000"
 4930      656E7365 
 4930      5F497342 
 4930      75737900 
 4931              	.LASF44:
 4932 0118 70696E4D 		.ascii	"pinModeShift\000"
 4932      6F646553 
 4932      68696674 
 4932      00
 4933              	.LASF84:
 4934 0125 43617053 		.ascii	"CapSense_SetCompensationIDAC\000"
 4934      656E7365 
 4934      5F536574 
 4934      436F6D70 
 4934      656E7361 
 4935              	.LASF121:
 4936 0142 43617053 		.ascii	"CapSense_rawDataIndex\000"
 4936      656E7365 
 4936      5F726177 
 4936      44617461 
 4936      496E6465 
 4937              	.LASF49:
 4938 0158 43617053 		.ascii	"CapSense_DisableSensor\000"
 4938      656E7365 
 4938      5F446973 
 4938      61626C65 
 4938      53656E73 
ARM GAS  C:\Users\poornima\AppData\Local\Temp\ccI9K5HH.s 			page 131


 4939              	.LASF19:
 4940 016f 43617053 		.ascii	"CapSense_CsdHwBlockInit\000"
 4940      656E7365 
 4940      5F437364 
 4940      4877426C 
 4940      6F636B49 
 4941              	.LASF50:
 4942 0187 696E6163 		.ascii	"inactiveConnect\000"
 4942      74697665 
 4942      436F6E6E 
 4942      65637400 
 4943              	.LASF123:
 4944 0197 43617053 		.ascii	"CapSense_csdTrim1\000"
 4944      656E7365 
 4944      5F637364 
 4944      5472696D 
 4944      3100
 4945              	.LASF33:
 4946 01a9 43617053 		.ascii	"CapSense_Stop\000"
 4946      656E7365 
 4946      5F53746F 
 4946      7000
 4947              	.LASF114:
 4948 01b7 43617053 		.ascii	"CapSense_prtSelTbl\000"
 4948      656E7365 
 4948      5F707274 
 4948      53656C54 
 4948      626C00
 4949              	.LASF42:
 4950 01ca 43617053 		.ascii	"CapSense_ClearSensors\000"
 4950      656E7365 
 4950      5F436C65 
 4950      61725365 
 4950      6E736F72 
 4951              	.LASF116:
 4952 01e0 43617053 		.ascii	"CapSense_prtDRTbl\000"
 4952      656E7365 
 4952      5F707274 
 4952      44525462 
 4952      6C00
 4953              	.LASF63:
 4954 01f2 43617053 		.ascii	"CapSense_EnableShieldElectrode\000"
 4954      656E7365 
 4954      5F456E61 
 4954      626C6553 
 4954      6869656C 
 4955              	.LASF12:
 4956 0211 666C6F61 		.ascii	"float\000"
 4956      7400
 4957              	.LASF7:
 4958 0217 6C6F6E67 		.ascii	"long long unsigned int\000"
 4958      206C6F6E 
 4958      6720756E 
 4958      7369676E 
 4958      65642069 
 4959              	.LASF103:
 4960 022e 43617053 		.ascii	"CapSense_sensorIndex\000"
ARM GAS  C:\Users\poornima\AppData\Local\Temp\ccI9K5HH.s 			page 132


 4960      656E7365 
 4960      5F73656E 
 4960      736F7249 
 4960      6E646578 
 4961              	.LASF30:
 4962 0243 77696467 		.ascii	"widget\000"
 4962      657400
 4963              	.LASF64:
 4964 024a 43617053 		.ascii	"CapSense_SetShieldDelay\000"
 4964      656E7365 
 4964      5F536574 
 4964      53686965 
 4964      6C644465 
 4965              	.LASF113:
 4966 0262 43617053 		.ascii	"CapSense_widgetNumber\000"
 4966      656E7365 
 4966      5F776964 
 4966      6765744E 
 4966      756D6265 
 4967              	.LASF115:
 4968 0278 43617053 		.ascii	"CapSense_prtCfgTbl\000"
 4968      656E7365 
 4968      5F707274 
 4968      43666754 
 4968      626C00
 4969              	.LASF41:
 4970 028b 43617053 		.ascii	"CapSense_GetScanResolution\000"
 4970      656E7365 
 4970      5F476574 
 4970      5363616E 
 4970      5265736F 
 4971              	.LASF125:
 4972 02a6 47656E65 		.ascii	"Generated_Source\\PSoC4\\CapSense.c\000"
 4972      72617465 
 4972      645F536F 
 4972      75726365 
 4972      5C50536F 
 4973              	.LASF93:
 4974 02c8 43617053 		.ascii	"CapSense_NormalizeWidgets\000"
 4974      656E7365 
 4974      5F4E6F72 
 4974      6D616C69 
 4974      7A655769 
 4975              	.LASF79:
 4976 02e2 6D6F6475 		.ascii	"modulatorClk\000"
 4976      6C61746F 
 4976      72436C6B 
 4976      00
 4977              	.LASF38:
 4978 02ef 76616C75 		.ascii	"value\000"
 4978      6500
 4979              	.LASF47:
 4980 02f5 6E657752 		.ascii	"newRegisterValue\000"
 4980      65676973 
 4980      74657256 
 4980      616C7565 
 4980      00
ARM GAS  C:\Users\poornima\AppData\Local\Temp\ccI9K5HH.s 			page 133


 4981              	.LASF37:
 4982 0306 43617053 		.ascii	"CapSense_WriteSensorRaw\000"
 4982      656E7365 
 4982      5F577269 
 4982      74655365 
 4982      6E736F72 
 4983              	.LASF111:
 4984 031e 43617053 		.ascii	"CapSense_senseClkDividerVal\000"
 4984      656E7365 
 4984      5F73656E 
 4984      7365436C 
 4984      6B446976 
 4985              	.LASF22:
 4986 033a 43617053 		.ascii	"CapSense_Enable\000"
 4986      656E7365 
 4986      5F456E61 
 4986      626C6500 
 4987              	.LASF51:
 4988 034a 73656E73 		.ascii	"sensorState\000"
 4988      6F725374 
 4988      61746500 
 4989              	.LASF126:
 4990 0356 433A5C55 		.ascii	"C:\\Users\\poornima\\Documents\\GitHub\\thingTouch\\"
 4990      73657273 
 4990      5C706F6F 
 4990      726E696D 
 4990      615C446F 
 4991 0384 32463553 		.ascii	"2F5S1SOC.cydsn\000"
 4991      31534F43 
 4991      2E637964 
 4991      736E00
 4992              	.LASF60:
 4993 0393 43617053 		.ascii	"CapSense_PreScan\000"
 4993      656E7365 
 4993      5F507265 
 4993      5363616E 
 4993      00
 4994              	.LASF71:
 4995 03a4 6F666673 		.ascii	"offset\000"
 4995      657400
 4996              	.LASF39:
 4997 03ab 43617053 		.ascii	"CapSense_SetScanResolution\000"
 4997      656E7365 
 4997      5F536574 
 4997      5363616E 
 4997      5265736F 
 4998              	.LASF26:
 4999 03c6 43617053 		.ascii	"CapSense_ScanSensor\000"
 4999      656E7365 
 4999      5F536361 
 4999      6E53656E 
 4999      736F7200 
 5000              	.LASF54:
 5001 03da 7072744E 		.ascii	"prtNumberTmp\000"
 5001      756D6265 
 5001      72546D70 
 5001      00
ARM GAS  C:\Users\poornima\AppData\Local\Temp\ccI9K5HH.s 			page 134


 5002              	.LASF31:
 5003 03e7 73656E73 		.ascii	"sensorsPerWidget\000"
 5003      6F727350 
 5003      65725769 
 5003      64676574 
 5003      00
 5004              	.LASF24:
 5005 03f8 43617053 		.ascii	"CapSense_initVar\000"
 5005      656E7365 
 5005      5F696E69 
 5005      74566172 
 5005      00
 5006              	.LASF122:
 5007 0409 43617053 		.ascii	"CapSense_numberOfSensors\000"
 5007      656E7365 
 5007      5F6E756D 
 5007      6265724F 
 5007      6653656E 
 5008              	.LASF90:
 5009 0422 63757253 		.ascii	"curSample\000"
 5009      616D706C 
 5009      6500
 5010              	.LASF28:
 5011 042c 73656E73 		.ascii	"sensor\000"
 5011      6F7200
 5012              	.LASF104:
 5013 0433 43617053 		.ascii	"CapSense_sensorRaw\000"
 5013      656E7365 
 5013      5F73656E 
 5013      736F7252 
 5013      617700
 5014              	.LASF14:
 5015 0446 63686172 		.ascii	"char\000"
 5015      00
 5016              	.LASF69:
 5017 044b 7461626C 		.ascii	"table\000"
 5017      6500
 5018              	.LASF35:
 5019 0451 43617053 		.ascii	"CapSense_FindNextSensor\000"
 5019      656E7365 
 5019      5F46696E 
 5019      644E6578 
 5019      7453656E 
 5020              	.LASF117:
 5021 0469 43617053 		.ascii	"CapSense_pcTable\000"
 5021      656E7365 
 5021      5F706354 
 5021      61626C65 
 5021      00
 5022              	.LASF10:
 5023 047a 75696E74 		.ascii	"uint16\000"
 5023      313600
 5024              	.LASF40:
 5025 0481 7265736F 		.ascii	"resolution\000"
 5025      6C757469 
 5025      6F6E00
 5026              	.LASF110:
ARM GAS  C:\Users\poornima\AppData\Local\Temp\ccI9K5HH.s 			page 135


 5027 048c 43617053 		.ascii	"CapSense_widgetResolution\000"
 5027      656E7365 
 5027      5F776964 
 5027      67657452 
 5027      65736F6C 
 5028              	.LASF55:
 5029 04a6 70696E4E 		.ascii	"pinNumberTmp\000"
 5029      756D6265 
 5029      72546D70 
 5029      00
 5030              	.LASF86:
 5031 04b3 43617053 		.ascii	"CapSense_GetIDACRange\000"
 5031      656E7365 
 5031      5F476574 
 5031      49444143 
 5031      52616E67 
 5032              	.LASF34:
 5033 04c9 43617053 		.ascii	"CapSense_ScanEnabledWidgets\000"
 5033      656E7365 
 5033      5F536361 
 5033      6E456E61 
 5033      626C6564 
 5034              	.LASF108:
 5035 04e5 43617053 		.ascii	"CapSense_modulationIDAC\000"
 5035      656E7365 
 5035      5F6D6F64 
 5035      756C6174 
 5035      696F6E49 
 5036              	.LASF6:
 5037 04fd 6C6F6E67 		.ascii	"long long int\000"
 5037      206C6F6E 
 5037      6720696E 
 5037      7400
 5038              	.LASF25:
 5039 050b 656E6162 		.ascii	"enableFlag\000"
 5039      6C65466C 
 5039      616700
 5040              	.LASF120:
 5041 0516 43617053 		.ascii	"CapSense_pinShiftTbl\000"
 5041      656E7365 
 5041      5F70696E 
 5041      53686966 
 5041      7454626C 
 5042              	.LASF96:
 5043 052b 63757272 		.ascii	"currentWidget\000"
 5043      656E7457 
 5043      69646765 
 5043      7400
 5044              	.LASF124:
 5045 0539 474E5520 		.ascii	"GNU C 4.9.3 20150303 (release) [ARM/embedded-4_9-br"
 5045      4320342E 
 5045      392E3320 
 5045      32303135 
 5045      30333033 
 5046 056c 616E6368 		.ascii	"anch revision 221220] -mcpu=cortex-m0 -mthumb -g -O"
 5046      20726576 
 5046      6973696F 
ARM GAS  C:\Users\poornima\AppData\Local\Temp\ccI9K5HH.s 			page 136


 5046      6E203232 
 5046      31323230 
 5047 059f 30202D66 		.ascii	"0 -ffunction-sections -ffat-lto-objects\000"
 5047      66756E63 
 5047      74696F6E 
 5047      2D736563 
 5047      74696F6E 
 5048              	.LASF43:
 5049 05c7 43617053 		.ascii	"CapSense_EnableSensor\000"
 5049      656E7365 
 5049      5F456E61 
 5049      626C6553 
 5049      656E736F 
 5050              	.LASF78:
 5051 05dd 43617053 		.ascii	"CapSense_SetModulatorClkDivider\000"
 5051      656E7365 
 5051      5F536574 
 5051      4D6F6475 
 5051      6C61746F 
 5052              	.LASF105:
 5053 05fd 43617053 		.ascii	"CapSense_unscannedSnsDriveMode\000"
 5053      656E7365 
 5053      5F756E73 
 5053      63616E6E 
 5053      6564536E 
 5054              	.LASF74:
 5055 061c 43617053 		.ascii	"CapSense_GetSenseClkDivider\000"
 5055      656E7365 
 5055      5F476574 
 5055      53656E73 
 5055      65436C6B 
 5056              	.LASF11:
 5057 0638 75696E74 		.ascii	"uint32\000"
 5057      333200
 5058              	.LASF58:
 5059 063f 70696E4E 		.ascii	"pinNumber\000"
 5059      756D6265 
 5059      7200
 5060              	.LASF27:
 5061 0649 736E7349 		.ascii	"snsIndex\000"
 5061      6E646578 
 5061      00
 5062              	.LASF32:
 5063 0652 6C617374 		.ascii	"lastSensor\000"
 5063      53656E73 
 5063      6F7200
 5064              	.LASF16:
 5065 065d 72656733 		.ascii	"reg32\000"
 5065      3200
 5066              	.LASF56:
 5067 0663 43617053 		.ascii	"CapSense_RestoreDriveModeAllPins\000"
 5067      656E7365 
 5067      5F526573 
 5067      746F7265 
 5067      44726976 
 5068              	.LASF87:
 5069 0684 43617053 		.ascii	"CapSense_SetIDACRange\000"
ARM GAS  C:\Users\poornima\AppData\Local\Temp\ccI9K5HH.s 			page 137


 5069      656E7365 
 5069      5F536574 
 5069      49444143 
 5069      52616E67 
 5070              	.LASF59:
 5071 069a 706F7274 		.ascii	"portNumber\000"
 5071      4E756D62 
 5071      657200
 5072              	.LASF98:
 5073 06a5 6D617850 		.ascii	"maxPerWidget\000"
 5073      65725769 
 5073      64676574 
 5073      00
 5074              	.LASF89:
 5075 06b2 43617053 		.ascii	"CapSense_GetSensorRaw\000"
 5075      656E7365 
 5075      5F476574 
 5075      53656E73 
 5075      6F725261 
 5076              	.LASF18:
 5077 06c8 43617053 		.ascii	"CapSense_Init\000"
 5077      656E7365 
 5077      5F496E69 
 5077      7400
 5078              	.LASF101:
 5079 06d6 43617053 		.ascii	"CapSense_prescalersTuningDone\000"
 5079      656E7365 
 5079      5F707265 
 5079      7363616C 
 5079      65727354 
 5080              	.LASF76:
 5081 06f4 73656E73 		.ascii	"senseClk\000"
 5081      65436C6B 
 5081      00
 5082              	.LASF57:
 5083 06fd 43617053 		.ascii	"CapSense_SetPinDriveMode\000"
 5083      656E7365 
 5083      5F536574 
 5083      50696E44 
 5083      72697665 
 5084              	.LASF2:
 5085 0716 73686F72 		.ascii	"short int\000"
 5085      7420696E 
 5085      7400
 5086              	.LASF4:
 5087 0720 6C6F6E67 		.ascii	"long int\000"
 5087      20696E74 
 5087      00
 5088              	.LASF65:
 5089 0729 64656C61 		.ascii	"delay\000"
 5089      7900
 5090              	.LASF67:
 5091 072f 43617053 		.ascii	"CapSense_ReadCurrentScanningSensor\000"
 5091      656E7365 
 5091      5F526561 
 5091      64437572 
 5091      72656E74 
ARM GAS  C:\Users\poornima\AppData\Local\Temp\ccI9K5HH.s 			page 138


 5092              	.LASF52:
 5093 0752 43617053 		.ascii	"CapSense_SetDriveModeAllPins\000"
 5093      656E7365 
 5093      5F536574 
 5093      44726976 
 5093      654D6F64 
 5094              	.LASF106:
 5095 076f 43617053 		.ascii	"CapSense_sensorEnableMaskBackup\000"
 5095      656E7365 
 5095      5F73656E 
 5095      736F7245 
 5095      6E61626C 
 5096              	.LASF92:
 5097 078f 43617053 		.ascii	"CapSense_SetUnscannedSensorState\000"
 5097      656E7365 
 5097      5F536574 
 5097      556E7363 
 5097      616E6E65 
 5098              	.LASF77:
 5099 07b0 43617053 		.ascii	"CapSense_GetModulatorClkDivider\000"
 5099      656E7365 
 5099      5F476574 
 5099      4D6F6475 
 5099      6C61746F 
 5100              	.LASF107:
 5101 07d0 43617053 		.ascii	"CapSense_sensorEnableMask\000"
 5101      656E7365 
 5101      5F73656E 
 5101      736F7245 
 5101      6E61626C 
 5102              	.LASF88:
 5103 07ea 69446163 		.ascii	"iDacRange\000"
 5103      52616E67 
 5103      6500
 5104              	.LASF118:
 5105 07f4 43617053 		.ascii	"CapSense_portTable\000"
 5105      656E7365 
 5105      5F706F72 
 5105      74546162 
 5105      6C6500
 5106              	.LASF97:
 5107 0807 63757272 		.ascii	"currentSensor\000"
 5107      656E7453 
 5107      656E736F 
 5107      7200
 5108              	.LASF85:
 5109 0815 636F6D70 		.ascii	"compIdacValue\000"
 5109      49646163 
 5109      56616C75 
 5109      6500
 5110              	.LASF82:
 5111 0823 6D6F6449 		.ascii	"modIdacValue\000"
 5111      64616356 
 5111      616C7565 
 5111      00
 5112              	.LASF17:
 5113 0830 73697A65 		.ascii	"sizetype\000"
ARM GAS  C:\Users\poornima\AppData\Local\Temp\ccI9K5HH.s 			page 139


 5113      74797065 
 5113      00
 5114              	.LASF5:
 5115 0839 6C6F6E67 		.ascii	"long unsigned int\000"
 5115      20756E73 
 5115      69676E65 
 5115      6420696E 
 5115      7400
 5116              	.LASF48:
 5117 084b 706F7274 		.ascii	"port\000"
 5117      00
 5118              	.LASF72:
 5119 0850 656E4D61 		.ascii	"enMask\000"
 5119      736B00
 5120              	.LASF1:
 5121 0857 756E7369 		.ascii	"unsigned char\000"
 5121      676E6564 
 5121      20636861 
 5121      7200
 5122              	.LASF61:
 5123 0865 636F756E 		.ascii	"counterResolution\000"
 5123      74657252 
 5123      65736F6C 
 5123      7574696F 
 5123      6E00
 5124              	.LASF36:
 5125 0877 43617053 		.ascii	"CapSense_ReadSensorRaw\000"
 5125      656E7365 
 5125      5F526561 
 5125      6453656E 
 5125      736F7252 
 5126              	.LASF81:
 5127 088e 43617053 		.ascii	"CapSense_SetModulationIDAC\000"
 5127      656E7365 
 5127      5F536574 
 5127      4D6F6475 
 5127      6C617469 
 5128              	.LASF73:
 5129 08a9 43617053 		.ascii	"CapSense_SetBitValue\000"
 5129      656E7365 
 5129      5F536574 
 5129      42697456 
 5129      616C7565 
 5130              	.LASF68:
 5131 08be 43617053 		.ascii	"CapSense_GetBitValue\000"
 5131      656E7365 
 5131      5F476574 
 5131      42697456 
 5131      616C7565 
 5132              	.LASF83:
 5133 08d3 43617053 		.ascii	"CapSense_GetCompensationIDAC\000"
 5133      656E7365 
 5133      5F476574 
 5133      436F6D70 
 5133      656E7361 
 5134              	.LASF99:
 5135 08f0 43617053 		.ascii	"CapSense_lowLevelTuningDone\000"
ARM GAS  C:\Users\poornima\AppData\Local\Temp\ccI9K5HH.s 			page 140


 5135      656E7365 
 5135      5F6C6F77 
 5135      4C657665 
 5135      6C54756E 
 5136              	.LASF80:
 5137 090c 43617053 		.ascii	"CapSense_GetModulationIDAC\000"
 5137      656E7365 
 5137      5F476574 
 5137      4D6F6475 
 5137      6C617469 
 5138              	.LASF0:
 5139 0927 7369676E 		.ascii	"signed char\000"
 5139      65642063 
 5139      68617200 
 5140              	.LASF95:
 5141 0933 64617461 		.ascii	"dataPtr\000"
 5141      50747200 
 5142              	.LASF3:
 5143 093b 73686F72 		.ascii	"short unsigned int\000"
 5143      7420756E 
 5143      7369676E 
 5143      65642069 
 5143      6E7400
 5144              	.LASF21:
 5145 094e 6E657752 		.ascii	"newRegValue\000"
 5145      65675661 
 5145      6C756500 
 5146              	.LASF9:
 5147 095a 75696E74 		.ascii	"uint8\000"
 5147      3800
 5148              	.LASF13:
 5149 0960 646F7562 		.ascii	"double\000"
 5149      6C6500
 5150              	.LASF20:
 5151 0967 63757253 		.ascii	"curSensor\000"
 5151      656E736F 
 5151      7200
 5152              	.LASF53:
 5153 0971 64726976 		.ascii	"driveMode\000"
 5153      654D6F64 
 5153      6500
 5154              	.LASF70:
 5155 097b 706F7369 		.ascii	"position\000"
 5155      74696F6E 
 5155      00
 5156              		.ident	"GCC: (GNU Tools for ARM Embedded Processors) 4.9.3 20150303 (release) [ARM/embedded-4_9-br
