ARM GAS  C:\Users\poornima\AppData\Local\Temp\ccn19ius.s 			page 1


   1              		.cpu cortex-m0
   2              		.fpu softvfp
   3              		.eabi_attribute 20, 1
   4              		.eabi_attribute 21, 1
   5              		.eabi_attribute 23, 3
   6              		.eabi_attribute 24, 1
   7              		.eabi_attribute 25, 1
   8              		.eabi_attribute 26, 1
   9              		.eabi_attribute 30, 6
  10              		.eabi_attribute 34, 0
  11              		.eabi_attribute 18, 4
  12              		.code	16
  13              		.file	"LED_CONTROL1.c"
  14              		.text
  15              	.Ltext0:
  16              		.cfi_sections	.debug_frame
  17              		.global	LED_CONTROL1_initVar
  18              		.bss
  19              		.type	LED_CONTROL1_initVar, %object
  20              		.size	LED_CONTROL1_initVar, 1
  21              	LED_CONTROL1_initVar:
  22 0000 00       		.space	1
  23              		.section	.text.LED_CONTROL1_Init,"ax",%progbits
  24              		.align	2
  25              		.global	LED_CONTROL1_Init
  26              		.code	16
  27              		.thumb_func
  28              		.type	LED_CONTROL1_Init, %function
  29              	LED_CONTROL1_Init:
  30              	.LFB1:
  31              		.file 1 "Generated_Source\\PSoC4\\LED_CONTROL1.c"
   1:Generated_Source\PSoC4/LED_CONTROL1.c **** /*******************************************************************************
   2:Generated_Source\PSoC4/LED_CONTROL1.c **** * File Name: LED_CONTROL1.c
   3:Generated_Source\PSoC4/LED_CONTROL1.c **** * Version 2.10
   4:Generated_Source\PSoC4/LED_CONTROL1.c **** *
   5:Generated_Source\PSoC4/LED_CONTROL1.c **** * Description:
   6:Generated_Source\PSoC4/LED_CONTROL1.c **** *  This file provides the source code to the API for the LED_CONTROL1
   7:Generated_Source\PSoC4/LED_CONTROL1.c **** *  component
   8:Generated_Source\PSoC4/LED_CONTROL1.c **** *
   9:Generated_Source\PSoC4/LED_CONTROL1.c **** * Note:
  10:Generated_Source\PSoC4/LED_CONTROL1.c **** *  None
  11:Generated_Source\PSoC4/LED_CONTROL1.c **** *
  12:Generated_Source\PSoC4/LED_CONTROL1.c **** ********************************************************************************
  13:Generated_Source\PSoC4/LED_CONTROL1.c **** * Copyright 2013-2015, Cypress Semiconductor Corporation.  All rights reserved.
  14:Generated_Source\PSoC4/LED_CONTROL1.c **** * You may use this file only in accordance with the license, terms, conditions,
  15:Generated_Source\PSoC4/LED_CONTROL1.c **** * disclaimers, and limitations in the end user license agreement accompanying
  16:Generated_Source\PSoC4/LED_CONTROL1.c **** * the software package with which this file was provided.
  17:Generated_Source\PSoC4/LED_CONTROL1.c **** *******************************************************************************/
  18:Generated_Source\PSoC4/LED_CONTROL1.c **** 
  19:Generated_Source\PSoC4/LED_CONTROL1.c **** #include "LED_CONTROL1.h"
  20:Generated_Source\PSoC4/LED_CONTROL1.c **** 
  21:Generated_Source\PSoC4/LED_CONTROL1.c **** uint8 LED_CONTROL1_initVar = 0u;
  22:Generated_Source\PSoC4/LED_CONTROL1.c **** 
  23:Generated_Source\PSoC4/LED_CONTROL1.c **** 
  24:Generated_Source\PSoC4/LED_CONTROL1.c **** /*******************************************************************************
  25:Generated_Source\PSoC4/LED_CONTROL1.c **** * Function Name: LED_CONTROL1_Init
  26:Generated_Source\PSoC4/LED_CONTROL1.c **** ********************************************************************************
ARM GAS  C:\Users\poornima\AppData\Local\Temp\ccn19ius.s 			page 2


  27:Generated_Source\PSoC4/LED_CONTROL1.c **** *
  28:Generated_Source\PSoC4/LED_CONTROL1.c **** * Summary:
  29:Generated_Source\PSoC4/LED_CONTROL1.c **** *  Initialize/Restore default LED_CONTROL1 configuration.
  30:Generated_Source\PSoC4/LED_CONTROL1.c **** *
  31:Generated_Source\PSoC4/LED_CONTROL1.c **** * Parameters:
  32:Generated_Source\PSoC4/LED_CONTROL1.c **** *  None
  33:Generated_Source\PSoC4/LED_CONTROL1.c **** *
  34:Generated_Source\PSoC4/LED_CONTROL1.c **** * Return:
  35:Generated_Source\PSoC4/LED_CONTROL1.c **** *  None
  36:Generated_Source\PSoC4/LED_CONTROL1.c **** *
  37:Generated_Source\PSoC4/LED_CONTROL1.c **** *******************************************************************************/
  38:Generated_Source\PSoC4/LED_CONTROL1.c **** void LED_CONTROL1_Init(void)
  39:Generated_Source\PSoC4/LED_CONTROL1.c **** {
  32              		.loc 1 39 0
  33              		.cfi_startproc
  34 0000 80B5     		push	{r7, lr}
  35              		.cfi_def_cfa_offset 8
  36              		.cfi_offset 7, -8
  37              		.cfi_offset 14, -4
  38 0002 00AF     		add	r7, sp, #0
  39              		.cfi_def_cfa_register 7
  40:Generated_Source\PSoC4/LED_CONTROL1.c **** 
  41:Generated_Source\PSoC4/LED_CONTROL1.c ****     /* Set values from customizer to CTRL */
  42:Generated_Source\PSoC4/LED_CONTROL1.c ****     #if (LED_CONTROL1__QUAD == LED_CONTROL1_CONFIG)
  43:Generated_Source\PSoC4/LED_CONTROL1.c ****         LED_CONTROL1_CONTROL_REG = LED_CONTROL1_CTRL_QUAD_BASE_CONFIG;
  44:Generated_Source\PSoC4/LED_CONTROL1.c ****         
  45:Generated_Source\PSoC4/LED_CONTROL1.c ****         /* Set values from customizer to CTRL1 */
  46:Generated_Source\PSoC4/LED_CONTROL1.c ****         LED_CONTROL1_TRIG_CONTROL1_REG  = LED_CONTROL1_QUAD_SIGNALS_MODES;
  47:Generated_Source\PSoC4/LED_CONTROL1.c **** 
  48:Generated_Source\PSoC4/LED_CONTROL1.c ****         /* Set values from customizer to INTR */
  49:Generated_Source\PSoC4/LED_CONTROL1.c ****         LED_CONTROL1_SetInterruptMode(LED_CONTROL1_QUAD_INTERRUPT_MASK);
  50:Generated_Source\PSoC4/LED_CONTROL1.c ****         
  51:Generated_Source\PSoC4/LED_CONTROL1.c ****          /* Set other values */
  52:Generated_Source\PSoC4/LED_CONTROL1.c ****         LED_CONTROL1_SetCounterMode(LED_CONTROL1_COUNT_DOWN);
  53:Generated_Source\PSoC4/LED_CONTROL1.c ****         LED_CONTROL1_WritePeriod(LED_CONTROL1_QUAD_PERIOD_INIT_VALUE);
  54:Generated_Source\PSoC4/LED_CONTROL1.c ****         LED_CONTROL1_WriteCounter(LED_CONTROL1_QUAD_PERIOD_INIT_VALUE);
  55:Generated_Source\PSoC4/LED_CONTROL1.c ****     #endif  /* (LED_CONTROL1__QUAD == LED_CONTROL1_CONFIG) */
  56:Generated_Source\PSoC4/LED_CONTROL1.c **** 
  57:Generated_Source\PSoC4/LED_CONTROL1.c ****     #if (LED_CONTROL1__TIMER == LED_CONTROL1_CONFIG)
  58:Generated_Source\PSoC4/LED_CONTROL1.c ****         LED_CONTROL1_CONTROL_REG = LED_CONTROL1_CTRL_TIMER_BASE_CONFIG;
  59:Generated_Source\PSoC4/LED_CONTROL1.c ****         
  60:Generated_Source\PSoC4/LED_CONTROL1.c ****         /* Set values from customizer to CTRL1 */
  61:Generated_Source\PSoC4/LED_CONTROL1.c ****         LED_CONTROL1_TRIG_CONTROL1_REG  = LED_CONTROL1_TIMER_SIGNALS_MODES;
  62:Generated_Source\PSoC4/LED_CONTROL1.c ****     
  63:Generated_Source\PSoC4/LED_CONTROL1.c ****         /* Set values from customizer to INTR */
  64:Generated_Source\PSoC4/LED_CONTROL1.c ****         LED_CONTROL1_SetInterruptMode(LED_CONTROL1_TC_INTERRUPT_MASK);
  65:Generated_Source\PSoC4/LED_CONTROL1.c ****         
  66:Generated_Source\PSoC4/LED_CONTROL1.c ****         /* Set other values from customizer */
  67:Generated_Source\PSoC4/LED_CONTROL1.c ****         LED_CONTROL1_WritePeriod(LED_CONTROL1_TC_PERIOD_VALUE );
  68:Generated_Source\PSoC4/LED_CONTROL1.c **** 
  69:Generated_Source\PSoC4/LED_CONTROL1.c ****         #if (LED_CONTROL1__COMPARE == LED_CONTROL1_TC_COMP_CAP_MODE)
  70:Generated_Source\PSoC4/LED_CONTROL1.c ****             LED_CONTROL1_WriteCompare(LED_CONTROL1_TC_COMPARE_VALUE);
  71:Generated_Source\PSoC4/LED_CONTROL1.c **** 
  72:Generated_Source\PSoC4/LED_CONTROL1.c ****             #if (1u == LED_CONTROL1_TC_COMPARE_SWAP)
  73:Generated_Source\PSoC4/LED_CONTROL1.c ****                 LED_CONTROL1_SetCompareSwap(1u);
  74:Generated_Source\PSoC4/LED_CONTROL1.c ****                 LED_CONTROL1_WriteCompareBuf(LED_CONTROL1_TC_COMPARE_BUF_VALUE);
  75:Generated_Source\PSoC4/LED_CONTROL1.c ****             #endif  /* (1u == LED_CONTROL1_TC_COMPARE_SWAP) */
ARM GAS  C:\Users\poornima\AppData\Local\Temp\ccn19ius.s 			page 3


  76:Generated_Source\PSoC4/LED_CONTROL1.c ****         #endif  /* (LED_CONTROL1__COMPARE == LED_CONTROL1_TC_COMP_CAP_MODE) */
  77:Generated_Source\PSoC4/LED_CONTROL1.c **** 
  78:Generated_Source\PSoC4/LED_CONTROL1.c ****         /* Initialize counter value */
  79:Generated_Source\PSoC4/LED_CONTROL1.c ****         #if (LED_CONTROL1_CY_TCPWM_V2 && LED_CONTROL1_TIMER_UPDOWN_CNT_USED && !LED_CONTROL1_CY_TCP
  80:Generated_Source\PSoC4/LED_CONTROL1.c ****             LED_CONTROL1_WriteCounter(1u);
  81:Generated_Source\PSoC4/LED_CONTROL1.c ****         #elif(LED_CONTROL1__COUNT_DOWN == LED_CONTROL1_TC_COUNTER_MODE)
  82:Generated_Source\PSoC4/LED_CONTROL1.c ****             LED_CONTROL1_WriteCounter(LED_CONTROL1_TC_PERIOD_VALUE);
  83:Generated_Source\PSoC4/LED_CONTROL1.c ****         #else
  84:Generated_Source\PSoC4/LED_CONTROL1.c ****             LED_CONTROL1_WriteCounter(0u);
  85:Generated_Source\PSoC4/LED_CONTROL1.c ****         #endif /* (LED_CONTROL1_CY_TCPWM_V2 && LED_CONTROL1_TIMER_UPDOWN_CNT_USED && !LED_CONTROL1_
  86:Generated_Source\PSoC4/LED_CONTROL1.c ****     #endif  /* (LED_CONTROL1__TIMER == LED_CONTROL1_CONFIG) */
  87:Generated_Source\PSoC4/LED_CONTROL1.c **** 
  88:Generated_Source\PSoC4/LED_CONTROL1.c ****     #if (LED_CONTROL1__PWM_SEL == LED_CONTROL1_CONFIG)
  89:Generated_Source\PSoC4/LED_CONTROL1.c ****         LED_CONTROL1_CONTROL_REG = LED_CONTROL1_CTRL_PWM_BASE_CONFIG;
  40              		.loc 1 89 0
  41 0004 114B     		ldr	r3, .L2
  42 0006 8022     		mov	r2, #128
  43 0008 D204     		lsl	r2, r2, #19
  44 000a 1A60     		str	r2, [r3]
  90:Generated_Source\PSoC4/LED_CONTROL1.c **** 
  91:Generated_Source\PSoC4/LED_CONTROL1.c ****         #if (LED_CONTROL1__PWM_PR == LED_CONTROL1_PWM_MODE)
  92:Generated_Source\PSoC4/LED_CONTROL1.c ****             LED_CONTROL1_CONTROL_REG |= LED_CONTROL1_CTRL_PWM_RUN_MODE;
  93:Generated_Source\PSoC4/LED_CONTROL1.c ****             LED_CONTROL1_WriteCounter(LED_CONTROL1_PWM_PR_INIT_VALUE);
  94:Generated_Source\PSoC4/LED_CONTROL1.c ****         #else
  95:Generated_Source\PSoC4/LED_CONTROL1.c ****             LED_CONTROL1_CONTROL_REG |= LED_CONTROL1_CTRL_PWM_ALIGN | LED_CONTROL1_CTRL_PWM_KILL_EV
  45              		.loc 1 95 0
  46 000c 0F4B     		ldr	r3, .L2
  47 000e 0F4A     		ldr	r2, .L2
  48 0010 1268     		ldr	r2, [r2]
  49 0012 1A60     		str	r2, [r3]
  96:Generated_Source\PSoC4/LED_CONTROL1.c ****             
  97:Generated_Source\PSoC4/LED_CONTROL1.c ****             /* Initialize counter value */
  98:Generated_Source\PSoC4/LED_CONTROL1.c ****             #if (LED_CONTROL1_CY_TCPWM_V2 && LED_CONTROL1_PWM_UPDOWN_CNT_USED && !LED_CONTROL1_CY_T
  99:Generated_Source\PSoC4/LED_CONTROL1.c ****                 LED_CONTROL1_WriteCounter(1u);
 100:Generated_Source\PSoC4/LED_CONTROL1.c ****             #elif (LED_CONTROL1__RIGHT == LED_CONTROL1_PWM_ALIGN)
 101:Generated_Source\PSoC4/LED_CONTROL1.c ****                 LED_CONTROL1_WriteCounter(LED_CONTROL1_PWM_PERIOD_VALUE);
 102:Generated_Source\PSoC4/LED_CONTROL1.c ****             #else 
 103:Generated_Source\PSoC4/LED_CONTROL1.c ****                 LED_CONTROL1_WriteCounter(0u);
  50              		.loc 1 103 0
  51 0014 0020     		mov	r0, #0
  52 0016 FFF7FEFF 		bl	LED_CONTROL1_WriteCounter
 104:Generated_Source\PSoC4/LED_CONTROL1.c ****             #endif  /* (LED_CONTROL1_CY_TCPWM_V2 && LED_CONTROL1_PWM_UPDOWN_CNT_USED && !LED_CONTRO
 105:Generated_Source\PSoC4/LED_CONTROL1.c ****         #endif  /* (LED_CONTROL1__PWM_PR == LED_CONTROL1_PWM_MODE) */
 106:Generated_Source\PSoC4/LED_CONTROL1.c **** 
 107:Generated_Source\PSoC4/LED_CONTROL1.c ****         #if (LED_CONTROL1__PWM_DT == LED_CONTROL1_PWM_MODE)
 108:Generated_Source\PSoC4/LED_CONTROL1.c ****             LED_CONTROL1_CONTROL_REG |= LED_CONTROL1_CTRL_PWM_DEAD_TIME_CYCLE;
 109:Generated_Source\PSoC4/LED_CONTROL1.c ****         #endif  /* (LED_CONTROL1__PWM_DT == LED_CONTROL1_PWM_MODE) */
 110:Generated_Source\PSoC4/LED_CONTROL1.c **** 
 111:Generated_Source\PSoC4/LED_CONTROL1.c ****         #if (LED_CONTROL1__PWM == LED_CONTROL1_PWM_MODE)
 112:Generated_Source\PSoC4/LED_CONTROL1.c ****             LED_CONTROL1_CONTROL_REG |= LED_CONTROL1_CTRL_PWM_PRESCALER;
  53              		.loc 1 112 0
  54 001a 0C4B     		ldr	r3, .L2
  55 001c 0B4A     		ldr	r2, .L2
  56 001e 1268     		ldr	r2, [r2]
  57 0020 8021     		mov	r1, #128
  58 0022 8900     		lsl	r1, r1, #2
  59 0024 0A43     		orr	r2, r1
ARM GAS  C:\Users\poornima\AppData\Local\Temp\ccn19ius.s 			page 4


  60 0026 1A60     		str	r2, [r3]
 113:Generated_Source\PSoC4/LED_CONTROL1.c ****         #endif  /* (LED_CONTROL1__PWM == LED_CONTROL1_PWM_MODE) */
 114:Generated_Source\PSoC4/LED_CONTROL1.c **** 
 115:Generated_Source\PSoC4/LED_CONTROL1.c ****         /* Set values from customizer to CTRL1 */
 116:Generated_Source\PSoC4/LED_CONTROL1.c ****         LED_CONTROL1_TRIG_CONTROL1_REG  = LED_CONTROL1_PWM_SIGNALS_MODES;
  61              		.loc 1 116 0
  62 0028 094B     		ldr	r3, .L2+4
  63 002a 0C22     		mov	r2, #12
  64 002c 1A60     		str	r2, [r3]
 117:Generated_Source\PSoC4/LED_CONTROL1.c ****     
 118:Generated_Source\PSoC4/LED_CONTROL1.c ****         /* Set values from customizer to INTR */
 119:Generated_Source\PSoC4/LED_CONTROL1.c ****         LED_CONTROL1_SetInterruptMode(LED_CONTROL1_PWM_INTERRUPT_MASK);
  65              		.loc 1 119 0
  66 002e 0020     		mov	r0, #0
  67 0030 FFF7FEFF 		bl	LED_CONTROL1_SetInterruptMode
 120:Generated_Source\PSoC4/LED_CONTROL1.c **** 
 121:Generated_Source\PSoC4/LED_CONTROL1.c ****         /* Set values from customizer to CTRL2 */
 122:Generated_Source\PSoC4/LED_CONTROL1.c ****         #if (LED_CONTROL1__PWM_PR == LED_CONTROL1_PWM_MODE)
 123:Generated_Source\PSoC4/LED_CONTROL1.c ****             LED_CONTROL1_TRIG_CONTROL2_REG =
 124:Generated_Source\PSoC4/LED_CONTROL1.c ****                     (LED_CONTROL1_CC_MATCH_NO_CHANGE    |
 125:Generated_Source\PSoC4/LED_CONTROL1.c ****                     LED_CONTROL1_OVERLOW_NO_CHANGE      |
 126:Generated_Source\PSoC4/LED_CONTROL1.c ****                     LED_CONTROL1_UNDERFLOW_NO_CHANGE);
 127:Generated_Source\PSoC4/LED_CONTROL1.c ****         #else
 128:Generated_Source\PSoC4/LED_CONTROL1.c ****             #if (LED_CONTROL1__LEFT == LED_CONTROL1_PWM_ALIGN)
 129:Generated_Source\PSoC4/LED_CONTROL1.c ****                 LED_CONTROL1_TRIG_CONTROL2_REG = LED_CONTROL1_PWM_MODE_LEFT;
  68              		.loc 1 129 0
  69 0034 074B     		ldr	r3, .L2+8
  70 0036 3122     		mov	r2, #49
  71 0038 1A60     		str	r2, [r3]
 130:Generated_Source\PSoC4/LED_CONTROL1.c ****             #endif  /* ( LED_CONTROL1_PWM_LEFT == LED_CONTROL1_PWM_ALIGN) */
 131:Generated_Source\PSoC4/LED_CONTROL1.c **** 
 132:Generated_Source\PSoC4/LED_CONTROL1.c ****             #if (LED_CONTROL1__RIGHT == LED_CONTROL1_PWM_ALIGN)
 133:Generated_Source\PSoC4/LED_CONTROL1.c ****                 LED_CONTROL1_TRIG_CONTROL2_REG = LED_CONTROL1_PWM_MODE_RIGHT;
 134:Generated_Source\PSoC4/LED_CONTROL1.c ****             #endif  /* ( LED_CONTROL1_PWM_RIGHT == LED_CONTROL1_PWM_ALIGN) */
 135:Generated_Source\PSoC4/LED_CONTROL1.c **** 
 136:Generated_Source\PSoC4/LED_CONTROL1.c ****             #if (LED_CONTROL1__CENTER == LED_CONTROL1_PWM_ALIGN)
 137:Generated_Source\PSoC4/LED_CONTROL1.c ****                 LED_CONTROL1_TRIG_CONTROL2_REG = LED_CONTROL1_PWM_MODE_CENTER;
 138:Generated_Source\PSoC4/LED_CONTROL1.c ****             #endif  /* ( LED_CONTROL1_PWM_CENTER == LED_CONTROL1_PWM_ALIGN) */
 139:Generated_Source\PSoC4/LED_CONTROL1.c **** 
 140:Generated_Source\PSoC4/LED_CONTROL1.c ****             #if (LED_CONTROL1__ASYMMETRIC == LED_CONTROL1_PWM_ALIGN)
 141:Generated_Source\PSoC4/LED_CONTROL1.c ****                 LED_CONTROL1_TRIG_CONTROL2_REG = LED_CONTROL1_PWM_MODE_ASYM;
 142:Generated_Source\PSoC4/LED_CONTROL1.c ****             #endif  /* (LED_CONTROL1__ASYMMETRIC == LED_CONTROL1_PWM_ALIGN) */
 143:Generated_Source\PSoC4/LED_CONTROL1.c ****         #endif  /* (LED_CONTROL1__PWM_PR == LED_CONTROL1_PWM_MODE) */
 144:Generated_Source\PSoC4/LED_CONTROL1.c **** 
 145:Generated_Source\PSoC4/LED_CONTROL1.c ****         /* Set other values from customizer */
 146:Generated_Source\PSoC4/LED_CONTROL1.c ****         LED_CONTROL1_WritePeriod(LED_CONTROL1_PWM_PERIOD_VALUE );
  72              		.loc 1 146 0
  73 003a 074B     		ldr	r3, .L2+12
  74 003c 181C     		mov	r0, r3
  75 003e FFF7FEFF 		bl	LED_CONTROL1_WritePeriod
 147:Generated_Source\PSoC4/LED_CONTROL1.c ****         LED_CONTROL1_WriteCompare(LED_CONTROL1_PWM_COMPARE_VALUE);
  76              		.loc 1 147 0
  77 0042 0120     		mov	r0, #1
  78 0044 FFF7FEFF 		bl	LED_CONTROL1_WriteCompare
 148:Generated_Source\PSoC4/LED_CONTROL1.c **** 
 149:Generated_Source\PSoC4/LED_CONTROL1.c ****         #if (1u == LED_CONTROL1_PWM_COMPARE_SWAP)
 150:Generated_Source\PSoC4/LED_CONTROL1.c ****             LED_CONTROL1_SetCompareSwap(1u);
ARM GAS  C:\Users\poornima\AppData\Local\Temp\ccn19ius.s 			page 5


 151:Generated_Source\PSoC4/LED_CONTROL1.c ****             LED_CONTROL1_WriteCompareBuf(LED_CONTROL1_PWM_COMPARE_BUF_VALUE);
 152:Generated_Source\PSoC4/LED_CONTROL1.c ****         #endif  /* (1u == LED_CONTROL1_PWM_COMPARE_SWAP) */
 153:Generated_Source\PSoC4/LED_CONTROL1.c **** 
 154:Generated_Source\PSoC4/LED_CONTROL1.c ****         #if (1u == LED_CONTROL1_PWM_PERIOD_SWAP)
 155:Generated_Source\PSoC4/LED_CONTROL1.c ****             LED_CONTROL1_SetPeriodSwap(1u);
 156:Generated_Source\PSoC4/LED_CONTROL1.c ****             LED_CONTROL1_WritePeriodBuf(LED_CONTROL1_PWM_PERIOD_BUF_VALUE);
 157:Generated_Source\PSoC4/LED_CONTROL1.c ****         #endif  /* (1u == LED_CONTROL1_PWM_PERIOD_SWAP) */
 158:Generated_Source\PSoC4/LED_CONTROL1.c ****     #endif  /* (LED_CONTROL1__PWM_SEL == LED_CONTROL1_CONFIG) */
 159:Generated_Source\PSoC4/LED_CONTROL1.c ****     
 160:Generated_Source\PSoC4/LED_CONTROL1.c **** }
  79              		.loc 1 160 0
  80 0048 BD46     		mov	sp, r7
  81              		@ sp needed
  82 004a 80BD     		pop	{r7, pc}
  83              	.L3:
  84              		.align	2
  85              	.L2:
  86 004c 40012040 		.word	1075839296
  87 0050 64012040 		.word	1075839332
  88 0054 68012040 		.word	1075839336
  89 0058 FFFF0000 		.word	65535
  90              		.cfi_endproc
  91              	.LFE1:
  92              		.size	LED_CONTROL1_Init, .-LED_CONTROL1_Init
  93              		.section	.text.LED_CONTROL1_Enable,"ax",%progbits
  94              		.align	2
  95              		.global	LED_CONTROL1_Enable
  96              		.code	16
  97              		.thumb_func
  98              		.type	LED_CONTROL1_Enable, %function
  99              	LED_CONTROL1_Enable:
 100              	.LFB2:
 161:Generated_Source\PSoC4/LED_CONTROL1.c **** 
 162:Generated_Source\PSoC4/LED_CONTROL1.c **** 
 163:Generated_Source\PSoC4/LED_CONTROL1.c **** /*******************************************************************************
 164:Generated_Source\PSoC4/LED_CONTROL1.c **** * Function Name: LED_CONTROL1_Enable
 165:Generated_Source\PSoC4/LED_CONTROL1.c **** ********************************************************************************
 166:Generated_Source\PSoC4/LED_CONTROL1.c **** *
 167:Generated_Source\PSoC4/LED_CONTROL1.c **** * Summary:
 168:Generated_Source\PSoC4/LED_CONTROL1.c **** *  Enables the LED_CONTROL1.
 169:Generated_Source\PSoC4/LED_CONTROL1.c **** *
 170:Generated_Source\PSoC4/LED_CONTROL1.c **** * Parameters:
 171:Generated_Source\PSoC4/LED_CONTROL1.c **** *  None
 172:Generated_Source\PSoC4/LED_CONTROL1.c **** *
 173:Generated_Source\PSoC4/LED_CONTROL1.c **** * Return:
 174:Generated_Source\PSoC4/LED_CONTROL1.c **** *  None
 175:Generated_Source\PSoC4/LED_CONTROL1.c **** *
 176:Generated_Source\PSoC4/LED_CONTROL1.c **** *******************************************************************************/
 177:Generated_Source\PSoC4/LED_CONTROL1.c **** void LED_CONTROL1_Enable(void)
 178:Generated_Source\PSoC4/LED_CONTROL1.c **** {
 101              		.loc 1 178 0
 102              		.cfi_startproc
 103 0000 90B5     		push	{r4, r7, lr}
 104              		.cfi_def_cfa_offset 12
 105              		.cfi_offset 4, -12
 106              		.cfi_offset 7, -8
 107              		.cfi_offset 14, -4
ARM GAS  C:\Users\poornima\AppData\Local\Temp\ccn19ius.s 			page 6


 108 0002 83B0     		sub	sp, sp, #12
 109              		.cfi_def_cfa_offset 24
 110 0004 00AF     		add	r7, sp, #0
 111              		.cfi_def_cfa_register 7
 179:Generated_Source\PSoC4/LED_CONTROL1.c ****     uint8 enableInterrupts;
 180:Generated_Source\PSoC4/LED_CONTROL1.c **** 
 181:Generated_Source\PSoC4/LED_CONTROL1.c ****     enableInterrupts = CyEnterCriticalSection();
 112              		.loc 1 181 0
 113 0006 FC1D     		add	r4, r7, #7
 114 0008 FFF7FEFF 		bl	CyEnterCriticalSection
 115 000c 031C     		mov	r3, r0
 116 000e 2370     		strb	r3, [r4]
 182:Generated_Source\PSoC4/LED_CONTROL1.c ****     LED_CONTROL1_BLOCK_CONTROL_REG |= LED_CONTROL1_MASK;
 117              		.loc 1 182 0
 118 0010 084B     		ldr	r3, .L5
 119 0012 084A     		ldr	r2, .L5
 120 0014 1268     		ldr	r2, [r2]
 121 0016 0221     		mov	r1, #2
 122 0018 0A43     		orr	r2, r1
 123 001a 1A60     		str	r2, [r3]
 183:Generated_Source\PSoC4/LED_CONTROL1.c ****     CyExitCriticalSection(enableInterrupts);
 124              		.loc 1 183 0
 125 001c FB1D     		add	r3, r7, #7
 126 001e 1B78     		ldrb	r3, [r3]
 127 0020 181C     		mov	r0, r3
 128 0022 FFF7FEFF 		bl	CyExitCriticalSection
 184:Generated_Source\PSoC4/LED_CONTROL1.c **** 
 185:Generated_Source\PSoC4/LED_CONTROL1.c ****     /* Start Timer or PWM if start input is absent */
 186:Generated_Source\PSoC4/LED_CONTROL1.c ****     #if (LED_CONTROL1__PWM_SEL == LED_CONTROL1_CONFIG)
 187:Generated_Source\PSoC4/LED_CONTROL1.c ****         #if (0u == LED_CONTROL1_PWM_START_SIGNAL_PRESENT)
 188:Generated_Source\PSoC4/LED_CONTROL1.c ****             LED_CONTROL1_TriggerCommand(LED_CONTROL1_MASK, LED_CONTROL1_CMD_START);
 129              		.loc 1 188 0
 130 0026 0220     		mov	r0, #2
 131 0028 1821     		mov	r1, #24
 132 002a FFF7FEFF 		bl	LED_CONTROL1_TriggerCommand
 189:Generated_Source\PSoC4/LED_CONTROL1.c ****         #endif /* (0u == LED_CONTROL1_PWM_START_SIGNAL_PRESENT) */
 190:Generated_Source\PSoC4/LED_CONTROL1.c ****     #endif /* (LED_CONTROL1__PWM_SEL == LED_CONTROL1_CONFIG) */
 191:Generated_Source\PSoC4/LED_CONTROL1.c **** 
 192:Generated_Source\PSoC4/LED_CONTROL1.c ****     #if (LED_CONTROL1__TIMER == LED_CONTROL1_CONFIG)
 193:Generated_Source\PSoC4/LED_CONTROL1.c ****         #if (0u == LED_CONTROL1_TC_START_SIGNAL_PRESENT)
 194:Generated_Source\PSoC4/LED_CONTROL1.c ****             LED_CONTROL1_TriggerCommand(LED_CONTROL1_MASK, LED_CONTROL1_CMD_START);
 195:Generated_Source\PSoC4/LED_CONTROL1.c ****         #endif /* (0u == LED_CONTROL1_TC_START_SIGNAL_PRESENT) */
 196:Generated_Source\PSoC4/LED_CONTROL1.c ****     #endif /* (LED_CONTROL1__TIMER == LED_CONTROL1_CONFIG) */
 197:Generated_Source\PSoC4/LED_CONTROL1.c ****     
 198:Generated_Source\PSoC4/LED_CONTROL1.c ****     #if (LED_CONTROL1__QUAD == LED_CONTROL1_CONFIG)
 199:Generated_Source\PSoC4/LED_CONTROL1.c ****         #if (0u != LED_CONTROL1_QUAD_AUTO_START)
 200:Generated_Source\PSoC4/LED_CONTROL1.c ****             LED_CONTROL1_TriggerCommand(LED_CONTROL1_MASK, LED_CONTROL1_CMD_RELOAD);
 201:Generated_Source\PSoC4/LED_CONTROL1.c ****         #endif /* (0u != LED_CONTROL1_QUAD_AUTO_START) */
 202:Generated_Source\PSoC4/LED_CONTROL1.c ****     #endif  /* (LED_CONTROL1__QUAD == LED_CONTROL1_CONFIG) */
 203:Generated_Source\PSoC4/LED_CONTROL1.c **** }
 133              		.loc 1 203 0
 134 002e BD46     		mov	sp, r7
 135 0030 03B0     		add	sp, sp, #12
 136              		@ sp needed
 137 0032 90BD     		pop	{r4, r7, pc}
 138              	.L6:
 139              		.align	2
ARM GAS  C:\Users\poornima\AppData\Local\Temp\ccn19ius.s 			page 7


 140              	.L5:
 141 0034 00002040 		.word	1075838976
 142              		.cfi_endproc
 143              	.LFE2:
 144              		.size	LED_CONTROL1_Enable, .-LED_CONTROL1_Enable
 145              		.section	.text.LED_CONTROL1_Start,"ax",%progbits
 146              		.align	2
 147              		.global	LED_CONTROL1_Start
 148              		.code	16
 149              		.thumb_func
 150              		.type	LED_CONTROL1_Start, %function
 151              	LED_CONTROL1_Start:
 152              	.LFB3:
 204:Generated_Source\PSoC4/LED_CONTROL1.c **** 
 205:Generated_Source\PSoC4/LED_CONTROL1.c **** 
 206:Generated_Source\PSoC4/LED_CONTROL1.c **** /*******************************************************************************
 207:Generated_Source\PSoC4/LED_CONTROL1.c **** * Function Name: LED_CONTROL1_Start
 208:Generated_Source\PSoC4/LED_CONTROL1.c **** ********************************************************************************
 209:Generated_Source\PSoC4/LED_CONTROL1.c **** *
 210:Generated_Source\PSoC4/LED_CONTROL1.c **** * Summary:
 211:Generated_Source\PSoC4/LED_CONTROL1.c **** *  Initializes the LED_CONTROL1 with default customizer
 212:Generated_Source\PSoC4/LED_CONTROL1.c **** *  values when called the first time and enables the LED_CONTROL1.
 213:Generated_Source\PSoC4/LED_CONTROL1.c **** *  For subsequent calls the configuration is left unchanged and the component is
 214:Generated_Source\PSoC4/LED_CONTROL1.c **** *  just enabled.
 215:Generated_Source\PSoC4/LED_CONTROL1.c **** *
 216:Generated_Source\PSoC4/LED_CONTROL1.c **** * Parameters:
 217:Generated_Source\PSoC4/LED_CONTROL1.c **** *  None
 218:Generated_Source\PSoC4/LED_CONTROL1.c **** *
 219:Generated_Source\PSoC4/LED_CONTROL1.c **** * Return:
 220:Generated_Source\PSoC4/LED_CONTROL1.c **** *  None
 221:Generated_Source\PSoC4/LED_CONTROL1.c **** *
 222:Generated_Source\PSoC4/LED_CONTROL1.c **** * Global variables:
 223:Generated_Source\PSoC4/LED_CONTROL1.c **** *  LED_CONTROL1_initVar: global variable is used to indicate initial
 224:Generated_Source\PSoC4/LED_CONTROL1.c **** *  configuration of this component.  The variable is initialized to zero and set
 225:Generated_Source\PSoC4/LED_CONTROL1.c **** *  to 1 the first time LED_CONTROL1_Start() is called. This allows
 226:Generated_Source\PSoC4/LED_CONTROL1.c **** *  enabling/disabling a component without re-initialization in all subsequent
 227:Generated_Source\PSoC4/LED_CONTROL1.c **** *  calls to the LED_CONTROL1_Start() routine.
 228:Generated_Source\PSoC4/LED_CONTROL1.c **** *
 229:Generated_Source\PSoC4/LED_CONTROL1.c **** *******************************************************************************/
 230:Generated_Source\PSoC4/LED_CONTROL1.c **** void LED_CONTROL1_Start(void)
 231:Generated_Source\PSoC4/LED_CONTROL1.c **** {
 153              		.loc 1 231 0
 154              		.cfi_startproc
 155 0000 80B5     		push	{r7, lr}
 156              		.cfi_def_cfa_offset 8
 157              		.cfi_offset 7, -8
 158              		.cfi_offset 14, -4
 159 0002 00AF     		add	r7, sp, #0
 160              		.cfi_def_cfa_register 7
 232:Generated_Source\PSoC4/LED_CONTROL1.c ****     if (0u == LED_CONTROL1_initVar)
 161              		.loc 1 232 0
 162 0004 064B     		ldr	r3, .L9
 163 0006 1B78     		ldrb	r3, [r3]
 164 0008 002B     		cmp	r3, #0
 165 000a 04D1     		bne	.L8
 233:Generated_Source\PSoC4/LED_CONTROL1.c ****     {
 234:Generated_Source\PSoC4/LED_CONTROL1.c ****         LED_CONTROL1_Init();
ARM GAS  C:\Users\poornima\AppData\Local\Temp\ccn19ius.s 			page 8


 166              		.loc 1 234 0
 167 000c FFF7FEFF 		bl	LED_CONTROL1_Init
 235:Generated_Source\PSoC4/LED_CONTROL1.c ****         LED_CONTROL1_initVar = 1u;
 168              		.loc 1 235 0
 169 0010 034B     		ldr	r3, .L9
 170 0012 0122     		mov	r2, #1
 171 0014 1A70     		strb	r2, [r3]
 172              	.L8:
 236:Generated_Source\PSoC4/LED_CONTROL1.c ****     }
 237:Generated_Source\PSoC4/LED_CONTROL1.c **** 
 238:Generated_Source\PSoC4/LED_CONTROL1.c ****     LED_CONTROL1_Enable();
 173              		.loc 1 238 0
 174 0016 FFF7FEFF 		bl	LED_CONTROL1_Enable
 239:Generated_Source\PSoC4/LED_CONTROL1.c **** }
 175              		.loc 1 239 0
 176 001a BD46     		mov	sp, r7
 177              		@ sp needed
 178 001c 80BD     		pop	{r7, pc}
 179              	.L10:
 180 001e C046     		.align	2
 181              	.L9:
 182 0020 00000000 		.word	LED_CONTROL1_initVar
 183              		.cfi_endproc
 184              	.LFE3:
 185              		.size	LED_CONTROL1_Start, .-LED_CONTROL1_Start
 186              		.section	.text.LED_CONTROL1_Stop,"ax",%progbits
 187              		.align	2
 188              		.global	LED_CONTROL1_Stop
 189              		.code	16
 190              		.thumb_func
 191              		.type	LED_CONTROL1_Stop, %function
 192              	LED_CONTROL1_Stop:
 193              	.LFB4:
 240:Generated_Source\PSoC4/LED_CONTROL1.c **** 
 241:Generated_Source\PSoC4/LED_CONTROL1.c **** 
 242:Generated_Source\PSoC4/LED_CONTROL1.c **** /*******************************************************************************
 243:Generated_Source\PSoC4/LED_CONTROL1.c **** * Function Name: LED_CONTROL1_Stop
 244:Generated_Source\PSoC4/LED_CONTROL1.c **** ********************************************************************************
 245:Generated_Source\PSoC4/LED_CONTROL1.c **** *
 246:Generated_Source\PSoC4/LED_CONTROL1.c **** * Summary:
 247:Generated_Source\PSoC4/LED_CONTROL1.c **** *  Disables the LED_CONTROL1.
 248:Generated_Source\PSoC4/LED_CONTROL1.c **** *
 249:Generated_Source\PSoC4/LED_CONTROL1.c **** * Parameters:
 250:Generated_Source\PSoC4/LED_CONTROL1.c **** *  None
 251:Generated_Source\PSoC4/LED_CONTROL1.c **** *
 252:Generated_Source\PSoC4/LED_CONTROL1.c **** * Return:
 253:Generated_Source\PSoC4/LED_CONTROL1.c **** *  None
 254:Generated_Source\PSoC4/LED_CONTROL1.c **** *
 255:Generated_Source\PSoC4/LED_CONTROL1.c **** *******************************************************************************/
 256:Generated_Source\PSoC4/LED_CONTROL1.c **** void LED_CONTROL1_Stop(void)
 257:Generated_Source\PSoC4/LED_CONTROL1.c **** {
 194              		.loc 1 257 0
 195              		.cfi_startproc
 196 0000 90B5     		push	{r4, r7, lr}
 197              		.cfi_def_cfa_offset 12
 198              		.cfi_offset 4, -12
 199              		.cfi_offset 7, -8
ARM GAS  C:\Users\poornima\AppData\Local\Temp\ccn19ius.s 			page 9


 200              		.cfi_offset 14, -4
 201 0002 83B0     		sub	sp, sp, #12
 202              		.cfi_def_cfa_offset 24
 203 0004 00AF     		add	r7, sp, #0
 204              		.cfi_def_cfa_register 7
 258:Generated_Source\PSoC4/LED_CONTROL1.c ****     uint8 enableInterrupts;
 259:Generated_Source\PSoC4/LED_CONTROL1.c **** 
 260:Generated_Source\PSoC4/LED_CONTROL1.c ****     enableInterrupts = CyEnterCriticalSection();
 205              		.loc 1 260 0
 206 0006 FC1D     		add	r4, r7, #7
 207 0008 FFF7FEFF 		bl	CyEnterCriticalSection
 208 000c 031C     		mov	r3, r0
 209 000e 2370     		strb	r3, [r4]
 261:Generated_Source\PSoC4/LED_CONTROL1.c **** 
 262:Generated_Source\PSoC4/LED_CONTROL1.c ****     LED_CONTROL1_BLOCK_CONTROL_REG &= (uint32)~LED_CONTROL1_MASK;
 210              		.loc 1 262 0
 211 0010 064B     		ldr	r3, .L12
 212 0012 064A     		ldr	r2, .L12
 213 0014 1268     		ldr	r2, [r2]
 214 0016 0221     		mov	r1, #2
 215 0018 8A43     		bic	r2, r1
 216 001a 1A60     		str	r2, [r3]
 263:Generated_Source\PSoC4/LED_CONTROL1.c **** 
 264:Generated_Source\PSoC4/LED_CONTROL1.c ****     CyExitCriticalSection(enableInterrupts);
 217              		.loc 1 264 0
 218 001c FB1D     		add	r3, r7, #7
 219 001e 1B78     		ldrb	r3, [r3]
 220 0020 181C     		mov	r0, r3
 221 0022 FFF7FEFF 		bl	CyExitCriticalSection
 265:Generated_Source\PSoC4/LED_CONTROL1.c **** }
 222              		.loc 1 265 0
 223 0026 BD46     		mov	sp, r7
 224 0028 03B0     		add	sp, sp, #12
 225              		@ sp needed
 226 002a 90BD     		pop	{r4, r7, pc}
 227              	.L13:
 228              		.align	2
 229              	.L12:
 230 002c 00002040 		.word	1075838976
 231              		.cfi_endproc
 232              	.LFE4:
 233              		.size	LED_CONTROL1_Stop, .-LED_CONTROL1_Stop
 234              		.section	.text.LED_CONTROL1_SetMode,"ax",%progbits
 235              		.align	2
 236              		.global	LED_CONTROL1_SetMode
 237              		.code	16
 238              		.thumb_func
 239              		.type	LED_CONTROL1_SetMode, %function
 240              	LED_CONTROL1_SetMode:
 241              	.LFB5:
 266:Generated_Source\PSoC4/LED_CONTROL1.c **** 
 267:Generated_Source\PSoC4/LED_CONTROL1.c **** 
 268:Generated_Source\PSoC4/LED_CONTROL1.c **** /*******************************************************************************
 269:Generated_Source\PSoC4/LED_CONTROL1.c **** * Function Name: LED_CONTROL1_SetMode
 270:Generated_Source\PSoC4/LED_CONTROL1.c **** ********************************************************************************
 271:Generated_Source\PSoC4/LED_CONTROL1.c **** *
 272:Generated_Source\PSoC4/LED_CONTROL1.c **** * Summary:
ARM GAS  C:\Users\poornima\AppData\Local\Temp\ccn19ius.s 			page 10


 273:Generated_Source\PSoC4/LED_CONTROL1.c **** *  Sets the operation mode of the LED_CONTROL1. This function is used when
 274:Generated_Source\PSoC4/LED_CONTROL1.c **** *  configured as a generic LED_CONTROL1 and the actual mode of operation is
 275:Generated_Source\PSoC4/LED_CONTROL1.c **** *  set at runtime. The mode must be set while the component is disabled.
 276:Generated_Source\PSoC4/LED_CONTROL1.c **** *
 277:Generated_Source\PSoC4/LED_CONTROL1.c **** * Parameters:
 278:Generated_Source\PSoC4/LED_CONTROL1.c **** *  mode: Mode for the LED_CONTROL1 to operate in
 279:Generated_Source\PSoC4/LED_CONTROL1.c **** *   Values:
 280:Generated_Source\PSoC4/LED_CONTROL1.c **** *   - LED_CONTROL1_MODE_TIMER_COMPARE - Timer / Counter with
 281:Generated_Source\PSoC4/LED_CONTROL1.c **** *                                                 compare capability
 282:Generated_Source\PSoC4/LED_CONTROL1.c **** *         - LED_CONTROL1_MODE_TIMER_CAPTURE - Timer / Counter with
 283:Generated_Source\PSoC4/LED_CONTROL1.c **** *                                                 capture capability
 284:Generated_Source\PSoC4/LED_CONTROL1.c **** *         - LED_CONTROL1_MODE_QUAD - Quadrature decoder
 285:Generated_Source\PSoC4/LED_CONTROL1.c **** *         - LED_CONTROL1_MODE_PWM - PWM
 286:Generated_Source\PSoC4/LED_CONTROL1.c **** *         - LED_CONTROL1_MODE_PWM_DT - PWM with dead time
 287:Generated_Source\PSoC4/LED_CONTROL1.c **** *         - LED_CONTROL1_MODE_PWM_PR - PWM with pseudo random capability
 288:Generated_Source\PSoC4/LED_CONTROL1.c **** *
 289:Generated_Source\PSoC4/LED_CONTROL1.c **** * Return:
 290:Generated_Source\PSoC4/LED_CONTROL1.c **** *  None
 291:Generated_Source\PSoC4/LED_CONTROL1.c **** *
 292:Generated_Source\PSoC4/LED_CONTROL1.c **** *******************************************************************************/
 293:Generated_Source\PSoC4/LED_CONTROL1.c **** void LED_CONTROL1_SetMode(uint32 mode)
 294:Generated_Source\PSoC4/LED_CONTROL1.c **** {
 242              		.loc 1 294 0
 243              		.cfi_startproc
 244 0000 90B5     		push	{r4, r7, lr}
 245              		.cfi_def_cfa_offset 12
 246              		.cfi_offset 4, -12
 247              		.cfi_offset 7, -8
 248              		.cfi_offset 14, -4
 249 0002 85B0     		sub	sp, sp, #20
 250              		.cfi_def_cfa_offset 32
 251 0004 00AF     		add	r7, sp, #0
 252              		.cfi_def_cfa_register 7
 253 0006 7860     		str	r0, [r7, #4]
 295:Generated_Source\PSoC4/LED_CONTROL1.c ****     uint8 enableInterrupts;
 296:Generated_Source\PSoC4/LED_CONTROL1.c **** 
 297:Generated_Source\PSoC4/LED_CONTROL1.c ****     enableInterrupts = CyEnterCriticalSection();
 254              		.loc 1 297 0
 255 0008 0F23     		mov	r3, #15
 256 000a FC18     		add	r4, r7, r3
 257 000c FFF7FEFF 		bl	CyEnterCriticalSection
 258 0010 031C     		mov	r3, r0
 259 0012 2370     		strb	r3, [r4]
 298:Generated_Source\PSoC4/LED_CONTROL1.c **** 
 299:Generated_Source\PSoC4/LED_CONTROL1.c ****     LED_CONTROL1_CONTROL_REG &= (uint32)~LED_CONTROL1_MODE_MASK;
 260              		.loc 1 299 0
 261 0014 0A4B     		ldr	r3, .L15
 262 0016 0A4A     		ldr	r2, .L15
 263 0018 1268     		ldr	r2, [r2]
 264 001a 0A49     		ldr	r1, .L15+4
 265 001c 0A40     		and	r2, r1
 266 001e 1A60     		str	r2, [r3]
 300:Generated_Source\PSoC4/LED_CONTROL1.c ****     LED_CONTROL1_CONTROL_REG |= mode;
 267              		.loc 1 300 0
 268 0020 074B     		ldr	r3, .L15
 269 0022 074A     		ldr	r2, .L15
 270 0024 1168     		ldr	r1, [r2]
ARM GAS  C:\Users\poornima\AppData\Local\Temp\ccn19ius.s 			page 11


 271 0026 7A68     		ldr	r2, [r7, #4]
 272 0028 0A43     		orr	r2, r1
 273 002a 1A60     		str	r2, [r3]
 301:Generated_Source\PSoC4/LED_CONTROL1.c **** 
 302:Generated_Source\PSoC4/LED_CONTROL1.c ****     CyExitCriticalSection(enableInterrupts);
 274              		.loc 1 302 0
 275 002c 0F23     		mov	r3, #15
 276 002e FB18     		add	r3, r7, r3
 277 0030 1B78     		ldrb	r3, [r3]
 278 0032 181C     		mov	r0, r3
 279 0034 FFF7FEFF 		bl	CyExitCriticalSection
 303:Generated_Source\PSoC4/LED_CONTROL1.c **** }
 280              		.loc 1 303 0
 281 0038 BD46     		mov	sp, r7
 282 003a 05B0     		add	sp, sp, #20
 283              		@ sp needed
 284 003c 90BD     		pop	{r4, r7, pc}
 285              	.L16:
 286 003e C046     		.align	2
 287              	.L15:
 288 0040 40012040 		.word	1075839296
 289 0044 FFFFFFF8 		.word	-117440513
 290              		.cfi_endproc
 291              	.LFE5:
 292              		.size	LED_CONTROL1_SetMode, .-LED_CONTROL1_SetMode
 293              		.section	.text.LED_CONTROL1_SetQDMode,"ax",%progbits
 294              		.align	2
 295              		.global	LED_CONTROL1_SetQDMode
 296              		.code	16
 297              		.thumb_func
 298              		.type	LED_CONTROL1_SetQDMode, %function
 299              	LED_CONTROL1_SetQDMode:
 300              	.LFB6:
 304:Generated_Source\PSoC4/LED_CONTROL1.c **** 
 305:Generated_Source\PSoC4/LED_CONTROL1.c **** 
 306:Generated_Source\PSoC4/LED_CONTROL1.c **** /*******************************************************************************
 307:Generated_Source\PSoC4/LED_CONTROL1.c **** * Function Name: LED_CONTROL1_SetQDMode
 308:Generated_Source\PSoC4/LED_CONTROL1.c **** ********************************************************************************
 309:Generated_Source\PSoC4/LED_CONTROL1.c **** *
 310:Generated_Source\PSoC4/LED_CONTROL1.c **** * Summary:
 311:Generated_Source\PSoC4/LED_CONTROL1.c **** *  Sets the the Quadrature Decoder to one of the 3 supported modes.
 312:Generated_Source\PSoC4/LED_CONTROL1.c **** *  Its functionality is only applicable to Quadrature Decoder operation.
 313:Generated_Source\PSoC4/LED_CONTROL1.c **** *
 314:Generated_Source\PSoC4/LED_CONTROL1.c **** * Parameters:
 315:Generated_Source\PSoC4/LED_CONTROL1.c **** *  qdMode: Quadrature Decoder mode
 316:Generated_Source\PSoC4/LED_CONTROL1.c **** *   Values:
 317:Generated_Source\PSoC4/LED_CONTROL1.c **** *         - LED_CONTROL1_MODE_X1 - Counts on phi 1 rising
 318:Generated_Source\PSoC4/LED_CONTROL1.c **** *         - LED_CONTROL1_MODE_X2 - Counts on both edges of phi1 (2x faster)
 319:Generated_Source\PSoC4/LED_CONTROL1.c **** *         - LED_CONTROL1_MODE_X4 - Counts on both edges of phi1 and phi2
 320:Generated_Source\PSoC4/LED_CONTROL1.c **** *                                        (4x faster)
 321:Generated_Source\PSoC4/LED_CONTROL1.c **** *
 322:Generated_Source\PSoC4/LED_CONTROL1.c **** * Return:
 323:Generated_Source\PSoC4/LED_CONTROL1.c **** *  None
 324:Generated_Source\PSoC4/LED_CONTROL1.c **** *
 325:Generated_Source\PSoC4/LED_CONTROL1.c **** *******************************************************************************/
 326:Generated_Source\PSoC4/LED_CONTROL1.c **** void LED_CONTROL1_SetQDMode(uint32 qdMode)
 327:Generated_Source\PSoC4/LED_CONTROL1.c **** {
ARM GAS  C:\Users\poornima\AppData\Local\Temp\ccn19ius.s 			page 12


 301              		.loc 1 327 0
 302              		.cfi_startproc
 303 0000 90B5     		push	{r4, r7, lr}
 304              		.cfi_def_cfa_offset 12
 305              		.cfi_offset 4, -12
 306              		.cfi_offset 7, -8
 307              		.cfi_offset 14, -4
 308 0002 85B0     		sub	sp, sp, #20
 309              		.cfi_def_cfa_offset 32
 310 0004 00AF     		add	r7, sp, #0
 311              		.cfi_def_cfa_register 7
 312 0006 7860     		str	r0, [r7, #4]
 328:Generated_Source\PSoC4/LED_CONTROL1.c ****     uint8 enableInterrupts;
 329:Generated_Source\PSoC4/LED_CONTROL1.c **** 
 330:Generated_Source\PSoC4/LED_CONTROL1.c ****     enableInterrupts = CyEnterCriticalSection();
 313              		.loc 1 330 0
 314 0008 0F23     		mov	r3, #15
 315 000a FC18     		add	r4, r7, r3
 316 000c FFF7FEFF 		bl	CyEnterCriticalSection
 317 0010 031C     		mov	r3, r0
 318 0012 2370     		strb	r3, [r4]
 331:Generated_Source\PSoC4/LED_CONTROL1.c **** 
 332:Generated_Source\PSoC4/LED_CONTROL1.c ****     LED_CONTROL1_CONTROL_REG &= (uint32)~LED_CONTROL1_QUAD_MODE_MASK;
 319              		.loc 1 332 0
 320 0014 0A4B     		ldr	r3, .L18
 321 0016 0A4A     		ldr	r2, .L18
 322 0018 1268     		ldr	r2, [r2]
 323 001a 0A49     		ldr	r1, .L18+4
 324 001c 0A40     		and	r2, r1
 325 001e 1A60     		str	r2, [r3]
 333:Generated_Source\PSoC4/LED_CONTROL1.c ****     LED_CONTROL1_CONTROL_REG |= qdMode;
 326              		.loc 1 333 0
 327 0020 074B     		ldr	r3, .L18
 328 0022 074A     		ldr	r2, .L18
 329 0024 1168     		ldr	r1, [r2]
 330 0026 7A68     		ldr	r2, [r7, #4]
 331 0028 0A43     		orr	r2, r1
 332 002a 1A60     		str	r2, [r3]
 334:Generated_Source\PSoC4/LED_CONTROL1.c **** 
 335:Generated_Source\PSoC4/LED_CONTROL1.c ****     CyExitCriticalSection(enableInterrupts);
 333              		.loc 1 335 0
 334 002c 0F23     		mov	r3, #15
 335 002e FB18     		add	r3, r7, r3
 336 0030 1B78     		ldrb	r3, [r3]
 337 0032 181C     		mov	r0, r3
 338 0034 FFF7FEFF 		bl	CyExitCriticalSection
 336:Generated_Source\PSoC4/LED_CONTROL1.c **** }
 339              		.loc 1 336 0
 340 0038 BD46     		mov	sp, r7
 341 003a 05B0     		add	sp, sp, #20
 342              		@ sp needed
 343 003c 90BD     		pop	{r4, r7, pc}
 344              	.L19:
 345 003e C046     		.align	2
 346              	.L18:
 347 0040 40012040 		.word	1075839296
 348 0044 FFFF8FFF 		.word	-7340033
ARM GAS  C:\Users\poornima\AppData\Local\Temp\ccn19ius.s 			page 13


 349              		.cfi_endproc
 350              	.LFE6:
 351              		.size	LED_CONTROL1_SetQDMode, .-LED_CONTROL1_SetQDMode
 352              		.section	.text.LED_CONTROL1_SetPrescaler,"ax",%progbits
 353              		.align	2
 354              		.global	LED_CONTROL1_SetPrescaler
 355              		.code	16
 356              		.thumb_func
 357              		.type	LED_CONTROL1_SetPrescaler, %function
 358              	LED_CONTROL1_SetPrescaler:
 359              	.LFB7:
 337:Generated_Source\PSoC4/LED_CONTROL1.c **** 
 338:Generated_Source\PSoC4/LED_CONTROL1.c **** 
 339:Generated_Source\PSoC4/LED_CONTROL1.c **** /*******************************************************************************
 340:Generated_Source\PSoC4/LED_CONTROL1.c **** * Function Name: LED_CONTROL1_SetPrescaler
 341:Generated_Source\PSoC4/LED_CONTROL1.c **** ********************************************************************************
 342:Generated_Source\PSoC4/LED_CONTROL1.c **** *
 343:Generated_Source\PSoC4/LED_CONTROL1.c **** * Summary:
 344:Generated_Source\PSoC4/LED_CONTROL1.c **** *  Sets the prescaler value that is applied to the clock input.  Not applicable
 345:Generated_Source\PSoC4/LED_CONTROL1.c **** *  to a PWM with the dead time mode or Quadrature Decoder mode.
 346:Generated_Source\PSoC4/LED_CONTROL1.c **** *
 347:Generated_Source\PSoC4/LED_CONTROL1.c **** * Parameters:
 348:Generated_Source\PSoC4/LED_CONTROL1.c **** *  prescaler: Prescaler divider value
 349:Generated_Source\PSoC4/LED_CONTROL1.c **** *   Values:
 350:Generated_Source\PSoC4/LED_CONTROL1.c **** *         - LED_CONTROL1_PRESCALE_DIVBY1    - Divide by 1 (no prescaling)
 351:Generated_Source\PSoC4/LED_CONTROL1.c **** *         - LED_CONTROL1_PRESCALE_DIVBY2    - Divide by 2
 352:Generated_Source\PSoC4/LED_CONTROL1.c **** *         - LED_CONTROL1_PRESCALE_DIVBY4    - Divide by 4
 353:Generated_Source\PSoC4/LED_CONTROL1.c **** *         - LED_CONTROL1_PRESCALE_DIVBY8    - Divide by 8
 354:Generated_Source\PSoC4/LED_CONTROL1.c **** *         - LED_CONTROL1_PRESCALE_DIVBY16   - Divide by 16
 355:Generated_Source\PSoC4/LED_CONTROL1.c **** *         - LED_CONTROL1_PRESCALE_DIVBY32   - Divide by 32
 356:Generated_Source\PSoC4/LED_CONTROL1.c **** *         - LED_CONTROL1_PRESCALE_DIVBY64   - Divide by 64
 357:Generated_Source\PSoC4/LED_CONTROL1.c **** *         - LED_CONTROL1_PRESCALE_DIVBY128  - Divide by 128
 358:Generated_Source\PSoC4/LED_CONTROL1.c **** *
 359:Generated_Source\PSoC4/LED_CONTROL1.c **** * Return:
 360:Generated_Source\PSoC4/LED_CONTROL1.c **** *  None
 361:Generated_Source\PSoC4/LED_CONTROL1.c **** *
 362:Generated_Source\PSoC4/LED_CONTROL1.c **** *******************************************************************************/
 363:Generated_Source\PSoC4/LED_CONTROL1.c **** void LED_CONTROL1_SetPrescaler(uint32 prescaler)
 364:Generated_Source\PSoC4/LED_CONTROL1.c **** {
 360              		.loc 1 364 0
 361              		.cfi_startproc
 362 0000 90B5     		push	{r4, r7, lr}
 363              		.cfi_def_cfa_offset 12
 364              		.cfi_offset 4, -12
 365              		.cfi_offset 7, -8
 366              		.cfi_offset 14, -4
 367 0002 85B0     		sub	sp, sp, #20
 368              		.cfi_def_cfa_offset 32
 369 0004 00AF     		add	r7, sp, #0
 370              		.cfi_def_cfa_register 7
 371 0006 7860     		str	r0, [r7, #4]
 365:Generated_Source\PSoC4/LED_CONTROL1.c ****     uint8 enableInterrupts;
 366:Generated_Source\PSoC4/LED_CONTROL1.c **** 
 367:Generated_Source\PSoC4/LED_CONTROL1.c ****     enableInterrupts = CyEnterCriticalSection();
 372              		.loc 1 367 0
 373 0008 0F23     		mov	r3, #15
 374 000a FC18     		add	r4, r7, r3
ARM GAS  C:\Users\poornima\AppData\Local\Temp\ccn19ius.s 			page 14


 375 000c FFF7FEFF 		bl	CyEnterCriticalSection
 376 0010 031C     		mov	r3, r0
 377 0012 2370     		strb	r3, [r4]
 368:Generated_Source\PSoC4/LED_CONTROL1.c **** 
 369:Generated_Source\PSoC4/LED_CONTROL1.c ****     LED_CONTROL1_CONTROL_REG &= (uint32)~LED_CONTROL1_PRESCALER_MASK;
 378              		.loc 1 369 0
 379 0014 0A4B     		ldr	r3, .L21
 380 0016 0A4A     		ldr	r2, .L21
 381 0018 1268     		ldr	r2, [r2]
 382 001a 0A49     		ldr	r1, .L21+4
 383 001c 0A40     		and	r2, r1
 384 001e 1A60     		str	r2, [r3]
 370:Generated_Source\PSoC4/LED_CONTROL1.c ****     LED_CONTROL1_CONTROL_REG |= prescaler;
 385              		.loc 1 370 0
 386 0020 074B     		ldr	r3, .L21
 387 0022 074A     		ldr	r2, .L21
 388 0024 1168     		ldr	r1, [r2]
 389 0026 7A68     		ldr	r2, [r7, #4]
 390 0028 0A43     		orr	r2, r1
 391 002a 1A60     		str	r2, [r3]
 371:Generated_Source\PSoC4/LED_CONTROL1.c **** 
 372:Generated_Source\PSoC4/LED_CONTROL1.c ****     CyExitCriticalSection(enableInterrupts);
 392              		.loc 1 372 0
 393 002c 0F23     		mov	r3, #15
 394 002e FB18     		add	r3, r7, r3
 395 0030 1B78     		ldrb	r3, [r3]
 396 0032 181C     		mov	r0, r3
 397 0034 FFF7FEFF 		bl	CyExitCriticalSection
 373:Generated_Source\PSoC4/LED_CONTROL1.c **** }
 398              		.loc 1 373 0
 399 0038 BD46     		mov	sp, r7
 400 003a 05B0     		add	sp, sp, #20
 401              		@ sp needed
 402 003c 90BD     		pop	{r4, r7, pc}
 403              	.L22:
 404 003e C046     		.align	2
 405              	.L21:
 406 0040 40012040 		.word	1075839296
 407 0044 FF00FFFF 		.word	-65281
 408              		.cfi_endproc
 409              	.LFE7:
 410              		.size	LED_CONTROL1_SetPrescaler, .-LED_CONTROL1_SetPrescaler
 411              		.section	.text.LED_CONTROL1_SetOneShot,"ax",%progbits
 412              		.align	2
 413              		.global	LED_CONTROL1_SetOneShot
 414              		.code	16
 415              		.thumb_func
 416              		.type	LED_CONTROL1_SetOneShot, %function
 417              	LED_CONTROL1_SetOneShot:
 418              	.LFB8:
 374:Generated_Source\PSoC4/LED_CONTROL1.c **** 
 375:Generated_Source\PSoC4/LED_CONTROL1.c **** 
 376:Generated_Source\PSoC4/LED_CONTROL1.c **** /*******************************************************************************
 377:Generated_Source\PSoC4/LED_CONTROL1.c **** * Function Name: LED_CONTROL1_SetOneShot
 378:Generated_Source\PSoC4/LED_CONTROL1.c **** ********************************************************************************
 379:Generated_Source\PSoC4/LED_CONTROL1.c **** *
 380:Generated_Source\PSoC4/LED_CONTROL1.c **** * Summary:
ARM GAS  C:\Users\poornima\AppData\Local\Temp\ccn19ius.s 			page 15


 381:Generated_Source\PSoC4/LED_CONTROL1.c **** *  Writes the register that controls whether the LED_CONTROL1 runs
 382:Generated_Source\PSoC4/LED_CONTROL1.c **** *  continuously or stops when terminal count is reached.  By default the
 383:Generated_Source\PSoC4/LED_CONTROL1.c **** *  LED_CONTROL1 operates in the continuous mode.
 384:Generated_Source\PSoC4/LED_CONTROL1.c **** *
 385:Generated_Source\PSoC4/LED_CONTROL1.c **** * Parameters:
 386:Generated_Source\PSoC4/LED_CONTROL1.c **** *  oneShotEnable
 387:Generated_Source\PSoC4/LED_CONTROL1.c **** *   Values:
 388:Generated_Source\PSoC4/LED_CONTROL1.c **** *     - 0 - Continuous
 389:Generated_Source\PSoC4/LED_CONTROL1.c **** *     - 1 - Enable One Shot
 390:Generated_Source\PSoC4/LED_CONTROL1.c **** *
 391:Generated_Source\PSoC4/LED_CONTROL1.c **** * Return:
 392:Generated_Source\PSoC4/LED_CONTROL1.c **** *  None
 393:Generated_Source\PSoC4/LED_CONTROL1.c **** *
 394:Generated_Source\PSoC4/LED_CONTROL1.c **** *******************************************************************************/
 395:Generated_Source\PSoC4/LED_CONTROL1.c **** void LED_CONTROL1_SetOneShot(uint32 oneShotEnable)
 396:Generated_Source\PSoC4/LED_CONTROL1.c **** {
 419              		.loc 1 396 0
 420              		.cfi_startproc
 421 0000 90B5     		push	{r4, r7, lr}
 422              		.cfi_def_cfa_offset 12
 423              		.cfi_offset 4, -12
 424              		.cfi_offset 7, -8
 425              		.cfi_offset 14, -4
 426 0002 85B0     		sub	sp, sp, #20
 427              		.cfi_def_cfa_offset 32
 428 0004 00AF     		add	r7, sp, #0
 429              		.cfi_def_cfa_register 7
 430 0006 7860     		str	r0, [r7, #4]
 397:Generated_Source\PSoC4/LED_CONTROL1.c ****     uint8 enableInterrupts;
 398:Generated_Source\PSoC4/LED_CONTROL1.c **** 
 399:Generated_Source\PSoC4/LED_CONTROL1.c ****     enableInterrupts = CyEnterCriticalSection();
 431              		.loc 1 399 0
 432 0008 0F23     		mov	r3, #15
 433 000a FC18     		add	r4, r7, r3
 434 000c FFF7FEFF 		bl	CyEnterCriticalSection
 435 0010 031C     		mov	r3, r0
 436 0012 2370     		strb	r3, [r4]
 400:Generated_Source\PSoC4/LED_CONTROL1.c **** 
 401:Generated_Source\PSoC4/LED_CONTROL1.c ****     LED_CONTROL1_CONTROL_REG &= (uint32)~LED_CONTROL1_ONESHOT_MASK;
 437              		.loc 1 401 0
 438 0014 0B4B     		ldr	r3, .L24
 439 0016 0B4A     		ldr	r2, .L24
 440 0018 1268     		ldr	r2, [r2]
 441 001a 0B49     		ldr	r1, .L24+4
 442 001c 0A40     		and	r2, r1
 443 001e 1A60     		str	r2, [r3]
 402:Generated_Source\PSoC4/LED_CONTROL1.c ****     LED_CONTROL1_CONTROL_REG |= ((uint32)((oneShotEnable & LED_CONTROL1_1BIT_MASK) <<
 444              		.loc 1 402 0
 445 0020 084B     		ldr	r3, .L24
 446 0022 084A     		ldr	r2, .L24
 447 0024 1168     		ldr	r1, [r2]
 448 0026 7A68     		ldr	r2, [r7, #4]
 449 0028 0120     		mov	r0, #1
 450 002a 0240     		and	r2, r0
 451 002c 9204     		lsl	r2, r2, #18
 452 002e 0A43     		orr	r2, r1
 453 0030 1A60     		str	r2, [r3]
ARM GAS  C:\Users\poornima\AppData\Local\Temp\ccn19ius.s 			page 16


 403:Generated_Source\PSoC4/LED_CONTROL1.c ****                                                                LED_CONTROL1_ONESHOT_SHIFT));
 404:Generated_Source\PSoC4/LED_CONTROL1.c **** 
 405:Generated_Source\PSoC4/LED_CONTROL1.c ****     CyExitCriticalSection(enableInterrupts);
 454              		.loc 1 405 0
 455 0032 0F23     		mov	r3, #15
 456 0034 FB18     		add	r3, r7, r3
 457 0036 1B78     		ldrb	r3, [r3]
 458 0038 181C     		mov	r0, r3
 459 003a FFF7FEFF 		bl	CyExitCriticalSection
 406:Generated_Source\PSoC4/LED_CONTROL1.c **** }
 460              		.loc 1 406 0
 461 003e BD46     		mov	sp, r7
 462 0040 05B0     		add	sp, sp, #20
 463              		@ sp needed
 464 0042 90BD     		pop	{r4, r7, pc}
 465              	.L25:
 466              		.align	2
 467              	.L24:
 468 0044 40012040 		.word	1075839296
 469 0048 FFFFFBFF 		.word	-262145
 470              		.cfi_endproc
 471              	.LFE8:
 472              		.size	LED_CONTROL1_SetOneShot, .-LED_CONTROL1_SetOneShot
 473              		.section	.text.LED_CONTROL1_SetPWMMode,"ax",%progbits
 474              		.align	2
 475              		.global	LED_CONTROL1_SetPWMMode
 476              		.code	16
 477              		.thumb_func
 478              		.type	LED_CONTROL1_SetPWMMode, %function
 479              	LED_CONTROL1_SetPWMMode:
 480              	.LFB9:
 407:Generated_Source\PSoC4/LED_CONTROL1.c **** 
 408:Generated_Source\PSoC4/LED_CONTROL1.c **** 
 409:Generated_Source\PSoC4/LED_CONTROL1.c **** /*******************************************************************************
 410:Generated_Source\PSoC4/LED_CONTROL1.c **** * Function Name: LED_CONTROL1_SetPWMMode
 411:Generated_Source\PSoC4/LED_CONTROL1.c **** ********************************************************************************
 412:Generated_Source\PSoC4/LED_CONTROL1.c **** *
 413:Generated_Source\PSoC4/LED_CONTROL1.c **** * Summary:
 414:Generated_Source\PSoC4/LED_CONTROL1.c **** *  Writes the control register that determines what mode of operation the PWM
 415:Generated_Source\PSoC4/LED_CONTROL1.c **** *  output lines are driven in.  There is a setting for what to do on a
 416:Generated_Source\PSoC4/LED_CONTROL1.c **** *  comparison match (CC_MATCH), on an overflow (OVERFLOW) and on an underflow
 417:Generated_Source\PSoC4/LED_CONTROL1.c **** *  (UNDERFLOW).  The value for each of the three must be ORed together to form
 418:Generated_Source\PSoC4/LED_CONTROL1.c **** *  the mode.
 419:Generated_Source\PSoC4/LED_CONTROL1.c **** *
 420:Generated_Source\PSoC4/LED_CONTROL1.c **** * Parameters:
 421:Generated_Source\PSoC4/LED_CONTROL1.c **** *  modeMask: A combination of three mode settings.  Mask must include a value
 422:Generated_Source\PSoC4/LED_CONTROL1.c **** *  for each of the three or use one of the preconfigured PWM settings.
 423:Generated_Source\PSoC4/LED_CONTROL1.c **** *   Values:
 424:Generated_Source\PSoC4/LED_CONTROL1.c **** *     - CC_MATCH_SET        - Set on comparison match
 425:Generated_Source\PSoC4/LED_CONTROL1.c **** *     - CC_MATCH_CLEAR      - Clear on comparison match
 426:Generated_Source\PSoC4/LED_CONTROL1.c **** *     - CC_MATCH_INVERT     - Invert on comparison match
 427:Generated_Source\PSoC4/LED_CONTROL1.c **** *     - CC_MATCH_NO_CHANGE  - No change on comparison match
 428:Generated_Source\PSoC4/LED_CONTROL1.c **** *     - OVERLOW_SET         - Set on overflow
 429:Generated_Source\PSoC4/LED_CONTROL1.c **** *     - OVERLOW_CLEAR       - Clear on  overflow
 430:Generated_Source\PSoC4/LED_CONTROL1.c **** *     - OVERLOW_INVERT      - Invert on overflow
 431:Generated_Source\PSoC4/LED_CONTROL1.c **** *     - OVERLOW_NO_CHANGE   - No change on overflow
 432:Generated_Source\PSoC4/LED_CONTROL1.c **** *     - UNDERFLOW_SET       - Set on underflow
ARM GAS  C:\Users\poornima\AppData\Local\Temp\ccn19ius.s 			page 17


 433:Generated_Source\PSoC4/LED_CONTROL1.c **** *     - UNDERFLOW_CLEAR     - Clear on underflow
 434:Generated_Source\PSoC4/LED_CONTROL1.c **** *     - UNDERFLOW_INVERT    - Invert on underflow
 435:Generated_Source\PSoC4/LED_CONTROL1.c **** *     - UNDERFLOW_NO_CHANGE - No change on underflow
 436:Generated_Source\PSoC4/LED_CONTROL1.c **** *     - PWM_MODE_LEFT       - Setting for left aligned PWM.  Should be combined
 437:Generated_Source\PSoC4/LED_CONTROL1.c **** *                             with up counting mode
 438:Generated_Source\PSoC4/LED_CONTROL1.c **** *     - PWM_MODE_RIGHT      - Setting for right aligned PWM.  Should be combined
 439:Generated_Source\PSoC4/LED_CONTROL1.c **** *                             with down counting mode
 440:Generated_Source\PSoC4/LED_CONTROL1.c **** *     - PWM_MODE_CENTER     - Setting for center aligned PWM.  Should be
 441:Generated_Source\PSoC4/LED_CONTROL1.c **** *                             combined with up/down 0 mode
 442:Generated_Source\PSoC4/LED_CONTROL1.c **** *     - PWM_MODE_ASYM       - Setting for asymmetric PWM.  Should be combined
 443:Generated_Source\PSoC4/LED_CONTROL1.c **** *                             with up/down 1 mode
 444:Generated_Source\PSoC4/LED_CONTROL1.c **** *
 445:Generated_Source\PSoC4/LED_CONTROL1.c **** * Return:
 446:Generated_Source\PSoC4/LED_CONTROL1.c **** *  None
 447:Generated_Source\PSoC4/LED_CONTROL1.c **** *
 448:Generated_Source\PSoC4/LED_CONTROL1.c **** *******************************************************************************/
 449:Generated_Source\PSoC4/LED_CONTROL1.c **** void LED_CONTROL1_SetPWMMode(uint32 modeMask)
 450:Generated_Source\PSoC4/LED_CONTROL1.c **** {
 481              		.loc 1 450 0
 482              		.cfi_startproc
 483 0000 80B5     		push	{r7, lr}
 484              		.cfi_def_cfa_offset 8
 485              		.cfi_offset 7, -8
 486              		.cfi_offset 14, -4
 487 0002 82B0     		sub	sp, sp, #8
 488              		.cfi_def_cfa_offset 16
 489 0004 00AF     		add	r7, sp, #0
 490              		.cfi_def_cfa_register 7
 491 0006 7860     		str	r0, [r7, #4]
 451:Generated_Source\PSoC4/LED_CONTROL1.c ****     LED_CONTROL1_TRIG_CONTROL2_REG = (modeMask & LED_CONTROL1_6BIT_MASK);
 492              		.loc 1 451 0
 493 0008 034B     		ldr	r3, .L27
 494 000a 7A68     		ldr	r2, [r7, #4]
 495 000c 3F21     		mov	r1, #63
 496 000e 0A40     		and	r2, r1
 497 0010 1A60     		str	r2, [r3]
 452:Generated_Source\PSoC4/LED_CONTROL1.c **** }
 498              		.loc 1 452 0
 499 0012 BD46     		mov	sp, r7
 500 0014 02B0     		add	sp, sp, #8
 501              		@ sp needed
 502 0016 80BD     		pop	{r7, pc}
 503              	.L28:
 504              		.align	2
 505              	.L27:
 506 0018 68012040 		.word	1075839336
 507              		.cfi_endproc
 508              	.LFE9:
 509              		.size	LED_CONTROL1_SetPWMMode, .-LED_CONTROL1_SetPWMMode
 510              		.section	.text.LED_CONTROL1_SetPWMSyncKill,"ax",%progbits
 511              		.align	2
 512              		.global	LED_CONTROL1_SetPWMSyncKill
 513              		.code	16
 514              		.thumb_func
 515              		.type	LED_CONTROL1_SetPWMSyncKill, %function
 516              	LED_CONTROL1_SetPWMSyncKill:
 517              	.LFB10:
ARM GAS  C:\Users\poornima\AppData\Local\Temp\ccn19ius.s 			page 18


 453:Generated_Source\PSoC4/LED_CONTROL1.c **** 
 454:Generated_Source\PSoC4/LED_CONTROL1.c **** 
 455:Generated_Source\PSoC4/LED_CONTROL1.c **** 
 456:Generated_Source\PSoC4/LED_CONTROL1.c **** /*******************************************************************************
 457:Generated_Source\PSoC4/LED_CONTROL1.c **** * Function Name: LED_CONTROL1_SetPWMSyncKill
 458:Generated_Source\PSoC4/LED_CONTROL1.c **** ********************************************************************************
 459:Generated_Source\PSoC4/LED_CONTROL1.c **** *
 460:Generated_Source\PSoC4/LED_CONTROL1.c **** * Summary:
 461:Generated_Source\PSoC4/LED_CONTROL1.c **** *  Writes the register that controls whether the PWM kill signal (stop input)
 462:Generated_Source\PSoC4/LED_CONTROL1.c **** *  causes asynchronous or synchronous kill operation.  By default the kill
 463:Generated_Source\PSoC4/LED_CONTROL1.c **** *  operation is asynchronous.  This functionality is only applicable to the PWM
 464:Generated_Source\PSoC4/LED_CONTROL1.c **** *  and PWM with dead time modes.
 465:Generated_Source\PSoC4/LED_CONTROL1.c **** *
 466:Generated_Source\PSoC4/LED_CONTROL1.c **** *  For Synchronous mode the kill signal disables both the line and line_n
 467:Generated_Source\PSoC4/LED_CONTROL1.c **** *  signals until the next terminal count.
 468:Generated_Source\PSoC4/LED_CONTROL1.c **** *
 469:Generated_Source\PSoC4/LED_CONTROL1.c **** *  For Asynchronous mode the kill signal disables both the line and line_n
 470:Generated_Source\PSoC4/LED_CONTROL1.c **** *  signals when the kill signal is present.  This mode should only be used
 471:Generated_Source\PSoC4/LED_CONTROL1.c **** *  when the kill signal (stop input) is configured in the pass through mode
 472:Generated_Source\PSoC4/LED_CONTROL1.c **** *  (Level sensitive signal).
 473:Generated_Source\PSoC4/LED_CONTROL1.c **** 
 474:Generated_Source\PSoC4/LED_CONTROL1.c **** *
 475:Generated_Source\PSoC4/LED_CONTROL1.c **** * Parameters:
 476:Generated_Source\PSoC4/LED_CONTROL1.c **** *  syncKillEnable
 477:Generated_Source\PSoC4/LED_CONTROL1.c **** *   Values:
 478:Generated_Source\PSoC4/LED_CONTROL1.c **** *     - 0 - Asynchronous
 479:Generated_Source\PSoC4/LED_CONTROL1.c **** *     - 1 - Synchronous
 480:Generated_Source\PSoC4/LED_CONTROL1.c **** *
 481:Generated_Source\PSoC4/LED_CONTROL1.c **** * Return:
 482:Generated_Source\PSoC4/LED_CONTROL1.c **** *  None
 483:Generated_Source\PSoC4/LED_CONTROL1.c **** *
 484:Generated_Source\PSoC4/LED_CONTROL1.c **** *******************************************************************************/
 485:Generated_Source\PSoC4/LED_CONTROL1.c **** void LED_CONTROL1_SetPWMSyncKill(uint32 syncKillEnable)
 486:Generated_Source\PSoC4/LED_CONTROL1.c **** {
 518              		.loc 1 486 0
 519              		.cfi_startproc
 520 0000 90B5     		push	{r4, r7, lr}
 521              		.cfi_def_cfa_offset 12
 522              		.cfi_offset 4, -12
 523              		.cfi_offset 7, -8
 524              		.cfi_offset 14, -4
 525 0002 85B0     		sub	sp, sp, #20
 526              		.cfi_def_cfa_offset 32
 527 0004 00AF     		add	r7, sp, #0
 528              		.cfi_def_cfa_register 7
 529 0006 7860     		str	r0, [r7, #4]
 487:Generated_Source\PSoC4/LED_CONTROL1.c ****     uint8 enableInterrupts;
 488:Generated_Source\PSoC4/LED_CONTROL1.c **** 
 489:Generated_Source\PSoC4/LED_CONTROL1.c ****     enableInterrupts = CyEnterCriticalSection();
 530              		.loc 1 489 0
 531 0008 0F23     		mov	r3, #15
 532 000a FC18     		add	r4, r7, r3
 533 000c FFF7FEFF 		bl	CyEnterCriticalSection
 534 0010 031C     		mov	r3, r0
 535 0012 2370     		strb	r3, [r4]
 490:Generated_Source\PSoC4/LED_CONTROL1.c **** 
 491:Generated_Source\PSoC4/LED_CONTROL1.c ****     LED_CONTROL1_CONTROL_REG &= (uint32)~LED_CONTROL1_PWM_SYNC_KILL_MASK;
ARM GAS  C:\Users\poornima\AppData\Local\Temp\ccn19ius.s 			page 19


 536              		.loc 1 491 0
 537 0014 0B4B     		ldr	r3, .L30
 538 0016 0B4A     		ldr	r2, .L30
 539 0018 1268     		ldr	r2, [r2]
 540 001a 0421     		mov	r1, #4
 541 001c 8A43     		bic	r2, r1
 542 001e 1A60     		str	r2, [r3]
 492:Generated_Source\PSoC4/LED_CONTROL1.c ****     LED_CONTROL1_CONTROL_REG |= ((uint32)((syncKillEnable & LED_CONTROL1_1BIT_MASK)  <<
 543              		.loc 1 492 0
 544 0020 084B     		ldr	r3, .L30
 545 0022 084A     		ldr	r2, .L30
 546 0024 1168     		ldr	r1, [r2]
 547 0026 7A68     		ldr	r2, [r7, #4]
 548 0028 0120     		mov	r0, #1
 549 002a 0240     		and	r2, r0
 550 002c 9200     		lsl	r2, r2, #2
 551 002e 0A43     		orr	r2, r1
 552 0030 1A60     		str	r2, [r3]
 493:Generated_Source\PSoC4/LED_CONTROL1.c ****                                                LED_CONTROL1_PWM_SYNC_KILL_SHIFT));
 494:Generated_Source\PSoC4/LED_CONTROL1.c **** 
 495:Generated_Source\PSoC4/LED_CONTROL1.c ****     CyExitCriticalSection(enableInterrupts);
 553              		.loc 1 495 0
 554 0032 0F23     		mov	r3, #15
 555 0034 FB18     		add	r3, r7, r3
 556 0036 1B78     		ldrb	r3, [r3]
 557 0038 181C     		mov	r0, r3
 558 003a FFF7FEFF 		bl	CyExitCriticalSection
 496:Generated_Source\PSoC4/LED_CONTROL1.c **** }
 559              		.loc 1 496 0
 560 003e BD46     		mov	sp, r7
 561 0040 05B0     		add	sp, sp, #20
 562              		@ sp needed
 563 0042 90BD     		pop	{r4, r7, pc}
 564              	.L31:
 565              		.align	2
 566              	.L30:
 567 0044 40012040 		.word	1075839296
 568              		.cfi_endproc
 569              	.LFE10:
 570              		.size	LED_CONTROL1_SetPWMSyncKill, .-LED_CONTROL1_SetPWMSyncKill
 571              		.section	.text.LED_CONTROL1_SetPWMStopOnKill,"ax",%progbits
 572              		.align	2
 573              		.global	LED_CONTROL1_SetPWMStopOnKill
 574              		.code	16
 575              		.thumb_func
 576              		.type	LED_CONTROL1_SetPWMStopOnKill, %function
 577              	LED_CONTROL1_SetPWMStopOnKill:
 578              	.LFB11:
 497:Generated_Source\PSoC4/LED_CONTROL1.c **** 
 498:Generated_Source\PSoC4/LED_CONTROL1.c **** 
 499:Generated_Source\PSoC4/LED_CONTROL1.c **** /*******************************************************************************
 500:Generated_Source\PSoC4/LED_CONTROL1.c **** * Function Name: LED_CONTROL1_SetPWMStopOnKill
 501:Generated_Source\PSoC4/LED_CONTROL1.c **** ********************************************************************************
 502:Generated_Source\PSoC4/LED_CONTROL1.c **** *
 503:Generated_Source\PSoC4/LED_CONTROL1.c **** * Summary:
 504:Generated_Source\PSoC4/LED_CONTROL1.c **** *  Writes the register that controls whether the PWM kill signal (stop input)
 505:Generated_Source\PSoC4/LED_CONTROL1.c **** *  causes the PWM counter to stop.  By default the kill operation does not stop
ARM GAS  C:\Users\poornima\AppData\Local\Temp\ccn19ius.s 			page 20


 506:Generated_Source\PSoC4/LED_CONTROL1.c **** *  the counter.  This functionality is only applicable to the three PWM modes.
 507:Generated_Source\PSoC4/LED_CONTROL1.c **** *
 508:Generated_Source\PSoC4/LED_CONTROL1.c **** *
 509:Generated_Source\PSoC4/LED_CONTROL1.c **** * Parameters:
 510:Generated_Source\PSoC4/LED_CONTROL1.c **** *  stopOnKillEnable
 511:Generated_Source\PSoC4/LED_CONTROL1.c **** *   Values:
 512:Generated_Source\PSoC4/LED_CONTROL1.c **** *     - 0 - Don't stop
 513:Generated_Source\PSoC4/LED_CONTROL1.c **** *     - 1 - Stop
 514:Generated_Source\PSoC4/LED_CONTROL1.c **** *
 515:Generated_Source\PSoC4/LED_CONTROL1.c **** * Return:
 516:Generated_Source\PSoC4/LED_CONTROL1.c **** *  None
 517:Generated_Source\PSoC4/LED_CONTROL1.c **** *
 518:Generated_Source\PSoC4/LED_CONTROL1.c **** *******************************************************************************/
 519:Generated_Source\PSoC4/LED_CONTROL1.c **** void LED_CONTROL1_SetPWMStopOnKill(uint32 stopOnKillEnable)
 520:Generated_Source\PSoC4/LED_CONTROL1.c **** {
 579              		.loc 1 520 0
 580              		.cfi_startproc
 581 0000 90B5     		push	{r4, r7, lr}
 582              		.cfi_def_cfa_offset 12
 583              		.cfi_offset 4, -12
 584              		.cfi_offset 7, -8
 585              		.cfi_offset 14, -4
 586 0002 85B0     		sub	sp, sp, #20
 587              		.cfi_def_cfa_offset 32
 588 0004 00AF     		add	r7, sp, #0
 589              		.cfi_def_cfa_register 7
 590 0006 7860     		str	r0, [r7, #4]
 521:Generated_Source\PSoC4/LED_CONTROL1.c ****     uint8 enableInterrupts;
 522:Generated_Source\PSoC4/LED_CONTROL1.c **** 
 523:Generated_Source\PSoC4/LED_CONTROL1.c ****     enableInterrupts = CyEnterCriticalSection();
 591              		.loc 1 523 0
 592 0008 0F23     		mov	r3, #15
 593 000a FC18     		add	r4, r7, r3
 594 000c FFF7FEFF 		bl	CyEnterCriticalSection
 595 0010 031C     		mov	r3, r0
 596 0012 2370     		strb	r3, [r4]
 524:Generated_Source\PSoC4/LED_CONTROL1.c **** 
 525:Generated_Source\PSoC4/LED_CONTROL1.c ****     LED_CONTROL1_CONTROL_REG &= (uint32)~LED_CONTROL1_PWM_STOP_KILL_MASK;
 597              		.loc 1 525 0
 598 0014 0B4B     		ldr	r3, .L33
 599 0016 0B4A     		ldr	r2, .L33
 600 0018 1268     		ldr	r2, [r2]
 601 001a 0821     		mov	r1, #8
 602 001c 8A43     		bic	r2, r1
 603 001e 1A60     		str	r2, [r3]
 526:Generated_Source\PSoC4/LED_CONTROL1.c ****     LED_CONTROL1_CONTROL_REG |= ((uint32)((stopOnKillEnable & LED_CONTROL1_1BIT_MASK)  <<
 604              		.loc 1 526 0
 605 0020 084B     		ldr	r3, .L33
 606 0022 084A     		ldr	r2, .L33
 607 0024 1168     		ldr	r1, [r2]
 608 0026 7A68     		ldr	r2, [r7, #4]
 609 0028 0120     		mov	r0, #1
 610 002a 0240     		and	r2, r0
 611 002c D200     		lsl	r2, r2, #3
 612 002e 0A43     		orr	r2, r1
 613 0030 1A60     		str	r2, [r3]
 527:Generated_Source\PSoC4/LED_CONTROL1.c ****                                                          LED_CONTROL1_PWM_STOP_KILL_SHIFT));
ARM GAS  C:\Users\poornima\AppData\Local\Temp\ccn19ius.s 			page 21


 528:Generated_Source\PSoC4/LED_CONTROL1.c **** 
 529:Generated_Source\PSoC4/LED_CONTROL1.c ****     CyExitCriticalSection(enableInterrupts);
 614              		.loc 1 529 0
 615 0032 0F23     		mov	r3, #15
 616 0034 FB18     		add	r3, r7, r3
 617 0036 1B78     		ldrb	r3, [r3]
 618 0038 181C     		mov	r0, r3
 619 003a FFF7FEFF 		bl	CyExitCriticalSection
 530:Generated_Source\PSoC4/LED_CONTROL1.c **** }
 620              		.loc 1 530 0
 621 003e BD46     		mov	sp, r7
 622 0040 05B0     		add	sp, sp, #20
 623              		@ sp needed
 624 0042 90BD     		pop	{r4, r7, pc}
 625              	.L34:
 626              		.align	2
 627              	.L33:
 628 0044 40012040 		.word	1075839296
 629              		.cfi_endproc
 630              	.LFE11:
 631              		.size	LED_CONTROL1_SetPWMStopOnKill, .-LED_CONTROL1_SetPWMStopOnKill
 632              		.section	.text.LED_CONTROL1_SetPWMDeadTime,"ax",%progbits
 633              		.align	2
 634              		.global	LED_CONTROL1_SetPWMDeadTime
 635              		.code	16
 636              		.thumb_func
 637              		.type	LED_CONTROL1_SetPWMDeadTime, %function
 638              	LED_CONTROL1_SetPWMDeadTime:
 639              	.LFB12:
 531:Generated_Source\PSoC4/LED_CONTROL1.c **** 
 532:Generated_Source\PSoC4/LED_CONTROL1.c **** 
 533:Generated_Source\PSoC4/LED_CONTROL1.c **** /*******************************************************************************
 534:Generated_Source\PSoC4/LED_CONTROL1.c **** * Function Name: LED_CONTROL1_SetPWMDeadTime
 535:Generated_Source\PSoC4/LED_CONTROL1.c **** ********************************************************************************
 536:Generated_Source\PSoC4/LED_CONTROL1.c **** *
 537:Generated_Source\PSoC4/LED_CONTROL1.c **** * Summary:
 538:Generated_Source\PSoC4/LED_CONTROL1.c **** *  Writes the dead time control value.  This value delays the rising edge of
 539:Generated_Source\PSoC4/LED_CONTROL1.c **** *  both the line and line_n signals the designated number of cycles resulting
 540:Generated_Source\PSoC4/LED_CONTROL1.c **** *  in both signals being inactive for that many cycles.  This functionality is
 541:Generated_Source\PSoC4/LED_CONTROL1.c **** *  only applicable to the PWM in the dead time mode.
 542:Generated_Source\PSoC4/LED_CONTROL1.c **** 
 543:Generated_Source\PSoC4/LED_CONTROL1.c **** *
 544:Generated_Source\PSoC4/LED_CONTROL1.c **** * Parameters:
 545:Generated_Source\PSoC4/LED_CONTROL1.c **** *  Dead time to insert
 546:Generated_Source\PSoC4/LED_CONTROL1.c **** *   Values: 0 to 255
 547:Generated_Source\PSoC4/LED_CONTROL1.c **** *
 548:Generated_Source\PSoC4/LED_CONTROL1.c **** * Return:
 549:Generated_Source\PSoC4/LED_CONTROL1.c **** *  None
 550:Generated_Source\PSoC4/LED_CONTROL1.c **** *
 551:Generated_Source\PSoC4/LED_CONTROL1.c **** *******************************************************************************/
 552:Generated_Source\PSoC4/LED_CONTROL1.c **** void LED_CONTROL1_SetPWMDeadTime(uint32 deadTime)
 553:Generated_Source\PSoC4/LED_CONTROL1.c **** {
 640              		.loc 1 553 0
 641              		.cfi_startproc
 642 0000 90B5     		push	{r4, r7, lr}
 643              		.cfi_def_cfa_offset 12
 644              		.cfi_offset 4, -12
ARM GAS  C:\Users\poornima\AppData\Local\Temp\ccn19ius.s 			page 22


 645              		.cfi_offset 7, -8
 646              		.cfi_offset 14, -4
 647 0002 85B0     		sub	sp, sp, #20
 648              		.cfi_def_cfa_offset 32
 649 0004 00AF     		add	r7, sp, #0
 650              		.cfi_def_cfa_register 7
 651 0006 7860     		str	r0, [r7, #4]
 554:Generated_Source\PSoC4/LED_CONTROL1.c ****     uint8 enableInterrupts;
 555:Generated_Source\PSoC4/LED_CONTROL1.c **** 
 556:Generated_Source\PSoC4/LED_CONTROL1.c ****     enableInterrupts = CyEnterCriticalSection();
 652              		.loc 1 556 0
 653 0008 0F23     		mov	r3, #15
 654 000a FC18     		add	r4, r7, r3
 655 000c FFF7FEFF 		bl	CyEnterCriticalSection
 656 0010 031C     		mov	r3, r0
 657 0012 2370     		strb	r3, [r4]
 557:Generated_Source\PSoC4/LED_CONTROL1.c **** 
 558:Generated_Source\PSoC4/LED_CONTROL1.c ****     LED_CONTROL1_CONTROL_REG &= (uint32)~LED_CONTROL1_PRESCALER_MASK;
 658              		.loc 1 558 0
 659 0014 0B4B     		ldr	r3, .L36
 660 0016 0B4A     		ldr	r2, .L36
 661 0018 1268     		ldr	r2, [r2]
 662 001a 0B49     		ldr	r1, .L36+4
 663 001c 0A40     		and	r2, r1
 664 001e 1A60     		str	r2, [r3]
 559:Generated_Source\PSoC4/LED_CONTROL1.c ****     LED_CONTROL1_CONTROL_REG |= ((uint32)((deadTime & LED_CONTROL1_8BIT_MASK) <<
 665              		.loc 1 559 0
 666 0020 084B     		ldr	r3, .L36
 667 0022 084A     		ldr	r2, .L36
 668 0024 1168     		ldr	r1, [r2]
 669 0026 7A68     		ldr	r2, [r7, #4]
 670 0028 1202     		lsl	r2, r2, #8
 671 002a 1204     		lsl	r2, r2, #16
 672 002c 120C     		lsr	r2, r2, #16
 673 002e 0A43     		orr	r2, r1
 674 0030 1A60     		str	r2, [r3]
 560:Generated_Source\PSoC4/LED_CONTROL1.c ****                                                           LED_CONTROL1_PRESCALER_SHIFT));
 561:Generated_Source\PSoC4/LED_CONTROL1.c **** 
 562:Generated_Source\PSoC4/LED_CONTROL1.c ****     CyExitCriticalSection(enableInterrupts);
 675              		.loc 1 562 0
 676 0032 0F23     		mov	r3, #15
 677 0034 FB18     		add	r3, r7, r3
 678 0036 1B78     		ldrb	r3, [r3]
 679 0038 181C     		mov	r0, r3
 680 003a FFF7FEFF 		bl	CyExitCriticalSection
 563:Generated_Source\PSoC4/LED_CONTROL1.c **** }
 681              		.loc 1 563 0
 682 003e BD46     		mov	sp, r7
 683 0040 05B0     		add	sp, sp, #20
 684              		@ sp needed
 685 0042 90BD     		pop	{r4, r7, pc}
 686              	.L37:
 687              		.align	2
 688              	.L36:
 689 0044 40012040 		.word	1075839296
 690 0048 FF00FFFF 		.word	-65281
 691              		.cfi_endproc
ARM GAS  C:\Users\poornima\AppData\Local\Temp\ccn19ius.s 			page 23


 692              	.LFE12:
 693              		.size	LED_CONTROL1_SetPWMDeadTime, .-LED_CONTROL1_SetPWMDeadTime
 694              		.section	.text.LED_CONTROL1_SetPWMInvert,"ax",%progbits
 695              		.align	2
 696              		.global	LED_CONTROL1_SetPWMInvert
 697              		.code	16
 698              		.thumb_func
 699              		.type	LED_CONTROL1_SetPWMInvert, %function
 700              	LED_CONTROL1_SetPWMInvert:
 701              	.LFB13:
 564:Generated_Source\PSoC4/LED_CONTROL1.c **** 
 565:Generated_Source\PSoC4/LED_CONTROL1.c **** 
 566:Generated_Source\PSoC4/LED_CONTROL1.c **** /*******************************************************************************
 567:Generated_Source\PSoC4/LED_CONTROL1.c **** * Function Name: LED_CONTROL1_SetPWMInvert
 568:Generated_Source\PSoC4/LED_CONTROL1.c **** ********************************************************************************
 569:Generated_Source\PSoC4/LED_CONTROL1.c **** *
 570:Generated_Source\PSoC4/LED_CONTROL1.c **** * Summary:
 571:Generated_Source\PSoC4/LED_CONTROL1.c **** *  Writes the bits that control whether the line and line_n outputs are
 572:Generated_Source\PSoC4/LED_CONTROL1.c **** *  inverted from their normal output values.  This functionality is only
 573:Generated_Source\PSoC4/LED_CONTROL1.c **** *  applicable to the three PWM modes.
 574:Generated_Source\PSoC4/LED_CONTROL1.c **** *
 575:Generated_Source\PSoC4/LED_CONTROL1.c **** * Parameters:
 576:Generated_Source\PSoC4/LED_CONTROL1.c **** *  mask: Mask of outputs to invert.
 577:Generated_Source\PSoC4/LED_CONTROL1.c **** *   Values:
 578:Generated_Source\PSoC4/LED_CONTROL1.c **** *         - LED_CONTROL1_INVERT_LINE   - Inverts the line output
 579:Generated_Source\PSoC4/LED_CONTROL1.c **** *         - LED_CONTROL1_INVERT_LINE_N - Inverts the line_n output
 580:Generated_Source\PSoC4/LED_CONTROL1.c **** *
 581:Generated_Source\PSoC4/LED_CONTROL1.c **** * Return:
 582:Generated_Source\PSoC4/LED_CONTROL1.c **** *  None
 583:Generated_Source\PSoC4/LED_CONTROL1.c **** *
 584:Generated_Source\PSoC4/LED_CONTROL1.c **** *******************************************************************************/
 585:Generated_Source\PSoC4/LED_CONTROL1.c **** void LED_CONTROL1_SetPWMInvert(uint32 mask)
 586:Generated_Source\PSoC4/LED_CONTROL1.c **** {
 702              		.loc 1 586 0
 703              		.cfi_startproc
 704 0000 90B5     		push	{r4, r7, lr}
 705              		.cfi_def_cfa_offset 12
 706              		.cfi_offset 4, -12
 707              		.cfi_offset 7, -8
 708              		.cfi_offset 14, -4
 709 0002 85B0     		sub	sp, sp, #20
 710              		.cfi_def_cfa_offset 32
 711 0004 00AF     		add	r7, sp, #0
 712              		.cfi_def_cfa_register 7
 713 0006 7860     		str	r0, [r7, #4]
 587:Generated_Source\PSoC4/LED_CONTROL1.c ****     uint8 enableInterrupts;
 588:Generated_Source\PSoC4/LED_CONTROL1.c **** 
 589:Generated_Source\PSoC4/LED_CONTROL1.c ****     enableInterrupts = CyEnterCriticalSection();
 714              		.loc 1 589 0
 715 0008 0F23     		mov	r3, #15
 716 000a FC18     		add	r4, r7, r3
 717 000c FFF7FEFF 		bl	CyEnterCriticalSection
 718 0010 031C     		mov	r3, r0
 719 0012 2370     		strb	r3, [r4]
 590:Generated_Source\PSoC4/LED_CONTROL1.c **** 
 591:Generated_Source\PSoC4/LED_CONTROL1.c ****     LED_CONTROL1_CONTROL_REG &= (uint32)~LED_CONTROL1_INV_OUT_MASK;
 720              		.loc 1 591 0
ARM GAS  C:\Users\poornima\AppData\Local\Temp\ccn19ius.s 			page 24


 721 0014 0A4B     		ldr	r3, .L39
 722 0016 0A4A     		ldr	r2, .L39
 723 0018 1268     		ldr	r2, [r2]
 724 001a 0A49     		ldr	r1, .L39+4
 725 001c 0A40     		and	r2, r1
 726 001e 1A60     		str	r2, [r3]
 592:Generated_Source\PSoC4/LED_CONTROL1.c ****     LED_CONTROL1_CONTROL_REG |= mask;
 727              		.loc 1 592 0
 728 0020 074B     		ldr	r3, .L39
 729 0022 074A     		ldr	r2, .L39
 730 0024 1168     		ldr	r1, [r2]
 731 0026 7A68     		ldr	r2, [r7, #4]
 732 0028 0A43     		orr	r2, r1
 733 002a 1A60     		str	r2, [r3]
 593:Generated_Source\PSoC4/LED_CONTROL1.c **** 
 594:Generated_Source\PSoC4/LED_CONTROL1.c ****     CyExitCriticalSection(enableInterrupts);
 734              		.loc 1 594 0
 735 002c 0F23     		mov	r3, #15
 736 002e FB18     		add	r3, r7, r3
 737 0030 1B78     		ldrb	r3, [r3]
 738 0032 181C     		mov	r0, r3
 739 0034 FFF7FEFF 		bl	CyExitCriticalSection
 595:Generated_Source\PSoC4/LED_CONTROL1.c **** }
 740              		.loc 1 595 0
 741 0038 BD46     		mov	sp, r7
 742 003a 05B0     		add	sp, sp, #20
 743              		@ sp needed
 744 003c 90BD     		pop	{r4, r7, pc}
 745              	.L40:
 746 003e C046     		.align	2
 747              	.L39:
 748 0040 40012040 		.word	1075839296
 749 0044 FFFFCFFF 		.word	-3145729
 750              		.cfi_endproc
 751              	.LFE13:
 752              		.size	LED_CONTROL1_SetPWMInvert, .-LED_CONTROL1_SetPWMInvert
 753              		.section	.text.LED_CONTROL1_WriteCounter,"ax",%progbits
 754              		.align	2
 755              		.global	LED_CONTROL1_WriteCounter
 756              		.code	16
 757              		.thumb_func
 758              		.type	LED_CONTROL1_WriteCounter, %function
 759              	LED_CONTROL1_WriteCounter:
 760              	.LFB14:
 596:Generated_Source\PSoC4/LED_CONTROL1.c **** 
 597:Generated_Source\PSoC4/LED_CONTROL1.c **** 
 598:Generated_Source\PSoC4/LED_CONTROL1.c **** 
 599:Generated_Source\PSoC4/LED_CONTROL1.c **** /*******************************************************************************
 600:Generated_Source\PSoC4/LED_CONTROL1.c **** * Function Name: LED_CONTROL1_WriteCounter
 601:Generated_Source\PSoC4/LED_CONTROL1.c **** ********************************************************************************
 602:Generated_Source\PSoC4/LED_CONTROL1.c **** *
 603:Generated_Source\PSoC4/LED_CONTROL1.c **** * Summary:
 604:Generated_Source\PSoC4/LED_CONTROL1.c **** *  Writes a new 16bit counter value directly into the counter register, thus
 605:Generated_Source\PSoC4/LED_CONTROL1.c **** *  setting the counter (not the period) to the value written. It is not
 606:Generated_Source\PSoC4/LED_CONTROL1.c **** *  advised to write to this field when the counter is running.
 607:Generated_Source\PSoC4/LED_CONTROL1.c **** *
 608:Generated_Source\PSoC4/LED_CONTROL1.c **** * Parameters:
ARM GAS  C:\Users\poornima\AppData\Local\Temp\ccn19ius.s 			page 25


 609:Generated_Source\PSoC4/LED_CONTROL1.c **** *  count: value to write
 610:Generated_Source\PSoC4/LED_CONTROL1.c **** *
 611:Generated_Source\PSoC4/LED_CONTROL1.c **** * Return:
 612:Generated_Source\PSoC4/LED_CONTROL1.c **** *  None
 613:Generated_Source\PSoC4/LED_CONTROL1.c **** *
 614:Generated_Source\PSoC4/LED_CONTROL1.c **** *******************************************************************************/
 615:Generated_Source\PSoC4/LED_CONTROL1.c **** void LED_CONTROL1_WriteCounter(uint32 count)
 616:Generated_Source\PSoC4/LED_CONTROL1.c **** {
 761              		.loc 1 616 0
 762              		.cfi_startproc
 763 0000 80B5     		push	{r7, lr}
 764              		.cfi_def_cfa_offset 8
 765              		.cfi_offset 7, -8
 766              		.cfi_offset 14, -4
 767 0002 82B0     		sub	sp, sp, #8
 768              		.cfi_def_cfa_offset 16
 769 0004 00AF     		add	r7, sp, #0
 770              		.cfi_def_cfa_register 7
 771 0006 7860     		str	r0, [r7, #4]
 617:Generated_Source\PSoC4/LED_CONTROL1.c ****     LED_CONTROL1_COUNTER_REG = (count & LED_CONTROL1_16BIT_MASK);
 772              		.loc 1 617 0
 773 0008 034B     		ldr	r3, .L42
 774 000a 7A68     		ldr	r2, [r7, #4]
 775 000c 1204     		lsl	r2, r2, #16
 776 000e 120C     		lsr	r2, r2, #16
 777 0010 1A60     		str	r2, [r3]
 618:Generated_Source\PSoC4/LED_CONTROL1.c **** }
 778              		.loc 1 618 0
 779 0012 BD46     		mov	sp, r7
 780 0014 02B0     		add	sp, sp, #8
 781              		@ sp needed
 782 0016 80BD     		pop	{r7, pc}
 783              	.L43:
 784              		.align	2
 785              	.L42:
 786 0018 48012040 		.word	1075839304
 787              		.cfi_endproc
 788              	.LFE14:
 789              		.size	LED_CONTROL1_WriteCounter, .-LED_CONTROL1_WriteCounter
 790              		.section	.text.LED_CONTROL1_ReadCounter,"ax",%progbits
 791              		.align	2
 792              		.global	LED_CONTROL1_ReadCounter
 793              		.code	16
 794              		.thumb_func
 795              		.type	LED_CONTROL1_ReadCounter, %function
 796              	LED_CONTROL1_ReadCounter:
 797              	.LFB15:
 619:Generated_Source\PSoC4/LED_CONTROL1.c **** 
 620:Generated_Source\PSoC4/LED_CONTROL1.c **** 
 621:Generated_Source\PSoC4/LED_CONTROL1.c **** /*******************************************************************************
 622:Generated_Source\PSoC4/LED_CONTROL1.c **** * Function Name: LED_CONTROL1_ReadCounter
 623:Generated_Source\PSoC4/LED_CONTROL1.c **** ********************************************************************************
 624:Generated_Source\PSoC4/LED_CONTROL1.c **** *
 625:Generated_Source\PSoC4/LED_CONTROL1.c **** * Summary:
 626:Generated_Source\PSoC4/LED_CONTROL1.c **** *  Reads the current counter value.
 627:Generated_Source\PSoC4/LED_CONTROL1.c **** *
 628:Generated_Source\PSoC4/LED_CONTROL1.c **** * Parameters:
ARM GAS  C:\Users\poornima\AppData\Local\Temp\ccn19ius.s 			page 26


 629:Generated_Source\PSoC4/LED_CONTROL1.c **** *  None
 630:Generated_Source\PSoC4/LED_CONTROL1.c **** *
 631:Generated_Source\PSoC4/LED_CONTROL1.c **** * Return:
 632:Generated_Source\PSoC4/LED_CONTROL1.c **** *  Current counter value
 633:Generated_Source\PSoC4/LED_CONTROL1.c **** *
 634:Generated_Source\PSoC4/LED_CONTROL1.c **** *******************************************************************************/
 635:Generated_Source\PSoC4/LED_CONTROL1.c **** uint32 LED_CONTROL1_ReadCounter(void)
 636:Generated_Source\PSoC4/LED_CONTROL1.c **** {
 798              		.loc 1 636 0
 799              		.cfi_startproc
 800 0000 80B5     		push	{r7, lr}
 801              		.cfi_def_cfa_offset 8
 802              		.cfi_offset 7, -8
 803              		.cfi_offset 14, -4
 804 0002 00AF     		add	r7, sp, #0
 805              		.cfi_def_cfa_register 7
 637:Generated_Source\PSoC4/LED_CONTROL1.c ****     return (LED_CONTROL1_COUNTER_REG & LED_CONTROL1_16BIT_MASK);
 806              		.loc 1 637 0
 807 0004 034B     		ldr	r3, .L46
 808 0006 1B68     		ldr	r3, [r3]
 809 0008 1B04     		lsl	r3, r3, #16
 810 000a 1B0C     		lsr	r3, r3, #16
 638:Generated_Source\PSoC4/LED_CONTROL1.c **** }
 811              		.loc 1 638 0
 812 000c 181C     		mov	r0, r3
 813 000e BD46     		mov	sp, r7
 814              		@ sp needed
 815 0010 80BD     		pop	{r7, pc}
 816              	.L47:
 817 0012 C046     		.align	2
 818              	.L46:
 819 0014 48012040 		.word	1075839304
 820              		.cfi_endproc
 821              	.LFE15:
 822              		.size	LED_CONTROL1_ReadCounter, .-LED_CONTROL1_ReadCounter
 823              		.section	.text.LED_CONTROL1_SetCounterMode,"ax",%progbits
 824              		.align	2
 825              		.global	LED_CONTROL1_SetCounterMode
 826              		.code	16
 827              		.thumb_func
 828              		.type	LED_CONTROL1_SetCounterMode, %function
 829              	LED_CONTROL1_SetCounterMode:
 830              	.LFB16:
 639:Generated_Source\PSoC4/LED_CONTROL1.c **** 
 640:Generated_Source\PSoC4/LED_CONTROL1.c **** 
 641:Generated_Source\PSoC4/LED_CONTROL1.c **** /*******************************************************************************
 642:Generated_Source\PSoC4/LED_CONTROL1.c **** * Function Name: LED_CONTROL1_SetCounterMode
 643:Generated_Source\PSoC4/LED_CONTROL1.c **** ********************************************************************************
 644:Generated_Source\PSoC4/LED_CONTROL1.c **** *
 645:Generated_Source\PSoC4/LED_CONTROL1.c **** * Summary:
 646:Generated_Source\PSoC4/LED_CONTROL1.c **** *  Sets the counter mode.  Applicable to all modes except Quadrature Decoder
 647:Generated_Source\PSoC4/LED_CONTROL1.c **** *  and the PWM with a pseudo random output.
 648:Generated_Source\PSoC4/LED_CONTROL1.c **** *
 649:Generated_Source\PSoC4/LED_CONTROL1.c **** * Parameters:
 650:Generated_Source\PSoC4/LED_CONTROL1.c **** *  counterMode: Enumerated counter type values
 651:Generated_Source\PSoC4/LED_CONTROL1.c **** *   Values:
 652:Generated_Source\PSoC4/LED_CONTROL1.c **** *     - LED_CONTROL1_COUNT_UP       - Counts up
ARM GAS  C:\Users\poornima\AppData\Local\Temp\ccn19ius.s 			page 27


 653:Generated_Source\PSoC4/LED_CONTROL1.c **** *     - LED_CONTROL1_COUNT_DOWN     - Counts down
 654:Generated_Source\PSoC4/LED_CONTROL1.c **** *     - LED_CONTROL1_COUNT_UPDOWN0  - Counts up and down. Terminal count
 655:Generated_Source\PSoC4/LED_CONTROL1.c **** *                                         generated when counter reaches 0
 656:Generated_Source\PSoC4/LED_CONTROL1.c **** *     - LED_CONTROL1_COUNT_UPDOWN1  - Counts up and down. Terminal count
 657:Generated_Source\PSoC4/LED_CONTROL1.c **** *                                         generated both when counter reaches 0
 658:Generated_Source\PSoC4/LED_CONTROL1.c **** *                                         and period
 659:Generated_Source\PSoC4/LED_CONTROL1.c **** *
 660:Generated_Source\PSoC4/LED_CONTROL1.c **** * Return:
 661:Generated_Source\PSoC4/LED_CONTROL1.c **** *  None
 662:Generated_Source\PSoC4/LED_CONTROL1.c **** *
 663:Generated_Source\PSoC4/LED_CONTROL1.c **** *******************************************************************************/
 664:Generated_Source\PSoC4/LED_CONTROL1.c **** void LED_CONTROL1_SetCounterMode(uint32 counterMode)
 665:Generated_Source\PSoC4/LED_CONTROL1.c **** {
 831              		.loc 1 665 0
 832              		.cfi_startproc
 833 0000 90B5     		push	{r4, r7, lr}
 834              		.cfi_def_cfa_offset 12
 835              		.cfi_offset 4, -12
 836              		.cfi_offset 7, -8
 837              		.cfi_offset 14, -4
 838 0002 85B0     		sub	sp, sp, #20
 839              		.cfi_def_cfa_offset 32
 840 0004 00AF     		add	r7, sp, #0
 841              		.cfi_def_cfa_register 7
 842 0006 7860     		str	r0, [r7, #4]
 666:Generated_Source\PSoC4/LED_CONTROL1.c ****     uint8 enableInterrupts;
 667:Generated_Source\PSoC4/LED_CONTROL1.c **** 
 668:Generated_Source\PSoC4/LED_CONTROL1.c ****     enableInterrupts = CyEnterCriticalSection();
 843              		.loc 1 668 0
 844 0008 0F23     		mov	r3, #15
 845 000a FC18     		add	r4, r7, r3
 846 000c FFF7FEFF 		bl	CyEnterCriticalSection
 847 0010 031C     		mov	r3, r0
 848 0012 2370     		strb	r3, [r4]
 669:Generated_Source\PSoC4/LED_CONTROL1.c **** 
 670:Generated_Source\PSoC4/LED_CONTROL1.c ****     LED_CONTROL1_CONTROL_REG &= (uint32)~LED_CONTROL1_UPDOWN_MASK;
 849              		.loc 1 670 0
 850 0014 0A4B     		ldr	r3, .L49
 851 0016 0A4A     		ldr	r2, .L49
 852 0018 1268     		ldr	r2, [r2]
 853 001a 0A49     		ldr	r1, .L49+4
 854 001c 0A40     		and	r2, r1
 855 001e 1A60     		str	r2, [r3]
 671:Generated_Source\PSoC4/LED_CONTROL1.c ****     LED_CONTROL1_CONTROL_REG |= counterMode;
 856              		.loc 1 671 0
 857 0020 074B     		ldr	r3, .L49
 858 0022 074A     		ldr	r2, .L49
 859 0024 1168     		ldr	r1, [r2]
 860 0026 7A68     		ldr	r2, [r7, #4]
 861 0028 0A43     		orr	r2, r1
 862 002a 1A60     		str	r2, [r3]
 672:Generated_Source\PSoC4/LED_CONTROL1.c **** 
 673:Generated_Source\PSoC4/LED_CONTROL1.c ****     CyExitCriticalSection(enableInterrupts);
 863              		.loc 1 673 0
 864 002c 0F23     		mov	r3, #15
 865 002e FB18     		add	r3, r7, r3
 866 0030 1B78     		ldrb	r3, [r3]
ARM GAS  C:\Users\poornima\AppData\Local\Temp\ccn19ius.s 			page 28


 867 0032 181C     		mov	r0, r3
 868 0034 FFF7FEFF 		bl	CyExitCriticalSection
 674:Generated_Source\PSoC4/LED_CONTROL1.c **** }
 869              		.loc 1 674 0
 870 0038 BD46     		mov	sp, r7
 871 003a 05B0     		add	sp, sp, #20
 872              		@ sp needed
 873 003c 90BD     		pop	{r4, r7, pc}
 874              	.L50:
 875 003e C046     		.align	2
 876              	.L49:
 877 0040 40012040 		.word	1075839296
 878 0044 FFFFFCFF 		.word	-196609
 879              		.cfi_endproc
 880              	.LFE16:
 881              		.size	LED_CONTROL1_SetCounterMode, .-LED_CONTROL1_SetCounterMode
 882              		.section	.text.LED_CONTROL1_WritePeriod,"ax",%progbits
 883              		.align	2
 884              		.global	LED_CONTROL1_WritePeriod
 885              		.code	16
 886              		.thumb_func
 887              		.type	LED_CONTROL1_WritePeriod, %function
 888              	LED_CONTROL1_WritePeriod:
 889              	.LFB17:
 675:Generated_Source\PSoC4/LED_CONTROL1.c **** 
 676:Generated_Source\PSoC4/LED_CONTROL1.c **** 
 677:Generated_Source\PSoC4/LED_CONTROL1.c **** /*******************************************************************************
 678:Generated_Source\PSoC4/LED_CONTROL1.c **** * Function Name: LED_CONTROL1_WritePeriod
 679:Generated_Source\PSoC4/LED_CONTROL1.c **** ********************************************************************************
 680:Generated_Source\PSoC4/LED_CONTROL1.c **** *
 681:Generated_Source\PSoC4/LED_CONTROL1.c **** * Summary:
 682:Generated_Source\PSoC4/LED_CONTROL1.c **** *  Writes the 16 bit period register with the new period value.
 683:Generated_Source\PSoC4/LED_CONTROL1.c **** *  To cause the counter to count for N cycles this register should be written
 684:Generated_Source\PSoC4/LED_CONTROL1.c **** *  with N-1 (counts from 0 to period inclusive).
 685:Generated_Source\PSoC4/LED_CONTROL1.c **** *
 686:Generated_Source\PSoC4/LED_CONTROL1.c **** * Parameters:
 687:Generated_Source\PSoC4/LED_CONTROL1.c **** *  period: Period value
 688:Generated_Source\PSoC4/LED_CONTROL1.c **** *
 689:Generated_Source\PSoC4/LED_CONTROL1.c **** * Return:
 690:Generated_Source\PSoC4/LED_CONTROL1.c **** *  None
 691:Generated_Source\PSoC4/LED_CONTROL1.c **** *
 692:Generated_Source\PSoC4/LED_CONTROL1.c **** *******************************************************************************/
 693:Generated_Source\PSoC4/LED_CONTROL1.c **** void LED_CONTROL1_WritePeriod(uint32 period)
 694:Generated_Source\PSoC4/LED_CONTROL1.c **** {
 890              		.loc 1 694 0
 891              		.cfi_startproc
 892 0000 80B5     		push	{r7, lr}
 893              		.cfi_def_cfa_offset 8
 894              		.cfi_offset 7, -8
 895              		.cfi_offset 14, -4
 896 0002 82B0     		sub	sp, sp, #8
 897              		.cfi_def_cfa_offset 16
 898 0004 00AF     		add	r7, sp, #0
 899              		.cfi_def_cfa_register 7
 900 0006 7860     		str	r0, [r7, #4]
 695:Generated_Source\PSoC4/LED_CONTROL1.c ****     LED_CONTROL1_PERIOD_REG = (period & LED_CONTROL1_16BIT_MASK);
 901              		.loc 1 695 0
ARM GAS  C:\Users\poornima\AppData\Local\Temp\ccn19ius.s 			page 29


 902 0008 034B     		ldr	r3, .L52
 903 000a 7A68     		ldr	r2, [r7, #4]
 904 000c 1204     		lsl	r2, r2, #16
 905 000e 120C     		lsr	r2, r2, #16
 906 0010 1A60     		str	r2, [r3]
 696:Generated_Source\PSoC4/LED_CONTROL1.c **** }
 907              		.loc 1 696 0
 908 0012 BD46     		mov	sp, r7
 909 0014 02B0     		add	sp, sp, #8
 910              		@ sp needed
 911 0016 80BD     		pop	{r7, pc}
 912              	.L53:
 913              		.align	2
 914              	.L52:
 915 0018 54012040 		.word	1075839316
 916              		.cfi_endproc
 917              	.LFE17:
 918              		.size	LED_CONTROL1_WritePeriod, .-LED_CONTROL1_WritePeriod
 919              		.section	.text.LED_CONTROL1_ReadPeriod,"ax",%progbits
 920              		.align	2
 921              		.global	LED_CONTROL1_ReadPeriod
 922              		.code	16
 923              		.thumb_func
 924              		.type	LED_CONTROL1_ReadPeriod, %function
 925              	LED_CONTROL1_ReadPeriod:
 926              	.LFB18:
 697:Generated_Source\PSoC4/LED_CONTROL1.c **** 
 698:Generated_Source\PSoC4/LED_CONTROL1.c **** 
 699:Generated_Source\PSoC4/LED_CONTROL1.c **** /*******************************************************************************
 700:Generated_Source\PSoC4/LED_CONTROL1.c **** * Function Name: LED_CONTROL1_ReadPeriod
 701:Generated_Source\PSoC4/LED_CONTROL1.c **** ********************************************************************************
 702:Generated_Source\PSoC4/LED_CONTROL1.c **** *
 703:Generated_Source\PSoC4/LED_CONTROL1.c **** * Summary:
 704:Generated_Source\PSoC4/LED_CONTROL1.c **** *  Reads the 16 bit period register.
 705:Generated_Source\PSoC4/LED_CONTROL1.c **** *
 706:Generated_Source\PSoC4/LED_CONTROL1.c **** * Parameters:
 707:Generated_Source\PSoC4/LED_CONTROL1.c **** *  None
 708:Generated_Source\PSoC4/LED_CONTROL1.c **** *
 709:Generated_Source\PSoC4/LED_CONTROL1.c **** * Return:
 710:Generated_Source\PSoC4/LED_CONTROL1.c **** *  Period value
 711:Generated_Source\PSoC4/LED_CONTROL1.c **** *
 712:Generated_Source\PSoC4/LED_CONTROL1.c **** *******************************************************************************/
 713:Generated_Source\PSoC4/LED_CONTROL1.c **** uint32 LED_CONTROL1_ReadPeriod(void)
 714:Generated_Source\PSoC4/LED_CONTROL1.c **** {
 927              		.loc 1 714 0
 928              		.cfi_startproc
 929 0000 80B5     		push	{r7, lr}
 930              		.cfi_def_cfa_offset 8
 931              		.cfi_offset 7, -8
 932              		.cfi_offset 14, -4
 933 0002 00AF     		add	r7, sp, #0
 934              		.cfi_def_cfa_register 7
 715:Generated_Source\PSoC4/LED_CONTROL1.c ****     return (LED_CONTROL1_PERIOD_REG & LED_CONTROL1_16BIT_MASK);
 935              		.loc 1 715 0
 936 0004 034B     		ldr	r3, .L56
 937 0006 1B68     		ldr	r3, [r3]
 938 0008 1B04     		lsl	r3, r3, #16
ARM GAS  C:\Users\poornima\AppData\Local\Temp\ccn19ius.s 			page 30


 939 000a 1B0C     		lsr	r3, r3, #16
 716:Generated_Source\PSoC4/LED_CONTROL1.c **** }
 940              		.loc 1 716 0
 941 000c 181C     		mov	r0, r3
 942 000e BD46     		mov	sp, r7
 943              		@ sp needed
 944 0010 80BD     		pop	{r7, pc}
 945              	.L57:
 946 0012 C046     		.align	2
 947              	.L56:
 948 0014 54012040 		.word	1075839316
 949              		.cfi_endproc
 950              	.LFE18:
 951              		.size	LED_CONTROL1_ReadPeriod, .-LED_CONTROL1_ReadPeriod
 952              		.section	.text.LED_CONTROL1_SetCompareSwap,"ax",%progbits
 953              		.align	2
 954              		.global	LED_CONTROL1_SetCompareSwap
 955              		.code	16
 956              		.thumb_func
 957              		.type	LED_CONTROL1_SetCompareSwap, %function
 958              	LED_CONTROL1_SetCompareSwap:
 959              	.LFB19:
 717:Generated_Source\PSoC4/LED_CONTROL1.c **** 
 718:Generated_Source\PSoC4/LED_CONTROL1.c **** 
 719:Generated_Source\PSoC4/LED_CONTROL1.c **** /*******************************************************************************
 720:Generated_Source\PSoC4/LED_CONTROL1.c **** * Function Name: LED_CONTROL1_SetCompareSwap
 721:Generated_Source\PSoC4/LED_CONTROL1.c **** ********************************************************************************
 722:Generated_Source\PSoC4/LED_CONTROL1.c **** *
 723:Generated_Source\PSoC4/LED_CONTROL1.c **** * Summary:
 724:Generated_Source\PSoC4/LED_CONTROL1.c **** *  Writes the register that controls whether the compare registers are
 725:Generated_Source\PSoC4/LED_CONTROL1.c **** *  swapped. When enabled in the Timer/Counter mode(without capture) the swap
 726:Generated_Source\PSoC4/LED_CONTROL1.c **** *  occurs at a TC event. In the PWM mode the swap occurs at the next TC event
 727:Generated_Source\PSoC4/LED_CONTROL1.c **** *  following a hardware switch event.
 728:Generated_Source\PSoC4/LED_CONTROL1.c **** *
 729:Generated_Source\PSoC4/LED_CONTROL1.c **** * Parameters:
 730:Generated_Source\PSoC4/LED_CONTROL1.c **** *  swapEnable
 731:Generated_Source\PSoC4/LED_CONTROL1.c **** *   Values:
 732:Generated_Source\PSoC4/LED_CONTROL1.c **** *     - 0 - Disable swap
 733:Generated_Source\PSoC4/LED_CONTROL1.c **** *     - 1 - Enable swap
 734:Generated_Source\PSoC4/LED_CONTROL1.c **** *
 735:Generated_Source\PSoC4/LED_CONTROL1.c **** * Return:
 736:Generated_Source\PSoC4/LED_CONTROL1.c **** *  None
 737:Generated_Source\PSoC4/LED_CONTROL1.c **** *
 738:Generated_Source\PSoC4/LED_CONTROL1.c **** *******************************************************************************/
 739:Generated_Source\PSoC4/LED_CONTROL1.c **** void LED_CONTROL1_SetCompareSwap(uint32 swapEnable)
 740:Generated_Source\PSoC4/LED_CONTROL1.c **** {
 960              		.loc 1 740 0
 961              		.cfi_startproc
 962 0000 90B5     		push	{r4, r7, lr}
 963              		.cfi_def_cfa_offset 12
 964              		.cfi_offset 4, -12
 965              		.cfi_offset 7, -8
 966              		.cfi_offset 14, -4
 967 0002 85B0     		sub	sp, sp, #20
 968              		.cfi_def_cfa_offset 32
 969 0004 00AF     		add	r7, sp, #0
 970              		.cfi_def_cfa_register 7
ARM GAS  C:\Users\poornima\AppData\Local\Temp\ccn19ius.s 			page 31


 971 0006 7860     		str	r0, [r7, #4]
 741:Generated_Source\PSoC4/LED_CONTROL1.c ****     uint8 enableInterrupts;
 742:Generated_Source\PSoC4/LED_CONTROL1.c **** 
 743:Generated_Source\PSoC4/LED_CONTROL1.c ****     enableInterrupts = CyEnterCriticalSection();
 972              		.loc 1 743 0
 973 0008 0F23     		mov	r3, #15
 974 000a FC18     		add	r4, r7, r3
 975 000c FFF7FEFF 		bl	CyEnterCriticalSection
 976 0010 031C     		mov	r3, r0
 977 0012 2370     		strb	r3, [r4]
 744:Generated_Source\PSoC4/LED_CONTROL1.c **** 
 745:Generated_Source\PSoC4/LED_CONTROL1.c ****     LED_CONTROL1_CONTROL_REG &= (uint32)~LED_CONTROL1_RELOAD_CC_MASK;
 978              		.loc 1 745 0
 979 0014 0B4B     		ldr	r3, .L59
 980 0016 0B4A     		ldr	r2, .L59
 981 0018 1268     		ldr	r2, [r2]
 982 001a 0121     		mov	r1, #1
 983 001c 8A43     		bic	r2, r1
 984 001e 1A60     		str	r2, [r3]
 746:Generated_Source\PSoC4/LED_CONTROL1.c ****     LED_CONTROL1_CONTROL_REG |= (swapEnable & LED_CONTROL1_1BIT_MASK);
 985              		.loc 1 746 0
 986 0020 084B     		ldr	r3, .L59
 987 0022 084A     		ldr	r2, .L59
 988 0024 1168     		ldr	r1, [r2]
 989 0026 7A68     		ldr	r2, [r7, #4]
 990 0028 0120     		mov	r0, #1
 991 002a 0240     		and	r2, r0
 992 002c 0A43     		orr	r2, r1
 993 002e 1A60     		str	r2, [r3]
 747:Generated_Source\PSoC4/LED_CONTROL1.c **** 
 748:Generated_Source\PSoC4/LED_CONTROL1.c ****     CyExitCriticalSection(enableInterrupts);
 994              		.loc 1 748 0
 995 0030 0F23     		mov	r3, #15
 996 0032 FB18     		add	r3, r7, r3
 997 0034 1B78     		ldrb	r3, [r3]
 998 0036 181C     		mov	r0, r3
 999 0038 FFF7FEFF 		bl	CyExitCriticalSection
 749:Generated_Source\PSoC4/LED_CONTROL1.c **** }
 1000              		.loc 1 749 0
 1001 003c BD46     		mov	sp, r7
 1002 003e 05B0     		add	sp, sp, #20
 1003              		@ sp needed
 1004 0040 90BD     		pop	{r4, r7, pc}
 1005              	.L60:
 1006 0042 C046     		.align	2
 1007              	.L59:
 1008 0044 40012040 		.word	1075839296
 1009              		.cfi_endproc
 1010              	.LFE19:
 1011              		.size	LED_CONTROL1_SetCompareSwap, .-LED_CONTROL1_SetCompareSwap
 1012              		.section	.text.LED_CONTROL1_WritePeriodBuf,"ax",%progbits
 1013              		.align	2
 1014              		.global	LED_CONTROL1_WritePeriodBuf
 1015              		.code	16
 1016              		.thumb_func
 1017              		.type	LED_CONTROL1_WritePeriodBuf, %function
 1018              	LED_CONTROL1_WritePeriodBuf:
ARM GAS  C:\Users\poornima\AppData\Local\Temp\ccn19ius.s 			page 32


 1019              	.LFB20:
 750:Generated_Source\PSoC4/LED_CONTROL1.c **** 
 751:Generated_Source\PSoC4/LED_CONTROL1.c **** 
 752:Generated_Source\PSoC4/LED_CONTROL1.c **** /*******************************************************************************
 753:Generated_Source\PSoC4/LED_CONTROL1.c **** * Function Name: LED_CONTROL1_WritePeriodBuf
 754:Generated_Source\PSoC4/LED_CONTROL1.c **** ********************************************************************************
 755:Generated_Source\PSoC4/LED_CONTROL1.c **** *
 756:Generated_Source\PSoC4/LED_CONTROL1.c **** * Summary:
 757:Generated_Source\PSoC4/LED_CONTROL1.c **** *  Writes the 16 bit period buf register with the new period value.
 758:Generated_Source\PSoC4/LED_CONTROL1.c **** *
 759:Generated_Source\PSoC4/LED_CONTROL1.c **** * Parameters:
 760:Generated_Source\PSoC4/LED_CONTROL1.c **** *  periodBuf: Period value
 761:Generated_Source\PSoC4/LED_CONTROL1.c **** *
 762:Generated_Source\PSoC4/LED_CONTROL1.c **** * Return:
 763:Generated_Source\PSoC4/LED_CONTROL1.c **** *  None
 764:Generated_Source\PSoC4/LED_CONTROL1.c **** *
 765:Generated_Source\PSoC4/LED_CONTROL1.c **** *******************************************************************************/
 766:Generated_Source\PSoC4/LED_CONTROL1.c **** void LED_CONTROL1_WritePeriodBuf(uint32 periodBuf)
 767:Generated_Source\PSoC4/LED_CONTROL1.c **** {
 1020              		.loc 1 767 0
 1021              		.cfi_startproc
 1022 0000 80B5     		push	{r7, lr}
 1023              		.cfi_def_cfa_offset 8
 1024              		.cfi_offset 7, -8
 1025              		.cfi_offset 14, -4
 1026 0002 82B0     		sub	sp, sp, #8
 1027              		.cfi_def_cfa_offset 16
 1028 0004 00AF     		add	r7, sp, #0
 1029              		.cfi_def_cfa_register 7
 1030 0006 7860     		str	r0, [r7, #4]
 768:Generated_Source\PSoC4/LED_CONTROL1.c ****     LED_CONTROL1_PERIOD_BUF_REG = (periodBuf & LED_CONTROL1_16BIT_MASK);
 1031              		.loc 1 768 0
 1032 0008 034B     		ldr	r3, .L62
 1033 000a 7A68     		ldr	r2, [r7, #4]
 1034 000c 1204     		lsl	r2, r2, #16
 1035 000e 120C     		lsr	r2, r2, #16
 1036 0010 1A60     		str	r2, [r3]
 769:Generated_Source\PSoC4/LED_CONTROL1.c **** }
 1037              		.loc 1 769 0
 1038 0012 BD46     		mov	sp, r7
 1039 0014 02B0     		add	sp, sp, #8
 1040              		@ sp needed
 1041 0016 80BD     		pop	{r7, pc}
 1042              	.L63:
 1043              		.align	2
 1044              	.L62:
 1045 0018 58012040 		.word	1075839320
 1046              		.cfi_endproc
 1047              	.LFE20:
 1048              		.size	LED_CONTROL1_WritePeriodBuf, .-LED_CONTROL1_WritePeriodBuf
 1049              		.section	.text.LED_CONTROL1_ReadPeriodBuf,"ax",%progbits
 1050              		.align	2
 1051              		.global	LED_CONTROL1_ReadPeriodBuf
 1052              		.code	16
 1053              		.thumb_func
 1054              		.type	LED_CONTROL1_ReadPeriodBuf, %function
 1055              	LED_CONTROL1_ReadPeriodBuf:
ARM GAS  C:\Users\poornima\AppData\Local\Temp\ccn19ius.s 			page 33


 1056              	.LFB21:
 770:Generated_Source\PSoC4/LED_CONTROL1.c **** 
 771:Generated_Source\PSoC4/LED_CONTROL1.c **** 
 772:Generated_Source\PSoC4/LED_CONTROL1.c **** /*******************************************************************************
 773:Generated_Source\PSoC4/LED_CONTROL1.c **** * Function Name: LED_CONTROL1_ReadPeriodBuf
 774:Generated_Source\PSoC4/LED_CONTROL1.c **** ********************************************************************************
 775:Generated_Source\PSoC4/LED_CONTROL1.c **** *
 776:Generated_Source\PSoC4/LED_CONTROL1.c **** * Summary:
 777:Generated_Source\PSoC4/LED_CONTROL1.c **** *  Reads the 16 bit period buf register.
 778:Generated_Source\PSoC4/LED_CONTROL1.c **** *
 779:Generated_Source\PSoC4/LED_CONTROL1.c **** * Parameters:
 780:Generated_Source\PSoC4/LED_CONTROL1.c **** *  None
 781:Generated_Source\PSoC4/LED_CONTROL1.c **** *
 782:Generated_Source\PSoC4/LED_CONTROL1.c **** * Return:
 783:Generated_Source\PSoC4/LED_CONTROL1.c **** *  Period value
 784:Generated_Source\PSoC4/LED_CONTROL1.c **** *
 785:Generated_Source\PSoC4/LED_CONTROL1.c **** *******************************************************************************/
 786:Generated_Source\PSoC4/LED_CONTROL1.c **** uint32 LED_CONTROL1_ReadPeriodBuf(void)
 787:Generated_Source\PSoC4/LED_CONTROL1.c **** {
 1057              		.loc 1 787 0
 1058              		.cfi_startproc
 1059 0000 80B5     		push	{r7, lr}
 1060              		.cfi_def_cfa_offset 8
 1061              		.cfi_offset 7, -8
 1062              		.cfi_offset 14, -4
 1063 0002 00AF     		add	r7, sp, #0
 1064              		.cfi_def_cfa_register 7
 788:Generated_Source\PSoC4/LED_CONTROL1.c ****     return (LED_CONTROL1_PERIOD_BUF_REG & LED_CONTROL1_16BIT_MASK);
 1065              		.loc 1 788 0
 1066 0004 034B     		ldr	r3, .L66
 1067 0006 1B68     		ldr	r3, [r3]
 1068 0008 1B04     		lsl	r3, r3, #16
 1069 000a 1B0C     		lsr	r3, r3, #16
 789:Generated_Source\PSoC4/LED_CONTROL1.c **** }
 1070              		.loc 1 789 0
 1071 000c 181C     		mov	r0, r3
 1072 000e BD46     		mov	sp, r7
 1073              		@ sp needed
 1074 0010 80BD     		pop	{r7, pc}
 1075              	.L67:
 1076 0012 C046     		.align	2
 1077              	.L66:
 1078 0014 58012040 		.word	1075839320
 1079              		.cfi_endproc
 1080              	.LFE21:
 1081              		.size	LED_CONTROL1_ReadPeriodBuf, .-LED_CONTROL1_ReadPeriodBuf
 1082              		.section	.text.LED_CONTROL1_SetPeriodSwap,"ax",%progbits
 1083              		.align	2
 1084              		.global	LED_CONTROL1_SetPeriodSwap
 1085              		.code	16
 1086              		.thumb_func
 1087              		.type	LED_CONTROL1_SetPeriodSwap, %function
 1088              	LED_CONTROL1_SetPeriodSwap:
 1089              	.LFB22:
 790:Generated_Source\PSoC4/LED_CONTROL1.c **** 
 791:Generated_Source\PSoC4/LED_CONTROL1.c **** 
 792:Generated_Source\PSoC4/LED_CONTROL1.c **** /*******************************************************************************
ARM GAS  C:\Users\poornima\AppData\Local\Temp\ccn19ius.s 			page 34


 793:Generated_Source\PSoC4/LED_CONTROL1.c **** * Function Name: LED_CONTROL1_SetPeriodSwap
 794:Generated_Source\PSoC4/LED_CONTROL1.c **** ********************************************************************************
 795:Generated_Source\PSoC4/LED_CONTROL1.c **** *
 796:Generated_Source\PSoC4/LED_CONTROL1.c **** * Summary:
 797:Generated_Source\PSoC4/LED_CONTROL1.c **** *  Writes the register that controls whether the period registers are
 798:Generated_Source\PSoC4/LED_CONTROL1.c **** *  swapped. When enabled in Timer/Counter mode the swap occurs at a TC event.
 799:Generated_Source\PSoC4/LED_CONTROL1.c **** *  In the PWM mode the swap occurs at the next TC event following a hardware
 800:Generated_Source\PSoC4/LED_CONTROL1.c **** *  switch event.
 801:Generated_Source\PSoC4/LED_CONTROL1.c **** *
 802:Generated_Source\PSoC4/LED_CONTROL1.c **** * Parameters:
 803:Generated_Source\PSoC4/LED_CONTROL1.c **** *  swapEnable
 804:Generated_Source\PSoC4/LED_CONTROL1.c **** *   Values:
 805:Generated_Source\PSoC4/LED_CONTROL1.c **** *     - 0 - Disable swap
 806:Generated_Source\PSoC4/LED_CONTROL1.c **** *     - 1 - Enable swap
 807:Generated_Source\PSoC4/LED_CONTROL1.c **** *
 808:Generated_Source\PSoC4/LED_CONTROL1.c **** * Return:
 809:Generated_Source\PSoC4/LED_CONTROL1.c **** *  None
 810:Generated_Source\PSoC4/LED_CONTROL1.c **** *
 811:Generated_Source\PSoC4/LED_CONTROL1.c **** *******************************************************************************/
 812:Generated_Source\PSoC4/LED_CONTROL1.c **** void LED_CONTROL1_SetPeriodSwap(uint32 swapEnable)
 813:Generated_Source\PSoC4/LED_CONTROL1.c **** {
 1090              		.loc 1 813 0
 1091              		.cfi_startproc
 1092 0000 90B5     		push	{r4, r7, lr}
 1093              		.cfi_def_cfa_offset 12
 1094              		.cfi_offset 4, -12
 1095              		.cfi_offset 7, -8
 1096              		.cfi_offset 14, -4
 1097 0002 85B0     		sub	sp, sp, #20
 1098              		.cfi_def_cfa_offset 32
 1099 0004 00AF     		add	r7, sp, #0
 1100              		.cfi_def_cfa_register 7
 1101 0006 7860     		str	r0, [r7, #4]
 814:Generated_Source\PSoC4/LED_CONTROL1.c ****     uint8 enableInterrupts;
 815:Generated_Source\PSoC4/LED_CONTROL1.c **** 
 816:Generated_Source\PSoC4/LED_CONTROL1.c ****     enableInterrupts = CyEnterCriticalSection();
 1102              		.loc 1 816 0
 1103 0008 0F23     		mov	r3, #15
 1104 000a FC18     		add	r4, r7, r3
 1105 000c FFF7FEFF 		bl	CyEnterCriticalSection
 1106 0010 031C     		mov	r3, r0
 1107 0012 2370     		strb	r3, [r4]
 817:Generated_Source\PSoC4/LED_CONTROL1.c **** 
 818:Generated_Source\PSoC4/LED_CONTROL1.c ****     LED_CONTROL1_CONTROL_REG &= (uint32)~LED_CONTROL1_RELOAD_PERIOD_MASK;
 1108              		.loc 1 818 0
 1109 0014 0B4B     		ldr	r3, .L69
 1110 0016 0B4A     		ldr	r2, .L69
 1111 0018 1268     		ldr	r2, [r2]
 1112 001a 0221     		mov	r1, #2
 1113 001c 8A43     		bic	r2, r1
 1114 001e 1A60     		str	r2, [r3]
 819:Generated_Source\PSoC4/LED_CONTROL1.c ****     LED_CONTROL1_CONTROL_REG |= ((uint32)((swapEnable & LED_CONTROL1_1BIT_MASK) <<
 1115              		.loc 1 819 0
 1116 0020 084B     		ldr	r3, .L69
 1117 0022 084A     		ldr	r2, .L69
 1118 0024 1168     		ldr	r1, [r2]
 1119 0026 7A68     		ldr	r2, [r7, #4]
ARM GAS  C:\Users\poornima\AppData\Local\Temp\ccn19ius.s 			page 35


 1120 0028 0120     		mov	r0, #1
 1121 002a 0240     		and	r2, r0
 1122 002c 5200     		lsl	r2, r2, #1
 1123 002e 0A43     		orr	r2, r1
 1124 0030 1A60     		str	r2, [r3]
 820:Generated_Source\PSoC4/LED_CONTROL1.c ****                                                             LED_CONTROL1_RELOAD_PERIOD_SHIFT));
 821:Generated_Source\PSoC4/LED_CONTROL1.c **** 
 822:Generated_Source\PSoC4/LED_CONTROL1.c ****     CyExitCriticalSection(enableInterrupts);
 1125              		.loc 1 822 0
 1126 0032 0F23     		mov	r3, #15
 1127 0034 FB18     		add	r3, r7, r3
 1128 0036 1B78     		ldrb	r3, [r3]
 1129 0038 181C     		mov	r0, r3
 1130 003a FFF7FEFF 		bl	CyExitCriticalSection
 823:Generated_Source\PSoC4/LED_CONTROL1.c **** }
 1131              		.loc 1 823 0
 1132 003e BD46     		mov	sp, r7
 1133 0040 05B0     		add	sp, sp, #20
 1134              		@ sp needed
 1135 0042 90BD     		pop	{r4, r7, pc}
 1136              	.L70:
 1137              		.align	2
 1138              	.L69:
 1139 0044 40012040 		.word	1075839296
 1140              		.cfi_endproc
 1141              	.LFE22:
 1142              		.size	LED_CONTROL1_SetPeriodSwap, .-LED_CONTROL1_SetPeriodSwap
 1143              		.section	.text.LED_CONTROL1_WriteCompare,"ax",%progbits
 1144              		.align	2
 1145              		.global	LED_CONTROL1_WriteCompare
 1146              		.code	16
 1147              		.thumb_func
 1148              		.type	LED_CONTROL1_WriteCompare, %function
 1149              	LED_CONTROL1_WriteCompare:
 1150              	.LFB23:
 824:Generated_Source\PSoC4/LED_CONTROL1.c **** 
 825:Generated_Source\PSoC4/LED_CONTROL1.c **** 
 826:Generated_Source\PSoC4/LED_CONTROL1.c **** /*******************************************************************************
 827:Generated_Source\PSoC4/LED_CONTROL1.c **** * Function Name: LED_CONTROL1_WriteCompare
 828:Generated_Source\PSoC4/LED_CONTROL1.c **** ********************************************************************************
 829:Generated_Source\PSoC4/LED_CONTROL1.c **** *
 830:Generated_Source\PSoC4/LED_CONTROL1.c **** * Summary:
 831:Generated_Source\PSoC4/LED_CONTROL1.c **** *  Writes the 16 bit compare register with the new compare value. Not
 832:Generated_Source\PSoC4/LED_CONTROL1.c **** *  applicable for Timer/Counter with Capture or in Quadrature Decoder modes.
 833:Generated_Source\PSoC4/LED_CONTROL1.c **** *
 834:Generated_Source\PSoC4/LED_CONTROL1.c **** * Parameters:
 835:Generated_Source\PSoC4/LED_CONTROL1.c **** *  compare: Compare value
 836:Generated_Source\PSoC4/LED_CONTROL1.c **** *
 837:Generated_Source\PSoC4/LED_CONTROL1.c **** * Return:
 838:Generated_Source\PSoC4/LED_CONTROL1.c **** *  None
 839:Generated_Source\PSoC4/LED_CONTROL1.c **** *
 840:Generated_Source\PSoC4/LED_CONTROL1.c **** * Note:
 841:Generated_Source\PSoC4/LED_CONTROL1.c **** *  It is not recommended to use the value equal to "0" or equal to 
 842:Generated_Source\PSoC4/LED_CONTROL1.c **** *  "period value" in Center or Asymmetric align PWM modes on the 
 843:Generated_Source\PSoC4/LED_CONTROL1.c **** *  PSoC 4100/PSoC 4200 devices.
 844:Generated_Source\PSoC4/LED_CONTROL1.c **** *  PSoC 4000 devices write the 16 bit compare register with the decremented 
 845:Generated_Source\PSoC4/LED_CONTROL1.c **** *  compare value in the Up counting mode (except 0x0u), and the incremented 
ARM GAS  C:\Users\poornima\AppData\Local\Temp\ccn19ius.s 			page 36


 846:Generated_Source\PSoC4/LED_CONTROL1.c **** *  compare value in the Down counting mode (except 0xFFFFu).
 847:Generated_Source\PSoC4/LED_CONTROL1.c **** *
 848:Generated_Source\PSoC4/LED_CONTROL1.c **** *******************************************************************************/
 849:Generated_Source\PSoC4/LED_CONTROL1.c **** void LED_CONTROL1_WriteCompare(uint32 compare)
 850:Generated_Source\PSoC4/LED_CONTROL1.c **** {
 1151              		.loc 1 850 0
 1152              		.cfi_startproc
 1153 0000 80B5     		push	{r7, lr}
 1154              		.cfi_def_cfa_offset 8
 1155              		.cfi_offset 7, -8
 1156              		.cfi_offset 14, -4
 1157 0002 82B0     		sub	sp, sp, #8
 1158              		.cfi_def_cfa_offset 16
 1159 0004 00AF     		add	r7, sp, #0
 1160              		.cfi_def_cfa_register 7
 1161 0006 7860     		str	r0, [r7, #4]
 851:Generated_Source\PSoC4/LED_CONTROL1.c ****     #if (LED_CONTROL1_CY_TCPWM_4000)
 852:Generated_Source\PSoC4/LED_CONTROL1.c ****         uint32 currentMode;
 853:Generated_Source\PSoC4/LED_CONTROL1.c ****     #endif /* (LED_CONTROL1_CY_TCPWM_4000) */
 854:Generated_Source\PSoC4/LED_CONTROL1.c **** 
 855:Generated_Source\PSoC4/LED_CONTROL1.c ****     #if (LED_CONTROL1_CY_TCPWM_4000)
 856:Generated_Source\PSoC4/LED_CONTROL1.c ****         currentMode = ((LED_CONTROL1_CONTROL_REG & LED_CONTROL1_UPDOWN_MASK) >> LED_CONTROL1_UPDOWN
 857:Generated_Source\PSoC4/LED_CONTROL1.c **** 
 858:Generated_Source\PSoC4/LED_CONTROL1.c ****         if (((uint32)LED_CONTROL1__COUNT_DOWN == currentMode) && (0xFFFFu != compare))
 859:Generated_Source\PSoC4/LED_CONTROL1.c ****         {
 860:Generated_Source\PSoC4/LED_CONTROL1.c ****             compare++;
 861:Generated_Source\PSoC4/LED_CONTROL1.c ****         }
 862:Generated_Source\PSoC4/LED_CONTROL1.c ****         else if (((uint32)LED_CONTROL1__COUNT_UP == currentMode) && (0u != compare))
 863:Generated_Source\PSoC4/LED_CONTROL1.c ****         {
 864:Generated_Source\PSoC4/LED_CONTROL1.c ****             compare--;
 865:Generated_Source\PSoC4/LED_CONTROL1.c ****         }
 866:Generated_Source\PSoC4/LED_CONTROL1.c ****         else
 867:Generated_Source\PSoC4/LED_CONTROL1.c ****         {
 868:Generated_Source\PSoC4/LED_CONTROL1.c ****         }
 869:Generated_Source\PSoC4/LED_CONTROL1.c ****         
 870:Generated_Source\PSoC4/LED_CONTROL1.c ****     
 871:Generated_Source\PSoC4/LED_CONTROL1.c ****     #endif /* (LED_CONTROL1_CY_TCPWM_4000) */
 872:Generated_Source\PSoC4/LED_CONTROL1.c ****     
 873:Generated_Source\PSoC4/LED_CONTROL1.c ****     LED_CONTROL1_COMP_CAP_REG = (compare & LED_CONTROL1_16BIT_MASK);
 1162              		.loc 1 873 0
 1163 0008 034B     		ldr	r3, .L72
 1164 000a 7A68     		ldr	r2, [r7, #4]
 1165 000c 1204     		lsl	r2, r2, #16
 1166 000e 120C     		lsr	r2, r2, #16
 1167 0010 1A60     		str	r2, [r3]
 874:Generated_Source\PSoC4/LED_CONTROL1.c **** }
 1168              		.loc 1 874 0
 1169 0012 BD46     		mov	sp, r7
 1170 0014 02B0     		add	sp, sp, #8
 1171              		@ sp needed
 1172 0016 80BD     		pop	{r7, pc}
 1173              	.L73:
 1174              		.align	2
 1175              	.L72:
 1176 0018 4C012040 		.word	1075839308
 1177              		.cfi_endproc
 1178              	.LFE23:
ARM GAS  C:\Users\poornima\AppData\Local\Temp\ccn19ius.s 			page 37


 1179              		.size	LED_CONTROL1_WriteCompare, .-LED_CONTROL1_WriteCompare
 1180              		.section	.text.LED_CONTROL1_ReadCompare,"ax",%progbits
 1181              		.align	2
 1182              		.global	LED_CONTROL1_ReadCompare
 1183              		.code	16
 1184              		.thumb_func
 1185              		.type	LED_CONTROL1_ReadCompare, %function
 1186              	LED_CONTROL1_ReadCompare:
 1187              	.LFB24:
 875:Generated_Source\PSoC4/LED_CONTROL1.c **** 
 876:Generated_Source\PSoC4/LED_CONTROL1.c **** 
 877:Generated_Source\PSoC4/LED_CONTROL1.c **** /*******************************************************************************
 878:Generated_Source\PSoC4/LED_CONTROL1.c **** * Function Name: LED_CONTROL1_ReadCompare
 879:Generated_Source\PSoC4/LED_CONTROL1.c **** ********************************************************************************
 880:Generated_Source\PSoC4/LED_CONTROL1.c **** *
 881:Generated_Source\PSoC4/LED_CONTROL1.c **** * Summary:
 882:Generated_Source\PSoC4/LED_CONTROL1.c **** *  Reads the compare register. Not applicable for Timer/Counter with Capture
 883:Generated_Source\PSoC4/LED_CONTROL1.c **** *  or in Quadrature Decoder modes.
 884:Generated_Source\PSoC4/LED_CONTROL1.c **** *  PSoC 4000 devices read the incremented compare register value in the 
 885:Generated_Source\PSoC4/LED_CONTROL1.c **** *  Up counting mode (except 0xFFFFu), and the decremented value in the 
 886:Generated_Source\PSoC4/LED_CONTROL1.c **** *  Down counting mode (except 0x0u).
 887:Generated_Source\PSoC4/LED_CONTROL1.c **** *
 888:Generated_Source\PSoC4/LED_CONTROL1.c **** * Parameters:
 889:Generated_Source\PSoC4/LED_CONTROL1.c **** *  None
 890:Generated_Source\PSoC4/LED_CONTROL1.c **** *
 891:Generated_Source\PSoC4/LED_CONTROL1.c **** * Return:
 892:Generated_Source\PSoC4/LED_CONTROL1.c **** *  Compare value
 893:Generated_Source\PSoC4/LED_CONTROL1.c **** *
 894:Generated_Source\PSoC4/LED_CONTROL1.c **** * Note:
 895:Generated_Source\PSoC4/LED_CONTROL1.c **** *  PSoC 4000 devices read the incremented compare register value in the 
 896:Generated_Source\PSoC4/LED_CONTROL1.c **** *  Up counting mode (except 0xFFFFu), and the decremented value in the 
 897:Generated_Source\PSoC4/LED_CONTROL1.c **** *  Down counting mode (except 0x0u).
 898:Generated_Source\PSoC4/LED_CONTROL1.c **** *
 899:Generated_Source\PSoC4/LED_CONTROL1.c **** *******************************************************************************/
 900:Generated_Source\PSoC4/LED_CONTROL1.c **** uint32 LED_CONTROL1_ReadCompare(void)
 901:Generated_Source\PSoC4/LED_CONTROL1.c **** {
 1188              		.loc 1 901 0
 1189              		.cfi_startproc
 1190 0000 80B5     		push	{r7, lr}
 1191              		.cfi_def_cfa_offset 8
 1192              		.cfi_offset 7, -8
 1193              		.cfi_offset 14, -4
 1194 0002 00AF     		add	r7, sp, #0
 1195              		.cfi_def_cfa_register 7
 902:Generated_Source\PSoC4/LED_CONTROL1.c ****     #if (LED_CONTROL1_CY_TCPWM_4000)
 903:Generated_Source\PSoC4/LED_CONTROL1.c ****         uint32 currentMode;
 904:Generated_Source\PSoC4/LED_CONTROL1.c ****         uint32 regVal;
 905:Generated_Source\PSoC4/LED_CONTROL1.c ****     #endif /* (LED_CONTROL1_CY_TCPWM_4000) */
 906:Generated_Source\PSoC4/LED_CONTROL1.c **** 
 907:Generated_Source\PSoC4/LED_CONTROL1.c ****     #if (LED_CONTROL1_CY_TCPWM_4000)
 908:Generated_Source\PSoC4/LED_CONTROL1.c ****         currentMode = ((LED_CONTROL1_CONTROL_REG & LED_CONTROL1_UPDOWN_MASK) >> LED_CONTROL1_UPDOWN
 909:Generated_Source\PSoC4/LED_CONTROL1.c ****         
 910:Generated_Source\PSoC4/LED_CONTROL1.c ****         regVal = LED_CONTROL1_COMP_CAP_REG;
 911:Generated_Source\PSoC4/LED_CONTROL1.c ****         
 912:Generated_Source\PSoC4/LED_CONTROL1.c ****         if (((uint32)LED_CONTROL1__COUNT_DOWN == currentMode) && (0u != regVal))
 913:Generated_Source\PSoC4/LED_CONTROL1.c ****         {
 914:Generated_Source\PSoC4/LED_CONTROL1.c ****             regVal--;
ARM GAS  C:\Users\poornima\AppData\Local\Temp\ccn19ius.s 			page 38


 915:Generated_Source\PSoC4/LED_CONTROL1.c ****         }
 916:Generated_Source\PSoC4/LED_CONTROL1.c ****         else if (((uint32)LED_CONTROL1__COUNT_UP == currentMode) && (0xFFFFu != regVal))
 917:Generated_Source\PSoC4/LED_CONTROL1.c ****         {
 918:Generated_Source\PSoC4/LED_CONTROL1.c ****             regVal++;
 919:Generated_Source\PSoC4/LED_CONTROL1.c ****         }
 920:Generated_Source\PSoC4/LED_CONTROL1.c ****         else
 921:Generated_Source\PSoC4/LED_CONTROL1.c ****         {
 922:Generated_Source\PSoC4/LED_CONTROL1.c ****         }
 923:Generated_Source\PSoC4/LED_CONTROL1.c **** 
 924:Generated_Source\PSoC4/LED_CONTROL1.c ****         return (regVal & LED_CONTROL1_16BIT_MASK);
 925:Generated_Source\PSoC4/LED_CONTROL1.c ****     #else
 926:Generated_Source\PSoC4/LED_CONTROL1.c ****         return (LED_CONTROL1_COMP_CAP_REG & LED_CONTROL1_16BIT_MASK);
 1196              		.loc 1 926 0
 1197 0004 034B     		ldr	r3, .L76
 1198 0006 1B68     		ldr	r3, [r3]
 1199 0008 1B04     		lsl	r3, r3, #16
 1200 000a 1B0C     		lsr	r3, r3, #16
 927:Generated_Source\PSoC4/LED_CONTROL1.c ****     #endif /* (LED_CONTROL1_CY_TCPWM_4000) */
 928:Generated_Source\PSoC4/LED_CONTROL1.c **** }
 1201              		.loc 1 928 0
 1202 000c 181C     		mov	r0, r3
 1203 000e BD46     		mov	sp, r7
 1204              		@ sp needed
 1205 0010 80BD     		pop	{r7, pc}
 1206              	.L77:
 1207 0012 C046     		.align	2
 1208              	.L76:
 1209 0014 4C012040 		.word	1075839308
 1210              		.cfi_endproc
 1211              	.LFE24:
 1212              		.size	LED_CONTROL1_ReadCompare, .-LED_CONTROL1_ReadCompare
 1213              		.section	.text.LED_CONTROL1_WriteCompareBuf,"ax",%progbits
 1214              		.align	2
 1215              		.global	LED_CONTROL1_WriteCompareBuf
 1216              		.code	16
 1217              		.thumb_func
 1218              		.type	LED_CONTROL1_WriteCompareBuf, %function
 1219              	LED_CONTROL1_WriteCompareBuf:
 1220              	.LFB25:
 929:Generated_Source\PSoC4/LED_CONTROL1.c **** 
 930:Generated_Source\PSoC4/LED_CONTROL1.c **** 
 931:Generated_Source\PSoC4/LED_CONTROL1.c **** /*******************************************************************************
 932:Generated_Source\PSoC4/LED_CONTROL1.c **** * Function Name: LED_CONTROL1_WriteCompareBuf
 933:Generated_Source\PSoC4/LED_CONTROL1.c **** ********************************************************************************
 934:Generated_Source\PSoC4/LED_CONTROL1.c **** *
 935:Generated_Source\PSoC4/LED_CONTROL1.c **** * Summary:
 936:Generated_Source\PSoC4/LED_CONTROL1.c **** *  Writes the 16 bit compare buffer register with the new compare value. Not
 937:Generated_Source\PSoC4/LED_CONTROL1.c **** *  applicable for Timer/Counter with Capture or in Quadrature Decoder modes.
 938:Generated_Source\PSoC4/LED_CONTROL1.c **** *
 939:Generated_Source\PSoC4/LED_CONTROL1.c **** * Parameters:
 940:Generated_Source\PSoC4/LED_CONTROL1.c **** *  compareBuf: Compare value
 941:Generated_Source\PSoC4/LED_CONTROL1.c **** *
 942:Generated_Source\PSoC4/LED_CONTROL1.c **** * Return:
 943:Generated_Source\PSoC4/LED_CONTROL1.c **** *  None
 944:Generated_Source\PSoC4/LED_CONTROL1.c **** *
 945:Generated_Source\PSoC4/LED_CONTROL1.c **** * Note:
 946:Generated_Source\PSoC4/LED_CONTROL1.c **** *  It is not recommended to use the value equal to "0" or equal to 
ARM GAS  C:\Users\poornima\AppData\Local\Temp\ccn19ius.s 			page 39


 947:Generated_Source\PSoC4/LED_CONTROL1.c **** *  "period value" in Center or Asymmetric align PWM modes on the 
 948:Generated_Source\PSoC4/LED_CONTROL1.c **** *  PSoC 4100/PSoC 4200 devices.
 949:Generated_Source\PSoC4/LED_CONTROL1.c **** *  PSoC 4000 devices write the 16 bit compare register with the decremented 
 950:Generated_Source\PSoC4/LED_CONTROL1.c **** *  compare value in the Up counting mode (except 0x0u), and the incremented 
 951:Generated_Source\PSoC4/LED_CONTROL1.c **** *  compare value in the Down counting mode (except 0xFFFFu).
 952:Generated_Source\PSoC4/LED_CONTROL1.c **** *
 953:Generated_Source\PSoC4/LED_CONTROL1.c **** *******************************************************************************/
 954:Generated_Source\PSoC4/LED_CONTROL1.c **** void LED_CONTROL1_WriteCompareBuf(uint32 compareBuf)
 955:Generated_Source\PSoC4/LED_CONTROL1.c **** {
 1221              		.loc 1 955 0
 1222              		.cfi_startproc
 1223 0000 80B5     		push	{r7, lr}
 1224              		.cfi_def_cfa_offset 8
 1225              		.cfi_offset 7, -8
 1226              		.cfi_offset 14, -4
 1227 0002 82B0     		sub	sp, sp, #8
 1228              		.cfi_def_cfa_offset 16
 1229 0004 00AF     		add	r7, sp, #0
 1230              		.cfi_def_cfa_register 7
 1231 0006 7860     		str	r0, [r7, #4]
 956:Generated_Source\PSoC4/LED_CONTROL1.c ****     #if (LED_CONTROL1_CY_TCPWM_4000)
 957:Generated_Source\PSoC4/LED_CONTROL1.c ****         uint32 currentMode;
 958:Generated_Source\PSoC4/LED_CONTROL1.c ****     #endif /* (LED_CONTROL1_CY_TCPWM_4000) */
 959:Generated_Source\PSoC4/LED_CONTROL1.c **** 
 960:Generated_Source\PSoC4/LED_CONTROL1.c ****     #if (LED_CONTROL1_CY_TCPWM_4000)
 961:Generated_Source\PSoC4/LED_CONTROL1.c ****         currentMode = ((LED_CONTROL1_CONTROL_REG & LED_CONTROL1_UPDOWN_MASK) >> LED_CONTROL1_UPDOWN
 962:Generated_Source\PSoC4/LED_CONTROL1.c **** 
 963:Generated_Source\PSoC4/LED_CONTROL1.c ****         if (((uint32)LED_CONTROL1__COUNT_DOWN == currentMode) && (0xFFFFu != compareBuf))
 964:Generated_Source\PSoC4/LED_CONTROL1.c ****         {
 965:Generated_Source\PSoC4/LED_CONTROL1.c ****             compareBuf++;
 966:Generated_Source\PSoC4/LED_CONTROL1.c ****         }
 967:Generated_Source\PSoC4/LED_CONTROL1.c ****         else if (((uint32)LED_CONTROL1__COUNT_UP == currentMode) && (0u != compareBuf))
 968:Generated_Source\PSoC4/LED_CONTROL1.c ****         {
 969:Generated_Source\PSoC4/LED_CONTROL1.c ****             compareBuf --;
 970:Generated_Source\PSoC4/LED_CONTROL1.c ****         }
 971:Generated_Source\PSoC4/LED_CONTROL1.c ****         else
 972:Generated_Source\PSoC4/LED_CONTROL1.c ****         {
 973:Generated_Source\PSoC4/LED_CONTROL1.c ****         }
 974:Generated_Source\PSoC4/LED_CONTROL1.c ****     #endif /* (LED_CONTROL1_CY_TCPWM_4000) */
 975:Generated_Source\PSoC4/LED_CONTROL1.c ****     
 976:Generated_Source\PSoC4/LED_CONTROL1.c ****     LED_CONTROL1_COMP_CAP_BUF_REG = (compareBuf & LED_CONTROL1_16BIT_MASK);
 1232              		.loc 1 976 0
 1233 0008 034B     		ldr	r3, .L79
 1234 000a 7A68     		ldr	r2, [r7, #4]
 1235 000c 1204     		lsl	r2, r2, #16
 1236 000e 120C     		lsr	r2, r2, #16
 1237 0010 1A60     		str	r2, [r3]
 977:Generated_Source\PSoC4/LED_CONTROL1.c **** }
 1238              		.loc 1 977 0
 1239 0012 BD46     		mov	sp, r7
 1240 0014 02B0     		add	sp, sp, #8
 1241              		@ sp needed
 1242 0016 80BD     		pop	{r7, pc}
 1243              	.L80:
 1244              		.align	2
 1245              	.L79:
 1246 0018 50012040 		.word	1075839312
ARM GAS  C:\Users\poornima\AppData\Local\Temp\ccn19ius.s 			page 40


 1247              		.cfi_endproc
 1248              	.LFE25:
 1249              		.size	LED_CONTROL1_WriteCompareBuf, .-LED_CONTROL1_WriteCompareBuf
 1250              		.section	.text.LED_CONTROL1_ReadCompareBuf,"ax",%progbits
 1251              		.align	2
 1252              		.global	LED_CONTROL1_ReadCompareBuf
 1253              		.code	16
 1254              		.thumb_func
 1255              		.type	LED_CONTROL1_ReadCompareBuf, %function
 1256              	LED_CONTROL1_ReadCompareBuf:
 1257              	.LFB26:
 978:Generated_Source\PSoC4/LED_CONTROL1.c **** 
 979:Generated_Source\PSoC4/LED_CONTROL1.c **** 
 980:Generated_Source\PSoC4/LED_CONTROL1.c **** /*******************************************************************************
 981:Generated_Source\PSoC4/LED_CONTROL1.c **** * Function Name: LED_CONTROL1_ReadCompareBuf
 982:Generated_Source\PSoC4/LED_CONTROL1.c **** ********************************************************************************
 983:Generated_Source\PSoC4/LED_CONTROL1.c **** *
 984:Generated_Source\PSoC4/LED_CONTROL1.c **** * Summary:
 985:Generated_Source\PSoC4/LED_CONTROL1.c **** *  Reads the compare buffer register. Not applicable for Timer/Counter with
 986:Generated_Source\PSoC4/LED_CONTROL1.c **** *  Capture or in Quadrature Decoder modes.
 987:Generated_Source\PSoC4/LED_CONTROL1.c **** *
 988:Generated_Source\PSoC4/LED_CONTROL1.c **** * Parameters:
 989:Generated_Source\PSoC4/LED_CONTROL1.c **** *  None
 990:Generated_Source\PSoC4/LED_CONTROL1.c **** *
 991:Generated_Source\PSoC4/LED_CONTROL1.c **** * Return:
 992:Generated_Source\PSoC4/LED_CONTROL1.c **** *  Compare buffer value
 993:Generated_Source\PSoC4/LED_CONTROL1.c **** *
 994:Generated_Source\PSoC4/LED_CONTROL1.c **** * Note:
 995:Generated_Source\PSoC4/LED_CONTROL1.c **** *  PSoC 4000 devices read the incremented compare register value in the 
 996:Generated_Source\PSoC4/LED_CONTROL1.c **** *  Up counting mode (except 0xFFFFu), and the decremented value in the 
 997:Generated_Source\PSoC4/LED_CONTROL1.c **** *  Down counting mode (except 0x0u).
 998:Generated_Source\PSoC4/LED_CONTROL1.c **** *
 999:Generated_Source\PSoC4/LED_CONTROL1.c **** *******************************************************************************/
1000:Generated_Source\PSoC4/LED_CONTROL1.c **** uint32 LED_CONTROL1_ReadCompareBuf(void)
1001:Generated_Source\PSoC4/LED_CONTROL1.c **** {
 1258              		.loc 1 1001 0
 1259              		.cfi_startproc
 1260 0000 80B5     		push	{r7, lr}
 1261              		.cfi_def_cfa_offset 8
 1262              		.cfi_offset 7, -8
 1263              		.cfi_offset 14, -4
 1264 0002 00AF     		add	r7, sp, #0
 1265              		.cfi_def_cfa_register 7
1002:Generated_Source\PSoC4/LED_CONTROL1.c ****     #if (LED_CONTROL1_CY_TCPWM_4000)
1003:Generated_Source\PSoC4/LED_CONTROL1.c ****         uint32 currentMode;
1004:Generated_Source\PSoC4/LED_CONTROL1.c ****         uint32 regVal;
1005:Generated_Source\PSoC4/LED_CONTROL1.c ****     #endif /* (LED_CONTROL1_CY_TCPWM_4000) */
1006:Generated_Source\PSoC4/LED_CONTROL1.c **** 
1007:Generated_Source\PSoC4/LED_CONTROL1.c ****     #if (LED_CONTROL1_CY_TCPWM_4000)
1008:Generated_Source\PSoC4/LED_CONTROL1.c ****         currentMode = ((LED_CONTROL1_CONTROL_REG & LED_CONTROL1_UPDOWN_MASK) >> LED_CONTROL1_UPDOWN
1009:Generated_Source\PSoC4/LED_CONTROL1.c **** 
1010:Generated_Source\PSoC4/LED_CONTROL1.c ****         regVal = LED_CONTROL1_COMP_CAP_BUF_REG;
1011:Generated_Source\PSoC4/LED_CONTROL1.c ****         
1012:Generated_Source\PSoC4/LED_CONTROL1.c ****         if (((uint32)LED_CONTROL1__COUNT_DOWN == currentMode) && (0u != regVal))
1013:Generated_Source\PSoC4/LED_CONTROL1.c ****         {
1014:Generated_Source\PSoC4/LED_CONTROL1.c ****             regVal--;
1015:Generated_Source\PSoC4/LED_CONTROL1.c ****         }
ARM GAS  C:\Users\poornima\AppData\Local\Temp\ccn19ius.s 			page 41


1016:Generated_Source\PSoC4/LED_CONTROL1.c ****         else if (((uint32)LED_CONTROL1__COUNT_UP == currentMode) && (0xFFFFu != regVal))
1017:Generated_Source\PSoC4/LED_CONTROL1.c ****         {
1018:Generated_Source\PSoC4/LED_CONTROL1.c ****             regVal++;
1019:Generated_Source\PSoC4/LED_CONTROL1.c ****         }
1020:Generated_Source\PSoC4/LED_CONTROL1.c ****         else
1021:Generated_Source\PSoC4/LED_CONTROL1.c ****         {
1022:Generated_Source\PSoC4/LED_CONTROL1.c ****         }
1023:Generated_Source\PSoC4/LED_CONTROL1.c **** 
1024:Generated_Source\PSoC4/LED_CONTROL1.c ****         return (regVal & LED_CONTROL1_16BIT_MASK);
1025:Generated_Source\PSoC4/LED_CONTROL1.c ****     #else
1026:Generated_Source\PSoC4/LED_CONTROL1.c ****         return (LED_CONTROL1_COMP_CAP_BUF_REG & LED_CONTROL1_16BIT_MASK);
 1266              		.loc 1 1026 0
 1267 0004 034B     		ldr	r3, .L83
 1268 0006 1B68     		ldr	r3, [r3]
 1269 0008 1B04     		lsl	r3, r3, #16
 1270 000a 1B0C     		lsr	r3, r3, #16
1027:Generated_Source\PSoC4/LED_CONTROL1.c ****     #endif /* (LED_CONTROL1_CY_TCPWM_4000) */
1028:Generated_Source\PSoC4/LED_CONTROL1.c **** }
 1271              		.loc 1 1028 0
 1272 000c 181C     		mov	r0, r3
 1273 000e BD46     		mov	sp, r7
 1274              		@ sp needed
 1275 0010 80BD     		pop	{r7, pc}
 1276              	.L84:
 1277 0012 C046     		.align	2
 1278              	.L83:
 1279 0014 50012040 		.word	1075839312
 1280              		.cfi_endproc
 1281              	.LFE26:
 1282              		.size	LED_CONTROL1_ReadCompareBuf, .-LED_CONTROL1_ReadCompareBuf
 1283              		.section	.text.LED_CONTROL1_ReadCapture,"ax",%progbits
 1284              		.align	2
 1285              		.global	LED_CONTROL1_ReadCapture
 1286              		.code	16
 1287              		.thumb_func
 1288              		.type	LED_CONTROL1_ReadCapture, %function
 1289              	LED_CONTROL1_ReadCapture:
 1290              	.LFB27:
1029:Generated_Source\PSoC4/LED_CONTROL1.c **** 
1030:Generated_Source\PSoC4/LED_CONTROL1.c **** 
1031:Generated_Source\PSoC4/LED_CONTROL1.c **** /*******************************************************************************
1032:Generated_Source\PSoC4/LED_CONTROL1.c **** * Function Name: LED_CONTROL1_ReadCapture
1033:Generated_Source\PSoC4/LED_CONTROL1.c **** ********************************************************************************
1034:Generated_Source\PSoC4/LED_CONTROL1.c **** *
1035:Generated_Source\PSoC4/LED_CONTROL1.c **** * Summary:
1036:Generated_Source\PSoC4/LED_CONTROL1.c **** *  Reads the captured counter value. This API is applicable only for
1037:Generated_Source\PSoC4/LED_CONTROL1.c **** *  Timer/Counter with the capture mode and Quadrature Decoder modes.
1038:Generated_Source\PSoC4/LED_CONTROL1.c **** *
1039:Generated_Source\PSoC4/LED_CONTROL1.c **** * Parameters:
1040:Generated_Source\PSoC4/LED_CONTROL1.c **** *  None
1041:Generated_Source\PSoC4/LED_CONTROL1.c **** *
1042:Generated_Source\PSoC4/LED_CONTROL1.c **** * Return:
1043:Generated_Source\PSoC4/LED_CONTROL1.c **** *  Capture value
1044:Generated_Source\PSoC4/LED_CONTROL1.c **** *
1045:Generated_Source\PSoC4/LED_CONTROL1.c **** *******************************************************************************/
1046:Generated_Source\PSoC4/LED_CONTROL1.c **** uint32 LED_CONTROL1_ReadCapture(void)
1047:Generated_Source\PSoC4/LED_CONTROL1.c **** {
ARM GAS  C:\Users\poornima\AppData\Local\Temp\ccn19ius.s 			page 42


 1291              		.loc 1 1047 0
 1292              		.cfi_startproc
 1293 0000 80B5     		push	{r7, lr}
 1294              		.cfi_def_cfa_offset 8
 1295              		.cfi_offset 7, -8
 1296              		.cfi_offset 14, -4
 1297 0002 00AF     		add	r7, sp, #0
 1298              		.cfi_def_cfa_register 7
1048:Generated_Source\PSoC4/LED_CONTROL1.c ****     return (LED_CONTROL1_COMP_CAP_REG & LED_CONTROL1_16BIT_MASK);
 1299              		.loc 1 1048 0
 1300 0004 034B     		ldr	r3, .L87
 1301 0006 1B68     		ldr	r3, [r3]
 1302 0008 1B04     		lsl	r3, r3, #16
 1303 000a 1B0C     		lsr	r3, r3, #16
1049:Generated_Source\PSoC4/LED_CONTROL1.c **** }
 1304              		.loc 1 1049 0
 1305 000c 181C     		mov	r0, r3
 1306 000e BD46     		mov	sp, r7
 1307              		@ sp needed
 1308 0010 80BD     		pop	{r7, pc}
 1309              	.L88:
 1310 0012 C046     		.align	2
 1311              	.L87:
 1312 0014 4C012040 		.word	1075839308
 1313              		.cfi_endproc
 1314              	.LFE27:
 1315              		.size	LED_CONTROL1_ReadCapture, .-LED_CONTROL1_ReadCapture
 1316              		.section	.text.LED_CONTROL1_ReadCaptureBuf,"ax",%progbits
 1317              		.align	2
 1318              		.global	LED_CONTROL1_ReadCaptureBuf
 1319              		.code	16
 1320              		.thumb_func
 1321              		.type	LED_CONTROL1_ReadCaptureBuf, %function
 1322              	LED_CONTROL1_ReadCaptureBuf:
 1323              	.LFB28:
1050:Generated_Source\PSoC4/LED_CONTROL1.c **** 
1051:Generated_Source\PSoC4/LED_CONTROL1.c **** 
1052:Generated_Source\PSoC4/LED_CONTROL1.c **** /*******************************************************************************
1053:Generated_Source\PSoC4/LED_CONTROL1.c **** * Function Name: LED_CONTROL1_ReadCaptureBuf
1054:Generated_Source\PSoC4/LED_CONTROL1.c **** ********************************************************************************
1055:Generated_Source\PSoC4/LED_CONTROL1.c **** *
1056:Generated_Source\PSoC4/LED_CONTROL1.c **** * Summary:
1057:Generated_Source\PSoC4/LED_CONTROL1.c **** *  Reads the capture buffer register. This API is applicable only for
1058:Generated_Source\PSoC4/LED_CONTROL1.c **** *  Timer/Counter with the capture mode and Quadrature Decoder modes.
1059:Generated_Source\PSoC4/LED_CONTROL1.c **** *
1060:Generated_Source\PSoC4/LED_CONTROL1.c **** * Parameters:
1061:Generated_Source\PSoC4/LED_CONTROL1.c **** *  None
1062:Generated_Source\PSoC4/LED_CONTROL1.c **** *
1063:Generated_Source\PSoC4/LED_CONTROL1.c **** * Return:
1064:Generated_Source\PSoC4/LED_CONTROL1.c **** *  Capture buffer value
1065:Generated_Source\PSoC4/LED_CONTROL1.c **** *
1066:Generated_Source\PSoC4/LED_CONTROL1.c **** *******************************************************************************/
1067:Generated_Source\PSoC4/LED_CONTROL1.c **** uint32 LED_CONTROL1_ReadCaptureBuf(void)
1068:Generated_Source\PSoC4/LED_CONTROL1.c **** {
 1324              		.loc 1 1068 0
 1325              		.cfi_startproc
 1326 0000 80B5     		push	{r7, lr}
ARM GAS  C:\Users\poornima\AppData\Local\Temp\ccn19ius.s 			page 43


 1327              		.cfi_def_cfa_offset 8
 1328              		.cfi_offset 7, -8
 1329              		.cfi_offset 14, -4
 1330 0002 00AF     		add	r7, sp, #0
 1331              		.cfi_def_cfa_register 7
1069:Generated_Source\PSoC4/LED_CONTROL1.c ****     return (LED_CONTROL1_COMP_CAP_BUF_REG & LED_CONTROL1_16BIT_MASK);
 1332              		.loc 1 1069 0
 1333 0004 034B     		ldr	r3, .L91
 1334 0006 1B68     		ldr	r3, [r3]
 1335 0008 1B04     		lsl	r3, r3, #16
 1336 000a 1B0C     		lsr	r3, r3, #16
1070:Generated_Source\PSoC4/LED_CONTROL1.c **** }
 1337              		.loc 1 1070 0
 1338 000c 181C     		mov	r0, r3
 1339 000e BD46     		mov	sp, r7
 1340              		@ sp needed
 1341 0010 80BD     		pop	{r7, pc}
 1342              	.L92:
 1343 0012 C046     		.align	2
 1344              	.L91:
 1345 0014 50012040 		.word	1075839312
 1346              		.cfi_endproc
 1347              	.LFE28:
 1348              		.size	LED_CONTROL1_ReadCaptureBuf, .-LED_CONTROL1_ReadCaptureBuf
 1349              		.section	.text.LED_CONTROL1_SetCaptureMode,"ax",%progbits
 1350              		.align	2
 1351              		.global	LED_CONTROL1_SetCaptureMode
 1352              		.code	16
 1353              		.thumb_func
 1354              		.type	LED_CONTROL1_SetCaptureMode, %function
 1355              	LED_CONTROL1_SetCaptureMode:
 1356              	.LFB29:
1071:Generated_Source\PSoC4/LED_CONTROL1.c **** 
1072:Generated_Source\PSoC4/LED_CONTROL1.c **** 
1073:Generated_Source\PSoC4/LED_CONTROL1.c **** /*******************************************************************************
1074:Generated_Source\PSoC4/LED_CONTROL1.c **** * Function Name: LED_CONTROL1_SetCaptureMode
1075:Generated_Source\PSoC4/LED_CONTROL1.c **** ********************************************************************************
1076:Generated_Source\PSoC4/LED_CONTROL1.c **** *
1077:Generated_Source\PSoC4/LED_CONTROL1.c **** * Summary:
1078:Generated_Source\PSoC4/LED_CONTROL1.c **** *  Sets the capture trigger mode. For PWM mode this is the switch input.
1079:Generated_Source\PSoC4/LED_CONTROL1.c **** *  This input is not applicable to the Timer/Counter without Capture and
1080:Generated_Source\PSoC4/LED_CONTROL1.c **** *  Quadrature Decoder modes.
1081:Generated_Source\PSoC4/LED_CONTROL1.c **** *
1082:Generated_Source\PSoC4/LED_CONTROL1.c **** * Parameters:
1083:Generated_Source\PSoC4/LED_CONTROL1.c **** *  triggerMode: Enumerated trigger mode value
1084:Generated_Source\PSoC4/LED_CONTROL1.c **** *   Values:
1085:Generated_Source\PSoC4/LED_CONTROL1.c **** *     - LED_CONTROL1_TRIG_LEVEL     - Level
1086:Generated_Source\PSoC4/LED_CONTROL1.c **** *     - LED_CONTROL1_TRIG_RISING    - Rising edge
1087:Generated_Source\PSoC4/LED_CONTROL1.c **** *     - LED_CONTROL1_TRIG_FALLING   - Falling edge
1088:Generated_Source\PSoC4/LED_CONTROL1.c **** *     - LED_CONTROL1_TRIG_BOTH      - Both rising and falling edge
1089:Generated_Source\PSoC4/LED_CONTROL1.c **** *
1090:Generated_Source\PSoC4/LED_CONTROL1.c **** * Return:
1091:Generated_Source\PSoC4/LED_CONTROL1.c **** *  None
1092:Generated_Source\PSoC4/LED_CONTROL1.c **** *
1093:Generated_Source\PSoC4/LED_CONTROL1.c **** *******************************************************************************/
1094:Generated_Source\PSoC4/LED_CONTROL1.c **** void LED_CONTROL1_SetCaptureMode(uint32 triggerMode)
1095:Generated_Source\PSoC4/LED_CONTROL1.c **** {
ARM GAS  C:\Users\poornima\AppData\Local\Temp\ccn19ius.s 			page 44


 1357              		.loc 1 1095 0
 1358              		.cfi_startproc
 1359 0000 90B5     		push	{r4, r7, lr}
 1360              		.cfi_def_cfa_offset 12
 1361              		.cfi_offset 4, -12
 1362              		.cfi_offset 7, -8
 1363              		.cfi_offset 14, -4
 1364 0002 85B0     		sub	sp, sp, #20
 1365              		.cfi_def_cfa_offset 32
 1366 0004 00AF     		add	r7, sp, #0
 1367              		.cfi_def_cfa_register 7
 1368 0006 7860     		str	r0, [r7, #4]
1096:Generated_Source\PSoC4/LED_CONTROL1.c ****     uint8 enableInterrupts;
1097:Generated_Source\PSoC4/LED_CONTROL1.c **** 
1098:Generated_Source\PSoC4/LED_CONTROL1.c ****     enableInterrupts = CyEnterCriticalSection();
 1369              		.loc 1 1098 0
 1370 0008 0F23     		mov	r3, #15
 1371 000a FC18     		add	r4, r7, r3
 1372 000c FFF7FEFF 		bl	CyEnterCriticalSection
 1373 0010 031C     		mov	r3, r0
 1374 0012 2370     		strb	r3, [r4]
1099:Generated_Source\PSoC4/LED_CONTROL1.c **** 
1100:Generated_Source\PSoC4/LED_CONTROL1.c ****     LED_CONTROL1_TRIG_CONTROL1_REG &= (uint32)~LED_CONTROL1_CAPTURE_MASK;
 1375              		.loc 1 1100 0
 1376 0014 0A4B     		ldr	r3, .L94
 1377 0016 0A4A     		ldr	r2, .L94
 1378 0018 1268     		ldr	r2, [r2]
 1379 001a 0321     		mov	r1, #3
 1380 001c 8A43     		bic	r2, r1
 1381 001e 1A60     		str	r2, [r3]
1101:Generated_Source\PSoC4/LED_CONTROL1.c ****     LED_CONTROL1_TRIG_CONTROL1_REG |= triggerMode;
 1382              		.loc 1 1101 0
 1383 0020 074B     		ldr	r3, .L94
 1384 0022 074A     		ldr	r2, .L94
 1385 0024 1168     		ldr	r1, [r2]
 1386 0026 7A68     		ldr	r2, [r7, #4]
 1387 0028 0A43     		orr	r2, r1
 1388 002a 1A60     		str	r2, [r3]
1102:Generated_Source\PSoC4/LED_CONTROL1.c **** 
1103:Generated_Source\PSoC4/LED_CONTROL1.c ****     CyExitCriticalSection(enableInterrupts);
 1389              		.loc 1 1103 0
 1390 002c 0F23     		mov	r3, #15
 1391 002e FB18     		add	r3, r7, r3
 1392 0030 1B78     		ldrb	r3, [r3]
 1393 0032 181C     		mov	r0, r3
 1394 0034 FFF7FEFF 		bl	CyExitCriticalSection
1104:Generated_Source\PSoC4/LED_CONTROL1.c **** }
 1395              		.loc 1 1104 0
 1396 0038 BD46     		mov	sp, r7
 1397 003a 05B0     		add	sp, sp, #20
 1398              		@ sp needed
 1399 003c 90BD     		pop	{r4, r7, pc}
 1400              	.L95:
 1401 003e C046     		.align	2
 1402              	.L94:
 1403 0040 64012040 		.word	1075839332
 1404              		.cfi_endproc
ARM GAS  C:\Users\poornima\AppData\Local\Temp\ccn19ius.s 			page 45


 1405              	.LFE29:
 1406              		.size	LED_CONTROL1_SetCaptureMode, .-LED_CONTROL1_SetCaptureMode
 1407              		.section	.text.LED_CONTROL1_SetReloadMode,"ax",%progbits
 1408              		.align	2
 1409              		.global	LED_CONTROL1_SetReloadMode
 1410              		.code	16
 1411              		.thumb_func
 1412              		.type	LED_CONTROL1_SetReloadMode, %function
 1413              	LED_CONTROL1_SetReloadMode:
 1414              	.LFB30:
1105:Generated_Source\PSoC4/LED_CONTROL1.c **** 
1106:Generated_Source\PSoC4/LED_CONTROL1.c **** 
1107:Generated_Source\PSoC4/LED_CONTROL1.c **** /*******************************************************************************
1108:Generated_Source\PSoC4/LED_CONTROL1.c **** * Function Name: LED_CONTROL1_SetReloadMode
1109:Generated_Source\PSoC4/LED_CONTROL1.c **** ********************************************************************************
1110:Generated_Source\PSoC4/LED_CONTROL1.c **** *
1111:Generated_Source\PSoC4/LED_CONTROL1.c **** * Summary:
1112:Generated_Source\PSoC4/LED_CONTROL1.c **** *  Sets the reload trigger mode. For Quadrature Decoder mode this is the index
1113:Generated_Source\PSoC4/LED_CONTROL1.c **** *  input.
1114:Generated_Source\PSoC4/LED_CONTROL1.c **** *
1115:Generated_Source\PSoC4/LED_CONTROL1.c **** * Parameters:
1116:Generated_Source\PSoC4/LED_CONTROL1.c **** *  triggerMode: Enumerated trigger mode value
1117:Generated_Source\PSoC4/LED_CONTROL1.c **** *   Values:
1118:Generated_Source\PSoC4/LED_CONTROL1.c **** *     - LED_CONTROL1_TRIG_LEVEL     - Level
1119:Generated_Source\PSoC4/LED_CONTROL1.c **** *     - LED_CONTROL1_TRIG_RISING    - Rising edge
1120:Generated_Source\PSoC4/LED_CONTROL1.c **** *     - LED_CONTROL1_TRIG_FALLING   - Falling edge
1121:Generated_Source\PSoC4/LED_CONTROL1.c **** *     - LED_CONTROL1_TRIG_BOTH      - Both rising and falling edge
1122:Generated_Source\PSoC4/LED_CONTROL1.c **** *
1123:Generated_Source\PSoC4/LED_CONTROL1.c **** * Return:
1124:Generated_Source\PSoC4/LED_CONTROL1.c **** *  None
1125:Generated_Source\PSoC4/LED_CONTROL1.c **** *
1126:Generated_Source\PSoC4/LED_CONTROL1.c **** *******************************************************************************/
1127:Generated_Source\PSoC4/LED_CONTROL1.c **** void LED_CONTROL1_SetReloadMode(uint32 triggerMode)
1128:Generated_Source\PSoC4/LED_CONTROL1.c **** {
 1415              		.loc 1 1128 0
 1416              		.cfi_startproc
 1417 0000 90B5     		push	{r4, r7, lr}
 1418              		.cfi_def_cfa_offset 12
 1419              		.cfi_offset 4, -12
 1420              		.cfi_offset 7, -8
 1421              		.cfi_offset 14, -4
 1422 0002 85B0     		sub	sp, sp, #20
 1423              		.cfi_def_cfa_offset 32
 1424 0004 00AF     		add	r7, sp, #0
 1425              		.cfi_def_cfa_register 7
 1426 0006 7860     		str	r0, [r7, #4]
1129:Generated_Source\PSoC4/LED_CONTROL1.c ****     uint8 enableInterrupts;
1130:Generated_Source\PSoC4/LED_CONTROL1.c **** 
1131:Generated_Source\PSoC4/LED_CONTROL1.c ****     enableInterrupts = CyEnterCriticalSection();
 1427              		.loc 1 1131 0
 1428 0008 0F23     		mov	r3, #15
 1429 000a FC18     		add	r4, r7, r3
 1430 000c FFF7FEFF 		bl	CyEnterCriticalSection
 1431 0010 031C     		mov	r3, r0
 1432 0012 2370     		strb	r3, [r4]
1132:Generated_Source\PSoC4/LED_CONTROL1.c **** 
1133:Generated_Source\PSoC4/LED_CONTROL1.c ****     LED_CONTROL1_TRIG_CONTROL1_REG &= (uint32)~LED_CONTROL1_RELOAD_MASK;
ARM GAS  C:\Users\poornima\AppData\Local\Temp\ccn19ius.s 			page 46


 1433              		.loc 1 1133 0
 1434 0014 0A4B     		ldr	r3, .L97
 1435 0016 0A4A     		ldr	r2, .L97
 1436 0018 1268     		ldr	r2, [r2]
 1437 001a 3021     		mov	r1, #48
 1438 001c 8A43     		bic	r2, r1
 1439 001e 1A60     		str	r2, [r3]
1134:Generated_Source\PSoC4/LED_CONTROL1.c ****     LED_CONTROL1_TRIG_CONTROL1_REG |= ((uint32)(triggerMode << LED_CONTROL1_RELOAD_SHIFT));
 1440              		.loc 1 1134 0
 1441 0020 074B     		ldr	r3, .L97
 1442 0022 074A     		ldr	r2, .L97
 1443 0024 1168     		ldr	r1, [r2]
 1444 0026 7A68     		ldr	r2, [r7, #4]
 1445 0028 1201     		lsl	r2, r2, #4
 1446 002a 0A43     		orr	r2, r1
 1447 002c 1A60     		str	r2, [r3]
1135:Generated_Source\PSoC4/LED_CONTROL1.c **** 
1136:Generated_Source\PSoC4/LED_CONTROL1.c ****     CyExitCriticalSection(enableInterrupts);
 1448              		.loc 1 1136 0
 1449 002e 0F23     		mov	r3, #15
 1450 0030 FB18     		add	r3, r7, r3
 1451 0032 1B78     		ldrb	r3, [r3]
 1452 0034 181C     		mov	r0, r3
 1453 0036 FFF7FEFF 		bl	CyExitCriticalSection
1137:Generated_Source\PSoC4/LED_CONTROL1.c **** }
 1454              		.loc 1 1137 0
 1455 003a BD46     		mov	sp, r7
 1456 003c 05B0     		add	sp, sp, #20
 1457              		@ sp needed
 1458 003e 90BD     		pop	{r4, r7, pc}
 1459              	.L98:
 1460              		.align	2
 1461              	.L97:
 1462 0040 64012040 		.word	1075839332
 1463              		.cfi_endproc
 1464              	.LFE30:
 1465              		.size	LED_CONTROL1_SetReloadMode, .-LED_CONTROL1_SetReloadMode
 1466              		.section	.text.LED_CONTROL1_SetStartMode,"ax",%progbits
 1467              		.align	2
 1468              		.global	LED_CONTROL1_SetStartMode
 1469              		.code	16
 1470              		.thumb_func
 1471              		.type	LED_CONTROL1_SetStartMode, %function
 1472              	LED_CONTROL1_SetStartMode:
 1473              	.LFB31:
1138:Generated_Source\PSoC4/LED_CONTROL1.c **** 
1139:Generated_Source\PSoC4/LED_CONTROL1.c **** 
1140:Generated_Source\PSoC4/LED_CONTROL1.c **** /*******************************************************************************
1141:Generated_Source\PSoC4/LED_CONTROL1.c **** * Function Name: LED_CONTROL1_SetStartMode
1142:Generated_Source\PSoC4/LED_CONTROL1.c **** ********************************************************************************
1143:Generated_Source\PSoC4/LED_CONTROL1.c **** *
1144:Generated_Source\PSoC4/LED_CONTROL1.c **** * Summary:
1145:Generated_Source\PSoC4/LED_CONTROL1.c **** *  Sets the start trigger mode. For Quadrature Decoder mode this is the
1146:Generated_Source\PSoC4/LED_CONTROL1.c **** *  phiB input.
1147:Generated_Source\PSoC4/LED_CONTROL1.c **** *
1148:Generated_Source\PSoC4/LED_CONTROL1.c **** * Parameters:
1149:Generated_Source\PSoC4/LED_CONTROL1.c **** *  triggerMode: Enumerated trigger mode value
ARM GAS  C:\Users\poornima\AppData\Local\Temp\ccn19ius.s 			page 47


1150:Generated_Source\PSoC4/LED_CONTROL1.c **** *   Values:
1151:Generated_Source\PSoC4/LED_CONTROL1.c **** *     - LED_CONTROL1_TRIG_LEVEL     - Level
1152:Generated_Source\PSoC4/LED_CONTROL1.c **** *     - LED_CONTROL1_TRIG_RISING    - Rising edge
1153:Generated_Source\PSoC4/LED_CONTROL1.c **** *     - LED_CONTROL1_TRIG_FALLING   - Falling edge
1154:Generated_Source\PSoC4/LED_CONTROL1.c **** *     - LED_CONTROL1_TRIG_BOTH      - Both rising and falling edge
1155:Generated_Source\PSoC4/LED_CONTROL1.c **** *
1156:Generated_Source\PSoC4/LED_CONTROL1.c **** * Return:
1157:Generated_Source\PSoC4/LED_CONTROL1.c **** *  None
1158:Generated_Source\PSoC4/LED_CONTROL1.c **** *
1159:Generated_Source\PSoC4/LED_CONTROL1.c **** *******************************************************************************/
1160:Generated_Source\PSoC4/LED_CONTROL1.c **** void LED_CONTROL1_SetStartMode(uint32 triggerMode)
1161:Generated_Source\PSoC4/LED_CONTROL1.c **** {
 1474              		.loc 1 1161 0
 1475              		.cfi_startproc
 1476 0000 90B5     		push	{r4, r7, lr}
 1477              		.cfi_def_cfa_offset 12
 1478              		.cfi_offset 4, -12
 1479              		.cfi_offset 7, -8
 1480              		.cfi_offset 14, -4
 1481 0002 85B0     		sub	sp, sp, #20
 1482              		.cfi_def_cfa_offset 32
 1483 0004 00AF     		add	r7, sp, #0
 1484              		.cfi_def_cfa_register 7
 1485 0006 7860     		str	r0, [r7, #4]
1162:Generated_Source\PSoC4/LED_CONTROL1.c ****     uint8 enableInterrupts;
1163:Generated_Source\PSoC4/LED_CONTROL1.c **** 
1164:Generated_Source\PSoC4/LED_CONTROL1.c ****     enableInterrupts = CyEnterCriticalSection();
 1486              		.loc 1 1164 0
 1487 0008 0F23     		mov	r3, #15
 1488 000a FC18     		add	r4, r7, r3
 1489 000c FFF7FEFF 		bl	CyEnterCriticalSection
 1490 0010 031C     		mov	r3, r0
 1491 0012 2370     		strb	r3, [r4]
1165:Generated_Source\PSoC4/LED_CONTROL1.c **** 
1166:Generated_Source\PSoC4/LED_CONTROL1.c ****     LED_CONTROL1_TRIG_CONTROL1_REG &= (uint32)~LED_CONTROL1_START_MASK;
 1492              		.loc 1 1166 0
 1493 0014 0A4B     		ldr	r3, .L100
 1494 0016 0A4A     		ldr	r2, .L100
 1495 0018 1268     		ldr	r2, [r2]
 1496 001a 0A49     		ldr	r1, .L100+4
 1497 001c 0A40     		and	r2, r1
 1498 001e 1A60     		str	r2, [r3]
1167:Generated_Source\PSoC4/LED_CONTROL1.c ****     LED_CONTROL1_TRIG_CONTROL1_REG |= ((uint32)(triggerMode << LED_CONTROL1_START_SHIFT));
 1499              		.loc 1 1167 0
 1500 0020 074B     		ldr	r3, .L100
 1501 0022 074A     		ldr	r2, .L100
 1502 0024 1168     		ldr	r1, [r2]
 1503 0026 7A68     		ldr	r2, [r7, #4]
 1504 0028 1202     		lsl	r2, r2, #8
 1505 002a 0A43     		orr	r2, r1
 1506 002c 1A60     		str	r2, [r3]
1168:Generated_Source\PSoC4/LED_CONTROL1.c **** 
1169:Generated_Source\PSoC4/LED_CONTROL1.c ****     CyExitCriticalSection(enableInterrupts);
 1507              		.loc 1 1169 0
 1508 002e 0F23     		mov	r3, #15
 1509 0030 FB18     		add	r3, r7, r3
 1510 0032 1B78     		ldrb	r3, [r3]
ARM GAS  C:\Users\poornima\AppData\Local\Temp\ccn19ius.s 			page 48


 1511 0034 181C     		mov	r0, r3
 1512 0036 FFF7FEFF 		bl	CyExitCriticalSection
1170:Generated_Source\PSoC4/LED_CONTROL1.c **** }
 1513              		.loc 1 1170 0
 1514 003a BD46     		mov	sp, r7
 1515 003c 05B0     		add	sp, sp, #20
 1516              		@ sp needed
 1517 003e 90BD     		pop	{r4, r7, pc}
 1518              	.L101:
 1519              		.align	2
 1520              	.L100:
 1521 0040 64012040 		.word	1075839332
 1522 0044 FFFCFFFF 		.word	-769
 1523              		.cfi_endproc
 1524              	.LFE31:
 1525              		.size	LED_CONTROL1_SetStartMode, .-LED_CONTROL1_SetStartMode
 1526              		.section	.text.LED_CONTROL1_SetStopMode,"ax",%progbits
 1527              		.align	2
 1528              		.global	LED_CONTROL1_SetStopMode
 1529              		.code	16
 1530              		.thumb_func
 1531              		.type	LED_CONTROL1_SetStopMode, %function
 1532              	LED_CONTROL1_SetStopMode:
 1533              	.LFB32:
1171:Generated_Source\PSoC4/LED_CONTROL1.c **** 
1172:Generated_Source\PSoC4/LED_CONTROL1.c **** 
1173:Generated_Source\PSoC4/LED_CONTROL1.c **** /*******************************************************************************
1174:Generated_Source\PSoC4/LED_CONTROL1.c **** * Function Name: LED_CONTROL1_SetStopMode
1175:Generated_Source\PSoC4/LED_CONTROL1.c **** ********************************************************************************
1176:Generated_Source\PSoC4/LED_CONTROL1.c **** *
1177:Generated_Source\PSoC4/LED_CONTROL1.c **** * Summary:
1178:Generated_Source\PSoC4/LED_CONTROL1.c **** *  Sets the stop trigger mode. For PWM mode this is the kill input.
1179:Generated_Source\PSoC4/LED_CONTROL1.c **** *
1180:Generated_Source\PSoC4/LED_CONTROL1.c **** * Parameters:
1181:Generated_Source\PSoC4/LED_CONTROL1.c **** *  triggerMode: Enumerated trigger mode value
1182:Generated_Source\PSoC4/LED_CONTROL1.c **** *   Values:
1183:Generated_Source\PSoC4/LED_CONTROL1.c **** *     - LED_CONTROL1_TRIG_LEVEL     - Level
1184:Generated_Source\PSoC4/LED_CONTROL1.c **** *     - LED_CONTROL1_TRIG_RISING    - Rising edge
1185:Generated_Source\PSoC4/LED_CONTROL1.c **** *     - LED_CONTROL1_TRIG_FALLING   - Falling edge
1186:Generated_Source\PSoC4/LED_CONTROL1.c **** *     - LED_CONTROL1_TRIG_BOTH      - Both rising and falling edge
1187:Generated_Source\PSoC4/LED_CONTROL1.c **** *
1188:Generated_Source\PSoC4/LED_CONTROL1.c **** * Return:
1189:Generated_Source\PSoC4/LED_CONTROL1.c **** *  None
1190:Generated_Source\PSoC4/LED_CONTROL1.c **** *
1191:Generated_Source\PSoC4/LED_CONTROL1.c **** *******************************************************************************/
1192:Generated_Source\PSoC4/LED_CONTROL1.c **** void LED_CONTROL1_SetStopMode(uint32 triggerMode)
1193:Generated_Source\PSoC4/LED_CONTROL1.c **** {
 1534              		.loc 1 1193 0
 1535              		.cfi_startproc
 1536 0000 90B5     		push	{r4, r7, lr}
 1537              		.cfi_def_cfa_offset 12
 1538              		.cfi_offset 4, -12
 1539              		.cfi_offset 7, -8
 1540              		.cfi_offset 14, -4
 1541 0002 85B0     		sub	sp, sp, #20
 1542              		.cfi_def_cfa_offset 32
 1543 0004 00AF     		add	r7, sp, #0
ARM GAS  C:\Users\poornima\AppData\Local\Temp\ccn19ius.s 			page 49


 1544              		.cfi_def_cfa_register 7
 1545 0006 7860     		str	r0, [r7, #4]
1194:Generated_Source\PSoC4/LED_CONTROL1.c ****     uint8 enableInterrupts;
1195:Generated_Source\PSoC4/LED_CONTROL1.c **** 
1196:Generated_Source\PSoC4/LED_CONTROL1.c ****     enableInterrupts = CyEnterCriticalSection();
 1546              		.loc 1 1196 0
 1547 0008 0F23     		mov	r3, #15
 1548 000a FC18     		add	r4, r7, r3
 1549 000c FFF7FEFF 		bl	CyEnterCriticalSection
 1550 0010 031C     		mov	r3, r0
 1551 0012 2370     		strb	r3, [r4]
1197:Generated_Source\PSoC4/LED_CONTROL1.c **** 
1198:Generated_Source\PSoC4/LED_CONTROL1.c ****     LED_CONTROL1_TRIG_CONTROL1_REG &= (uint32)~LED_CONTROL1_STOP_MASK;
 1552              		.loc 1 1198 0
 1553 0014 0A4B     		ldr	r3, .L103
 1554 0016 0A4A     		ldr	r2, .L103
 1555 0018 1268     		ldr	r2, [r2]
 1556 001a C021     		mov	r1, #192
 1557 001c 8A43     		bic	r2, r1
 1558 001e 1A60     		str	r2, [r3]
1199:Generated_Source\PSoC4/LED_CONTROL1.c ****     LED_CONTROL1_TRIG_CONTROL1_REG |= ((uint32)(triggerMode << LED_CONTROL1_STOP_SHIFT));
 1559              		.loc 1 1199 0
 1560 0020 074B     		ldr	r3, .L103
 1561 0022 074A     		ldr	r2, .L103
 1562 0024 1168     		ldr	r1, [r2]
 1563 0026 7A68     		ldr	r2, [r7, #4]
 1564 0028 9201     		lsl	r2, r2, #6
 1565 002a 0A43     		orr	r2, r1
 1566 002c 1A60     		str	r2, [r3]
1200:Generated_Source\PSoC4/LED_CONTROL1.c **** 
1201:Generated_Source\PSoC4/LED_CONTROL1.c ****     CyExitCriticalSection(enableInterrupts);
 1567              		.loc 1 1201 0
 1568 002e 0F23     		mov	r3, #15
 1569 0030 FB18     		add	r3, r7, r3
 1570 0032 1B78     		ldrb	r3, [r3]
 1571 0034 181C     		mov	r0, r3
 1572 0036 FFF7FEFF 		bl	CyExitCriticalSection
1202:Generated_Source\PSoC4/LED_CONTROL1.c **** }
 1573              		.loc 1 1202 0
 1574 003a BD46     		mov	sp, r7
 1575 003c 05B0     		add	sp, sp, #20
 1576              		@ sp needed
 1577 003e 90BD     		pop	{r4, r7, pc}
 1578              	.L104:
 1579              		.align	2
 1580              	.L103:
 1581 0040 64012040 		.word	1075839332
 1582              		.cfi_endproc
 1583              	.LFE32:
 1584              		.size	LED_CONTROL1_SetStopMode, .-LED_CONTROL1_SetStopMode
 1585              		.section	.text.LED_CONTROL1_SetCountMode,"ax",%progbits
 1586              		.align	2
 1587              		.global	LED_CONTROL1_SetCountMode
 1588              		.code	16
 1589              		.thumb_func
 1590              		.type	LED_CONTROL1_SetCountMode, %function
 1591              	LED_CONTROL1_SetCountMode:
ARM GAS  C:\Users\poornima\AppData\Local\Temp\ccn19ius.s 			page 50


 1592              	.LFB33:
1203:Generated_Source\PSoC4/LED_CONTROL1.c **** 
1204:Generated_Source\PSoC4/LED_CONTROL1.c **** 
1205:Generated_Source\PSoC4/LED_CONTROL1.c **** /*******************************************************************************
1206:Generated_Source\PSoC4/LED_CONTROL1.c **** * Function Name: LED_CONTROL1_SetCountMode
1207:Generated_Source\PSoC4/LED_CONTROL1.c **** ********************************************************************************
1208:Generated_Source\PSoC4/LED_CONTROL1.c **** *
1209:Generated_Source\PSoC4/LED_CONTROL1.c **** * Summary:
1210:Generated_Source\PSoC4/LED_CONTROL1.c **** *  Sets the count trigger mode. For Quadrature Decoder mode this is the phiA
1211:Generated_Source\PSoC4/LED_CONTROL1.c **** *  input.
1212:Generated_Source\PSoC4/LED_CONTROL1.c **** *
1213:Generated_Source\PSoC4/LED_CONTROL1.c **** * Parameters:
1214:Generated_Source\PSoC4/LED_CONTROL1.c **** *  triggerMode: Enumerated trigger mode value
1215:Generated_Source\PSoC4/LED_CONTROL1.c **** *   Values:
1216:Generated_Source\PSoC4/LED_CONTROL1.c **** *     - LED_CONTROL1_TRIG_LEVEL     - Level
1217:Generated_Source\PSoC4/LED_CONTROL1.c **** *     - LED_CONTROL1_TRIG_RISING    - Rising edge
1218:Generated_Source\PSoC4/LED_CONTROL1.c **** *     - LED_CONTROL1_TRIG_FALLING   - Falling edge
1219:Generated_Source\PSoC4/LED_CONTROL1.c **** *     - LED_CONTROL1_TRIG_BOTH      - Both rising and falling edge
1220:Generated_Source\PSoC4/LED_CONTROL1.c **** *
1221:Generated_Source\PSoC4/LED_CONTROL1.c **** * Return:
1222:Generated_Source\PSoC4/LED_CONTROL1.c **** *  None
1223:Generated_Source\PSoC4/LED_CONTROL1.c **** *
1224:Generated_Source\PSoC4/LED_CONTROL1.c **** *******************************************************************************/
1225:Generated_Source\PSoC4/LED_CONTROL1.c **** void LED_CONTROL1_SetCountMode(uint32 triggerMode)
1226:Generated_Source\PSoC4/LED_CONTROL1.c **** {
 1593              		.loc 1 1226 0
 1594              		.cfi_startproc
 1595 0000 90B5     		push	{r4, r7, lr}
 1596              		.cfi_def_cfa_offset 12
 1597              		.cfi_offset 4, -12
 1598              		.cfi_offset 7, -8
 1599              		.cfi_offset 14, -4
 1600 0002 85B0     		sub	sp, sp, #20
 1601              		.cfi_def_cfa_offset 32
 1602 0004 00AF     		add	r7, sp, #0
 1603              		.cfi_def_cfa_register 7
 1604 0006 7860     		str	r0, [r7, #4]
1227:Generated_Source\PSoC4/LED_CONTROL1.c ****     uint8 enableInterrupts;
1228:Generated_Source\PSoC4/LED_CONTROL1.c **** 
1229:Generated_Source\PSoC4/LED_CONTROL1.c ****     enableInterrupts = CyEnterCriticalSection();
 1605              		.loc 1 1229 0
 1606 0008 0F23     		mov	r3, #15
 1607 000a FC18     		add	r4, r7, r3
 1608 000c FFF7FEFF 		bl	CyEnterCriticalSection
 1609 0010 031C     		mov	r3, r0
 1610 0012 2370     		strb	r3, [r4]
1230:Generated_Source\PSoC4/LED_CONTROL1.c **** 
1231:Generated_Source\PSoC4/LED_CONTROL1.c ****     LED_CONTROL1_TRIG_CONTROL1_REG &= (uint32)~LED_CONTROL1_COUNT_MASK;
 1611              		.loc 1 1231 0
 1612 0014 0A4B     		ldr	r3, .L106
 1613 0016 0A4A     		ldr	r2, .L106
 1614 0018 1268     		ldr	r2, [r2]
 1615 001a 0C21     		mov	r1, #12
 1616 001c 8A43     		bic	r2, r1
 1617 001e 1A60     		str	r2, [r3]
1232:Generated_Source\PSoC4/LED_CONTROL1.c ****     LED_CONTROL1_TRIG_CONTROL1_REG |= ((uint32)(triggerMode << LED_CONTROL1_COUNT_SHIFT));
 1618              		.loc 1 1232 0
ARM GAS  C:\Users\poornima\AppData\Local\Temp\ccn19ius.s 			page 51


 1619 0020 074B     		ldr	r3, .L106
 1620 0022 074A     		ldr	r2, .L106
 1621 0024 1168     		ldr	r1, [r2]
 1622 0026 7A68     		ldr	r2, [r7, #4]
 1623 0028 9200     		lsl	r2, r2, #2
 1624 002a 0A43     		orr	r2, r1
 1625 002c 1A60     		str	r2, [r3]
1233:Generated_Source\PSoC4/LED_CONTROL1.c **** 
1234:Generated_Source\PSoC4/LED_CONTROL1.c ****     CyExitCriticalSection(enableInterrupts);
 1626              		.loc 1 1234 0
 1627 002e 0F23     		mov	r3, #15
 1628 0030 FB18     		add	r3, r7, r3
 1629 0032 1B78     		ldrb	r3, [r3]
 1630 0034 181C     		mov	r0, r3
 1631 0036 FFF7FEFF 		bl	CyExitCriticalSection
1235:Generated_Source\PSoC4/LED_CONTROL1.c **** }
 1632              		.loc 1 1235 0
 1633 003a BD46     		mov	sp, r7
 1634 003c 05B0     		add	sp, sp, #20
 1635              		@ sp needed
 1636 003e 90BD     		pop	{r4, r7, pc}
 1637              	.L107:
 1638              		.align	2
 1639              	.L106:
 1640 0040 64012040 		.word	1075839332
 1641              		.cfi_endproc
 1642              	.LFE33:
 1643              		.size	LED_CONTROL1_SetCountMode, .-LED_CONTROL1_SetCountMode
 1644              		.section	.text.LED_CONTROL1_TriggerCommand,"ax",%progbits
 1645              		.align	2
 1646              		.global	LED_CONTROL1_TriggerCommand
 1647              		.code	16
 1648              		.thumb_func
 1649              		.type	LED_CONTROL1_TriggerCommand, %function
 1650              	LED_CONTROL1_TriggerCommand:
 1651              	.LFB34:
1236:Generated_Source\PSoC4/LED_CONTROL1.c **** 
1237:Generated_Source\PSoC4/LED_CONTROL1.c **** 
1238:Generated_Source\PSoC4/LED_CONTROL1.c **** /*******************************************************************************
1239:Generated_Source\PSoC4/LED_CONTROL1.c **** * Function Name: LED_CONTROL1_TriggerCommand
1240:Generated_Source\PSoC4/LED_CONTROL1.c **** ********************************************************************************
1241:Generated_Source\PSoC4/LED_CONTROL1.c **** *
1242:Generated_Source\PSoC4/LED_CONTROL1.c **** * Summary:
1243:Generated_Source\PSoC4/LED_CONTROL1.c **** *  Triggers the designated command to occur on the designated TCPWM instances.
1244:Generated_Source\PSoC4/LED_CONTROL1.c **** *  The mask can be used to apply this command simultaneously to more than one
1245:Generated_Source\PSoC4/LED_CONTROL1.c **** *  instance.  This allows multiple TCPWM instances to be synchronized.
1246:Generated_Source\PSoC4/LED_CONTROL1.c **** *
1247:Generated_Source\PSoC4/LED_CONTROL1.c **** * Parameters:
1248:Generated_Source\PSoC4/LED_CONTROL1.c **** *  mask: A combination of mask bits for each instance of the TCPWM that the
1249:Generated_Source\PSoC4/LED_CONTROL1.c **** *        command should apply to.  This function from one instance can be used
1250:Generated_Source\PSoC4/LED_CONTROL1.c **** *        to apply the command to any of the instances in the design.
1251:Generated_Source\PSoC4/LED_CONTROL1.c **** *        The mask value for a specific instance is available with the MASK
1252:Generated_Source\PSoC4/LED_CONTROL1.c **** *        define.
1253:Generated_Source\PSoC4/LED_CONTROL1.c **** *  command: Enumerated command values. Capture command only applicable for
1254:Generated_Source\PSoC4/LED_CONTROL1.c **** *           Timer/Counter with Capture and PWM modes.
1255:Generated_Source\PSoC4/LED_CONTROL1.c **** *   Values:
1256:Generated_Source\PSoC4/LED_CONTROL1.c **** *     - LED_CONTROL1_CMD_CAPTURE    - Trigger Capture/Switch command
ARM GAS  C:\Users\poornima\AppData\Local\Temp\ccn19ius.s 			page 52


1257:Generated_Source\PSoC4/LED_CONTROL1.c **** *     - LED_CONTROL1_CMD_RELOAD     - Trigger Reload/Index command
1258:Generated_Source\PSoC4/LED_CONTROL1.c **** *     - LED_CONTROL1_CMD_STOP       - Trigger Stop/Kill command
1259:Generated_Source\PSoC4/LED_CONTROL1.c **** *     - LED_CONTROL1_CMD_START      - Trigger Start/phiB command
1260:Generated_Source\PSoC4/LED_CONTROL1.c **** *
1261:Generated_Source\PSoC4/LED_CONTROL1.c **** * Return:
1262:Generated_Source\PSoC4/LED_CONTROL1.c **** *  None
1263:Generated_Source\PSoC4/LED_CONTROL1.c **** *
1264:Generated_Source\PSoC4/LED_CONTROL1.c **** *******************************************************************************/
1265:Generated_Source\PSoC4/LED_CONTROL1.c **** void LED_CONTROL1_TriggerCommand(uint32 mask, uint32 command)
1266:Generated_Source\PSoC4/LED_CONTROL1.c **** {
 1652              		.loc 1 1266 0
 1653              		.cfi_startproc
 1654 0000 90B5     		push	{r4, r7, lr}
 1655              		.cfi_def_cfa_offset 12
 1656              		.cfi_offset 4, -12
 1657              		.cfi_offset 7, -8
 1658              		.cfi_offset 14, -4
 1659 0002 85B0     		sub	sp, sp, #20
 1660              		.cfi_def_cfa_offset 32
 1661 0004 00AF     		add	r7, sp, #0
 1662              		.cfi_def_cfa_register 7
 1663 0006 7860     		str	r0, [r7, #4]
 1664 0008 3960     		str	r1, [r7]
1267:Generated_Source\PSoC4/LED_CONTROL1.c ****     uint8 enableInterrupts;
1268:Generated_Source\PSoC4/LED_CONTROL1.c **** 
1269:Generated_Source\PSoC4/LED_CONTROL1.c ****     enableInterrupts = CyEnterCriticalSection();
 1665              		.loc 1 1269 0
 1666 000a 0F23     		mov	r3, #15
 1667 000c FC18     		add	r4, r7, r3
 1668 000e FFF7FEFF 		bl	CyEnterCriticalSection
 1669 0012 031C     		mov	r3, r0
 1670 0014 2370     		strb	r3, [r4]
1270:Generated_Source\PSoC4/LED_CONTROL1.c **** 
1271:Generated_Source\PSoC4/LED_CONTROL1.c ****     LED_CONTROL1_COMMAND_REG = ((uint32)(mask << command));
 1671              		.loc 1 1271 0
 1672 0016 074B     		ldr	r3, .L109
 1673 0018 3A68     		ldr	r2, [r7]
 1674 001a 7968     		ldr	r1, [r7, #4]
 1675 001c 9140     		lsl	r1, r1, r2
 1676 001e 0A1C     		mov	r2, r1
 1677 0020 1A60     		str	r2, [r3]
1272:Generated_Source\PSoC4/LED_CONTROL1.c **** 
1273:Generated_Source\PSoC4/LED_CONTROL1.c ****     CyExitCriticalSection(enableInterrupts);
 1678              		.loc 1 1273 0
 1679 0022 0F23     		mov	r3, #15
 1680 0024 FB18     		add	r3, r7, r3
 1681 0026 1B78     		ldrb	r3, [r3]
 1682 0028 181C     		mov	r0, r3
 1683 002a FFF7FEFF 		bl	CyExitCriticalSection
1274:Generated_Source\PSoC4/LED_CONTROL1.c **** }
 1684              		.loc 1 1274 0
 1685 002e BD46     		mov	sp, r7
 1686 0030 05B0     		add	sp, sp, #20
 1687              		@ sp needed
 1688 0032 90BD     		pop	{r4, r7, pc}
 1689              	.L110:
 1690              		.align	2
ARM GAS  C:\Users\poornima\AppData\Local\Temp\ccn19ius.s 			page 53


 1691              	.L109:
 1692 0034 08002040 		.word	1075838984
 1693              		.cfi_endproc
 1694              	.LFE34:
 1695              		.size	LED_CONTROL1_TriggerCommand, .-LED_CONTROL1_TriggerCommand
 1696              		.section	.text.LED_CONTROL1_ReadStatus,"ax",%progbits
 1697              		.align	2
 1698              		.global	LED_CONTROL1_ReadStatus
 1699              		.code	16
 1700              		.thumb_func
 1701              		.type	LED_CONTROL1_ReadStatus, %function
 1702              	LED_CONTROL1_ReadStatus:
 1703              	.LFB35:
1275:Generated_Source\PSoC4/LED_CONTROL1.c **** 
1276:Generated_Source\PSoC4/LED_CONTROL1.c **** 
1277:Generated_Source\PSoC4/LED_CONTROL1.c **** /*******************************************************************************
1278:Generated_Source\PSoC4/LED_CONTROL1.c **** * Function Name: LED_CONTROL1_ReadStatus
1279:Generated_Source\PSoC4/LED_CONTROL1.c **** ********************************************************************************
1280:Generated_Source\PSoC4/LED_CONTROL1.c **** *
1281:Generated_Source\PSoC4/LED_CONTROL1.c **** * Summary:
1282:Generated_Source\PSoC4/LED_CONTROL1.c **** *  Reads the status of the LED_CONTROL1.
1283:Generated_Source\PSoC4/LED_CONTROL1.c **** *
1284:Generated_Source\PSoC4/LED_CONTROL1.c **** * Parameters:
1285:Generated_Source\PSoC4/LED_CONTROL1.c **** *  None
1286:Generated_Source\PSoC4/LED_CONTROL1.c **** *
1287:Generated_Source\PSoC4/LED_CONTROL1.c **** * Return:
1288:Generated_Source\PSoC4/LED_CONTROL1.c **** *  Status
1289:Generated_Source\PSoC4/LED_CONTROL1.c **** *   Values:
1290:Generated_Source\PSoC4/LED_CONTROL1.c **** *     - LED_CONTROL1_STATUS_DOWN    - Set if counting down
1291:Generated_Source\PSoC4/LED_CONTROL1.c **** *     - LED_CONTROL1_STATUS_RUNNING - Set if counter is running
1292:Generated_Source\PSoC4/LED_CONTROL1.c **** *
1293:Generated_Source\PSoC4/LED_CONTROL1.c **** *******************************************************************************/
1294:Generated_Source\PSoC4/LED_CONTROL1.c **** uint32 LED_CONTROL1_ReadStatus(void)
1295:Generated_Source\PSoC4/LED_CONTROL1.c **** {
 1704              		.loc 1 1295 0
 1705              		.cfi_startproc
 1706 0000 80B5     		push	{r7, lr}
 1707              		.cfi_def_cfa_offset 8
 1708              		.cfi_offset 7, -8
 1709              		.cfi_offset 14, -4
 1710 0002 00AF     		add	r7, sp, #0
 1711              		.cfi_def_cfa_register 7
1296:Generated_Source\PSoC4/LED_CONTROL1.c ****     return ((LED_CONTROL1_STATUS_REG >> LED_CONTROL1_RUNNING_STATUS_SHIFT) |
 1712              		.loc 1 1296 0
 1713 0004 054B     		ldr	r3, .L113
 1714 0006 1B68     		ldr	r3, [r3]
 1715 0008 9A0F     		lsr	r2, r3, #30
1297:Generated_Source\PSoC4/LED_CONTROL1.c ****             (LED_CONTROL1_STATUS_REG & LED_CONTROL1_STATUS_DOWN));
 1716              		.loc 1 1297 0
 1717 000a 044B     		ldr	r3, .L113
 1718 000c 1B68     		ldr	r3, [r3]
 1719 000e 0121     		mov	r1, #1
 1720 0010 0B40     		and	r3, r1
1296:Generated_Source\PSoC4/LED_CONTROL1.c ****     return ((LED_CONTROL1_STATUS_REG >> LED_CONTROL1_RUNNING_STATUS_SHIFT) |
 1721              		.loc 1 1296 0
 1722 0012 1343     		orr	r3, r2
1298:Generated_Source\PSoC4/LED_CONTROL1.c **** }
ARM GAS  C:\Users\poornima\AppData\Local\Temp\ccn19ius.s 			page 54


 1723              		.loc 1 1298 0
 1724 0014 181C     		mov	r0, r3
 1725 0016 BD46     		mov	sp, r7
 1726              		@ sp needed
 1727 0018 80BD     		pop	{r7, pc}
 1728              	.L114:
 1729 001a C046     		.align	2
 1730              	.L113:
 1731 001c 44012040 		.word	1075839300
 1732              		.cfi_endproc
 1733              	.LFE35:
 1734              		.size	LED_CONTROL1_ReadStatus, .-LED_CONTROL1_ReadStatus
 1735              		.section	.text.LED_CONTROL1_SetInterruptMode,"ax",%progbits
 1736              		.align	2
 1737              		.global	LED_CONTROL1_SetInterruptMode
 1738              		.code	16
 1739              		.thumb_func
 1740              		.type	LED_CONTROL1_SetInterruptMode, %function
 1741              	LED_CONTROL1_SetInterruptMode:
 1742              	.LFB36:
1299:Generated_Source\PSoC4/LED_CONTROL1.c **** 
1300:Generated_Source\PSoC4/LED_CONTROL1.c **** 
1301:Generated_Source\PSoC4/LED_CONTROL1.c **** /*******************************************************************************
1302:Generated_Source\PSoC4/LED_CONTROL1.c **** * Function Name: LED_CONTROL1_SetInterruptMode
1303:Generated_Source\PSoC4/LED_CONTROL1.c **** ********************************************************************************
1304:Generated_Source\PSoC4/LED_CONTROL1.c **** *
1305:Generated_Source\PSoC4/LED_CONTROL1.c **** * Summary:
1306:Generated_Source\PSoC4/LED_CONTROL1.c **** *  Sets the interrupt mask to control which interrupt
1307:Generated_Source\PSoC4/LED_CONTROL1.c **** *  requests generate the interrupt signal.
1308:Generated_Source\PSoC4/LED_CONTROL1.c **** *
1309:Generated_Source\PSoC4/LED_CONTROL1.c **** * Parameters:
1310:Generated_Source\PSoC4/LED_CONTROL1.c **** *   interruptMask: Mask of bits to be enabled
1311:Generated_Source\PSoC4/LED_CONTROL1.c **** *   Values:
1312:Generated_Source\PSoC4/LED_CONTROL1.c **** *     - LED_CONTROL1_INTR_MASK_TC       - Terminal count mask
1313:Generated_Source\PSoC4/LED_CONTROL1.c **** *     - LED_CONTROL1_INTR_MASK_CC_MATCH - Compare count / capture mask
1314:Generated_Source\PSoC4/LED_CONTROL1.c **** *
1315:Generated_Source\PSoC4/LED_CONTROL1.c **** * Return:
1316:Generated_Source\PSoC4/LED_CONTROL1.c **** *  None
1317:Generated_Source\PSoC4/LED_CONTROL1.c **** *
1318:Generated_Source\PSoC4/LED_CONTROL1.c **** *******************************************************************************/
1319:Generated_Source\PSoC4/LED_CONTROL1.c **** void LED_CONTROL1_SetInterruptMode(uint32 interruptMask)
1320:Generated_Source\PSoC4/LED_CONTROL1.c **** {
 1743              		.loc 1 1320 0
 1744              		.cfi_startproc
 1745 0000 80B5     		push	{r7, lr}
 1746              		.cfi_def_cfa_offset 8
 1747              		.cfi_offset 7, -8
 1748              		.cfi_offset 14, -4
 1749 0002 82B0     		sub	sp, sp, #8
 1750              		.cfi_def_cfa_offset 16
 1751 0004 00AF     		add	r7, sp, #0
 1752              		.cfi_def_cfa_register 7
 1753 0006 7860     		str	r0, [r7, #4]
1321:Generated_Source\PSoC4/LED_CONTROL1.c ****     LED_CONTROL1_INTERRUPT_MASK_REG =  interruptMask;
 1754              		.loc 1 1321 0
 1755 0008 024B     		ldr	r3, .L116
 1756 000a 7A68     		ldr	r2, [r7, #4]
ARM GAS  C:\Users\poornima\AppData\Local\Temp\ccn19ius.s 			page 55


 1757 000c 1A60     		str	r2, [r3]
1322:Generated_Source\PSoC4/LED_CONTROL1.c **** }
 1758              		.loc 1 1322 0
 1759 000e BD46     		mov	sp, r7
 1760 0010 02B0     		add	sp, sp, #8
 1761              		@ sp needed
 1762 0012 80BD     		pop	{r7, pc}
 1763              	.L117:
 1764              		.align	2
 1765              	.L116:
 1766 0014 78012040 		.word	1075839352
 1767              		.cfi_endproc
 1768              	.LFE36:
 1769              		.size	LED_CONTROL1_SetInterruptMode, .-LED_CONTROL1_SetInterruptMode
 1770              		.section	.text.LED_CONTROL1_GetInterruptSourceMasked,"ax",%progbits
 1771              		.align	2
 1772              		.global	LED_CONTROL1_GetInterruptSourceMasked
 1773              		.code	16
 1774              		.thumb_func
 1775              		.type	LED_CONTROL1_GetInterruptSourceMasked, %function
 1776              	LED_CONTROL1_GetInterruptSourceMasked:
 1777              	.LFB37:
1323:Generated_Source\PSoC4/LED_CONTROL1.c **** 
1324:Generated_Source\PSoC4/LED_CONTROL1.c **** 
1325:Generated_Source\PSoC4/LED_CONTROL1.c **** /*******************************************************************************
1326:Generated_Source\PSoC4/LED_CONTROL1.c **** * Function Name: LED_CONTROL1_GetInterruptSourceMasked
1327:Generated_Source\PSoC4/LED_CONTROL1.c **** ********************************************************************************
1328:Generated_Source\PSoC4/LED_CONTROL1.c **** *
1329:Generated_Source\PSoC4/LED_CONTROL1.c **** * Summary:
1330:Generated_Source\PSoC4/LED_CONTROL1.c **** *  Gets the interrupt requests masked by the interrupt mask.
1331:Generated_Source\PSoC4/LED_CONTROL1.c **** *
1332:Generated_Source\PSoC4/LED_CONTROL1.c **** * Parameters:
1333:Generated_Source\PSoC4/LED_CONTROL1.c **** *   None
1334:Generated_Source\PSoC4/LED_CONTROL1.c **** *
1335:Generated_Source\PSoC4/LED_CONTROL1.c **** * Return:
1336:Generated_Source\PSoC4/LED_CONTROL1.c **** *  Masked interrupt source
1337:Generated_Source\PSoC4/LED_CONTROL1.c **** *   Values:
1338:Generated_Source\PSoC4/LED_CONTROL1.c **** *     - LED_CONTROL1_INTR_MASK_TC       - Terminal count mask
1339:Generated_Source\PSoC4/LED_CONTROL1.c **** *     - LED_CONTROL1_INTR_MASK_CC_MATCH - Compare count / capture mask
1340:Generated_Source\PSoC4/LED_CONTROL1.c **** *
1341:Generated_Source\PSoC4/LED_CONTROL1.c **** *******************************************************************************/
1342:Generated_Source\PSoC4/LED_CONTROL1.c **** uint32 LED_CONTROL1_GetInterruptSourceMasked(void)
1343:Generated_Source\PSoC4/LED_CONTROL1.c **** {
 1778              		.loc 1 1343 0
 1779              		.cfi_startproc
 1780 0000 80B5     		push	{r7, lr}
 1781              		.cfi_def_cfa_offset 8
 1782              		.cfi_offset 7, -8
 1783              		.cfi_offset 14, -4
 1784 0002 00AF     		add	r7, sp, #0
 1785              		.cfi_def_cfa_register 7
1344:Generated_Source\PSoC4/LED_CONTROL1.c ****     return (LED_CONTROL1_INTERRUPT_MASKED_REG);
 1786              		.loc 1 1344 0
 1787 0004 024B     		ldr	r3, .L120
 1788 0006 1B68     		ldr	r3, [r3]
1345:Generated_Source\PSoC4/LED_CONTROL1.c **** }
 1789              		.loc 1 1345 0
ARM GAS  C:\Users\poornima\AppData\Local\Temp\ccn19ius.s 			page 56


 1790 0008 181C     		mov	r0, r3
 1791 000a BD46     		mov	sp, r7
 1792              		@ sp needed
 1793 000c 80BD     		pop	{r7, pc}
 1794              	.L121:
 1795 000e C046     		.align	2
 1796              	.L120:
 1797 0010 7C012040 		.word	1075839356
 1798              		.cfi_endproc
 1799              	.LFE37:
 1800              		.size	LED_CONTROL1_GetInterruptSourceMasked, .-LED_CONTROL1_GetInterruptSourceMasked
 1801              		.section	.text.LED_CONTROL1_GetInterruptSource,"ax",%progbits
 1802              		.align	2
 1803              		.global	LED_CONTROL1_GetInterruptSource
 1804              		.code	16
 1805              		.thumb_func
 1806              		.type	LED_CONTROL1_GetInterruptSource, %function
 1807              	LED_CONTROL1_GetInterruptSource:
 1808              	.LFB38:
1346:Generated_Source\PSoC4/LED_CONTROL1.c **** 
1347:Generated_Source\PSoC4/LED_CONTROL1.c **** 
1348:Generated_Source\PSoC4/LED_CONTROL1.c **** /*******************************************************************************
1349:Generated_Source\PSoC4/LED_CONTROL1.c **** * Function Name: LED_CONTROL1_GetInterruptSource
1350:Generated_Source\PSoC4/LED_CONTROL1.c **** ********************************************************************************
1351:Generated_Source\PSoC4/LED_CONTROL1.c **** *
1352:Generated_Source\PSoC4/LED_CONTROL1.c **** * Summary:
1353:Generated_Source\PSoC4/LED_CONTROL1.c **** *  Gets the interrupt requests (without masking).
1354:Generated_Source\PSoC4/LED_CONTROL1.c **** *
1355:Generated_Source\PSoC4/LED_CONTROL1.c **** * Parameters:
1356:Generated_Source\PSoC4/LED_CONTROL1.c **** *  None
1357:Generated_Source\PSoC4/LED_CONTROL1.c **** *
1358:Generated_Source\PSoC4/LED_CONTROL1.c **** * Return:
1359:Generated_Source\PSoC4/LED_CONTROL1.c **** *  Interrupt request value
1360:Generated_Source\PSoC4/LED_CONTROL1.c **** *   Values:
1361:Generated_Source\PSoC4/LED_CONTROL1.c **** *     - LED_CONTROL1_INTR_MASK_TC       - Terminal count mask
1362:Generated_Source\PSoC4/LED_CONTROL1.c **** *     - LED_CONTROL1_INTR_MASK_CC_MATCH - Compare count / capture mask
1363:Generated_Source\PSoC4/LED_CONTROL1.c **** *
1364:Generated_Source\PSoC4/LED_CONTROL1.c **** *******************************************************************************/
1365:Generated_Source\PSoC4/LED_CONTROL1.c **** uint32 LED_CONTROL1_GetInterruptSource(void)
1366:Generated_Source\PSoC4/LED_CONTROL1.c **** {
 1809              		.loc 1 1366 0
 1810              		.cfi_startproc
 1811 0000 80B5     		push	{r7, lr}
 1812              		.cfi_def_cfa_offset 8
 1813              		.cfi_offset 7, -8
 1814              		.cfi_offset 14, -4
 1815 0002 00AF     		add	r7, sp, #0
 1816              		.cfi_def_cfa_register 7
1367:Generated_Source\PSoC4/LED_CONTROL1.c ****     return (LED_CONTROL1_INTERRUPT_REQ_REG);
 1817              		.loc 1 1367 0
 1818 0004 024B     		ldr	r3, .L124
 1819 0006 1B68     		ldr	r3, [r3]
1368:Generated_Source\PSoC4/LED_CONTROL1.c **** }
 1820              		.loc 1 1368 0
 1821 0008 181C     		mov	r0, r3
 1822 000a BD46     		mov	sp, r7
 1823              		@ sp needed
ARM GAS  C:\Users\poornima\AppData\Local\Temp\ccn19ius.s 			page 57


 1824 000c 80BD     		pop	{r7, pc}
 1825              	.L125:
 1826 000e C046     		.align	2
 1827              	.L124:
 1828 0010 70012040 		.word	1075839344
 1829              		.cfi_endproc
 1830              	.LFE38:
 1831              		.size	LED_CONTROL1_GetInterruptSource, .-LED_CONTROL1_GetInterruptSource
 1832              		.section	.text.LED_CONTROL1_ClearInterrupt,"ax",%progbits
 1833              		.align	2
 1834              		.global	LED_CONTROL1_ClearInterrupt
 1835              		.code	16
 1836              		.thumb_func
 1837              		.type	LED_CONTROL1_ClearInterrupt, %function
 1838              	LED_CONTROL1_ClearInterrupt:
 1839              	.LFB39:
1369:Generated_Source\PSoC4/LED_CONTROL1.c **** 
1370:Generated_Source\PSoC4/LED_CONTROL1.c **** 
1371:Generated_Source\PSoC4/LED_CONTROL1.c **** /*******************************************************************************
1372:Generated_Source\PSoC4/LED_CONTROL1.c **** * Function Name: LED_CONTROL1_ClearInterrupt
1373:Generated_Source\PSoC4/LED_CONTROL1.c **** ********************************************************************************
1374:Generated_Source\PSoC4/LED_CONTROL1.c **** *
1375:Generated_Source\PSoC4/LED_CONTROL1.c **** * Summary:
1376:Generated_Source\PSoC4/LED_CONTROL1.c **** *  Clears the interrupt request.
1377:Generated_Source\PSoC4/LED_CONTROL1.c **** *
1378:Generated_Source\PSoC4/LED_CONTROL1.c **** * Parameters:
1379:Generated_Source\PSoC4/LED_CONTROL1.c **** *   interruptMask: Mask of interrupts to clear
1380:Generated_Source\PSoC4/LED_CONTROL1.c **** *   Values:
1381:Generated_Source\PSoC4/LED_CONTROL1.c **** *     - LED_CONTROL1_INTR_MASK_TC       - Terminal count mask
1382:Generated_Source\PSoC4/LED_CONTROL1.c **** *     - LED_CONTROL1_INTR_MASK_CC_MATCH - Compare count / capture mask
1383:Generated_Source\PSoC4/LED_CONTROL1.c **** *
1384:Generated_Source\PSoC4/LED_CONTROL1.c **** * Return:
1385:Generated_Source\PSoC4/LED_CONTROL1.c **** *  None
1386:Generated_Source\PSoC4/LED_CONTROL1.c **** *
1387:Generated_Source\PSoC4/LED_CONTROL1.c **** *******************************************************************************/
1388:Generated_Source\PSoC4/LED_CONTROL1.c **** void LED_CONTROL1_ClearInterrupt(uint32 interruptMask)
1389:Generated_Source\PSoC4/LED_CONTROL1.c **** {
 1840              		.loc 1 1389 0
 1841              		.cfi_startproc
 1842 0000 80B5     		push	{r7, lr}
 1843              		.cfi_def_cfa_offset 8
 1844              		.cfi_offset 7, -8
 1845              		.cfi_offset 14, -4
 1846 0002 82B0     		sub	sp, sp, #8
 1847              		.cfi_def_cfa_offset 16
 1848 0004 00AF     		add	r7, sp, #0
 1849              		.cfi_def_cfa_register 7
 1850 0006 7860     		str	r0, [r7, #4]
1390:Generated_Source\PSoC4/LED_CONTROL1.c ****     LED_CONTROL1_INTERRUPT_REQ_REG = interruptMask;
 1851              		.loc 1 1390 0
 1852 0008 024B     		ldr	r3, .L127
 1853 000a 7A68     		ldr	r2, [r7, #4]
 1854 000c 1A60     		str	r2, [r3]
1391:Generated_Source\PSoC4/LED_CONTROL1.c **** }
 1855              		.loc 1 1391 0
 1856 000e BD46     		mov	sp, r7
 1857 0010 02B0     		add	sp, sp, #8
ARM GAS  C:\Users\poornima\AppData\Local\Temp\ccn19ius.s 			page 58


 1858              		@ sp needed
 1859 0012 80BD     		pop	{r7, pc}
 1860              	.L128:
 1861              		.align	2
 1862              	.L127:
 1863 0014 70012040 		.word	1075839344
 1864              		.cfi_endproc
 1865              	.LFE39:
 1866              		.size	LED_CONTROL1_ClearInterrupt, .-LED_CONTROL1_ClearInterrupt
 1867              		.section	.text.LED_CONTROL1_SetInterrupt,"ax",%progbits
 1868              		.align	2
 1869              		.global	LED_CONTROL1_SetInterrupt
 1870              		.code	16
 1871              		.thumb_func
 1872              		.type	LED_CONTROL1_SetInterrupt, %function
 1873              	LED_CONTROL1_SetInterrupt:
 1874              	.LFB40:
1392:Generated_Source\PSoC4/LED_CONTROL1.c **** 
1393:Generated_Source\PSoC4/LED_CONTROL1.c **** 
1394:Generated_Source\PSoC4/LED_CONTROL1.c **** /*******************************************************************************
1395:Generated_Source\PSoC4/LED_CONTROL1.c **** * Function Name: LED_CONTROL1_SetInterrupt
1396:Generated_Source\PSoC4/LED_CONTROL1.c **** ********************************************************************************
1397:Generated_Source\PSoC4/LED_CONTROL1.c **** *
1398:Generated_Source\PSoC4/LED_CONTROL1.c **** * Summary:
1399:Generated_Source\PSoC4/LED_CONTROL1.c **** *  Sets a software interrupt request.
1400:Generated_Source\PSoC4/LED_CONTROL1.c **** *
1401:Generated_Source\PSoC4/LED_CONTROL1.c **** * Parameters:
1402:Generated_Source\PSoC4/LED_CONTROL1.c **** *   interruptMask: Mask of interrupts to set
1403:Generated_Source\PSoC4/LED_CONTROL1.c **** *   Values:
1404:Generated_Source\PSoC4/LED_CONTROL1.c **** *     - LED_CONTROL1_INTR_MASK_TC       - Terminal count mask
1405:Generated_Source\PSoC4/LED_CONTROL1.c **** *     - LED_CONTROL1_INTR_MASK_CC_MATCH - Compare count / capture mask
1406:Generated_Source\PSoC4/LED_CONTROL1.c **** *
1407:Generated_Source\PSoC4/LED_CONTROL1.c **** * Return:
1408:Generated_Source\PSoC4/LED_CONTROL1.c **** *  None
1409:Generated_Source\PSoC4/LED_CONTROL1.c **** *
1410:Generated_Source\PSoC4/LED_CONTROL1.c **** *******************************************************************************/
1411:Generated_Source\PSoC4/LED_CONTROL1.c **** void LED_CONTROL1_SetInterrupt(uint32 interruptMask)
1412:Generated_Source\PSoC4/LED_CONTROL1.c **** {
 1875              		.loc 1 1412 0
 1876              		.cfi_startproc
 1877 0000 80B5     		push	{r7, lr}
 1878              		.cfi_def_cfa_offset 8
 1879              		.cfi_offset 7, -8
 1880              		.cfi_offset 14, -4
 1881 0002 82B0     		sub	sp, sp, #8
 1882              		.cfi_def_cfa_offset 16
 1883 0004 00AF     		add	r7, sp, #0
 1884              		.cfi_def_cfa_register 7
 1885 0006 7860     		str	r0, [r7, #4]
1413:Generated_Source\PSoC4/LED_CONTROL1.c ****     LED_CONTROL1_INTERRUPT_SET_REG = interruptMask;
 1886              		.loc 1 1413 0
 1887 0008 024B     		ldr	r3, .L130
 1888 000a 7A68     		ldr	r2, [r7, #4]
 1889 000c 1A60     		str	r2, [r3]
1414:Generated_Source\PSoC4/LED_CONTROL1.c **** }
 1890              		.loc 1 1414 0
 1891 000e BD46     		mov	sp, r7
ARM GAS  C:\Users\poornima\AppData\Local\Temp\ccn19ius.s 			page 59


 1892 0010 02B0     		add	sp, sp, #8
 1893              		@ sp needed
 1894 0012 80BD     		pop	{r7, pc}
 1895              	.L131:
 1896              		.align	2
 1897              	.L130:
 1898 0014 74012040 		.word	1075839348
 1899              		.cfi_endproc
 1900              	.LFE40:
 1901              		.size	LED_CONTROL1_SetInterrupt, .-LED_CONTROL1_SetInterrupt
 1902              		.text
 1903              	.Letext0:
 1904              		.file 2 "Generated_Source\\PSoC4\\cytypes.h"
 1905              		.section	.debug_info,"",%progbits
 1906              	.Ldebug_info0:
 1907 0000 F0060000 		.4byte	0x6f0
 1908 0004 0400     		.2byte	0x4
 1909 0006 00000000 		.4byte	.Ldebug_abbrev0
 1910 000a 04       		.byte	0x4
 1911 000b 01       		.uleb128 0x1
 1912 000c EA050000 		.4byte	.LASF76
 1913 0010 01       		.byte	0x1
 1914 0011 C4050000 		.4byte	.LASF77
 1915 0015 91040000 		.4byte	.LASF78
 1916 0019 00000000 		.4byte	.Ldebug_ranges0+0
 1917 001d 00000000 		.4byte	0
 1918 0021 00000000 		.4byte	.Ldebug_line0
 1919 0025 02       		.uleb128 0x2
 1920 0026 01       		.byte	0x1
 1921 0027 06       		.byte	0x6
 1922 0028 F2000000 		.4byte	.LASF0
 1923 002c 02       		.uleb128 0x2
 1924 002d 01       		.byte	0x1
 1925 002e 08       		.byte	0x8
 1926 002f D0030000 		.4byte	.LASF1
 1927 0033 02       		.uleb128 0x2
 1928 0034 02       		.byte	0x2
 1929 0035 05       		.byte	0x5
 1930 0036 0B040000 		.4byte	.LASF2
 1931 003a 02       		.uleb128 0x2
 1932 003b 02       		.byte	0x2
 1933 003c 07       		.byte	0x7
 1934 003d 89020000 		.4byte	.LASF3
 1935 0041 02       		.uleb128 0x2
 1936 0042 04       		.byte	0x4
 1937 0043 05       		.byte	0x5
 1938 0044 2B010000 		.4byte	.LASF4
 1939 0048 02       		.uleb128 0x2
 1940 0049 04       		.byte	0x4
 1941 004a 07       		.byte	0x7
 1942 004b 3A020000 		.4byte	.LASF5
 1943 004f 02       		.uleb128 0x2
 1944 0050 08       		.byte	0x8
 1945 0051 05       		.byte	0x5
 1946 0052 E4000000 		.4byte	.LASF6
 1947 0056 02       		.uleb128 0x2
 1948 0057 08       		.byte	0x8
ARM GAS  C:\Users\poornima\AppData\Local\Temp\ccn19ius.s 			page 60


 1949 0058 07       		.byte	0x7
 1950 0059 8F000000 		.4byte	.LASF7
 1951 005d 03       		.uleb128 0x3
 1952 005e 04       		.byte	0x4
 1953 005f 05       		.byte	0x5
 1954 0060 696E7400 		.ascii	"int\000"
 1955 0064 02       		.uleb128 0x2
 1956 0065 04       		.byte	0x4
 1957 0066 07       		.byte	0x7
 1958 0067 05020000 		.4byte	.LASF8
 1959 006b 04       		.uleb128 0x4
 1960 006c 65010000 		.4byte	.LASF9
 1961 0070 02       		.byte	0x2
 1962 0071 3801     		.2byte	0x138
 1963 0073 2C000000 		.4byte	0x2c
 1964 0077 04       		.uleb128 0x4
 1965 0078 8A010000 		.4byte	.LASF10
 1966 007c 02       		.byte	0x2
 1967 007d 3A01     		.2byte	0x13a
 1968 007f 48000000 		.4byte	0x48
 1969 0083 02       		.uleb128 0x2
 1970 0084 04       		.byte	0x4
 1971 0085 04       		.byte	0x4
 1972 0086 C0030000 		.4byte	.LASF11
 1973 008a 02       		.uleb128 0x2
 1974 008b 08       		.byte	0x8
 1975 008c 04       		.byte	0x4
 1976 008d 6B010000 		.4byte	.LASF12
 1977 0091 02       		.uleb128 0x2
 1978 0092 01       		.byte	0x1
 1979 0093 08       		.byte	0x8
 1980 0094 8C040000 		.4byte	.LASF13
 1981 0098 04       		.uleb128 0x4
 1982 0099 D8020000 		.4byte	.LASF14
 1983 009d 02       		.byte	0x2
 1984 009e E401     		.2byte	0x1e4
 1985 00a0 A4000000 		.4byte	0xa4
 1986 00a4 05       		.uleb128 0x5
 1987 00a5 77000000 		.4byte	0x77
 1988 00a9 02       		.uleb128 0x2
 1989 00aa 04       		.byte	0x4
 1990 00ab 07       		.byte	0x7
 1991 00ac 16030000 		.4byte	.LASF15
 1992 00b0 06       		.uleb128 0x6
 1993 00b1 87030000 		.4byte	.LASF16
 1994 00b5 01       		.byte	0x1
 1995 00b6 26       		.byte	0x26
 1996 00b7 00000000 		.4byte	.LFB1
 1997 00bb 5C000000 		.4byte	.LFE1-.LFB1
 1998 00bf 01       		.uleb128 0x1
 1999 00c0 9C       		.byte	0x9c
 2000 00c1 07       		.uleb128 0x7
 2001 00c2 99030000 		.4byte	.LASF18
 2002 00c6 01       		.byte	0x1
 2003 00c7 B1       		.byte	0xb1
 2004 00c8 00000000 		.4byte	.LFB2
 2005 00cc 38000000 		.4byte	.LFE2-.LFB2
ARM GAS  C:\Users\poornima\AppData\Local\Temp\ccn19ius.s 			page 61


 2006 00d0 01       		.uleb128 0x1
 2007 00d1 9C       		.byte	0x9c
 2008 00d2 E5000000 		.4byte	0xe5
 2009 00d6 08       		.uleb128 0x8
 2010 00d7 46050000 		.4byte	.LASF20
 2011 00db 01       		.byte	0x1
 2012 00dc B3       		.byte	0xb3
 2013 00dd 6B000000 		.4byte	0x6b
 2014 00e1 02       		.uleb128 0x2
 2015 00e2 91       		.byte	0x91
 2016 00e3 6F       		.sleb128 -17
 2017 00e4 00       		.byte	0
 2018 00e5 06       		.uleb128 0x6
 2019 00e6 AD030000 		.4byte	.LASF17
 2020 00ea 01       		.byte	0x1
 2021 00eb E6       		.byte	0xe6
 2022 00ec 00000000 		.4byte	.LFB3
 2023 00f0 24000000 		.4byte	.LFE3-.LFB3
 2024 00f4 01       		.uleb128 0x1
 2025 00f5 9C       		.byte	0x9c
 2026 00f6 09       		.uleb128 0x9
 2027 00f7 FE000000 		.4byte	.LASF19
 2028 00fb 01       		.byte	0x1
 2029 00fc 0001     		.2byte	0x100
 2030 00fe 00000000 		.4byte	.LFB4
 2031 0102 30000000 		.4byte	.LFE4-.LFB4
 2032 0106 01       		.uleb128 0x1
 2033 0107 9C       		.byte	0x9c
 2034 0108 1C010000 		.4byte	0x11c
 2035 010c 0A       		.uleb128 0xa
 2036 010d 46050000 		.4byte	.LASF20
 2037 0111 01       		.byte	0x1
 2038 0112 0201     		.2byte	0x102
 2039 0114 6B000000 		.4byte	0x6b
 2040 0118 02       		.uleb128 0x2
 2041 0119 91       		.byte	0x91
 2042 011a 6F       		.sleb128 -17
 2043 011b 00       		.byte	0
 2044 011c 09       		.uleb128 0x9
 2045 011d C3020000 		.4byte	.LASF21
 2046 0121 01       		.byte	0x1
 2047 0122 2501     		.2byte	0x125
 2048 0124 00000000 		.4byte	.LFB5
 2049 0128 48000000 		.4byte	.LFE5-.LFB5
 2050 012c 01       		.uleb128 0x1
 2051 012d 9C       		.byte	0x9c
 2052 012e 51010000 		.4byte	0x151
 2053 0132 0B       		.uleb128 0xb
 2054 0133 E8040000 		.4byte	.LASF23
 2055 0137 01       		.byte	0x1
 2056 0138 2501     		.2byte	0x125
 2057 013a 77000000 		.4byte	0x77
 2058 013e 02       		.uleb128 0x2
 2059 013f 91       		.byte	0x91
 2060 0140 64       		.sleb128 -28
 2061 0141 0A       		.uleb128 0xa
 2062 0142 46050000 		.4byte	.LASF20
ARM GAS  C:\Users\poornima\AppData\Local\Temp\ccn19ius.s 			page 62


 2063 0146 01       		.byte	0x1
 2064 0147 2701     		.2byte	0x127
 2065 0149 6B000000 		.4byte	0x6b
 2066 014d 02       		.uleb128 0x2
 2067 014e 91       		.byte	0x91
 2068 014f 6F       		.sleb128 -17
 2069 0150 00       		.byte	0
 2070 0151 09       		.uleb128 0x9
 2071 0152 78060000 		.4byte	.LASF22
 2072 0156 01       		.byte	0x1
 2073 0157 4601     		.2byte	0x146
 2074 0159 00000000 		.4byte	.LFB6
 2075 015d 48000000 		.4byte	.LFE6-.LFB6
 2076 0161 01       		.uleb128 0x1
 2077 0162 9C       		.byte	0x9c
 2078 0163 86010000 		.4byte	0x186
 2079 0167 0B       		.uleb128 0xb
 2080 0168 C1000000 		.4byte	.LASF24
 2081 016c 01       		.byte	0x1
 2082 016d 4601     		.2byte	0x146
 2083 016f 77000000 		.4byte	0x77
 2084 0173 02       		.uleb128 0x2
 2085 0174 91       		.byte	0x91
 2086 0175 64       		.sleb128 -28
 2087 0176 0A       		.uleb128 0xa
 2088 0177 46050000 		.4byte	.LASF20
 2089 017b 01       		.byte	0x1
 2090 017c 4801     		.2byte	0x148
 2091 017e 6B000000 		.4byte	0x6b
 2092 0182 02       		.uleb128 0x2
 2093 0183 91       		.byte	0x91
 2094 0184 6F       		.sleb128 -17
 2095 0185 00       		.byte	0
 2096 0186 09       		.uleb128 0x9
 2097 0187 90050000 		.4byte	.LASF25
 2098 018b 01       		.byte	0x1
 2099 018c 6B01     		.2byte	0x16b
 2100 018e 00000000 		.4byte	.LFB7
 2101 0192 48000000 		.4byte	.LFE7-.LFB7
 2102 0196 01       		.uleb128 0x1
 2103 0197 9C       		.byte	0x9c
 2104 0198 BB010000 		.4byte	0x1bb
 2105 019c 0B       		.uleb128 0xb
 2106 019d C6030000 		.4byte	.LASF26
 2107 01a1 01       		.byte	0x1
 2108 01a2 6B01     		.2byte	0x16b
 2109 01a4 77000000 		.4byte	0x77
 2110 01a8 02       		.uleb128 0x2
 2111 01a9 91       		.byte	0x91
 2112 01aa 64       		.sleb128 -28
 2113 01ab 0A       		.uleb128 0xa
 2114 01ac 46050000 		.4byte	.LASF20
 2115 01b0 01       		.byte	0x1
 2116 01b1 6D01     		.2byte	0x16d
 2117 01b3 6B000000 		.4byte	0x6b
 2118 01b7 02       		.uleb128 0x2
 2119 01b8 91       		.byte	0x91
ARM GAS  C:\Users\poornima\AppData\Local\Temp\ccn19ius.s 			page 63


 2120 01b9 6F       		.sleb128 -17
 2121 01ba 00       		.byte	0
 2122 01bb 09       		.uleb128 0x9
 2123 01bc 72010000 		.4byte	.LASF27
 2124 01c0 01       		.byte	0x1
 2125 01c1 8B01     		.2byte	0x18b
 2126 01c3 00000000 		.4byte	.LFB8
 2127 01c7 4C000000 		.4byte	.LFE8-.LFB8
 2128 01cb 01       		.uleb128 0x1
 2129 01cc 9C       		.byte	0x9c
 2130 01cd F0010000 		.4byte	0x1f0
 2131 01d1 0B       		.uleb128 0xb
 2132 01d2 B5020000 		.4byte	.LASF28
 2133 01d6 01       		.byte	0x1
 2134 01d7 8B01     		.2byte	0x18b
 2135 01d9 77000000 		.4byte	0x77
 2136 01dd 02       		.uleb128 0x2
 2137 01de 91       		.byte	0x91
 2138 01df 64       		.sleb128 -28
 2139 01e0 0A       		.uleb128 0xa
 2140 01e1 46050000 		.4byte	.LASF20
 2141 01e5 01       		.byte	0x1
 2142 01e6 8D01     		.2byte	0x18d
 2143 01e8 6B000000 		.4byte	0x6b
 2144 01ec 02       		.uleb128 0x2
 2145 01ed 91       		.byte	0x91
 2146 01ee 6F       		.sleb128 -17
 2147 01ef 00       		.byte	0
 2148 01f0 0C       		.uleb128 0xc
 2149 01f1 71020000 		.4byte	.LASF29
 2150 01f5 01       		.byte	0x1
 2151 01f6 C101     		.2byte	0x1c1
 2152 01f8 00000000 		.4byte	.LFB9
 2153 01fc 1C000000 		.4byte	.LFE9-.LFB9
 2154 0200 01       		.uleb128 0x1
 2155 0201 9C       		.byte	0x9c
 2156 0202 16020000 		.4byte	0x216
 2157 0206 0B       		.uleb128 0xb
 2158 0207 4C020000 		.4byte	.LASF30
 2159 020b 01       		.byte	0x1
 2160 020c C101     		.2byte	0x1c1
 2161 020e 77000000 		.4byte	0x77
 2162 0212 02       		.uleb128 0x2
 2163 0213 91       		.byte	0x91
 2164 0214 74       		.sleb128 -12
 2165 0215 00       		.byte	0
 2166 0216 09       		.uleb128 0x9
 2167 0217 55020000 		.4byte	.LASF31
 2168 021b 01       		.byte	0x1
 2169 021c E501     		.2byte	0x1e5
 2170 021e 00000000 		.4byte	.LFB10
 2171 0222 48000000 		.4byte	.LFE10-.LFB10
 2172 0226 01       		.uleb128 0x1
 2173 0227 9C       		.byte	0x9c
 2174 0228 4B020000 		.4byte	0x24b
 2175 022c 0B       		.uleb128 0xb
 2176 022d 3D030000 		.4byte	.LASF32
ARM GAS  C:\Users\poornima\AppData\Local\Temp\ccn19ius.s 			page 64


 2177 0231 01       		.byte	0x1
 2178 0232 E501     		.2byte	0x1e5
 2179 0234 77000000 		.4byte	0x77
 2180 0238 02       		.uleb128 0x2
 2181 0239 91       		.byte	0x91
 2182 023a 64       		.sleb128 -28
 2183 023b 0A       		.uleb128 0xa
 2184 023c 46050000 		.4byte	.LASF20
 2185 0240 01       		.byte	0x1
 2186 0241 E701     		.2byte	0x1e7
 2187 0243 6B000000 		.4byte	0x6b
 2188 0247 02       		.uleb128 0x2
 2189 0248 91       		.byte	0x91
 2190 0249 6F       		.sleb128 -17
 2191 024a 00       		.byte	0
 2192 024b 09       		.uleb128 0x9
 2193 024c 1F030000 		.4byte	.LASF33
 2194 0250 01       		.byte	0x1
 2195 0251 0702     		.2byte	0x207
 2196 0253 00000000 		.4byte	.LFB11
 2197 0257 48000000 		.4byte	.LFE11-.LFB11
 2198 025b 01       		.uleb128 0x1
 2199 025c 9C       		.byte	0x9c
 2200 025d 80020000 		.4byte	0x280
 2201 0261 0B       		.uleb128 0xb
 2202 0262 DE030000 		.4byte	.LASF34
 2203 0266 01       		.byte	0x1
 2204 0267 0702     		.2byte	0x207
 2205 0269 77000000 		.4byte	0x77
 2206 026d 02       		.uleb128 0x2
 2207 026e 91       		.byte	0x91
 2208 026f 64       		.sleb128 -28
 2209 0270 0A       		.uleb128 0xa
 2210 0271 46050000 		.4byte	.LASF20
 2211 0275 01       		.byte	0x1
 2212 0276 0902     		.2byte	0x209
 2213 0278 6B000000 		.4byte	0x6b
 2214 027c 02       		.uleb128 0x2
 2215 027d 91       		.byte	0x91
 2216 027e 6F       		.sleb128 -17
 2217 027f 00       		.byte	0
 2218 0280 09       		.uleb128 0x9
 2219 0281 EF030000 		.4byte	.LASF35
 2220 0285 01       		.byte	0x1
 2221 0286 2802     		.2byte	0x228
 2222 0288 00000000 		.4byte	.LFB12
 2223 028c 4C000000 		.4byte	.LFE12-.LFB12
 2224 0290 01       		.uleb128 0x1
 2225 0291 9C       		.byte	0x9c
 2226 0292 B5020000 		.4byte	0x2b5
 2227 0296 0B       		.uleb128 0xb
 2228 0297 E4010000 		.4byte	.LASF36
 2229 029b 01       		.byte	0x1
 2230 029c 2802     		.2byte	0x228
 2231 029e 77000000 		.4byte	0x77
 2232 02a2 02       		.uleb128 0x2
 2233 02a3 91       		.byte	0x91
ARM GAS  C:\Users\poornima\AppData\Local\Temp\ccn19ius.s 			page 65


 2234 02a4 64       		.sleb128 -28
 2235 02a5 0A       		.uleb128 0xa
 2236 02a6 46050000 		.4byte	.LASF20
 2237 02aa 01       		.byte	0x1
 2238 02ab 2A02     		.2byte	0x22a
 2239 02ad 6B000000 		.4byte	0x6b
 2240 02b1 02       		.uleb128 0x2
 2241 02b2 91       		.byte	0x91
 2242 02b3 6F       		.sleb128 -17
 2243 02b4 00       		.byte	0
 2244 02b5 09       		.uleb128 0x9
 2245 02b6 22000000 		.4byte	.LASF37
 2246 02ba 01       		.byte	0x1
 2247 02bb 4902     		.2byte	0x249
 2248 02bd 00000000 		.4byte	.LFB13
 2249 02c1 48000000 		.4byte	.LFE13-.LFB13
 2250 02c5 01       		.uleb128 0x1
 2251 02c6 9C       		.byte	0x9c
 2252 02c7 EA020000 		.4byte	0x2ea
 2253 02cb 0B       		.uleb128 0xb
 2254 02cc B9010000 		.4byte	.LASF38
 2255 02d0 01       		.byte	0x1
 2256 02d1 4902     		.2byte	0x249
 2257 02d3 77000000 		.4byte	0x77
 2258 02d7 02       		.uleb128 0x2
 2259 02d8 91       		.byte	0x91
 2260 02d9 64       		.sleb128 -28
 2261 02da 0A       		.uleb128 0xa
 2262 02db 46050000 		.4byte	.LASF20
 2263 02df 01       		.byte	0x1
 2264 02e0 4B02     		.2byte	0x24b
 2265 02e2 6B000000 		.4byte	0x6b
 2266 02e6 02       		.uleb128 0x2
 2267 02e7 91       		.byte	0x91
 2268 02e8 6F       		.sleb128 -17
 2269 02e9 00       		.byte	0
 2270 02ea 0C       		.uleb128 0xc
 2271 02eb AA050000 		.4byte	.LASF39
 2272 02ef 01       		.byte	0x1
 2273 02f0 6702     		.2byte	0x267
 2274 02f2 00000000 		.4byte	.LFB14
 2275 02f6 1C000000 		.4byte	.LFE14-.LFB14
 2276 02fa 01       		.uleb128 0x1
 2277 02fb 9C       		.byte	0x9c
 2278 02fc 10030000 		.4byte	0x310
 2279 0300 0B       		.uleb128 0xb
 2280 0301 00000000 		.4byte	.LASF40
 2281 0305 01       		.byte	0x1
 2282 0306 6702     		.2byte	0x267
 2283 0308 77000000 		.4byte	0x77
 2284 030c 02       		.uleb128 0x2
 2285 030d 91       		.byte	0x91
 2286 030e 74       		.sleb128 -12
 2287 030f 00       		.byte	0
 2288 0310 0D       		.uleb128 0xd
 2289 0311 4C010000 		.4byte	.LASF45
 2290 0315 01       		.byte	0x1
ARM GAS  C:\Users\poornima\AppData\Local\Temp\ccn19ius.s 			page 66


 2291 0316 7B02     		.2byte	0x27b
 2292 0318 77000000 		.4byte	0x77
 2293 031c 00000000 		.4byte	.LFB15
 2294 0320 18000000 		.4byte	.LFE15-.LFB15
 2295 0324 01       		.uleb128 0x1
 2296 0325 9C       		.byte	0x9c
 2297 0326 09       		.uleb128 0x9
 2298 0327 06000000 		.4byte	.LASF41
 2299 032b 01       		.byte	0x1
 2300 032c 9802     		.2byte	0x298
 2301 032e 00000000 		.4byte	.LFB16
 2302 0332 48000000 		.4byte	.LFE16-.LFB16
 2303 0336 01       		.uleb128 0x1
 2304 0337 9C       		.byte	0x9c
 2305 0338 5B030000 		.4byte	0x35b
 2306 033c 0B       		.uleb128 0xb
 2307 033d 24050000 		.4byte	.LASF42
 2308 0341 01       		.byte	0x1
 2309 0342 9802     		.2byte	0x298
 2310 0344 77000000 		.4byte	0x77
 2311 0348 02       		.uleb128 0x2
 2312 0349 91       		.byte	0x91
 2313 034a 64       		.sleb128 -28
 2314 034b 0A       		.uleb128 0xa
 2315 034c 46050000 		.4byte	.LASF20
 2316 0350 01       		.byte	0x1
 2317 0351 9A02     		.2byte	0x29a
 2318 0353 6B000000 		.4byte	0x6b
 2319 0357 02       		.uleb128 0x2
 2320 0358 91       		.byte	0x91
 2321 0359 6F       		.sleb128 -17
 2322 035a 00       		.byte	0
 2323 035b 0C       		.uleb128 0xc
 2324 035c 54030000 		.4byte	.LASF43
 2325 0360 01       		.byte	0x1
 2326 0361 B502     		.2byte	0x2b5
 2327 0363 00000000 		.4byte	.LFB17
 2328 0367 1C000000 		.4byte	.LFE17-.LFB17
 2329 036b 01       		.uleb128 0x1
 2330 036c 9C       		.byte	0x9c
 2331 036d 81030000 		.4byte	0x381
 2332 0371 0B       		.uleb128 0xb
 2333 0372 6F000000 		.4byte	.LASF44
 2334 0376 01       		.byte	0x1
 2335 0377 B502     		.2byte	0x2b5
 2336 0379 77000000 		.4byte	0x77
 2337 037d 02       		.uleb128 0x2
 2338 037e 91       		.byte	0x91
 2339 037f 74       		.sleb128 -12
 2340 0380 00       		.byte	0
 2341 0381 0D       		.uleb128 0xd
 2342 0382 34010000 		.4byte	.LASF46
 2343 0386 01       		.byte	0x1
 2344 0387 C902     		.2byte	0x2c9
 2345 0389 77000000 		.4byte	0x77
 2346 038d 00000000 		.4byte	.LFB18
 2347 0391 18000000 		.4byte	.LFE18-.LFB18
ARM GAS  C:\Users\poornima\AppData\Local\Temp\ccn19ius.s 			page 67


 2348 0395 01       		.uleb128 0x1
 2349 0396 9C       		.byte	0x9c
 2350 0397 09       		.uleb128 0x9
 2351 0398 91010000 		.4byte	.LASF47
 2352 039c 01       		.byte	0x1
 2353 039d E302     		.2byte	0x2e3
 2354 039f 00000000 		.4byte	.LFB19
 2355 03a3 48000000 		.4byte	.LFE19-.LFB19
 2356 03a7 01       		.uleb128 0x1
 2357 03a8 9C       		.byte	0x9c
 2358 03a9 CC030000 		.4byte	0x3cc
 2359 03ad 0B       		.uleb128 0xb
 2360 03ae 30050000 		.4byte	.LASF48
 2361 03b2 01       		.byte	0x1
 2362 03b3 E302     		.2byte	0x2e3
 2363 03b5 77000000 		.4byte	0x77
 2364 03b9 02       		.uleb128 0x2
 2365 03ba 91       		.byte	0x91
 2366 03bb 64       		.sleb128 -28
 2367 03bc 0A       		.uleb128 0xa
 2368 03bd 46050000 		.4byte	.LASF20
 2369 03c1 01       		.byte	0x1
 2370 03c2 E502     		.2byte	0x2e5
 2371 03c4 6B000000 		.4byte	0x6b
 2372 03c8 02       		.uleb128 0x2
 2373 03c9 91       		.byte	0x91
 2374 03ca 6F       		.sleb128 -17
 2375 03cb 00       		.byte	0
 2376 03cc 0C       		.uleb128 0xc
 2377 03cd ED040000 		.4byte	.LASF49
 2378 03d1 01       		.byte	0x1
 2379 03d2 FE02     		.2byte	0x2fe
 2380 03d4 00000000 		.4byte	.LFB20
 2381 03d8 1C000000 		.4byte	.LFE20-.LFB20
 2382 03dc 01       		.uleb128 0x1
 2383 03dd 9C       		.byte	0x9c
 2384 03de F2030000 		.4byte	0x3f2
 2385 03e2 0B       		.uleb128 0xb
 2386 03e3 8F060000 		.4byte	.LASF50
 2387 03e7 01       		.byte	0x1
 2388 03e8 FE02     		.2byte	0x2fe
 2389 03ea 77000000 		.4byte	0x77
 2390 03ee 02       		.uleb128 0x2
 2391 03ef 91       		.byte	0x91
 2392 03f0 74       		.sleb128 -12
 2393 03f1 00       		.byte	0
 2394 03f2 0D       		.uleb128 0xd
 2395 03f3 A6000000 		.4byte	.LASF51
 2396 03f7 01       		.byte	0x1
 2397 03f8 1203     		.2byte	0x312
 2398 03fa 77000000 		.4byte	0x77
 2399 03fe 00000000 		.4byte	.LFB21
 2400 0402 18000000 		.4byte	.LFE21-.LFB21
 2401 0406 01       		.uleb128 0x1
 2402 0407 9C       		.byte	0x9c
 2403 0408 09       		.uleb128 0x9
 2404 0409 10010000 		.4byte	.LASF52
ARM GAS  C:\Users\poornima\AppData\Local\Temp\ccn19ius.s 			page 68


 2405 040d 01       		.byte	0x1
 2406 040e 2C03     		.2byte	0x32c
 2407 0410 00000000 		.4byte	.LFB22
 2408 0414 48000000 		.4byte	.LFE22-.LFB22
 2409 0418 01       		.uleb128 0x1
 2410 0419 9C       		.byte	0x9c
 2411 041a 3D040000 		.4byte	0x43d
 2412 041e 0B       		.uleb128 0xb
 2413 041f 30050000 		.4byte	.LASF48
 2414 0423 01       		.byte	0x1
 2415 0424 2C03     		.2byte	0x32c
 2416 0426 77000000 		.4byte	0x77
 2417 042a 02       		.uleb128 0x2
 2418 042b 91       		.byte	0x91
 2419 042c 64       		.sleb128 -28
 2420 042d 0A       		.uleb128 0xa
 2421 042e 46050000 		.4byte	.LASF20
 2422 0432 01       		.byte	0x1
 2423 0433 2E03     		.2byte	0x32e
 2424 0435 6B000000 		.4byte	0x6b
 2425 0439 02       		.uleb128 0x2
 2426 043a 91       		.byte	0x91
 2427 043b 6F       		.sleb128 -17
 2428 043c 00       		.byte	0
 2429 043d 0C       		.uleb128 0xc
 2430 043e CE040000 		.4byte	.LASF53
 2431 0442 01       		.byte	0x1
 2432 0443 5103     		.2byte	0x351
 2433 0445 00000000 		.4byte	.LFB23
 2434 0449 1C000000 		.4byte	.LFE23-.LFB23
 2435 044d 01       		.uleb128 0x1
 2436 044e 9C       		.byte	0x9c
 2437 044f 63040000 		.4byte	0x463
 2438 0453 0B       		.uleb128 0xb
 2439 0454 4C030000 		.4byte	.LASF54
 2440 0458 01       		.byte	0x1
 2441 0459 5103     		.2byte	0x351
 2442 045b 77000000 		.4byte	0x77
 2443 045f 02       		.uleb128 0x2
 2444 0460 91       		.byte	0x91
 2445 0461 74       		.sleb128 -12
 2446 0462 00       		.byte	0
 2447 0463 0D       		.uleb128 0xd
 2448 0464 76000000 		.4byte	.LASF55
 2449 0468 01       		.byte	0x1
 2450 0469 8403     		.2byte	0x384
 2451 046b 77000000 		.4byte	0x77
 2452 046f 00000000 		.4byte	.LFB24
 2453 0473 18000000 		.4byte	.LFE24-.LFB24
 2454 0477 01       		.uleb128 0x1
 2455 0478 9C       		.byte	0x9c
 2456 0479 0C       		.uleb128 0xc
 2457 047a 73050000 		.4byte	.LASF56
 2458 047e 01       		.byte	0x1
 2459 047f BA03     		.2byte	0x3ba
 2460 0481 00000000 		.4byte	.LFB25
 2461 0485 1C000000 		.4byte	.LFE25-.LFB25
ARM GAS  C:\Users\poornima\AppData\Local\Temp\ccn19ius.s 			page 69


 2462 0489 01       		.uleb128 0x1
 2463 048a 9C       		.byte	0x9c
 2464 048b 9F040000 		.4byte	0x49f
 2465 048f 0B       		.uleb128 0xb
 2466 0490 3B050000 		.4byte	.LASF57
 2467 0494 01       		.byte	0x1
 2468 0495 BA03     		.2byte	0x3ba
 2469 0497 77000000 		.4byte	0x77
 2470 049b 02       		.uleb128 0x2
 2471 049c 91       		.byte	0x91
 2472 049d 74       		.sleb128 -12
 2473 049e 00       		.byte	0
 2474 049f 0D       		.uleb128 0xd
 2475 04a0 70040000 		.4byte	.LASF58
 2476 04a4 01       		.byte	0x1
 2477 04a5 E803     		.2byte	0x3e8
 2478 04a7 77000000 		.4byte	0x77
 2479 04ab 00000000 		.4byte	.LFB26
 2480 04af 18000000 		.4byte	.LFE26-.LFB26
 2481 04b3 01       		.uleb128 0x1
 2482 04b4 9C       		.byte	0x9c
 2483 04b5 0D       		.uleb128 0xd
 2484 04b6 3D040000 		.4byte	.LASF59
 2485 04ba 01       		.byte	0x1
 2486 04bb 1604     		.2byte	0x416
 2487 04bd 77000000 		.4byte	0x77
 2488 04c1 00000000 		.4byte	.LFB27
 2489 04c5 18000000 		.4byte	.LFE27-.LFB27
 2490 04c9 01       		.uleb128 0x1
 2491 04ca 9C       		.byte	0x9c
 2492 04cb 0D       		.uleb128 0xd
 2493 04cc 57050000 		.4byte	.LASF60
 2494 04d0 01       		.byte	0x1
 2495 04d1 2B04     		.2byte	0x42b
 2496 04d3 77000000 		.4byte	0x77
 2497 04d7 00000000 		.4byte	.LFB28
 2498 04db 18000000 		.4byte	.LFE28-.LFB28
 2499 04df 01       		.uleb128 0x1
 2500 04e0 9C       		.byte	0x9c
 2501 04e1 09       		.uleb128 0x9
 2502 04e2 C8000000 		.4byte	.LASF61
 2503 04e6 01       		.byte	0x1
 2504 04e7 4604     		.2byte	0x446
 2505 04e9 00000000 		.4byte	.LFB29
 2506 04ed 44000000 		.4byte	.LFE29-.LFB29
 2507 04f1 01       		.uleb128 0x1
 2508 04f2 9C       		.byte	0x9c
 2509 04f3 16050000 		.4byte	0x516
 2510 04f7 0B       		.uleb128 0xb
 2511 04f8 AD010000 		.4byte	.LASF62
 2512 04fc 01       		.byte	0x1
 2513 04fd 4604     		.2byte	0x446
 2514 04ff 77000000 		.4byte	0x77
 2515 0503 02       		.uleb128 0x2
 2516 0504 91       		.byte	0x91
 2517 0505 64       		.sleb128 -28
 2518 0506 0A       		.uleb128 0xa
ARM GAS  C:\Users\poornima\AppData\Local\Temp\ccn19ius.s 			page 70


 2519 0507 46050000 		.4byte	.LASF20
 2520 050b 01       		.byte	0x1
 2521 050c 4804     		.2byte	0x448
 2522 050e 6B000000 		.4byte	0x6b
 2523 0512 02       		.uleb128 0x2
 2524 0513 91       		.byte	0x91
 2525 0514 6F       		.sleb128 -17
 2526 0515 00       		.byte	0
 2527 0516 09       		.uleb128 0x9
 2528 0517 09050000 		.4byte	.LASF63
 2529 051b 01       		.byte	0x1
 2530 051c 6704     		.2byte	0x467
 2531 051e 00000000 		.4byte	.LFB30
 2532 0522 44000000 		.4byte	.LFE30-.LFB30
 2533 0526 01       		.uleb128 0x1
 2534 0527 9C       		.byte	0x9c
 2535 0528 4B050000 		.4byte	0x54b
 2536 052c 0B       		.uleb128 0xb
 2537 052d AD010000 		.4byte	.LASF62
 2538 0531 01       		.byte	0x1
 2539 0532 6704     		.2byte	0x467
 2540 0534 77000000 		.4byte	0x77
 2541 0538 02       		.uleb128 0x2
 2542 0539 91       		.byte	0x91
 2543 053a 64       		.sleb128 -28
 2544 053b 0A       		.uleb128 0xa
 2545 053c 46050000 		.4byte	.LASF20
 2546 0540 01       		.byte	0x1
 2547 0541 6904     		.2byte	0x469
 2548 0543 6B000000 		.4byte	0x6b
 2549 0547 02       		.uleb128 0x2
 2550 0548 91       		.byte	0x91
 2551 0549 6F       		.sleb128 -17
 2552 054a 00       		.byte	0
 2553 054b 09       		.uleb128 0x9
 2554 054c 56040000 		.4byte	.LASF64
 2555 0550 01       		.byte	0x1
 2556 0551 8804     		.2byte	0x488
 2557 0553 00000000 		.4byte	.LFB31
 2558 0557 48000000 		.4byte	.LFE31-.LFB31
 2559 055b 01       		.uleb128 0x1
 2560 055c 9C       		.byte	0x9c
 2561 055d 80050000 		.4byte	0x580
 2562 0561 0B       		.uleb128 0xb
 2563 0562 AD010000 		.4byte	.LASF62
 2564 0566 01       		.byte	0x1
 2565 0567 8804     		.2byte	0x488
 2566 0569 77000000 		.4byte	0x77
 2567 056d 02       		.uleb128 0x2
 2568 056e 91       		.byte	0x91
 2569 056f 64       		.sleb128 -28
 2570 0570 0A       		.uleb128 0xa
 2571 0571 46050000 		.4byte	.LASF20
 2572 0575 01       		.byte	0x1
 2573 0576 8A04     		.2byte	0x48a
 2574 0578 6B000000 		.4byte	0x6b
 2575 057c 02       		.uleb128 0x2
ARM GAS  C:\Users\poornima\AppData\Local\Temp\ccn19ius.s 			page 71


 2576 057d 91       		.byte	0x91
 2577 057e 6F       		.sleb128 -17
 2578 057f 00       		.byte	0
 2579 0580 09       		.uleb128 0x9
 2580 0581 9C020000 		.4byte	.LASF65
 2581 0585 01       		.byte	0x1
 2582 0586 A804     		.2byte	0x4a8
 2583 0588 00000000 		.4byte	.LFB32
 2584 058c 44000000 		.4byte	.LFE32-.LFB32
 2585 0590 01       		.uleb128 0x1
 2586 0591 9C       		.byte	0x9c
 2587 0592 B5050000 		.4byte	0x5b5
 2588 0596 0B       		.uleb128 0xb
 2589 0597 AD010000 		.4byte	.LASF62
 2590 059b 01       		.byte	0x1
 2591 059c A804     		.2byte	0x4a8
 2592 059e 77000000 		.4byte	0x77
 2593 05a2 02       		.uleb128 0x2
 2594 05a3 91       		.byte	0x91
 2595 05a4 64       		.sleb128 -28
 2596 05a5 0A       		.uleb128 0xa
 2597 05a6 46050000 		.4byte	.LASF20
 2598 05aa 01       		.byte	0x1
 2599 05ab AA04     		.2byte	0x4aa
 2600 05ad 6B000000 		.4byte	0x6b
 2601 05b1 02       		.uleb128 0x2
 2602 05b2 91       		.byte	0x91
 2603 05b3 6F       		.sleb128 -17
 2604 05b4 00       		.byte	0
 2605 05b5 09       		.uleb128 0x9
 2606 05b6 15040000 		.4byte	.LASF66
 2607 05ba 01       		.byte	0x1
 2608 05bb C904     		.2byte	0x4c9
 2609 05bd 00000000 		.4byte	.LFB33
 2610 05c1 44000000 		.4byte	.LFE33-.LFB33
 2611 05c5 01       		.uleb128 0x1
 2612 05c6 9C       		.byte	0x9c
 2613 05c7 EA050000 		.4byte	0x5ea
 2614 05cb 0B       		.uleb128 0xb
 2615 05cc AD010000 		.4byte	.LASF62
 2616 05d0 01       		.byte	0x1
 2617 05d1 C904     		.2byte	0x4c9
 2618 05d3 77000000 		.4byte	0x77
 2619 05d7 02       		.uleb128 0x2
 2620 05d8 91       		.byte	0x91
 2621 05d9 64       		.sleb128 -28
 2622 05da 0A       		.uleb128 0xa
 2623 05db 46050000 		.4byte	.LASF20
 2624 05df 01       		.byte	0x1
 2625 05e0 CB04     		.2byte	0x4cb
 2626 05e2 6B000000 		.4byte	0x6b
 2627 05e6 02       		.uleb128 0x2
 2628 05e7 91       		.byte	0x91
 2629 05e8 6F       		.sleb128 -17
 2630 05e9 00       		.byte	0
 2631 05ea 09       		.uleb128 0x9
 2632 05eb DE020000 		.4byte	.LASF67
ARM GAS  C:\Users\poornima\AppData\Local\Temp\ccn19ius.s 			page 72


 2633 05ef 01       		.byte	0x1
 2634 05f0 F104     		.2byte	0x4f1
 2635 05f2 00000000 		.4byte	.LFB34
 2636 05f6 38000000 		.4byte	.LFE34-.LFB34
 2637 05fa 01       		.uleb128 0x1
 2638 05fb 9C       		.byte	0x9c
 2639 05fc 2E060000 		.4byte	0x62e
 2640 0600 0B       		.uleb128 0xb
 2641 0601 B9010000 		.4byte	.LASF38
 2642 0605 01       		.byte	0x1
 2643 0606 F104     		.2byte	0x4f1
 2644 0608 77000000 		.4byte	0x77
 2645 060c 02       		.uleb128 0x2
 2646 060d 91       		.byte	0x91
 2647 060e 64       		.sleb128 -28
 2648 060f 0B       		.uleb128 0xb
 2649 0610 32020000 		.4byte	.LASF68
 2650 0614 01       		.byte	0x1
 2651 0615 F104     		.2byte	0x4f1
 2652 0617 77000000 		.4byte	0x77
 2653 061b 02       		.uleb128 0x2
 2654 061c 91       		.byte	0x91
 2655 061d 60       		.sleb128 -32
 2656 061e 0A       		.uleb128 0xa
 2657 061f 46050000 		.4byte	.LASF20
 2658 0623 01       		.byte	0x1
 2659 0624 F304     		.2byte	0x4f3
 2660 0626 6B000000 		.4byte	0x6b
 2661 062a 02       		.uleb128 0x2
 2662 062b 91       		.byte	0x91
 2663 062c 6F       		.sleb128 -17
 2664 062d 00       		.byte	0
 2665 062e 0D       		.uleb128 0xd
 2666 062f ED010000 		.4byte	.LASF69
 2667 0633 01       		.byte	0x1
 2668 0634 0E05     		.2byte	0x50e
 2669 0636 77000000 		.4byte	0x77
 2670 063a 00000000 		.4byte	.LFB35
 2671 063e 20000000 		.4byte	.LFE35-.LFB35
 2672 0642 01       		.uleb128 0x1
 2673 0643 9C       		.byte	0x9c
 2674 0644 0C       		.uleb128 0xc
 2675 0645 51000000 		.4byte	.LASF70
 2676 0649 01       		.byte	0x1
 2677 064a 2705     		.2byte	0x527
 2678 064c 00000000 		.4byte	.LFB36
 2679 0650 18000000 		.4byte	.LFE36-.LFB36
 2680 0654 01       		.uleb128 0x1
 2681 0655 9C       		.byte	0x9c
 2682 0656 6A060000 		.4byte	0x66a
 2683 065a 0B       		.uleb128 0xb
 2684 065b 2F040000 		.4byte	.LASF71
 2685 065f 01       		.byte	0x1
 2686 0660 2705     		.2byte	0x527
 2687 0662 77000000 		.4byte	0x77
 2688 0666 02       		.uleb128 0x2
 2689 0667 91       		.byte	0x91
ARM GAS  C:\Users\poornima\AppData\Local\Temp\ccn19ius.s 			page 73


 2690 0668 74       		.sleb128 -12
 2691 0669 00       		.byte	0
 2692 066a 0D       		.uleb128 0xd
 2693 066b BE010000 		.4byte	.LASF72
 2694 066f 01       		.byte	0x1
 2695 0670 3E05     		.2byte	0x53e
 2696 0672 77000000 		.4byte	0x77
 2697 0676 00000000 		.4byte	.LFB37
 2698 067a 14000000 		.4byte	.LFE37-.LFB37
 2699 067e 01       		.uleb128 0x1
 2700 067f 9C       		.byte	0x9c
 2701 0680 0D       		.uleb128 0xd
 2702 0681 12020000 		.4byte	.LASF73
 2703 0685 01       		.byte	0x1
 2704 0686 5505     		.2byte	0x555
 2705 0688 77000000 		.4byte	0x77
 2706 068c 00000000 		.4byte	.LFB38
 2707 0690 14000000 		.4byte	.LFE38-.LFB38
 2708 0694 01       		.uleb128 0x1
 2709 0695 9C       		.byte	0x9c
 2710 0696 0C       		.uleb128 0xc
 2711 0697 FA020000 		.4byte	.LASF74
 2712 069b 01       		.byte	0x1
 2713 069c 6C05     		.2byte	0x56c
 2714 069e 00000000 		.4byte	.LFB39
 2715 06a2 18000000 		.4byte	.LFE39-.LFB39
 2716 06a6 01       		.uleb128 0x1
 2717 06a7 9C       		.byte	0x9c
 2718 06a8 BC060000 		.4byte	0x6bc
 2719 06ac 0B       		.uleb128 0xb
 2720 06ad 2F040000 		.4byte	.LASF71
 2721 06b1 01       		.byte	0x1
 2722 06b2 6C05     		.2byte	0x56c
 2723 06b4 77000000 		.4byte	0x77
 2724 06b8 02       		.uleb128 0x2
 2725 06b9 91       		.byte	0x91
 2726 06ba 74       		.sleb128 -12
 2727 06bb 00       		.byte	0
 2728 06bc 0C       		.uleb128 0xc
 2729 06bd 6D030000 		.4byte	.LASF75
 2730 06c1 01       		.byte	0x1
 2731 06c2 8305     		.2byte	0x583
 2732 06c4 00000000 		.4byte	.LFB40
 2733 06c8 18000000 		.4byte	.LFE40-.LFB40
 2734 06cc 01       		.uleb128 0x1
 2735 06cd 9C       		.byte	0x9c
 2736 06ce E2060000 		.4byte	0x6e2
 2737 06d2 0B       		.uleb128 0xb
 2738 06d3 2F040000 		.4byte	.LASF71
 2739 06d7 01       		.byte	0x1
 2740 06d8 8305     		.2byte	0x583
 2741 06da 77000000 		.4byte	0x77
 2742 06de 02       		.uleb128 0x2
 2743 06df 91       		.byte	0x91
 2744 06e0 74       		.sleb128 -12
 2745 06e1 00       		.byte	0
 2746 06e2 0E       		.uleb128 0xe
ARM GAS  C:\Users\poornima\AppData\Local\Temp\ccn19ius.s 			page 74


 2747 06e3 3C000000 		.4byte	.LASF79
 2748 06e7 01       		.byte	0x1
 2749 06e8 15       		.byte	0x15
 2750 06e9 6B000000 		.4byte	0x6b
 2751 06ed 05       		.uleb128 0x5
 2752 06ee 03       		.byte	0x3
 2753 06ef 00000000 		.4byte	LED_CONTROL1_initVar
 2754 06f3 00       		.byte	0
 2755              		.section	.debug_abbrev,"",%progbits
 2756              	.Ldebug_abbrev0:
 2757 0000 01       		.uleb128 0x1
 2758 0001 11       		.uleb128 0x11
 2759 0002 01       		.byte	0x1
 2760 0003 25       		.uleb128 0x25
 2761 0004 0E       		.uleb128 0xe
 2762 0005 13       		.uleb128 0x13
 2763 0006 0B       		.uleb128 0xb
 2764 0007 03       		.uleb128 0x3
 2765 0008 0E       		.uleb128 0xe
 2766 0009 1B       		.uleb128 0x1b
 2767 000a 0E       		.uleb128 0xe
 2768 000b 55       		.uleb128 0x55
 2769 000c 17       		.uleb128 0x17
 2770 000d 11       		.uleb128 0x11
 2771 000e 01       		.uleb128 0x1
 2772 000f 10       		.uleb128 0x10
 2773 0010 17       		.uleb128 0x17
 2774 0011 00       		.byte	0
 2775 0012 00       		.byte	0
 2776 0013 02       		.uleb128 0x2
 2777 0014 24       		.uleb128 0x24
 2778 0015 00       		.byte	0
 2779 0016 0B       		.uleb128 0xb
 2780 0017 0B       		.uleb128 0xb
 2781 0018 3E       		.uleb128 0x3e
 2782 0019 0B       		.uleb128 0xb
 2783 001a 03       		.uleb128 0x3
 2784 001b 0E       		.uleb128 0xe
 2785 001c 00       		.byte	0
 2786 001d 00       		.byte	0
 2787 001e 03       		.uleb128 0x3
 2788 001f 24       		.uleb128 0x24
 2789 0020 00       		.byte	0
 2790 0021 0B       		.uleb128 0xb
 2791 0022 0B       		.uleb128 0xb
 2792 0023 3E       		.uleb128 0x3e
 2793 0024 0B       		.uleb128 0xb
 2794 0025 03       		.uleb128 0x3
 2795 0026 08       		.uleb128 0x8
 2796 0027 00       		.byte	0
 2797 0028 00       		.byte	0
 2798 0029 04       		.uleb128 0x4
 2799 002a 16       		.uleb128 0x16
 2800 002b 00       		.byte	0
 2801 002c 03       		.uleb128 0x3
 2802 002d 0E       		.uleb128 0xe
 2803 002e 3A       		.uleb128 0x3a
ARM GAS  C:\Users\poornima\AppData\Local\Temp\ccn19ius.s 			page 75


 2804 002f 0B       		.uleb128 0xb
 2805 0030 3B       		.uleb128 0x3b
 2806 0031 05       		.uleb128 0x5
 2807 0032 49       		.uleb128 0x49
 2808 0033 13       		.uleb128 0x13
 2809 0034 00       		.byte	0
 2810 0035 00       		.byte	0
 2811 0036 05       		.uleb128 0x5
 2812 0037 35       		.uleb128 0x35
 2813 0038 00       		.byte	0
 2814 0039 49       		.uleb128 0x49
 2815 003a 13       		.uleb128 0x13
 2816 003b 00       		.byte	0
 2817 003c 00       		.byte	0
 2818 003d 06       		.uleb128 0x6
 2819 003e 2E       		.uleb128 0x2e
 2820 003f 00       		.byte	0
 2821 0040 3F       		.uleb128 0x3f
 2822 0041 19       		.uleb128 0x19
 2823 0042 03       		.uleb128 0x3
 2824 0043 0E       		.uleb128 0xe
 2825 0044 3A       		.uleb128 0x3a
 2826 0045 0B       		.uleb128 0xb
 2827 0046 3B       		.uleb128 0x3b
 2828 0047 0B       		.uleb128 0xb
 2829 0048 27       		.uleb128 0x27
 2830 0049 19       		.uleb128 0x19
 2831 004a 11       		.uleb128 0x11
 2832 004b 01       		.uleb128 0x1
 2833 004c 12       		.uleb128 0x12
 2834 004d 06       		.uleb128 0x6
 2835 004e 40       		.uleb128 0x40
 2836 004f 18       		.uleb128 0x18
 2837 0050 9642     		.uleb128 0x2116
 2838 0052 19       		.uleb128 0x19
 2839 0053 00       		.byte	0
 2840 0054 00       		.byte	0
 2841 0055 07       		.uleb128 0x7
 2842 0056 2E       		.uleb128 0x2e
 2843 0057 01       		.byte	0x1
 2844 0058 3F       		.uleb128 0x3f
 2845 0059 19       		.uleb128 0x19
 2846 005a 03       		.uleb128 0x3
 2847 005b 0E       		.uleb128 0xe
 2848 005c 3A       		.uleb128 0x3a
 2849 005d 0B       		.uleb128 0xb
 2850 005e 3B       		.uleb128 0x3b
 2851 005f 0B       		.uleb128 0xb
 2852 0060 27       		.uleb128 0x27
 2853 0061 19       		.uleb128 0x19
 2854 0062 11       		.uleb128 0x11
 2855 0063 01       		.uleb128 0x1
 2856 0064 12       		.uleb128 0x12
 2857 0065 06       		.uleb128 0x6
 2858 0066 40       		.uleb128 0x40
 2859 0067 18       		.uleb128 0x18
 2860 0068 9642     		.uleb128 0x2116
ARM GAS  C:\Users\poornima\AppData\Local\Temp\ccn19ius.s 			page 76


 2861 006a 19       		.uleb128 0x19
 2862 006b 01       		.uleb128 0x1
 2863 006c 13       		.uleb128 0x13
 2864 006d 00       		.byte	0
 2865 006e 00       		.byte	0
 2866 006f 08       		.uleb128 0x8
 2867 0070 34       		.uleb128 0x34
 2868 0071 00       		.byte	0
 2869 0072 03       		.uleb128 0x3
 2870 0073 0E       		.uleb128 0xe
 2871 0074 3A       		.uleb128 0x3a
 2872 0075 0B       		.uleb128 0xb
 2873 0076 3B       		.uleb128 0x3b
 2874 0077 0B       		.uleb128 0xb
 2875 0078 49       		.uleb128 0x49
 2876 0079 13       		.uleb128 0x13
 2877 007a 02       		.uleb128 0x2
 2878 007b 18       		.uleb128 0x18
 2879 007c 00       		.byte	0
 2880 007d 00       		.byte	0
 2881 007e 09       		.uleb128 0x9
 2882 007f 2E       		.uleb128 0x2e
 2883 0080 01       		.byte	0x1
 2884 0081 3F       		.uleb128 0x3f
 2885 0082 19       		.uleb128 0x19
 2886 0083 03       		.uleb128 0x3
 2887 0084 0E       		.uleb128 0xe
 2888 0085 3A       		.uleb128 0x3a
 2889 0086 0B       		.uleb128 0xb
 2890 0087 3B       		.uleb128 0x3b
 2891 0088 05       		.uleb128 0x5
 2892 0089 27       		.uleb128 0x27
 2893 008a 19       		.uleb128 0x19
 2894 008b 11       		.uleb128 0x11
 2895 008c 01       		.uleb128 0x1
 2896 008d 12       		.uleb128 0x12
 2897 008e 06       		.uleb128 0x6
 2898 008f 40       		.uleb128 0x40
 2899 0090 18       		.uleb128 0x18
 2900 0091 9642     		.uleb128 0x2116
 2901 0093 19       		.uleb128 0x19
 2902 0094 01       		.uleb128 0x1
 2903 0095 13       		.uleb128 0x13
 2904 0096 00       		.byte	0
 2905 0097 00       		.byte	0
 2906 0098 0A       		.uleb128 0xa
 2907 0099 34       		.uleb128 0x34
 2908 009a 00       		.byte	0
 2909 009b 03       		.uleb128 0x3
 2910 009c 0E       		.uleb128 0xe
 2911 009d 3A       		.uleb128 0x3a
 2912 009e 0B       		.uleb128 0xb
 2913 009f 3B       		.uleb128 0x3b
 2914 00a0 05       		.uleb128 0x5
 2915 00a1 49       		.uleb128 0x49
 2916 00a2 13       		.uleb128 0x13
 2917 00a3 02       		.uleb128 0x2
ARM GAS  C:\Users\poornima\AppData\Local\Temp\ccn19ius.s 			page 77


 2918 00a4 18       		.uleb128 0x18
 2919 00a5 00       		.byte	0
 2920 00a6 00       		.byte	0
 2921 00a7 0B       		.uleb128 0xb
 2922 00a8 05       		.uleb128 0x5
 2923 00a9 00       		.byte	0
 2924 00aa 03       		.uleb128 0x3
 2925 00ab 0E       		.uleb128 0xe
 2926 00ac 3A       		.uleb128 0x3a
 2927 00ad 0B       		.uleb128 0xb
 2928 00ae 3B       		.uleb128 0x3b
 2929 00af 05       		.uleb128 0x5
 2930 00b0 49       		.uleb128 0x49
 2931 00b1 13       		.uleb128 0x13
 2932 00b2 02       		.uleb128 0x2
 2933 00b3 18       		.uleb128 0x18
 2934 00b4 00       		.byte	0
 2935 00b5 00       		.byte	0
 2936 00b6 0C       		.uleb128 0xc
 2937 00b7 2E       		.uleb128 0x2e
 2938 00b8 01       		.byte	0x1
 2939 00b9 3F       		.uleb128 0x3f
 2940 00ba 19       		.uleb128 0x19
 2941 00bb 03       		.uleb128 0x3
 2942 00bc 0E       		.uleb128 0xe
 2943 00bd 3A       		.uleb128 0x3a
 2944 00be 0B       		.uleb128 0xb
 2945 00bf 3B       		.uleb128 0x3b
 2946 00c0 05       		.uleb128 0x5
 2947 00c1 27       		.uleb128 0x27
 2948 00c2 19       		.uleb128 0x19
 2949 00c3 11       		.uleb128 0x11
 2950 00c4 01       		.uleb128 0x1
 2951 00c5 12       		.uleb128 0x12
 2952 00c6 06       		.uleb128 0x6
 2953 00c7 40       		.uleb128 0x40
 2954 00c8 18       		.uleb128 0x18
 2955 00c9 9742     		.uleb128 0x2117
 2956 00cb 19       		.uleb128 0x19
 2957 00cc 01       		.uleb128 0x1
 2958 00cd 13       		.uleb128 0x13
 2959 00ce 00       		.byte	0
 2960 00cf 00       		.byte	0
 2961 00d0 0D       		.uleb128 0xd
 2962 00d1 2E       		.uleb128 0x2e
 2963 00d2 00       		.byte	0
 2964 00d3 3F       		.uleb128 0x3f
 2965 00d4 19       		.uleb128 0x19
 2966 00d5 03       		.uleb128 0x3
 2967 00d6 0E       		.uleb128 0xe
 2968 00d7 3A       		.uleb128 0x3a
 2969 00d8 0B       		.uleb128 0xb
 2970 00d9 3B       		.uleb128 0x3b
 2971 00da 05       		.uleb128 0x5
 2972 00db 27       		.uleb128 0x27
 2973 00dc 19       		.uleb128 0x19
 2974 00dd 49       		.uleb128 0x49
ARM GAS  C:\Users\poornima\AppData\Local\Temp\ccn19ius.s 			page 78


 2975 00de 13       		.uleb128 0x13
 2976 00df 11       		.uleb128 0x11
 2977 00e0 01       		.uleb128 0x1
 2978 00e1 12       		.uleb128 0x12
 2979 00e2 06       		.uleb128 0x6
 2980 00e3 40       		.uleb128 0x40
 2981 00e4 18       		.uleb128 0x18
 2982 00e5 9742     		.uleb128 0x2117
 2983 00e7 19       		.uleb128 0x19
 2984 00e8 00       		.byte	0
 2985 00e9 00       		.byte	0
 2986 00ea 0E       		.uleb128 0xe
 2987 00eb 34       		.uleb128 0x34
 2988 00ec 00       		.byte	0
 2989 00ed 03       		.uleb128 0x3
 2990 00ee 0E       		.uleb128 0xe
 2991 00ef 3A       		.uleb128 0x3a
 2992 00f0 0B       		.uleb128 0xb
 2993 00f1 3B       		.uleb128 0x3b
 2994 00f2 0B       		.uleb128 0xb
 2995 00f3 49       		.uleb128 0x49
 2996 00f4 13       		.uleb128 0x13
 2997 00f5 3F       		.uleb128 0x3f
 2998 00f6 19       		.uleb128 0x19
 2999 00f7 02       		.uleb128 0x2
 3000 00f8 18       		.uleb128 0x18
 3001 00f9 00       		.byte	0
 3002 00fa 00       		.byte	0
 3003 00fb 00       		.byte	0
 3004              		.section	.debug_aranges,"",%progbits
 3005 0000 54010000 		.4byte	0x154
 3006 0004 0200     		.2byte	0x2
 3007 0006 00000000 		.4byte	.Ldebug_info0
 3008 000a 04       		.byte	0x4
 3009 000b 00       		.byte	0
 3010 000c 0000     		.2byte	0
 3011 000e 0000     		.2byte	0
 3012 0010 00000000 		.4byte	.LFB1
 3013 0014 5C000000 		.4byte	.LFE1-.LFB1
 3014 0018 00000000 		.4byte	.LFB2
 3015 001c 38000000 		.4byte	.LFE2-.LFB2
 3016 0020 00000000 		.4byte	.LFB3
 3017 0024 24000000 		.4byte	.LFE3-.LFB3
 3018 0028 00000000 		.4byte	.LFB4
 3019 002c 30000000 		.4byte	.LFE4-.LFB4
 3020 0030 00000000 		.4byte	.LFB5
 3021 0034 48000000 		.4byte	.LFE5-.LFB5
 3022 0038 00000000 		.4byte	.LFB6
 3023 003c 48000000 		.4byte	.LFE6-.LFB6
 3024 0040 00000000 		.4byte	.LFB7
 3025 0044 48000000 		.4byte	.LFE7-.LFB7
 3026 0048 00000000 		.4byte	.LFB8
 3027 004c 4C000000 		.4byte	.LFE8-.LFB8
 3028 0050 00000000 		.4byte	.LFB9
 3029 0054 1C000000 		.4byte	.LFE9-.LFB9
 3030 0058 00000000 		.4byte	.LFB10
 3031 005c 48000000 		.4byte	.LFE10-.LFB10
ARM GAS  C:\Users\poornima\AppData\Local\Temp\ccn19ius.s 			page 79


 3032 0060 00000000 		.4byte	.LFB11
 3033 0064 48000000 		.4byte	.LFE11-.LFB11
 3034 0068 00000000 		.4byte	.LFB12
 3035 006c 4C000000 		.4byte	.LFE12-.LFB12
 3036 0070 00000000 		.4byte	.LFB13
 3037 0074 48000000 		.4byte	.LFE13-.LFB13
 3038 0078 00000000 		.4byte	.LFB14
 3039 007c 1C000000 		.4byte	.LFE14-.LFB14
 3040 0080 00000000 		.4byte	.LFB15
 3041 0084 18000000 		.4byte	.LFE15-.LFB15
 3042 0088 00000000 		.4byte	.LFB16
 3043 008c 48000000 		.4byte	.LFE16-.LFB16
 3044 0090 00000000 		.4byte	.LFB17
 3045 0094 1C000000 		.4byte	.LFE17-.LFB17
 3046 0098 00000000 		.4byte	.LFB18
 3047 009c 18000000 		.4byte	.LFE18-.LFB18
 3048 00a0 00000000 		.4byte	.LFB19
 3049 00a4 48000000 		.4byte	.LFE19-.LFB19
 3050 00a8 00000000 		.4byte	.LFB20
 3051 00ac 1C000000 		.4byte	.LFE20-.LFB20
 3052 00b0 00000000 		.4byte	.LFB21
 3053 00b4 18000000 		.4byte	.LFE21-.LFB21
 3054 00b8 00000000 		.4byte	.LFB22
 3055 00bc 48000000 		.4byte	.LFE22-.LFB22
 3056 00c0 00000000 		.4byte	.LFB23
 3057 00c4 1C000000 		.4byte	.LFE23-.LFB23
 3058 00c8 00000000 		.4byte	.LFB24
 3059 00cc 18000000 		.4byte	.LFE24-.LFB24
 3060 00d0 00000000 		.4byte	.LFB25
 3061 00d4 1C000000 		.4byte	.LFE25-.LFB25
 3062 00d8 00000000 		.4byte	.LFB26
 3063 00dc 18000000 		.4byte	.LFE26-.LFB26
 3064 00e0 00000000 		.4byte	.LFB27
 3065 00e4 18000000 		.4byte	.LFE27-.LFB27
 3066 00e8 00000000 		.4byte	.LFB28
 3067 00ec 18000000 		.4byte	.LFE28-.LFB28
 3068 00f0 00000000 		.4byte	.LFB29
 3069 00f4 44000000 		.4byte	.LFE29-.LFB29
 3070 00f8 00000000 		.4byte	.LFB30
 3071 00fc 44000000 		.4byte	.LFE30-.LFB30
 3072 0100 00000000 		.4byte	.LFB31
 3073 0104 48000000 		.4byte	.LFE31-.LFB31
 3074 0108 00000000 		.4byte	.LFB32
 3075 010c 44000000 		.4byte	.LFE32-.LFB32
 3076 0110 00000000 		.4byte	.LFB33
 3077 0114 44000000 		.4byte	.LFE33-.LFB33
 3078 0118 00000000 		.4byte	.LFB34
 3079 011c 38000000 		.4byte	.LFE34-.LFB34
 3080 0120 00000000 		.4byte	.LFB35
 3081 0124 20000000 		.4byte	.LFE35-.LFB35
 3082 0128 00000000 		.4byte	.LFB36
 3083 012c 18000000 		.4byte	.LFE36-.LFB36
 3084 0130 00000000 		.4byte	.LFB37
 3085 0134 14000000 		.4byte	.LFE37-.LFB37
 3086 0138 00000000 		.4byte	.LFB38
 3087 013c 14000000 		.4byte	.LFE38-.LFB38
 3088 0140 00000000 		.4byte	.LFB39
ARM GAS  C:\Users\poornima\AppData\Local\Temp\ccn19ius.s 			page 80


 3089 0144 18000000 		.4byte	.LFE39-.LFB39
 3090 0148 00000000 		.4byte	.LFB40
 3091 014c 18000000 		.4byte	.LFE40-.LFB40
 3092 0150 00000000 		.4byte	0
 3093 0154 00000000 		.4byte	0
 3094              		.section	.debug_ranges,"",%progbits
 3095              	.Ldebug_ranges0:
 3096 0000 00000000 		.4byte	.LFB1
 3097 0004 5C000000 		.4byte	.LFE1
 3098 0008 00000000 		.4byte	.LFB2
 3099 000c 38000000 		.4byte	.LFE2
 3100 0010 00000000 		.4byte	.LFB3
 3101 0014 24000000 		.4byte	.LFE3
 3102 0018 00000000 		.4byte	.LFB4
 3103 001c 30000000 		.4byte	.LFE4
 3104 0020 00000000 		.4byte	.LFB5
 3105 0024 48000000 		.4byte	.LFE5
 3106 0028 00000000 		.4byte	.LFB6
 3107 002c 48000000 		.4byte	.LFE6
 3108 0030 00000000 		.4byte	.LFB7
 3109 0034 48000000 		.4byte	.LFE7
 3110 0038 00000000 		.4byte	.LFB8
 3111 003c 4C000000 		.4byte	.LFE8
 3112 0040 00000000 		.4byte	.LFB9
 3113 0044 1C000000 		.4byte	.LFE9
 3114 0048 00000000 		.4byte	.LFB10
 3115 004c 48000000 		.4byte	.LFE10
 3116 0050 00000000 		.4byte	.LFB11
 3117 0054 48000000 		.4byte	.LFE11
 3118 0058 00000000 		.4byte	.LFB12
 3119 005c 4C000000 		.4byte	.LFE12
 3120 0060 00000000 		.4byte	.LFB13
 3121 0064 48000000 		.4byte	.LFE13
 3122 0068 00000000 		.4byte	.LFB14
 3123 006c 1C000000 		.4byte	.LFE14
 3124 0070 00000000 		.4byte	.LFB15
 3125 0074 18000000 		.4byte	.LFE15
 3126 0078 00000000 		.4byte	.LFB16
 3127 007c 48000000 		.4byte	.LFE16
 3128 0080 00000000 		.4byte	.LFB17
 3129 0084 1C000000 		.4byte	.LFE17
 3130 0088 00000000 		.4byte	.LFB18
 3131 008c 18000000 		.4byte	.LFE18
 3132 0090 00000000 		.4byte	.LFB19
 3133 0094 48000000 		.4byte	.LFE19
 3134 0098 00000000 		.4byte	.LFB20
 3135 009c 1C000000 		.4byte	.LFE20
 3136 00a0 00000000 		.4byte	.LFB21
 3137 00a4 18000000 		.4byte	.LFE21
 3138 00a8 00000000 		.4byte	.LFB22
 3139 00ac 48000000 		.4byte	.LFE22
 3140 00b0 00000000 		.4byte	.LFB23
 3141 00b4 1C000000 		.4byte	.LFE23
 3142 00b8 00000000 		.4byte	.LFB24
 3143 00bc 18000000 		.4byte	.LFE24
 3144 00c0 00000000 		.4byte	.LFB25
 3145 00c4 1C000000 		.4byte	.LFE25
ARM GAS  C:\Users\poornima\AppData\Local\Temp\ccn19ius.s 			page 81


 3146 00c8 00000000 		.4byte	.LFB26
 3147 00cc 18000000 		.4byte	.LFE26
 3148 00d0 00000000 		.4byte	.LFB27
 3149 00d4 18000000 		.4byte	.LFE27
 3150 00d8 00000000 		.4byte	.LFB28
 3151 00dc 18000000 		.4byte	.LFE28
 3152 00e0 00000000 		.4byte	.LFB29
 3153 00e4 44000000 		.4byte	.LFE29
 3154 00e8 00000000 		.4byte	.LFB30
 3155 00ec 44000000 		.4byte	.LFE30
 3156 00f0 00000000 		.4byte	.LFB31
 3157 00f4 48000000 		.4byte	.LFE31
 3158 00f8 00000000 		.4byte	.LFB32
 3159 00fc 44000000 		.4byte	.LFE32
 3160 0100 00000000 		.4byte	.LFB33
 3161 0104 44000000 		.4byte	.LFE33
 3162 0108 00000000 		.4byte	.LFB34
 3163 010c 38000000 		.4byte	.LFE34
 3164 0110 00000000 		.4byte	.LFB35
 3165 0114 20000000 		.4byte	.LFE35
 3166 0118 00000000 		.4byte	.LFB36
 3167 011c 18000000 		.4byte	.LFE36
 3168 0120 00000000 		.4byte	.LFB37
 3169 0124 14000000 		.4byte	.LFE37
 3170 0128 00000000 		.4byte	.LFB38
 3171 012c 14000000 		.4byte	.LFE38
 3172 0130 00000000 		.4byte	.LFB39
 3173 0134 18000000 		.4byte	.LFE39
 3174 0138 00000000 		.4byte	.LFB40
 3175 013c 18000000 		.4byte	.LFE40
 3176 0140 00000000 		.4byte	0
 3177 0144 00000000 		.4byte	0
 3178              		.section	.debug_line,"",%progbits
 3179              	.Ldebug_line0:
 3180 0000 76030000 		.section	.debug_str,"MS",%progbits,1
 3180      02004900 
 3180      00000201 
 3180      FB0E0D00 
 3180      01010101 
 3181              	.LASF40:
 3182 0000 636F756E 		.ascii	"count\000"
 3182      7400
 3183              	.LASF41:
 3184 0006 4C45445F 		.ascii	"LED_CONTROL1_SetCounterMode\000"
 3184      434F4E54 
 3184      524F4C31 
 3184      5F536574 
 3184      436F756E 
 3185              	.LASF37:
 3186 0022 4C45445F 		.ascii	"LED_CONTROL1_SetPWMInvert\000"
 3186      434F4E54 
 3186      524F4C31 
 3186      5F536574 
 3186      50574D49 
 3187              	.LASF79:
 3188 003c 4C45445F 		.ascii	"LED_CONTROL1_initVar\000"
 3188      434F4E54 
ARM GAS  C:\Users\poornima\AppData\Local\Temp\ccn19ius.s 			page 82


 3188      524F4C31 
 3188      5F696E69 
 3188      74566172 
 3189              	.LASF70:
 3190 0051 4C45445F 		.ascii	"LED_CONTROL1_SetInterruptMode\000"
 3190      434F4E54 
 3190      524F4C31 
 3190      5F536574 
 3190      496E7465 
 3191              	.LASF44:
 3192 006f 70657269 		.ascii	"period\000"
 3192      6F6400
 3193              	.LASF55:
 3194 0076 4C45445F 		.ascii	"LED_CONTROL1_ReadCompare\000"
 3194      434F4E54 
 3194      524F4C31 
 3194      5F526561 
 3194      64436F6D 
 3195              	.LASF7:
 3196 008f 6C6F6E67 		.ascii	"long long unsigned int\000"
 3196      206C6F6E 
 3196      6720756E 
 3196      7369676E 
 3196      65642069 
 3197              	.LASF51:
 3198 00a6 4C45445F 		.ascii	"LED_CONTROL1_ReadPeriodBuf\000"
 3198      434F4E54 
 3198      524F4C31 
 3198      5F526561 
 3198      64506572 
 3199              	.LASF24:
 3200 00c1 71644D6F 		.ascii	"qdMode\000"
 3200      646500
 3201              	.LASF61:
 3202 00c8 4C45445F 		.ascii	"LED_CONTROL1_SetCaptureMode\000"
 3202      434F4E54 
 3202      524F4C31 
 3202      5F536574 
 3202      43617074 
 3203              	.LASF6:
 3204 00e4 6C6F6E67 		.ascii	"long long int\000"
 3204      206C6F6E 
 3204      6720696E 
 3204      7400
 3205              	.LASF0:
 3206 00f2 7369676E 		.ascii	"signed char\000"
 3206      65642063 
 3206      68617200 
 3207              	.LASF19:
 3208 00fe 4C45445F 		.ascii	"LED_CONTROL1_Stop\000"
 3208      434F4E54 
 3208      524F4C31 
 3208      5F53746F 
 3208      7000
 3209              	.LASF52:
 3210 0110 4C45445F 		.ascii	"LED_CONTROL1_SetPeriodSwap\000"
 3210      434F4E54 
ARM GAS  C:\Users\poornima\AppData\Local\Temp\ccn19ius.s 			page 83


 3210      524F4C31 
 3210      5F536574 
 3210      50657269 
 3211              	.LASF4:
 3212 012b 6C6F6E67 		.ascii	"long int\000"
 3212      20696E74 
 3212      00
 3213              	.LASF46:
 3214 0134 4C45445F 		.ascii	"LED_CONTROL1_ReadPeriod\000"
 3214      434F4E54 
 3214      524F4C31 
 3214      5F526561 
 3214      64506572 
 3215              	.LASF45:
 3216 014c 4C45445F 		.ascii	"LED_CONTROL1_ReadCounter\000"
 3216      434F4E54 
 3216      524F4C31 
 3216      5F526561 
 3216      64436F75 
 3217              	.LASF9:
 3218 0165 75696E74 		.ascii	"uint8\000"
 3218      3800
 3219              	.LASF12:
 3220 016b 646F7562 		.ascii	"double\000"
 3220      6C6500
 3221              	.LASF27:
 3222 0172 4C45445F 		.ascii	"LED_CONTROL1_SetOneShot\000"
 3222      434F4E54 
 3222      524F4C31 
 3222      5F536574 
 3222      4F6E6553 
 3223              	.LASF10:
 3224 018a 75696E74 		.ascii	"uint32\000"
 3224      333200
 3225              	.LASF47:
 3226 0191 4C45445F 		.ascii	"LED_CONTROL1_SetCompareSwap\000"
 3226      434F4E54 
 3226      524F4C31 
 3226      5F536574 
 3226      436F6D70 
 3227              	.LASF62:
 3228 01ad 74726967 		.ascii	"triggerMode\000"
 3228      6765724D 
 3228      6F646500 
 3229              	.LASF38:
 3230 01b9 6D61736B 		.ascii	"mask\000"
 3230      00
 3231              	.LASF72:
 3232 01be 4C45445F 		.ascii	"LED_CONTROL1_GetInterruptSourceMasked\000"
 3232      434F4E54 
 3232      524F4C31 
 3232      5F476574 
 3232      496E7465 
 3233              	.LASF36:
 3234 01e4 64656164 		.ascii	"deadTime\000"
 3234      54696D65 
 3234      00
ARM GAS  C:\Users\poornima\AppData\Local\Temp\ccn19ius.s 			page 84


 3235              	.LASF69:
 3236 01ed 4C45445F 		.ascii	"LED_CONTROL1_ReadStatus\000"
 3236      434F4E54 
 3236      524F4C31 
 3236      5F526561 
 3236      64537461 
 3237              	.LASF8:
 3238 0205 756E7369 		.ascii	"unsigned int\000"
 3238      676E6564 
 3238      20696E74 
 3238      00
 3239              	.LASF73:
 3240 0212 4C45445F 		.ascii	"LED_CONTROL1_GetInterruptSource\000"
 3240      434F4E54 
 3240      524F4C31 
 3240      5F476574 
 3240      496E7465 
 3241              	.LASF68:
 3242 0232 636F6D6D 		.ascii	"command\000"
 3242      616E6400 
 3243              	.LASF5:
 3244 023a 6C6F6E67 		.ascii	"long unsigned int\000"
 3244      20756E73 
 3244      69676E65 
 3244      6420696E 
 3244      7400
 3245              	.LASF30:
 3246 024c 6D6F6465 		.ascii	"modeMask\000"
 3246      4D61736B 
 3246      00
 3247              	.LASF31:
 3248 0255 4C45445F 		.ascii	"LED_CONTROL1_SetPWMSyncKill\000"
 3248      434F4E54 
 3248      524F4C31 
 3248      5F536574 
 3248      50574D53 
 3249              	.LASF29:
 3250 0271 4C45445F 		.ascii	"LED_CONTROL1_SetPWMMode\000"
 3250      434F4E54 
 3250      524F4C31 
 3250      5F536574 
 3250      50574D4D 
 3251              	.LASF3:
 3252 0289 73686F72 		.ascii	"short unsigned int\000"
 3252      7420756E 
 3252      7369676E 
 3252      65642069 
 3252      6E7400
 3253              	.LASF65:
 3254 029c 4C45445F 		.ascii	"LED_CONTROL1_SetStopMode\000"
 3254      434F4E54 
 3254      524F4C31 
 3254      5F536574 
 3254      53746F70 
 3255              	.LASF28:
 3256 02b5 6F6E6553 		.ascii	"oneShotEnable\000"
 3256      686F7445 
ARM GAS  C:\Users\poornima\AppData\Local\Temp\ccn19ius.s 			page 85


 3256      6E61626C 
 3256      6500
 3257              	.LASF21:
 3258 02c3 4C45445F 		.ascii	"LED_CONTROL1_SetMode\000"
 3258      434F4E54 
 3258      524F4C31 
 3258      5F536574 
 3258      4D6F6465 
 3259              	.LASF14:
 3260 02d8 72656733 		.ascii	"reg32\000"
 3260      3200
 3261              	.LASF67:
 3262 02de 4C45445F 		.ascii	"LED_CONTROL1_TriggerCommand\000"
 3262      434F4E54 
 3262      524F4C31 
 3262      5F547269 
 3262      67676572 
 3263              	.LASF74:
 3264 02fa 4C45445F 		.ascii	"LED_CONTROL1_ClearInterrupt\000"
 3264      434F4E54 
 3264      524F4C31 
 3264      5F436C65 
 3264      6172496E 
 3265              	.LASF15:
 3266 0316 73697A65 		.ascii	"sizetype\000"
 3266      74797065 
 3266      00
 3267              	.LASF33:
 3268 031f 4C45445F 		.ascii	"LED_CONTROL1_SetPWMStopOnKill\000"
 3268      434F4E54 
 3268      524F4C31 
 3268      5F536574 
 3268      50574D53 
 3269              	.LASF32:
 3270 033d 73796E63 		.ascii	"syncKillEnable\000"
 3270      4B696C6C 
 3270      456E6162 
 3270      6C6500
 3271              	.LASF54:
 3272 034c 636F6D70 		.ascii	"compare\000"
 3272      61726500 
 3273              	.LASF43:
 3274 0354 4C45445F 		.ascii	"LED_CONTROL1_WritePeriod\000"
 3274      434F4E54 
 3274      524F4C31 
 3274      5F577269 
 3274      74655065 
 3275              	.LASF75:
 3276 036d 4C45445F 		.ascii	"LED_CONTROL1_SetInterrupt\000"
 3276      434F4E54 
 3276      524F4C31 
 3276      5F536574 
 3276      496E7465 
 3277              	.LASF16:
 3278 0387 4C45445F 		.ascii	"LED_CONTROL1_Init\000"
 3278      434F4E54 
 3278      524F4C31 
ARM GAS  C:\Users\poornima\AppData\Local\Temp\ccn19ius.s 			page 86


 3278      5F496E69 
 3278      7400
 3279              	.LASF18:
 3280 0399 4C45445F 		.ascii	"LED_CONTROL1_Enable\000"
 3280      434F4E54 
 3280      524F4C31 
 3280      5F456E61 
 3280      626C6500 
 3281              	.LASF17:
 3282 03ad 4C45445F 		.ascii	"LED_CONTROL1_Start\000"
 3282      434F4E54 
 3282      524F4C31 
 3282      5F537461 
 3282      727400
 3283              	.LASF11:
 3284 03c0 666C6F61 		.ascii	"float\000"
 3284      7400
 3285              	.LASF26:
 3286 03c6 70726573 		.ascii	"prescaler\000"
 3286      63616C65 
 3286      7200
 3287              	.LASF1:
 3288 03d0 756E7369 		.ascii	"unsigned char\000"
 3288      676E6564 
 3288      20636861 
 3288      7200
 3289              	.LASF34:
 3290 03de 73746F70 		.ascii	"stopOnKillEnable\000"
 3290      4F6E4B69 
 3290      6C6C456E 
 3290      61626C65 
 3290      00
 3291              	.LASF35:
 3292 03ef 4C45445F 		.ascii	"LED_CONTROL1_SetPWMDeadTime\000"
 3292      434F4E54 
 3292      524F4C31 
 3292      5F536574 
 3292      50574D44 
 3293              	.LASF2:
 3294 040b 73686F72 		.ascii	"short int\000"
 3294      7420696E 
 3294      7400
 3295              	.LASF66:
 3296 0415 4C45445F 		.ascii	"LED_CONTROL1_SetCountMode\000"
 3296      434F4E54 
 3296      524F4C31 
 3296      5F536574 
 3296      436F756E 
 3297              	.LASF71:
 3298 042f 696E7465 		.ascii	"interruptMask\000"
 3298      72727570 
 3298      744D6173 
 3298      6B00
 3299              	.LASF59:
 3300 043d 4C45445F 		.ascii	"LED_CONTROL1_ReadCapture\000"
 3300      434F4E54 
 3300      524F4C31 
ARM GAS  C:\Users\poornima\AppData\Local\Temp\ccn19ius.s 			page 87


 3300      5F526561 
 3300      64436170 
 3301              	.LASF64:
 3302 0456 4C45445F 		.ascii	"LED_CONTROL1_SetStartMode\000"
 3302      434F4E54 
 3302      524F4C31 
 3302      5F536574 
 3302      53746172 
 3303              	.LASF58:
 3304 0470 4C45445F 		.ascii	"LED_CONTROL1_ReadCompareBuf\000"
 3304      434F4E54 
 3304      524F4C31 
 3304      5F526561 
 3304      64436F6D 
 3305              	.LASF13:
 3306 048c 63686172 		.ascii	"char\000"
 3306      00
 3307              	.LASF78:
 3308 0491 433A5C55 		.ascii	"C:\\Users\\poornima\\Documents\\GitHub\\thingTouch\\"
 3308      73657273 
 3308      5C706F6F 
 3308      726E696D 
 3308      615C446F 
 3309 04bf 32463553 		.ascii	"2F5S1SOC.cydsn\000"
 3309      31534F43 
 3309      2E637964 
 3309      736E00
 3310              	.LASF53:
 3311 04ce 4C45445F 		.ascii	"LED_CONTROL1_WriteCompare\000"
 3311      434F4E54 
 3311      524F4C31 
 3311      5F577269 
 3311      7465436F 
 3312              	.LASF23:
 3313 04e8 6D6F6465 		.ascii	"mode\000"
 3313      00
 3314              	.LASF49:
 3315 04ed 4C45445F 		.ascii	"LED_CONTROL1_WritePeriodBuf\000"
 3315      434F4E54 
 3315      524F4C31 
 3315      5F577269 
 3315      74655065 
 3316              	.LASF63:
 3317 0509 4C45445F 		.ascii	"LED_CONTROL1_SetReloadMode\000"
 3317      434F4E54 
 3317      524F4C31 
 3317      5F536574 
 3317      52656C6F 
 3318              	.LASF42:
 3319 0524 636F756E 		.ascii	"counterMode\000"
 3319      7465724D 
 3319      6F646500 
 3320              	.LASF48:
 3321 0530 73776170 		.ascii	"swapEnable\000"
 3321      456E6162 
 3321      6C6500
 3322              	.LASF57:
ARM GAS  C:\Users\poornima\AppData\Local\Temp\ccn19ius.s 			page 88


 3323 053b 636F6D70 		.ascii	"compareBuf\000"
 3323      61726542 
 3323      756600
 3324              	.LASF20:
 3325 0546 656E6162 		.ascii	"enableInterrupts\000"
 3325      6C65496E 
 3325      74657272 
 3325      75707473 
 3325      00
 3326              	.LASF60:
 3327 0557 4C45445F 		.ascii	"LED_CONTROL1_ReadCaptureBuf\000"
 3327      434F4E54 
 3327      524F4C31 
 3327      5F526561 
 3327      64436170 
 3328              	.LASF56:
 3329 0573 4C45445F 		.ascii	"LED_CONTROL1_WriteCompareBuf\000"
 3329      434F4E54 
 3329      524F4C31 
 3329      5F577269 
 3329      7465436F 
 3330              	.LASF25:
 3331 0590 4C45445F 		.ascii	"LED_CONTROL1_SetPrescaler\000"
 3331      434F4E54 
 3331      524F4C31 
 3331      5F536574 
 3331      50726573 
 3332              	.LASF39:
 3333 05aa 4C45445F 		.ascii	"LED_CONTROL1_WriteCounter\000"
 3333      434F4E54 
 3333      524F4C31 
 3333      5F577269 
 3333      7465436F 
 3334              	.LASF77:
 3335 05c4 47656E65 		.ascii	"Generated_Source\\PSoC4\\LED_CONTROL1.c\000"
 3335      72617465 
 3335      645F536F 
 3335      75726365 
 3335      5C50536F 
 3336              	.LASF76:
 3337 05ea 474E5520 		.ascii	"GNU C 4.9.3 20150303 (release) [ARM/embedded-4_9-br"
 3337      4320342E 
 3337      392E3320 
 3337      32303135 
 3337      30333033 
 3338 061d 616E6368 		.ascii	"anch revision 221220] -mcpu=cortex-m0 -mthumb -g -O"
 3338      20726576 
 3338      6973696F 
 3338      6E203232 
 3338      31323230 
 3339 0650 30202D66 		.ascii	"0 -ffunction-sections -ffat-lto-objects\000"
 3339      66756E63 
 3339      74696F6E 
 3339      2D736563 
 3339      74696F6E 
 3340              	.LASF22:
 3341 0678 4C45445F 		.ascii	"LED_CONTROL1_SetQDMode\000"
ARM GAS  C:\Users\poornima\AppData\Local\Temp\ccn19ius.s 			page 89


 3341      434F4E54 
 3341      524F4C31 
 3341      5F536574 
 3341      51444D6F 
 3342              	.LASF50:
 3343 068f 70657269 		.ascii	"periodBuf\000"
 3343      6F644275 
 3343      6600
 3344              		.ident	"GCC: (GNU Tools for ARM Embedded Processors) 4.9.3 20150303 (release) [ARM/embedded-4_9-br
