ARM GAS  C:\Users\poornima\AppData\Local\Temp\ccn19ius.s 			page 1


   1              		.cpu cortex-m0
   2              		.fpu softvfp
   3              		.eabi_attribute 20, 1
   4              		.eabi_attribute 21, 1
   5              		.eabi_attribute 23, 3
   6              		.eabi_attribute 24, 1
   7              		.eabi_attribute 25, 1
   8              		.eabi_attribute 26, 1
   9              		.eabi_attribute 30, 6
  10              		.eabi_attribute 34, 0
  11              		.eabi_attribute 18, 4
  12              		.code	16
  13              		.file	"LED_CONTROL1.c"
  14              		.text
  15              	.Ltext0:
  16              		.cfi_sections	.debug_frame
  17              		.global	LED_CONTROL1_initVar
  18              		.bss
  19              		.type	LED_CONTROL1_initVar, %object
  20              		.size	LED_CONTROL1_initVar, 1
  21              	LED_CONTROL1_initVar:
  22 0000 00       		.space	1
  23              		.section	.text.LED_CONTROL1_Init,"ax",%progbits
  24              		.align	2
  25              		.global	LED_CONTROL1_Init
  26              		.code	16
  27              		.thumb_func
  28              		.type	LED_CONTROL1_Init, %function
  29              	LED_CONTROL1_Init:
  30              	.LFB1:
  31              		.file 1 "Generated_Source\\PSoC4\\LED_CONTROL1.c"
   1:Generated_Source\PSoC4/LED_CONTROL1.c **** /*******************************************************************************
   2:Generated_Source\PSoC4/LED_CONTROL1.c **** * File Name: LED_CONTROL1.c
   3:Generated_Source\PSoC4/LED_CONTROL1.c **** * Version 2.10
   4:Generated_Source\PSoC4/LED_CONTROL1.c **** *
   5:Generated_Source\PSoC4/LED_CONTROL1.c **** * Description:
   6:Generated_Source\PSoC4/LED_CONTROL1.c **** *  This file provides the source code to the API for the LED_CONTROL1
   7:Generated_Source\PSoC4/LED_CONTROL1.c **** *  component
   8:Generated_Source\PSoC4/LED_CONTROL1.c **** *
   9:Generated_Source\PSoC4/LED_CONTROL1.c **** * Note:
  10:Generated_Source\PSoC4/LED_CONTROL1.c **** *  None
  11:Generated_Source\PSoC4/LED_CONTROL1.c **** *
  12:Generated_Source\PSoC4/LED_CONTROL1.c **** ********************************************************************************
  13:Generated_Source\PSoC4/LED_CONTROL1.c **** * Copyright 2013-2015, Cypress Semiconductor Corporation.  All rights reserved.
  14:Generated_Source\PSoC4/LED_CONTROL1.c **** * You may use this file only in accordance with the license, terms, conditions,
  15:Generated_Source\PSoC4/LED_CONTROL1.c **** * disclaimers, and limitations in the end user license agreement accompanying
  16:Generated_Source\PSoC4/LED_CONTROL1.c **** * the software package with which this file was provided.
  17:Generated_Source\PSoC4/LED_CONTROL1.c **** *******************************************************************************/
  18:Generated_Source\PSoC4/LED_CONTROL1.c **** 
  19:Generated_Source\PSoC4/LED_CONTROL1.c **** #include "LED_CONTROL1.h"
  20:Generated_Source\PSoC4/LED_CONTROL1.c **** 
  21:Generated_Source\PSoC4/LED_CONTROL1.c **** uint8 LED_CONTROL1_initVar = 0u;
  22:Generated_Source\PSoC4/LED_CONTROL1.c **** 
  23:Generated_Source\PSoC4/LED_CONTROL1.c **** 
  24:Generated_Source\PSoC4/LED_CONTROL1.c **** /*******************************************************************************
  25:Generated_Source\PSoC4/LED_CONTROL1.c **** * Function Name: LED_CONTROL1_Init
  26:Generated_Source\PSoC4/LED_CONTROL1.c **** ********************************************************************************
ARM GAS  C:\Users\poornima\AppData\Local\Temp\ccn19ius.s 			page 2


  27:Generated_Source\PSoC4/LED_CONTROL1.c **** *
  28:Generated_Source\PSoC4/LED_CONTROL1.c **** * Summary:
  29:Generated_Source\PSoC4/LED_CONTROL1.c **** *  Initialize/Restore default LED_CONTROL1 configuration.
  30:Generated_Source\PSoC4/LED_CONTROL1.c **** *
  31:Generated_Source\PSoC4/LED_CONTROL1.c **** * Parameters:
  32:Generated_Source\PSoC4/LED_CONTROL1.c **** *  None
  33:Generated_Source\PSoC4/LED_CONTROL1.c **** *
  34:Generated_Source\PSoC4/LED_CONTROL1.c **** * Return:
  35:Generated_Source\PSoC4/LED_CONTROL1.c **** *  None
  36:Generated_Source\PSoC4/LED_CONTROL1.c **** *
  37:Generated_Source\PSoC4/LED_CONTROL1.c **** *******************************************************************************/
  38:Generated_Source\PSoC4/LED_CONTROL1.c **** void LED_CONTROL1_Init(void)
  39:Generated_Source\PSoC4/LED_CONTROL1.c **** {
  32              		.loc 1 39 0
  33              		.cfi_startproc
  34 0000 80B5     		push	{r7, lr}
  35              		.cfi_def_cfa_offset 8
  36              		.cfi_offset 7, -8
  37              		.cfi_offset 14, -4
  38 0002 00AF     		add	r7, sp, #0
  39              		.cfi_def_cfa_register 7
  40:Generated_Source\PSoC4/LED_CONTROL1.c **** 
  41:Generated_Source\PSoC4/LED_CONTROL1.c ****     /* Set values from customizer to CTRL */
  42:Generated_Source\PSoC4/LED_CONTROL1.c ****     #if (LED_CONTROL1__QUAD == LED_CONTROL1_CONFIG)
  43:Generated_Source\PSoC4/LED_CONTROL1.c ****         LED_CONTROL1_CONTROL_REG = LED_CONTROL1_CTRL_QUAD_BASE_CONFIG;
  44:Generated_Source\PSoC4/LED_CONTROL1.c ****         
  45:Generated_Source\PSoC4/LED_CONTROL1.c ****         /* Set values from customizer to CTRL1 */
  46:Generated_Source\PSoC4/LED_CONTROL1.c ****         LED_CONTROL1_TRIG_CONTROL1_REG  = LED_CONTROL1_QUAD_SIGNALS_MODES;
  47:Generated_Source\PSoC4/LED_CONTROL1.c **** 
  48:Generated_Source\PSoC4/LED_CONTROL1.c ****         /* Set values from customizer to INTR */
  49:Generated_Source\PSoC4/LED_CONTROL1.c ****         LED_CONTROL1_SetInterruptMode(LED_CONTROL1_QUAD_INTERRUPT_MASK);
  50:Generated_Source\PSoC4/LED_CONTROL1.c ****         
  51:Generated_Source\PSoC4/LED_CONTROL1.c ****          /* Set other values */
  52:Generated_Source\PSoC4/LED_CONTROL1.c ****         LED_CONTROL1_SetCounterMode(LED_CONTROL1_COUNT_DOWN);
  53:Generated_Source\PSoC4/LED_CONTROL1.c ****         LED_CONTROL1_WritePeriod(LED_CONTROL1_QUAD_PERIOD_INIT_VALUE);
  54:Generated_Source\PSoC4/LED_CONTROL1.c ****         LED_CONTROL1_WriteCounter(LED_CONTROL1_QUAD_PERIOD_INIT_VALUE);
  55:Generated_Source\PSoC4/LED_CONTROL1.c ****     #endif  /* (LED_CONTROL1__QUAD == LED_CONTROL1_CONFIG) */
  56:Generated_Source\PSoC4/LED_CONTROL1.c **** 
  57:Generated_Source\PSoC4/LED_CONTROL1.c ****     #if (LED_CONTROL1__TIMER == LED_CONTROL1_CONFIG)
  58:Generated_Source\PSoC4/LED_CONTROL1.c ****         LED_CONTROL1_CONTROL_REG = LED_CONTROL1_CTRL_TIMER_BASE_CONFIG;
  59:Generated_Source\PSoC4/LED_CONTROL1.c ****         
  60:Generated_Source\PSoC4/LED_CONTROL1.c ****         /* Set values from customizer to CTRL1 */
  61:Generated_Source\PSoC4/LED_CONTROL1.c ****         LED_CONTROL1_TRIG_CONTROL1_REG  = LED_CONTROL1_TIMER_SIGNALS_MODES;
  62:Generated_Source\PSoC4/LED_CONTROL1.c ****     
  63:Generated_Source\PSoC4/LED_CONTROL1.c ****         /* Set values from customizer to INTR */
  64:Generated_Source\PSoC4/LED_CONTROL1.c ****         LED_CONTROL1_SetInterruptMode(LED_CONTROL1_TC_INTERRUPT_MASK);
  65:Generated_Source\PSoC4/LED_CONTROL1.c ****         
  66:Generated_Source\PSoC4/LED_CONTROL1.c ****         /* Set other values from customizer */
  67:Generated_Source\PSoC4/LED_CONTROL1.c ****         LED_CONTROL1_WritePeriod(LED_CONTROL1_TC_PERIOD_VALUE );
  68:Generated_Source\PSoC4/LED_CONTROL1.c **** 
  69:Generated_Source\PSoC4/LED_CONTROL1.c ****         #if (LED_CONTROL1__COMPARE == LED_CONTROL1_TC_COMP_CAP_MODE)
  70:Generated_Source\PSoC4/LED_CONTROL1.c ****             LED_CONTROL1_WriteCompare(LED_CONTROL1_TC_COMPARE_VALUE);
  71:Generated_Source\PSoC4/LED_CONTROL1.c **** 
  72:Generated_Source\PSoC4/LED_CONTROL1.c ****             #if (1u == LED_CONTROL1_TC_COMPARE_SWAP)
  73:Generated_Source\PSoC4/LED_CONTROL1.c ****                 LED_CONTROL1_SetCompareSwap(1u);
  74:Generated_Source\PSoC4/LED_CONTROL1.c ****                 LED_CONTROL1_WriteCompareBuf(LED_CONTROL1_TC_COMPARE_BUF_VALUE);
  75:Generated_Source\PSoC4/LED_CONTROL1.c ****             #endif  /* (1u == LED_CONTROL1_TC_COMPARE_SWAP) */
ARM GAS  C:\Users\poornima\AppData\Local\Temp\ccn19ius.s 			page 3


  76:Generated_Source\PSoC4/LED_CONTROL1.c ****         #endif  /* (LED_CONTROL1__COMPARE == LED_CONTROL1_TC_COMP_CAP_MODE) */
  77:Generated_Source\PSoC4/LED_CONTROL1.c **** 
  78:Generated_Source\PSoC4/LED_CONTROL1.c ****         /* Initialize counter value */
  79:Generated_Source\PSoC4/LED_CONTROL1.c ****         #if (LED_CONTROL1_CY_TCPWM_V2 && LED_CONTROL1_TIMER_UPDOWN_CNT_USED && !LED_CONTROL1_CY_TCP
  80:Generated_Source\PSoC4/LED_CONTROL1.c ****             LED_CONTROL1_WriteCounter(1u);
  81:Generated_Source\PSoC4/LED_CONTROL1.c ****         #elif(LED_CONTROL1__COUNT_DOWN == LED_CONTROL1_TC_COUNTER_MODE)
  82:Generated_Source\PSoC4/LED_CONTROL1.c ****             LED_CONTROL1_WriteCounter(LED_CONTROL1_TC_PERIOD_VALUE);
  83:Generated_Source\PSoC4/LED_CONTROL1.c ****         #else
  84:Generated_Source\PSoC4/LED_CONTROL1.c ****             LED_CONTROL1_WriteCounter(0u);
  85:Generated_Source\PSoC4/LED_CONTROL1.c ****         #endif /* (LED_CONTROL1_CY_TCPWM_V2 && LED_CONTROL1_TIMER_UPDOWN_CNT_USED && !LED_CONTROL1_
  86:Generated_Source\PSoC4/LED_CONTROL1.c ****     #endif  /* (LED_CONTROL1__TIMER == LED_CONTROL1_CONFIG) */
  87:Generated_Source\PSoC4/LED_CONTROL1.c **** 
  88:Generated_Source\PSoC4/LED_CONTROL1.c ****     #if (LED_CONTROL1__PWM_SEL == LED_CONTROL1_CONFIG)
  89:Generated_Source\PSoC4/LED_CONTROL1.c ****         LED_CONTROL1_CONTROL_REG = LED_CONTROL1_CTRL_PWM_BASE_CONFIG;
  40              		.loc 1 89 0
  41 0004 114B     		ldr	r3, .L2
  42 0006 8022     		mov	r2, #128
  43 0008 D204     		lsl	r2, r2, #19
  44 000a 1A60     		str	r2, [r3]
  90:Generated_Source\PSoC4/LED_CONTROL1.c **** 
  91:Generated_Source\PSoC4/LED_CONTROL1.c ****         #if (LED_CONTROL1__PWM_PR == LED_CONTROL1_PWM_MODE)
  92:Generated_Source\PSoC4/LED_CONTROL1.c ****             LED_CONTROL1_CONTROL_REG |= LED_CONTROL1_CTRL_PWM_RUN_MODE;
  93:Generated_Source\PSoC4/LED_CONTROL1.c ****             LED_CONTROL1_WriteCounter(LED_CONTROL1_PWM_PR_INIT_VALUE);
  94:Generated_Source\PSoC4/LED_CONTROL1.c ****         #else
  95:Generated_Source\PSoC4/LED_CONTROL1.c ****             LED_CONTROL1_CONTROL_REG |= LED_CONTROL1_CTRL_PWM_ALIGN | LED_CONTROL1_CTRL_PWM_KILL_EV
  45              		.loc 1 95 0
  46 000c 0F4B     		ldr	r3, .L2
  47 000e 0F4A     		ldr	r2, .L2
  48 0010 1268     		ldr	r2, [r2]
  49 0012 1A60     		str	r2, [r3]
  96:Generated_Source\PSoC4/LED_CONTROL1.c ****             
  97:Generated_Source\PSoC4/LED_CONTROL1.c ****             /* Initialize counter value */
  98:Generated_Source\PSoC4/LED_CONTROL1.c ****             #if (LED_CONTROL1_CY_TCPWM_V2 && LED_CONTROL1_PWM_UPDOWN_CNT_USED && !LED_CONTROL1_CY_T
  99:Generated_Source\PSoC4/LED_CONTROL1.c ****                 LED_CONTROL1_WriteCounter(1u);
 100:Generated_Source\PSoC4/LED_CONTROL1.c ****             #elif (LED_CONTROL1__RIGHT == LED_CONTROL1_PWM_ALIGN)
 101:Generated_Source\PSoC4/LED_CONTROL1.c ****                 LED_CONTROL1_WriteCounter(LED_CONTROL1_PWM_PERIOD_VALUE);
 102:Generated_Source\PSoC4/LED_CONTROL1.c ****             #else 
 103:Generated_Source\PSoC4/LED_CONTROL1.c ****                 LED_CONTROL1_WriteCounter(0u);
  50              		.loc 1 103 0
  51 0014 0020     		mov	r0, #0
  52 0016 FFF7FEFF 		bl	LED_CONTROL1_WriteCounter
 104:Generated_Source\PSoC4/LED_CONTROL1.c ****             #endif  /* (LED_CONTROL1_CY_TCPWM_V2 && LED_CONTROL1_PWM_UPDOWN_CNT_USED && !LED_CONTRO
 105:Generated_Source\PSoC4/LED_CONTROL1.c ****         #endif  /* (LED_CONTROL1__PWM_PR == LED_CONTROL1_PWM_MODE) */
 106:Generated_Source\PSoC4/LED_CONTROL1.c **** 
 107:Generated_Source\PSoC4/LED_CONTROL1.c ****         #if (LED_CONTROL1__PWM_DT == LED_CONTROL1_PWM_MODE)
 108:Generated_Source\PSoC4/LED_CONTROL1.c ****             LED_CONTROL1_CONTROL_REG |= LED_CONTROL1_CTRL_PWM_DEAD_TIME_CYCLE;
 109:Generated_Source\PSoC4/LED_CONTROL1.c ****         #endif  /* (LED_CONTROL1__PWM_DT == LED_CONTROL1_PWM_MODE) */
 110:Generated_Source\PSoC4/LED_CONTROL1.c **** 
 111:Generated_Source\PSoC4/LED_CONTROL1.c ****         #if (LED_CONTROL1__PWM == LED_CONTROL1_PWM_MODE)
 112:Generated_Source\PSoC4/LED_CONTROL1.c ****             LED_CONTROL1_CONTROL_REG |= LED_CONTROL1_CTRL_PWM_PRESCALER;
  53              		.loc 1 112 0
  54 001a 0C4B     		ldr	r3, .L2
  55 001c 0B4A     		ldr	r2, .L2
  56 001e 1268     		ldr	r2, [r2]
  57 0020 8021     		mov	r1, #128
  58 0022 8900     		lsl	r1, r1, #2
  59 0024 0A43     		orr	r2, r1
ARM GAS  C:\Users\poornima\AppData\Local\Temp\ccn19ius.s 			page 4


  60 0026 1A60     		str	r2, [r3]
 113:Generated_Source\PSoC4/LED_CONTROL1.c ****         #endif  /* (LED_CONTROL1__PWM == LED_CONTROL1_PWM_MODE) */
 114:Generated_Source\PSoC4/LED_CONTROL1.c **** 
 115:Generated_Source\PSoC4/LED_CONTROL1.c ****         /* Set values from customizer to CTRL1 */
 116:Generated_Source\PSoC4/LED_CONTROL1.c ****         LED_CONTROL1_TRIG_CONTROL1_REG  = LED_CONTROL1_PWM_SIGNALS_MODES;
  61              		.loc 1 116 0
  62 0028 094B     		ldr	r3, .L2+4
  63 002a 0C22     		mov	r2, #12
  64 002c 1A60     		str	r2, [r3]
 117:Generated_Source\PSoC4/LED_CONTROL1.c ****     
 118:Generated_Source\PSoC4/LED_CONTROL1.c ****         /* Set values from customizer to INTR */
 119:Generated_Source\PSoC4/LED_CONTROL1.c ****         LED_CONTROL1_SetInterruptMode(LED_CONTROL1_PWM_INTERRUPT_MASK);
  65              		.loc 1 119 0
  66 002e 0020     		mov	r0, #0
  67 0030 FFF7FEFF 		bl	LED_CONTROL1_SetInterruptMode
 120:Generated_Source\PSoC4/LED_CONTROL1.c **** 
 121:Generated_Source\PSoC4/LED_CONTROL1.c ****         /* Set values from customizer to CTRL2 */
 122:Generated_Source\PSoC4/LED_CONTROL1.c ****         #if (LED_CONTROL1__PWM_PR == LED_CONTROL1_PWM_MODE)
 123:Generated_Source\PSoC4/LED_CONTROL1.c ****             LED_CONTROL1_TRIG_CONTROL2_REG =
 124:Generated_Source\PSoC4/LED_CONTROL1.c ****                     (LED_CONTROL1_CC_MATCH_NO_CHANGE    |
 125:Generated_Source\PSoC4/LED_CONTROL1.c ****                     LED_CONTROL1_OVERLOW_NO_CHANGE      |
 126:Generated_Source\PSoC4/LED_CONTROL1.c ****                     LED_CONTROL1_UNDERFLOW_NO_CHANGE);
 127:Generated_Source\PSoC4/LED_CONTROL1.c ****         #else
 128:Generated_Source\PSoC4/LED_CONTROL1.c ****             #if (LED_CONTROL1__LEFT == LED_CONTROL1_PWM_ALIGN)
 129:Generated_Source\PSoC4/LED_CONTROL1.c ****                 LED_CONTROL1_TRIG_CONTROL2_REG = LED_CONTROL1_PWM_MODE_LEFT;
  68              		.loc 1 129 0
  69 0034 074B     		ldr	r3, .L2+8
  70 0036 3122     		mov	r2, #49
  71 0038 1A60     		str	r2, [r3]
 130:Generated_Source\PSoC4/LED_CONTROL1.c ****             #endif  /* ( LED_CONTROL1_PWM_LEFT == LED_CONTROL1_PWM_ALIGN) */
 131:Generated_Source\PSoC4/LED_CONTROL1.c **** 
 132:Generated_Source\PSoC4/LED_CONTROL1.c ****             #if (LED_CONTROL1__RIGHT == LED_CONTROL1_PWM_ALIGN)
 133:Generated_Source\PSoC4/LED_CONTROL1.c ****                 LED_CONTROL1_TRIG_CONTROL2_REG = LED_CONTROL1_PWM_MODE_RIGHT;
 134:Generated_Source\PSoC4/LED_CONTROL1.c ****             #endif  /* ( LED_CONTROL1_PWM_RIGHT == LED_CONTROL1_PWM_ALIGN) */
 135:Generated_Source\PSoC4/LED_CONTROL1.c **** 
 136:Generated_Source\PSoC4/LED_CONTROL1.c ****             #if (LED_CONTROL1__CENTER == LED_CONTROL1_PWM_ALIGN)
 137:Generated_Source\PSoC4/LED_CONTROL1.c ****                 LED_CONTROL1_TRIG_CONTROL2_REG = LED_CONTROL1_PWM_MODE_CENTER;
 138:Generated_Source\PSoC4/LED_CONTROL1.c ****             #endif  /* ( LED_CONTROL1_PWM_CENTER == LED_CONTROL1_PWM_ALIGN) */
 139:Generated_Source\PSoC4/LED_CONTROL1.c **** 
 140:Generated_Source\PSoC4/LED_CONTROL1.c ****             #if (LED_CONTROL1__ASYMMETRIC == LED_CONTROL1_PWM_ALIGN)
 141:Generated_Source\PSoC4/LED_CONTROL1.c ****                 LED_CONTROL1_TRIG_CONTROL2_REG = LED_CONTROL1_PWM_MODE_ASYM;
 142:Generated_Source\PSoC4/LED_CONTROL1.c ****             #endif  /* (LED_CONTROL1__ASYMMETRIC == LED_CONTROL1_PWM_ALIGN) */
 143:Generated_Source\PSoC4/LED_CONTROL1.c ****         #endif  /* (LED_CONTROL1__PWM_PR == LED_CONTROL1_PWM_MODE) */
 144:Generated_Source\PSoC4/LED_CONTROL1.c **** 
 145:Generated_Source\PSoC4/LED_CONTROL1.c ****         /* Set other values from customizer */
 146:Generated_Source\PSoC4/LED_CONTROL1.c ****         LED_CONTROL1_WritePeriod(LED_CONTROL1_PWM_PERIOD_VALUE );
  72              		.loc 1 146 0
  73 003a 074B     		ldr	r3, .L2+12
  74 003c 181C     		mov	r0, r3
  75 003e FFF7FEFF 		bl	LED_CONTROL1_WritePeriod
 147:Generated_Source\PSoC4/LED_CONTROL1.c ****         LED_CONTROL1_WriteCompare(LED_CONTROL1_PWM_COMPARE_VALUE);
  76              		.loc 1 147 0
  77 0042 0120     		mov	r0, #1
  78 0044 FFF7FEFF 		bl	LED_CONTROL1_WriteCompare
 148:Generated_Source\PSoC4/LED_CONTROL1.c **** 
 149:Generated_Source\PSoC4/LED_CONTROL1.c ****         #if (1u == LED_CONTROL1_PWM_COMPARE_SWAP)
 150:Generated_Source\PSoC4/LED_CONTROL1.c ****             LED_CONTROL1_SetCompareSwap(1u);
ARM GAS  C:\Users\poornima\AppData\Local\Temp\ccn19ius.s 			page 5


 151:Generated_Source\PSoC4/LED_CONTROL1.c ****             LED_CONTROL1_WriteCompareBuf(LED_CONTROL1_PWM_COMPARE_BUF_VALUE);
 152:Generated_Source\PSoC4/LED_CONTROL1.c ****         #endif  /* (1u == LED_CONTROL1_PWM_COMPARE_SWAP) */
 153:Generated_Source\PSoC4/LED_CONTROL1.c **** 
 154:Generated_Source\PSoC4/LED_CONTROL1.c ****         #if (1u == LED_CONTROL1_PWM_PERIOD_SWAP)
 155:Generated_Source\PSoC4/LED_CONTROL1.c ****             LED_CONTROL1_SetPeriodSwap(1u);
 156:Generated_Source\PSoC4/LED_CONTROL1.c ****             LED_CONTROL1_WritePeriodBuf(LED_CONTROL1_PWM_PERIOD_BUF_VALUE);
 157:Generated_Source\PSoC4/LED_CONTROL1.c ****         #endif  /* (1u == LED_CONTROL1_PWM_PERIOD_SWAP) */
 158:Generated_Source\PSoC4/LED_CONTROL1.c ****     #endif  /* (LED_CONTROL1__PWM_SEL == LED_CONTROL1_CONFIG) */
 159:Generated_Source\PSoC4/LED_CONTROL1.c ****     
 160:Generated_Source\PSoC4/LED_CONTROL1.c **** }
  79              		.loc 1 160 0
  80 0048 BD46     		mov	sp, r7
  81              		@ sp needed
  82 004a 80BD     		pop	{r7, pc}
  83              	.L3:
  84              		.align	2
  85              	.L2:
  86 004c 40012040 		.word	1075839296
  87 0050 64012040 		.word	1075839332
  88 0054 68012040 		.word	1075839336
  89 0058 FFFF0000 		.word	65535
  90              		.cfi_endproc
  91              	.LFE1:
  92              		.size	LED_CONTROL1_Init, .-LED_CONTROL1_Init
  93              		.section	.text.LED_CONTROL1_Enable,"ax",%progbits
  94              		.align	2
  95              		.global	LED_CONTROL1_Enable
  96              		.code	16
  97              		.thumb_func
  98              		.type	LED_CONTROL1_Enable, %function
  99              	LED_CONTROL1_Enable:
 100              	.LFB2:
 161:Generated_Source\PSoC4/LED_CONTROL1.c **** 
 162:Generated_Source\PSoC4/LED_CONTROL1.c **** 
 163:Generated_Source\PSoC4/LED_CONTROL1.c **** /*******************************************************************************
 164:Generated_Source\PSoC4/LED_CONTROL1.c **** * Function Name: LED_CONTROL1_Enable
 165:Generated_Source\PSoC4/LED_CONTROL1.c **** ********************************************************************************
 166:Generated_Source\PSoC4/LED_CONTROL1.c **** *
 167:Generated_Source\PSoC4/LED_CONTROL1.c **** * Summary:
 168:Generated_Source\PSoC4/LED_CONTROL1.c **** *  Enables the LED_CONTROL1.
 169:Generated_Source\PSoC4/LED_CONTROL1.c **** *
 170:Generated_Source\PSoC4/LED_CONTROL1.c **** * Parameters:
 171:Generated_Source\PSoC4/LED_CONTROL1.c **** *  None
 172:Generated_Source\PSoC4/LED_CONTROL1.c **** *
 173:Generated_Source\PSoC4/LED_CONTROL1.c **** * Return:
 174:Generated_Source\PSoC4/LED_CONTROL1.c **** *  None
 175:Generated_Source\PSoC4/LED_CONTROL1.c **** *
 176:Generated_Source\PSoC4/LED_CONTROL1.c **** *******************************************************************************/
 177:Generated_Source\PSoC4/LED_CONTROL1.c **** void LED_CONTROL1_Enable(void)
 178:Generated_Source\PSoC4/LED_CONTROL1.c **** {
 101              		.loc 1 178 0
 102              		.cfi_startproc
 103 0000 90B5     		push	{r4, r7, lr}
 104              		.cfi_def_cfa_offset 12
 105              		.cfi_offset 4, -12
 106              		.cfi_offset 7, -8
 107              		.cfi_offset 14, -4
ARM GAS  C:\Users\poornima\AppData\Local\Temp\ccn19ius.s 			page 6


 108 0002 83B0     		sub	sp, sp, #12
 109              		.cfi_def_cfa_offset 24
 110 0004 00AF     		add	r7, sp, #0
 111              		.cfi_def_cfa_register 7
 179:Generated_Source\PSoC4/LED_CONTROL1.c ****     uint8 enableInterrupts;
 180:Generated_Source\PSoC4/LED_CONTROL1.c **** 
 181:Generated_Source\PSoC4/LED_CONTROL1.c ****     enableInterrupts = CyEnterCriticalSection();
 112              		.loc 1 181 0
 113 0006 FC1D     		add	r4, r7, #7
 114 0008 FFF7FEFF 		bl	CyEnterCriticalSection
 115 000c 031C     		mov	r3, r0
 116 000e 2370     		strb	r3, [r4]
 182:Generated_Source\PSoC4/LED_CONTROL1.c ****     LED_CONTROL1_BLOCK_CONTROL_REG |= LED_CONTROL1_MASK;
 117              		.loc 1 182 0
 118 0010 084B     		ldr	r3, .L5
 119 0012 084A     		ldr	r2, .L5
 120 0014 1268     		ldr	r2, [r2]
 121 0016 0221     		mov	r1, #2
 122 0018 0A43     		orr	r2, r1
 123 001a 1A60     		str	r2, [r3]
 183:Generated_Source\PSoC4/LED_CONTROL1.c ****     CyExitCriticalSection(enableInterrupts);
 124              		.loc 1 183 0
 125 001c FB1D     		add	r3, r7, #7
 126 001e 1B78     		ldrb	r3, [r3]
 127 0020 181C     		mov	r0, r3
 128 0022 FFF7FEFF 		bl	CyExitCriticalSection
 184:Generated_Source\PSoC4/LED_CONTROL1.c **** 
 185:Generated_Source\PSoC4/LED_CONTROL1.c ****     /* Start Timer or PWM if start input is absent */
 186:Generated_Source\PSoC4/LED_CONTROL1.c ****     #if (LED_CONTROL1__PWM_SEL == LED_CONTROL1_CONFIG)
 187:Generated_Source\PSoC4/LED_CONTROL1.c ****         #if (0u == LED_CONTROL1_PWM_START_SIGNAL_PRESENT)
 188:Generated_Source\PSoC4/LED_CONTROL1.c ****             LED_CONTROL1_TriggerCommand(LED_CONTROL1_MASK, LED_CONTROL1_CMD_START);
 129              		.loc 1 188 0
 130 0026 0220     		mov	r0, #2
 131 0028 1821     		mov	r1, #24
 132 002a FFF7FEFF 		bl	LED_CONTROL1_TriggerCommand
 189:Generated_Source\PSoC4/LED_CONTROL1.c ****         #endif /* (0u == LED_CONTROL1_PWM_START_SIGNAL_PRESENT) */
 190:Generated_Source\PSoC4/LED_CONTROL1.c ****     #endif /* (LED_CONTROL1__PWM_SEL == LED_CONTROL1_CONFIG) */
 191:Generated_Source\PSoC4/LED_CONTROL1.c **** 
 192:Generated_Source\PSoC4/LED_CONTROL1.c ****     #if (LED_CONTROL1__TIMER == LED_CONTROL1_CONFIG)
 193:Generated_Source\PSoC4/LED_CONTROL1.c ****         #if (0u == LED_CONTROL1_TC_START_SIGNAL_PRESENT)
 194:Generated_Source\PSoC4/LED_CONTROL1.c ****             LED_CONTROL1_TriggerCommand(LED_CONTROL1_MASK, LED_CONTROL1_CMD_START);
 195:Generated_Source\PSoC4/LED_CONTROL1.c ****         #endif /* (0u == LED_CONTROL1_TC_START_SIGNAL_PRESENT) */
 196:Generated_Source\PSoC4/LED_CONTROL1.c ****     #endif /* (LED_CONTROL1__TIMER == LED_CONTROL1_CONFIG) */
 197:Generated_Source\PSoC4/LED_CONTROL1.c ****     
 198:Generated_Source\PSoC4/LED_CONTROL1.c ****     #if (LED_CONTROL1__QUAD == LED_CONTROL1_CONFIG)
 199:Generated_Source\PSoC4/LED_CONTROL1.c ****         #if (0u != LED_CONTROL1_QUAD_AUTO_START)
 200:Generated_Source\PSoC4/LED_CONTROL1.c ****             LED_CONTROL1_TriggerCommand(LED_CONTROL1_MASK, LED_CONTROL1_CMD_RELOAD);
 201:Generated_Source\PSoC4/LED_CONTROL1.c ****         #endif /* (0u != LED_CONTROL1_QUAD_AUTO_START) */
 202:Generated_Source\PSoC4/LED_CONTROL1.c ****     #endif  /* (LED_CONTROL1__QUAD == LED_CONTROL1_CONFIG) */
 203:Generated_Source\PSoC4/LED_CONTROL1.c **** }
 133              		.loc 1 203 0
 134 002e BD46     		mov	sp, r7
 135 0030 03B0     		add	sp, sp, #12
 136              		@ sp needed
 137 0032 90BD     		pop	{r4, r7, pc}
 138              	.L6:
 139              		.align	2
ARM GAS  C:\Users\poornima\AppData\Local\Temp\ccn19ius.s 			page 7


 140              	.L5:
 141 0034 00002040 		.word	1075838976
 142              		.cfi_endproc
 143              	.LFE2:
 144              		.size	LED_CONTROL1_Enable, .-LED_CONTROL1_Enable
 145              		.section	.text.LED_CONTROL1_Start,"ax",%progbits
 146              		.align	2
 147              		.global	LED_CONTROL1_Start
 148              		.code	16
 149              		.thumb_func
 150              		.type	LED_CONTROL1_Start, %function
 151              	LED_CONTROL1_Start:
 152              	.LFB3:
 204:Generated_Source\PSoC4/LED_CONTROL1.c **** 
 205:Generated_Source\PSoC4/LED_CONTROL1.c **** 
 206:Generated_Source\PSoC4/LED_CONTROL1.c **** /*******************************************************************************
 207:Generated_Source\PSoC4/LED_CONTROL1.c **** * Function Name: LED_CONTROL1_Start
 208:Generated_Source\PSoC4/LED_CONTROL1.c **** ********************************************************************************
 209:Generated_Source\PSoC4/LED_CONTROL1.c **** *
 210:Generated_Source\PSoC4/LED_CONTROL1.c **** * Summary:
 211:Generated_Source\PSoC4/LED_CONTROL1.c **** *  Initializes the LED_CONTROL1 with default customizer
 212:Generated_Source\PSoC4/LED_CONTROL1.c **** *  values when called the first time and enables the LED_CONTROL1.
 213:Generated_Source\PSoC4/LED_CONTROL1.c **** *  For subsequent calls the configuration is left unchanged and the component is
 214:Generated_Source\PSoC4/LED_CONTROL1.c **** *  just enabled.
 215:Generated_Source\PSoC4/LED_CONTROL1.c **** *
 216:Generated_Source\PSoC4/LED_CONTROL1.c **** * Parameters:
 217:Generated_Source\PSoC4/LED_CONTROL1.c **** *  None
 218:Generated_Source\PSoC4/LED_CONTROL1.c **** *
 219:Generated_Source\PSoC4/LED_CONTROL1.c **** * Return:
 220:Generated_Source\PSoC4/LED_CONTROL1.c **** *  None
 221:Generated_Source\PSoC4/LED_CONTROL1.c **** *
 222:Generated_Source\PSoC4/LED_CONTROL1.c **** * Global variables:
 223:Generated_Source\PSoC4/LED_CONTROL1.c **** *  LED_CONTROL1_initVar: global variable is used to indicate initial
 224:Generated_Source\PSoC4/LED_CONTROL1.c **** *  configuration of this component.  The variable is initialized to zero and set
 225:Generated_Source\PSoC4/LED_CONTROL1.c **** *  to 1 the first time LED_CONTROL1_Start() is called. This allows
 226:Generated_Source\PSoC4/LED_CONTROL1.c **** *  enabling/disabling a component without re-initialization in all subsequent
 227:Generated_Source\PSoC4/LED_CONTROL1.c **** *  calls to the LED_CONTROL1_Start() routine.
 228:Generated_Source\PSoC4/LED_CONTROL1.c **** *
 229:Generated_Source\PSoC4/LED_CONTROL1.c **** *******************************************************************************/
 230:Generated_Source\PSoC4/LED_CONTROL1.c **** void LED_CONTROL1_Start(void)
 231:Generated_Source\PSoC4/LED_CONTROL1.c **** {
 153              		.loc 1 231 0
 154              		.cfi_startproc
 155 0000 80B5     		push	{r7, lr}
 156              		.cfi_def_cfa_offset 8
 157              		.cfi_offset 7, -8
 158              		.cfi_offset 14, -4
 159 0002 00AF     		add	r7, sp, #0
 160              		.cfi_def_cfa_register 7
 232:Generated_Source\PSoC4/LED_CONTROL1.c ****     if (0u == LED_CONTROL1_initVar)
 161              		.loc 1 232 0
 162 0004 064B     		ldr	r3, .L9
 163 0006 1B78     		ldrb	r3, [r3]
 164 0008 002B     		cmp	r3, #0
 165 000a 04D1     		bne	.L8
 233:Generated_Source\PSoC4/LED_CONTROL1.c ****     {
 234:Generated_Source\PSoC4/LED_CONTROL1.c ****         LED_CONTROL1_Init();
ARM GAS  C:\Users\poornima\AppData\Local\Temp\ccn19ius.s 			page 8


 166              		.loc 1 234 0
 167 000c FFF7FEFF 		bl	LED_CONTROL1_Init
 235:Generated_Source\PSoC4/LED_CONTROL1.c ****         LED_CONTROL1_initVar = 1u;
 168              		.loc 1 235 0
 169 0010 034B     		ldr	r3, .L9
 170 0012 0122     		mov	r2, #1
 171 0014 1A70     		strb	r2, [r3]
 172              	.L8:
 236:Generated_Source\PSoC4/LED_CONTROL1.c ****     }
 237:Generated_Source\PSoC4/LED_CONTROL1.c **** 
 238:Generated_Source\PSoC4/LED_CONTROL1.c ****     LED_CONTROL1_Enable();
 173              		.loc 1 238 0
 174 0016 FFF7FEFF 		bl	LED_CONTROL1_Enable
 239:Generated_Source\PSoC4/LED_CONTROL1.c **** }
 175              		.loc 1 239 0
 176 001a BD46     		mov	sp, r7
 177              		@ sp needed
 178 001c 80BD     		pop	{r7, pc}
 179              	.L10:
 180 001e C046     		.align	2
 181              	.L9:
 182 0020 00000000 		.word	LED_CONTROL1_initVar
 183              		.cfi_endproc
 184              	.LFE3:
 185              		.size	LED_CONTROL1_Start, .-LED_CONTROL1_Start
 186              		.section	.text.LED_CONTROL1_Stop,"ax",%progbits
 187              		.align	2
 188              		.global	LED_CONTROL1_Stop
 189              		.code	16
 190              		.thumb_func
 191              		.type	LED_CONTROL1_Stop, %function
 192              	LED_CONTROL1_Stop:
 193              	.LFB4:
 240:Generated_Source\PSoC4/LED_CONTROL1.c **** 
 241:Generated_Source\PSoC4/LED_CONTROL1.c **** 
 242:Generated_Source\PSoC4/LED_CONTROL1.c **** /*******************************************************************************
 243:Generated_Source\PSoC4/LED_CONTROL1.c **** * Function Name: LED_CONTROL1_Stop
 244:Generated_Source\PSoC4/LED_CONTROL1.c **** ********************************************************************************
 245:Generated_Source\PSoC4/LED_CONTROL1.c **** *
 246:Generated_Source\PSoC4/LED_CONTROL1.c **** * Summary:
 247:Generated_Source\PSoC4/LED_CONTROL1.c **** *  Disables the LED_CONTROL1.
 248:Generated_Source\PSoC4/LED_CONTROL1.c **** *
 249:Generated_Source\PSoC4/LED_CONTROL1.c **** * Parameters:
 250:Generated_Source\PSoC4/LED_CONTROL1.c **** *  None
 251:Generated_Source\PSoC4/LED_CONTROL1.c **** *
 252:Generated_Source\PSoC4/LED_CONTROL1.c **** * Return:
 253:Generated_Source\PSoC4/LED_CONTROL1.c **** *  None
 254:Generated_Source\PSoC4/LED_CONTROL1.c **** *
 255:Generated_Source\PSoC4/LED_CONTROL1.c **** *******************************************************************************/
 256:Generated_Source\PSoC4/LED_CONTROL1.c **** void LED_CONTROL1_Stop(void)
 257:Generated_Source\PSoC4/LED_CONTROL1.c **** {
 194              		.loc 1 257 0
 195              		.cfi_startproc
 196 0000 90B5     		push	{r4, r7, lr}
 197              		.cfi_def_cfa_offset 12
 198              		.cfi_offset 4, -12
 199              		.cfi_offset 7, -8
ARM GAS  C:\Users\poornima\AppData\Local\Temp\ccn19ius.s 			page 9


 200              		.cfi_offset 14, -4
 201 0002 83B0     		sub	sp, sp, #12
 202              		.cfi_def_cfa_offset 24
 203 0004 00AF     		add	r7, sp, #0
 204              		.cfi_def_cfa_register 7
 258:Generated_Source\PSoC4/LED_CONTROL1.c ****     uint8 enableInterrupts;
 259:Generated_Source\PSoC4/LED_CONTROL1.c **** 
 260:Generated_Source\PSoC4/LED_CONTROL1.c ****     enableInterrupts = CyEnterCriticalSection();
 205              		.loc 1 260 0
 206 0006 FC1D     		add	r4, r7, #7
 207 0008 FFF7FEFF 		bl	CyEnterCriticalSection
 208 000c 031C     		mov	r3, r0
 209 000e 2370     		strb	r3, [r4]
 261:Generated_Source\PSoC4/LED_CONTROL1.c **** 
 262:Generated_Source\PSoC4/LED_CONTROL1.c ****     LED_CONTROL1_BLOCK_CONTROL_REG &= (uint32)~LED_CONTROL1_MASK;
 210              		.loc 1 262 0
 211 0010 064B     		ldr	r3, .L12
 212 0012 064A     		ldr	r2, .L12
 213 0014 1268     		ldr	r2, [r2]
 214 0016 0221     		mov	r1, #2
 215 0018 8A43     		bic	r2, r1
 216 001a 1A60     		str	r2, [r3]
 263:Generated_Source\PSoC4/LED_CONTROL1.c **** 
 264:Generated_Source\PSoC4/LED_CONTROL1.c ****     CyExitCriticalSection(enableInterrupts);
 217              		.loc 1 264 0
 218 001c FB1D     		add	r3, r7, #7
 219 001e 1B78     		ldrb	r3, [r3]
 220 0020 181C     		mov	r0, r3
 221 0022 FFF7FEFF 		bl	CyExitCriticalSection
 265:Generated_Source\PSoC4/LED_CONTROL1.c **** }
 222              		.loc 1 265 0
 223 0026 BD46     		mov	sp, r7
 224 0028 03B0     		add	sp, sp, #12
 225              		@ sp needed
 226 002a 90BD     		pop	{r4, r7, pc}
 227              	.L13:
 228              		.align	2
 229              	.L12:
 230 002c 00002040 		.word	1075838976
 231              		.cfi_endproc
 232              	.LFE4:
 233              		.size	LED_CONTROL1_Stop, .-LED_CONTROL1_Stop
 234              		.section	.text.LED_CONTROL1_SetMode,"ax",%progbits
 235              		.align	2
 236              		.global	LED_CONTROL1_SetMode
 237              		.code	16
 238              		.thumb_func
 239              		.type	LED_CONTROL1_SetMode, %function
 240              	LED_CONTROL1_SetMode:
 241              	.LFB5:
 266:Generated_Source\PSoC4/LED_CONTROL1.c **** 
 267:Generated_Source\PSoC4/LED_CONTROL1.c **** 
 268:Generated_Source\PSoC4/LED_CONTROL1.c **** /*******************************************************************************
 269:Generated_Source\PSoC4/LED_CONTROL1.c **** * Function Name: LED_CONTROL1_SetMode
 270:Generated_Source\PSoC4/LED_CONTROL1.c **** ********************************************************************************
 271:Generated_Source\PSoC4/LED_CONTROL1.c **** *
 272:Generated_Source\PSoC4/LED_CONTROL1.c **** * Summary:
ARM GAS  C:\Users\poornima\AppData\Local\Temp\ccn19ius.s 			page 10


 273:Generated_Source\PSoC4/LED_CONTROL1.c **** *  Sets the operation mode of the LED_CONTROL1. This function is used when
 274:Generated_Source\PSoC4/LED_CONTROL1.c **** *  configured as a generic LED_CONTROL1 and the actual mode of operation is
 275:Generated_Source\PSoC4/LED_CONTROL1.c **** *  set at runtime. The mode must be set while the component is disabled.
 276:Generated_Source\PSoC4/LED_CONTROL1.c **** *
 277:Generated_Source\PSoC4/LED_CONTROL1.c **** * Parameters:
 278:Generated_Source\PSoC4/LED_CONTROL1.c **** *  mode: Mode for the LED_CONTROL1 to operate in
 279:Generated_Source\PSoC4/LED_CONTROL1.c **** *   Values:
 280:Generated_Source\PSoC4/LED_CONTROL1.c **** *   - LED_CONTROL1_MODE_TIMER_COMPARE - Timer / Counter with
 281:Generated_Source\PSoC4/LED_CONTROL1.c **** *                                                 compare capability
 282:Generated_Source\PSoC4/LED_CONTROL1.c **** *         - LED_CONTROL1_MODE_TIMER_CAPTURE - Timer / Counter with
 283:Generated_Source\PSoC4/LED_CONTROL1.c **** *                                                 capture capability
 284:Generated_Source\PSoC4/LED_CONTROL1.c **** *         - LED_CONTROL1_MODE_QUAD - Quadrature decoder
 285:Generated_Source\PSoC4/LED_CONTROL1.c **** *         - LED_CONTROL1_MODE_PWM - PWM
 286:Generated_Source\PSoC4/LED_CONTROL1.c **** *         - LED_CONTROL1_MODE_PWM_DT - PWM with dead time
 287:Generated_Source\PSoC4/LED_CONTROL1.c **** *         - LED_CONTROL1_MODE_PWM_PR - PWM with pseudo random capability
 288:Generated_Source\PSoC4/LED_CONTROL1.c **** *
 289:Generated_Source\PSoC4/LED_CONTROL1.c **** * Return:
 290:Generated_Source\PSoC4/LED_CONTROL1.c **** *  None
 291:Generated_Source\PSoC4/LED_CONTROL1.c **** *
 292:Generated_Source\PSoC4/LED_CONTROL1.c **** *******************************************************************************/
 293:Generated_Source\PSoC4/LED_CONTROL1.c **** void LED_CONTROL1_SetMode(uint32 mode)
 294:Generated_Source\PSoC4/LED_CONTROL1.c **** {
 242              		.loc 1 294 0
 243              		.cfi_startproc
 244 0000 90B5     		push	{r4, r7, lr}
 245              		.cfi_def_cfa_offset 12
 246              		.cfi_offset 4, -12
 247              		.cfi_offset 7, -8
 248              		.cfi_offset 14, -4
 249 0002 85B0     		sub	sp, sp, #20
 250              		.cfi_def_cfa_offset 32
 251 0004 00AF     		add	r7, sp, #0
 252              		.cfi_def_cfa_register 7
 253 0006 7860     		str	r0, [r7, #4]
 295:Generated_Source\PSoC4/LED_CONTROL1.c ****     uint8 enableInterrupts;
 296:Generated_Source\PSoC4/LED_CONTROL1.c **** 
 297:Generated_Source\PSoC4/LED_CONTROL1.c ****     enableInterrupts = CyEnterCriticalSection();
 254              		.loc 1 297 0
 255 0008 0F23     		mov	r3, #15
 256 000a FC18     		add	r4, r7, r3
 257 000c FFF7FEFF 		bl	CyEnterCriticalSection
 258 0010 031C     		mov	r3, r0
 259 0012 2370     		strb	r3, [r4]
 298:Generated_Source\PSoC4/LED_CONTROL1.c **** 
 299:Generated_Source\PSoC4/LED_CONTROL1.c ****     LED_CONTROL1_CONTROL_REG &= (uint32)~LED_CONTROL1_MODE_MASK;
 260              		.loc 1 299 0
 261 0014 0A4B     		ldr	r3, .L15
 262 0016 0A4A     		ldr	r2, .L15
 263 0018 1268     		ldr	r2, [r2]
 264 001a 0A49     		ldr	r1, .L15+4
 265 001c 0A40     		and	r2, r1
 266 001e 1A60     		str	r2, [r3]
 300:Generated_Source\PSoC4/LED_CONTROL1.c ****     LED_CONTROL1_CONTROL_REG |= mode;
 267              		.loc 1 300 0
 268 0020 074B     		ldr	r3, .L15
 269 0022 074A     		ldr	r2, .L15
 270 0024 1168     		ldr	r1, [r2]
ARM GAS  C:\Users\poornima\AppData\Local\Temp\ccn19ius.s 			page 11


 271 0026 7A68     		ldr	r2, [r7, #4]
 272 0028 0A43     		orr	r2, r1
 273 002a 1A60     		str	r2, [r3]
 301:Generated_Source\PSoC4/LED_CONTROL1.c **** 
 302:Generated_Source\PSoC4/LED_CONTROL1.c ****     CyExitCriticalSection(enableInterrupts);
 274              		.loc 1 302 0
 275 002c 0F23     		mov	r3, #15
 276 002e FB18     		add	r3, r7, r3
 277 0030 1B78     		ldrb	r3, [r3]
 278 0032 181C     		mov	r0, r3
 279 0034 FFF7FEFF 		bl	CyExitCriticalSection
 303:Generated_Source\PSoC4/LED_CONTROL1.c **** }
 280              		.loc 1 303 0
 281 0038 BD46     		mov	sp, r7
 282 003a 05B0     		add	sp, sp, #20
 283              		@ sp needed
 284 003c 90BD     		pop	{r4, r7, pc}
 285              	.L16:
 286 003e C046     		.align	2
 287              	.L15:
 288 0040 40012040 		.word	1075839296
 289 0044 FFFFFFF8 		.word	-117440513
 290              		.cfi_endproc
 291              	.LFE5:
 292              		.size	LED_CONTROL1_SetMode, .-LED_CONTROL1_SetMode
 293              		.section	.text.LED_CONTROL1_SetQDMode,"ax",%progbits
 294              		.align	2
 295              		.global	LED_CONTROL1_SetQDMode
 296              		.code	16
 297              		.thumb_func
 298              		.type	LED_CONTROL1_SetQDMode, %function
 299              	LED_CONTROL1_SetQDMode:
 300              	.LFB6:
 304:Generated_Source\PSoC4/LED_CONTROL1.c **** 
 305:Generated_Source\PSoC4/LED_CONTROL1.c **** 
 306:Generated_Source\PSoC4/LED_CONTROL1.c **** /*******************************************************************************
 307:Generated_Source\PSoC4/LED_CONTROL1.c **** * Function Name: LED_CONTROL1_SetQDMode
 308:Generated_Source\PSoC4/LED_CONTROL1.c **** ********************************************************************************
 309:Generated_Source\PSoC4/LED_CONTROL1.c **** *
 310:Generated_Source\PSoC4/LED_CONTROL1.c **** * Summary:
 311:Generated_Source\PSoC4/LED_CONTROL1.c **** *  Sets the the Quadrature Decoder to one of the 3 supported modes.
 312:Generated_Source\PSoC4/LED_CONTROL1.c **** *  Its functionality is only applicable to Quadrature Decoder operation.
 313:Generated_Source\PSoC4/LED_CONTROL1.c **** *
 314:Generated_Source\PSoC4/LED_CONTROL1.c **** * Parameters:
 315:Generated_Source\PSoC4/LED_CONTROL1.c **** *  qdMode: Quadrature Decoder mode
 316:Generated_Source\PSoC4/LED_CONTROL1.c **** *   Values:
 317:Generated_Source\PSoC4/LED_CONTROL1.c **** *         - LED_CONTROL1_MODE_X1 - Counts on phi 1 rising
 318:Generated_Source\PSoC4/LED_CONTROL1.c **** *         - LED_CONTROL1_MODE_X2 - Counts on both edges of phi1 (2x faster)
 319:Generated_Source\PSoC4/LED_CONTROL1.c **** *         - LED_CONTROL1_MODE_X4 - Counts on both edges of phi1 and phi2
 320:Generated_Source\PSoC4/LED_CONTROL1.c **** *                                        (4x faster)
 321:Generated_Source\PSoC4/LED_CONTROL1.c **** *
 322:Generated_Source\PSoC4/LED_CONTROL1.c **** * Return:
 323:Generated_Source\PSoC4/LED_CONTROL1.c **** *  None
 324:Generated_Source\PSoC4/LED_CONTROL1.c **** *
 325:Generated_Source\PSoC4/LED_CONTROL1.c **** *******************************************************************************/
 326:Generated_Source\PSoC4/LED_CONTROL1.c **** void LED_CONTROL1_SetQDMode(uint32 qdMode)
 327:Generated_Source\PSoC4/LED_CONTROL1.c **** {
ARM GAS  C:\Users\poornima\AppData\Local\Temp\ccn19ius.s 			page 12


 301              		.loc 1 327 0
 302              		.cfi_startproc
 303 0000 90B5     		push	{r4, r7, lr}
 304              		.cfi_def_cfa_offset 12
 305              		.cfi_offset 4, -12
 306              		.cfi_offset 7, -8
 307              		.cfi_offset 14, -4
 308 0002 85B0     		sub	sp, sp, #20
 309              		.cfi_def_cfa_offset 32
 310 0004 00AF     		add	r7, sp, #0
 311              		.cfi_def_cfa_register 7
 312 0006 7860     		str	r0, [r7, #4]
 328:Generated_Source\PSoC4/LED_CONTROL1.c ****     uint8 enableInterrupts;
 329:Generated_Source\PSoC4/LED_CONTROL1.c **** 
 330:Generated_Source\PSoC4/LED_CONTROL1.c ****     enableInterrupts = CyEnterCriticalSection();
 313              		.loc 1 330 0
 314 0008 0F23     		mov	r3, #15
 315 000a FC18     		add	r4, r7, r3
 316 000c FFF7FEFF 		bl	CyEnterCriticalSection
 317 0010 031C     		mov	r3, r0
 318 0012 2370     		strb	r3, [r4]
 331:Generated_Source\PSoC4/LED_CONTROL1.c **** 
 332:Generated_Source\PSoC4/LED_CONTROL1.c ****     LED_CONTROL1_CONTROL_REG &= (uint32)~LED_CONTROL1_QUAD_MODE_MASK;
 319              		.loc 1 332 0
 320 0014 0A4B     		ldr	r3, .L18
 321 0016 0A4A     		ldr	r2, .L18
 322 0018 1268     		ldr	r2, [r2]
 323 001a 0A49     		ldr	r1, .L18+4
 324 001c 0A40     		and	r2, r1
 325 001e 1A60     		str	r2, [r3]
 333:Generated_Source\PSoC4/LED_CONTROL1.c ****     LED_CONTROL1_CONTROL_REG |= qdMode;
 326              		.loc 1 333 0
 327 0020 074B     		ldr	r3, .L18
 328 0022 074A     		ldr	r2, .L18
 329 0024 1168     		ldr	r1, [r2]
 330 0026 7A68     		ldr	r2, [r7, #4]
 331 0028 0A43     		orr	r2, r1
 332 002a 1A60     		str	r2, [r3]
 334:Generated_Source\PSoC4/LED_CONTROL1.c **** 
 335:Generated_Source\PSoC4/LED_CONTROL1.c ****     CyExitCriticalSection(enableInterrupts);
 333              		.loc 1 335 0
 334 002c 0F23     		mov	r3, #15
 335 002e FB18     		add	r3, r7, r3
 336 0030 1B78     		ldrb	r3, [r3]
 337 0032 181C     		mov	r0, r3
 338 0034 FFF7FEFF 		bl	CyExitCriticalSection
 336:Generated_Source\PSoC4/LED_CONTROL1.c **** }
 339              		.loc 1 336 0
 340 0038 BD46     		mov	sp, r7
 341 003a 05B0     		add	sp, sp, #20
 342              		@ sp needed
 343 003c 90BD     		pop	{r4, r7, pc}
 344              	.L19:
 345 003e C046     		.align	2
 346              	.L18:
 347 0040 40012040 		.word	1075839296
 348 0044 FFFF8FFF 		.word	-7340033
ARM GAS  C:\Users\poornima\AppData\Local\Temp\ccn19ius.s 			page 13


 349              		.cfi_endproc
 350              	.LFE6:
 351              		.size	LED_CONTROL1_SetQDMode, .-LED_CONTROL1_SetQDMode
 352              		.section	.text.LED_CONTROL1_SetPrescaler,"ax",%progbits
 353              		.align	2
 354              		.global	LED_CONTROL1_SetPrescaler
 355              		.code	16
 356              		.thumb_func
 357              		.type	LED_CONTROL1_SetPrescaler, %function
 358              	LED_CONTROL1_SetPrescaler:
 359              	.LFB7:
 337:Generated_Source\PSoC4/LED_CONTROL1.c **** 
 338:Generated_Source\PSoC4/LED_CONTROL1.c **** 
 339:Generated_Source\PSoC4/LED_CONTROL1.c **** /*******************************************************************************
 340:Generated_Source\PSoC4/LED_CONTROL1.c **** * Function Name: LED_CONTROL1_SetPrescaler
 341:Generated_Source\PSoC4/LED_CONTROL1.c **** ********************************************************************************
 342:Generated_Source\PSoC4/LED_CONTROL1.c **** *
 343:Generated_Source\PSoC4/LED_CONTROL1.c **** * Summary:
 344:Generated_Source\PSoC4/LED_CONTROL1.c **** *  Sets the prescaler value that is applied to the clock input.  Not applicable
 345:Generated_Source\PSoC4/LED_CONTROL1.c **** *  to a PWM with the dead time mode or Quadrature Decoder mode.
 346:Generated_Source\PSoC4/LED_CONTROL1.c **** *
 347:Generated_Source\PSoC4/LED_CONTROL1.c **** * Parameters:
 348:Generated_Source\PSoC4/LED_CONTROL1.c **** *  prescaler: Prescaler divider value
 349:Generated_Source\PSoC4/LED_CONTROL1.c **** *   Values:
 350:Generated_Source\PSoC4/LED_CONTROL1.c **** *         - LED_CONTROL1_PRESCALE_DIVBY1    - Divide by 1 (no prescaling)
 351:Generated_Source\PSoC4/LED_CONTROL1.c **** *         - LED_CONTROL1_PRESCALE_DIVBY2    - Divide by 2
 352:Generated_Source\PSoC4/LED_CONTROL1.c **** *         - LED_CONTROL1_PRESCALE_DIVBY4    - Divide by 4
 353:Generated_Source\PSoC4/LED_CONTROL1.c **** *         - LED_CONTROL1_PRESCALE_DIVBY8    - Divide by 8
 354:Generated_Source\PSoC4/LED_CONTROL1.c **** *         - LED_CONTROL1_PRESCALE_DIVBY16   - Divide by 16
 355:Generated_Source\PSoC4/LED_CONTROL1.c **** *         - LED_CONTROL1_PRESCALE_DIVBY32   - Divide by 32
 356:Generated_Source\PSoC4/LED_CONTROL1.c **** *         - LED_CONTROL1_PRESCALE_DIVBY64   - Divide by 64
 357:Generated_Source\PSoC4/LED_CONTROL1.c **** *         - LED_CONTROL1_PRESCALE_DIVBY128  - Divide by 128
 358:Generated_Source\PSoC4/LED_CONTROL1.c **** *
 359:Generated_Source\PSoC4/LED_CONTROL1.c **** * Return:
 360:Generated_Source\PSoC4/LED_CONTROL1.c **** *  None
 361:Generated_Source\PSoC4/LED_CONTROL1.c **** *
 362:Generated_Source\PSoC4/LED_CONTROL1.c **** *******************************************************************************/
 363:Generated_Source\PSoC4/LED_CONTROL1.c **** void LED_CONTROL1_SetPrescaler(uint32 prescaler)
 364:Generated_Source\PSoC4/LED_CONTROL1.c **** {
 360              		.loc 1 364 0
 361              		.cfi_startproc
 362 0000 90B5     		push	{r4, r7, lr}
 363              		.cfi_def_cfa_offset 12
 364              		.cfi_offset 4, -12
 365              		.cfi_offset 7, -8
 366              		.cfi_offset 14, -4
 367 0002 85B0     		sub	sp, sp, #20
 368              		.cfi_def_cfa_offset 32
 369 0004 00AF     		add	r7, sp, #0
 370              		.cfi_def_cfa_register 7
 371 0006 7860     		str	r0, [r7, #4]
 365:Generated_Source\PSoC4/LED_CONTROL1.c ****     uint8 enableInterrupts;
 366:Generated_Source\PSoC4/LED_CONTROL1.c **** 
 367:Generated_Source\PSoC4/LED_CONTROL1.c ****     enableInterrupts = CyEnterCriticalSection();
 372              		.loc 1 367 0
 373 0008 0F23     		mov	r3, #15
 374 000a FC18     		add	r4, r7, r3
ARM GAS  C:\Users\poornima\AppData\Local\Temp\ccn19ius.s 			page 14


 375 000c FFF7FEFF 		bl	CyEnterCriticalSection
 376 0010 031C     		mov	r3, r0
 377 0012 2370     		strb	r3, [r4]
 368:Generated_Source\PSoC4/LED_CONTROL1.c **** 
 369:Generated_Source\PSoC4/LED_CONTROL1.c ****     LED_CONTROL1_CONTROL_REG &= (uint32)~LED_CONTROL1_PRESCALER_MASK;
 378              		.loc 1 369 0
 379 0014 0A4B     		ldr	r3, .L21
 380 0016 0A4A     		ldr	r2, .L21
 381 0018 1268     		ldr	r2, [r2]
 382 001a 0A49     		ldr	r1, .L21+4
 383 001c 0A40     		and	r2, r1
 384 001e 1A60     		str	r2, [r3]
 370:Generated_Source\PSoC4/LED_CONTROL1.c ****     LED_CONTROL1_CONTROL_REG |= prescaler;
 385              		.loc 1 370 0
 386 0020 074B     		ldr	r3, .L21
 387 0022 074A     		ldr	r2, .L21
 388 0024 1168     		ldr	r1, [r2]
 389 0026 7A68     		ldr	r2, [r7, #4]
 390 0028 0A43     		orr	r2, r1
 391 002a 1A60     		str	r2, [r3]
 371:Generated_Source\PSoC4/LED_CONTROL1.c **** 
 372:Generated_Source\PSoC4/LED_CONTROL1.c ****     CyExitCriticalSection(enableInterrupts);
 392              		.loc 1 372 0
 393 002c 0F23     		mov	r3, #15
 394 002e FB18     		add	r3, r7, r3
 395 0030 1B78     		ldrb	r3, [r3]
 396 0032 181C     		mov	r0, r3
 397 0034 FFF7FEFF 		bl	CyExitCriticalSection
 373:Generated_Source\PSoC4/LED_CONTROL1.c **** }
 398              		.loc 1 373 0
 399 0038 BD46     		mov	sp, r7
 400 003a 05B0     		add	sp, sp, #20
 401              		@ sp needed
 402 003c 90BD     		pop	{r4, r7, pc}
 403              	.L22:
 404 003e C046     		.align	2
 405              	.L21:
 406 0040 40012040 		.word	1075839296
 407 0044 FF00FFFF 		.word	-65281
 408              		.cfi_endproc
 409              	.LFE7:
 410              		.size	LED_CONTROL1_SetPrescaler, .-LED_CONTROL1_SetPrescaler
 411              		.section	.text.LED_CONTROL1_SetOneShot,"ax",%progbits
 412              		.align	2
 413              		.global	LED_CONTROL1_SetOneShot
 414              		.code	16
 415              		.thumb_func
 416              		.type	LED_CONTROL1_SetOneShot, %function
 417              	LED_CONTROL1_SetOneShot:
 418              	.LFB8:
 374:Generated_Source\PSoC4/LED_CONTROL1.c **** 
 375:Generated_Source\PSoC4/LED_CONTROL1.c **** 
 376:Generated_Source\PSoC4/LED_CONTROL1.c **** /*******************************************************************************
 377:Generated_Source\PSoC4/LED_CONTROL1.c **** * Function Name: LED_CONTROL1_SetOneShot
 378:Generated_Source\PSoC4/LED_CONTROL1.c **** ********************************************************************************
 379:Generated_Source\PSoC4/LED_CONTROL1.c **** *
 380:Generated_Source\PSoC4/LED_CONTROL1.c **** * Summary:
ARM GAS  C:\Users\poornima\AppData\Local\Temp\ccn19ius.s 			page 15


 381:Generated_Source\PSoC4/LED_CONTROL1.c **** *  Writes the register that controls whether the LED_CONTROL1 runs
 382:Generated_Source\PSoC4/LED_CONTROL1.c **** *  continuously or stops when terminal count is reached.  By default the
 383:Generated_Source\PSoC4/LED_CONTROL1.c **** *  LED_CONTROL1 operates in the continuous mode.
 384:Generated_Source\PSoC4/LED_CONTROL1.c **** *
 385:Generated_Source\PSoC4/LED_CONTROL1.c **** * Parameters:
 386:Generated_Source\PSoC4/LED_CONTROL1.c **** *  oneShotEnable
 387:Generated_Source\PSoC4/LED_CONTROL1.c **** *   Values:
 388:Generated_Source\PSoC4/LED_CONTROL1.c **** *     - 0 - Continuous
 389:Generated_Source\PSoC4/LED_CONTROL1.c **** *     - 1 - Enable One Shot
 390:Generated_Source\PSoC4/LED_CONTROL1.c **** *
 391:Generated_Source\PSoC4/LED_CONTROL1.c **** * Return:
 392:Generated_Source\PSoC4/LED_CONTROL1.c **** *  None
 393:Generated_Source\PSoC4/LED_CONTROL1.c **** *
 394:Generated_Source\PSoC4/LED_CONTROL1.c **** *******************************************************************************/
 395:Generated_Source\PSoC4/LED_CONTROL1.c **** void LED_CONTROL1_SetOneShot(uint32 oneShotEnable)
 396:Generated_Source\PSoC4/LED_CONTROL1.c **** {
 419              		.loc 1 396 0
 420              		.cfi_startproc
 421 0000 90B5     		push	{r4, r7, lr}
 422              		.cfi_def_cfa_offset 12
 423              		.cfi_offset 4, -12
 424              		.cfi_offset 7, -8
 425              		.cfi_offset 14, -4
 426 0002 85B0     		sub	sp, sp, #20
 427              		.cfi_def_cfa_offset 32
 428 0004 00AF     		add	r7, sp, #0
 429              		.cfi_def_cfa_register 7
 430 0006 7860     		str	r0, [r7, #4]
 397:Generated_Source\PSoC4/LED_CONTROL1.c ****     uint8 enableInterrupts;
 398:Generated_Source\PSoC4/LED_CONTROL1.c **** 
 399:Generated_Source\PSoC4/LED_CONTROL1.c ****     enableInterrupts = CyEnterCriticalSection();
 431              		.loc 1 399 0
 432 0008 0F23     		mov	r3, #15
 433 000a FC18     		add	r4, r7, r3
 434 000c FFF7FEFF 		bl	CyEnterCriticalSection
 435 0010 031C     		mov	r3, r0
 436 0012 2370     		strb	r3, [r4]
 400:Generated_Source\PSoC4/LED_CONTROL1.c **** 
 401:Generated_Source\PSoC4/LED_CONTROL1.c ****     LED_CONTROL1_CONTROL_REG &= (uint32)~LED_CONTROL1_ONESHOT_MASK;
 437              		.loc 1 401 0
 438 0014 0B4B     		ldr	r3, .L24
 439 0016 0B4A     		ldr	r2, .L24
 440 0018 1268     		ldr	r2, [r2]
 441 001a 0B49     		ldr	r1, .L24+4
 442 001c 0A40     		and	r2, r1
 443 001e 1A60     		str	r2, [r3]
 402:Generated_Source\PSoC4/LED_CONTROL1.c ****     LED_CONTROL1_CONTROL_REG |= ((uint32)((oneShotEnable & LED_CONTROL1_1BIT_MASK) <<
 444              		.loc 1 402 0
 445 0020 084B     		ldr	r3, .L24
 446 0022 084A     		ldr	r2, .L24
 447 0024 1168     		ldr	r1, [r2]
 448 0026 7A68     		ldr	r2, [r7, #4]
 449 0028 0120     		mov	r0, #1
 450 002a 0240     		and	r2, r0
 451 002c 9204     		lsl	r2, r2, #18
 452 002e 0A43     		orr	r2, r1
 453 0030 1A60     		str	r2, [r3]
ARM GAS  C:\Users\poornima\AppData\Local\Temp\ccn19ius.s 			page 16


 403:Generated_Source\PSoC4/LED_CONTROL1.c ****                                                                LED_CONTROL1_ONESHOT_SHIFT));
 404:Generated_Source\PSoC4/LED_CONTROL1.c **** 
 405:Generated_Source\PSoC4/LED_CONTROL1.c ****     CyExitCriticalSection(enableInterrupts);
 454              		.loc 1 405 0
 455 0032 0F23     		mov	r3, #15
 456 0034 FB18     		add	r3, r7, r3
 457 0036 1B78     		ldrb	r3, [r3]
 458 0038 181C     		mov	r0, r3
 459 003a FFF7FEFF 		bl	CyExitCriticalSection
 406:Generated_Source\PSoC4/LED_CONTROL1.c **** }
 460              		.loc 1 406 0
 461 003e BD46     		mov	sp, r7
 462 0040 05B0     		add	sp, sp, #20
 463              		@ sp needed
 464 0042 90BD     		pop	{r4, r7, pc}
 465              	.L25:
 466              		.align	2
 467              	.L24:
 468 0044 40012040 		.word	1075839296
 469 0048 FFFFFBFF 		.word	-262145
 470              		.cfi_endproc
 471              	.LFE8:
 472              		.size	LED_CONTROL1_SetOneShot, .-LED_CONTROL1_SetOneShot
 473              		.section	.text.LED_CONTROL1_SetPWMMode,"ax",%progbits
 474              		.align	2
 475              		.global	LED_CONTROL1_SetPWMMode
 476              		.code	16
 477              		.thumb_func
 478              		.type	LED_CONTROL1_SetPWMMode, %function
 479              	LED_CONTROL1_SetPWMMode:
 480              	.LFB9:
 407:Generated_Source\PSoC4/LED_CONTROL1.c **** 
 408:Generated_Source\PSoC4/LED_CONTROL1.c **** 
 409:Generated_Source\PSoC4/LED_CONTROL1.c **** /*******************************************************************************
 410:Generated_Source\PSoC4/LED_CONTROL1.c **** * Function Name: LED_CONTROL1_SetPWMMode
 411:Generated_Source\PSoC4/LED_CONTROL1.c **** ********************************************************************************
 412:Generated_Source\PSoC4/LED_CONTROL1.c **** *
 413:Generated_Source\PSoC4/LED_CONTROL1.c **** * Summary:
 414:Generated_Source\PSoC4/LED_CONTROL1.c **** *  Writes the control register that determines what mode of operation the PWM
 415:Generated_Source\PSoC4/LED_CONTROL1.c **** *  output lines are driven in.  There is a setting for what to do on a
 416:Generated_Source\PSoC4/LED_CONTROL1.c **** *  comparison match (CC_MATCH), on an overflow (OVERFLOW) and on an underflow
 417:Generated_Source\PSoC4/LED_CONTROL1.c **** *  (UNDERFLOW).  The value for each of the three must be ORed together to form
 418:Generated_Source\PSoC4/LED_CONTROL1.c **** *  the mode.
 419:Generated_Source\PSoC4/LED_CONTROL1.c **** *
 420:Generated_Source\PSoC4/LED_CONTROL1.c **** * Parameters:
 421:Generated_Source\PSoC4/LED_CONTROL1.c **** *  modeMask: A combination of three mode settings.  Mask must include a value
 422:Generated_Source\PSoC4/LED_CONTROL1.c **** *  for each of the three or use one of the preconfigured PWM settings.
 423:Generated_Source\PSoC4/LED_CONTROL1.c **** *   Values:
 424:Generated_Source\PSoC4/LED_CONTROL1.c **** *     - CC_MATCH_SET        - Set on comparison match
 425:Generated_Source\PSoC4/LED_CONTROL1.c **** *     - CC_MATCH_CLEAR      - Clear on comparison match
 426:Generated_Source\PSoC4/LED_CONTROL1.c **** *     - CC_MATCH_INVERT     - Invert on comparison match
 427:Generated_Source\PSoC4/LED_CONTROL1.c **** *     - CC_MATCH_NO_CHANGE  - No change on comparison match
 428:Generated_Source\PSoC4/LED_CONTROL1.c **** *     - OVERLOW_SET         - Set on overflow
 429:Generated_Source\PSoC4/LED_CONTROL1.c **** *     - OVERLOW_CLEAR       - Clear on  overflow
 430:Generated_Source\PSoC4/LED_CONTROL1.c **** *     - OVERLOW_INVERT      - Invert on overflow
 431:Generated_Source\PSoC4/LED_CONTROL1.c **** *     - OVERLOW_NO_CHANGE   - No change on overflow
 432:Generated_Source\PSoC4/LED_CONTROL1.c **** *     - UNDERFLOW_SET       - Set on underflow
ARM GAS  C:\Users\poornima\AppData\Local\Temp\ccn19ius.s 			page 17


 433:Generated_Source\PSoC4/LED_CONTROL1.c **** *     - UNDERFLOW_CLEAR     - Clear on underflow
 434:Generated_Source\PSoC4/LED_CONTROL1.c **** *     - UNDERFLOW_INVERT    - Invert on underflow
 435:Generated_Source\PSoC4/LED_CONTROL1.c **** *     - UNDERFLOW_NO_CHANGE - No change on underflow
 436:Generated_Source\PSoC4/LED_CONTROL1.c **** *     - PWM_MODE_LEFT       - Setting for left aligned PWM.  Should be combined
 437:Generated_Source\PSoC4/LED_CONTROL1.c **** *                             with up counting mode
 438:Generated_Source\PSoC4/LED_CONTROL1.c **** *     - PWM_MODE_RIGHT      - Setting for right aligned PWM.  Should be combined
 439:Generated_Source\PSoC4/LED_CONTROL1.c **** *                             with down counting mode
 440:Generated_Source\PSoC4/LED_CONTROL1.c **** *     - PWM_MODE_CENTER     - Setting for center aligned PWM.  Should be
 441:Generated_Source\PSoC4/LED_CONTROL1.c **** *                             combined with up/down 0 mode
 442:Generated_Source\PSoC4/LED_CONTROL1.c **** *     - PWM_MODE_ASYM       - Setting for asymmetric PWM.  Should be combined
 443:Generated_Source\PSoC4/LED_CONTROL1.c **** *                             with up/down 1 mode
 444:Generated_Source\PSoC4/LED_CONTROL1.c **** *
 445:Generated_Source\PSoC4/LED_CONTROL1.c **** * Return:
 446:Generated_Source\PSoC4/LED_CONTROL1.c **** *  None
 447:Generated_Source\PSoC4/LED_CONTROL1.c **** *
 448:Generated_Source\PSoC4/LED_CONTROL1.c **** *******************************************************************************/
 449:Generated_Source\PSoC4/LED_CONTROL1.c **** void LED_CONTROL1_SetPWMMode(uint32 modeMask)
 450:Generated_Source\PSoC4/LED_CONTROL1.c **** {
 481              		.loc 1 450 0
 482              		.cfi_startproc
 483 0000 80B5     		push	{r7, lr}
 484              		.cfi_def_cfa_offset 8
 485              		.cfi_offset 7, -8
 486              		.cfi_offset 14, -4
 487 0002 82B0     		sub	sp, sp, #8
 488              		.cfi_def_cfa_offset 16
 489 0004 00AF     		add	r7, sp, #0
 490              		.cfi_def_cfa_register 7
 491 0006 7860     		str	r0, [r7, #4]
 451:Generated_Source\PSoC4/LED_CONTROL1.c ****     LED_CONTROL1_TRIG_CONTROL2_REG = (modeMask & LED_CONTROL1_6BIT_MASK);
 492              		.loc 1 451 0
 493 0008 034B     		ldr	r3, .L27
 494 000a 7A68     		ldr	r2, [r7, #4]
 495 000c 3F21     		mov	r1, #63
 496 000e 0A40     		and	r2, r1
 497 0010 1A60     		str	r2, [r3]
 452:Generated_Source\PSoC4/LED_CONTROL1.c **** }
 498              		.loc 1 452 0
 499 0012 BD46     		mov	sp, r7
 500 0014 02B0     		add	sp, sp, #8
 501              		@ sp needed
 502 0016 80BD     		pop	{r7, pc}
 503              	.L28:
 504              		.align	2
 505              	.L27:
 506 0018 68012040 		.word	1075839336
 507              		.cfi_endproc
 508              	.LFE9:
 509              		.size	LED_CONTROL1_SetPWMMode, .-LED_CONTROL1_SetPWMMode
 510              		.section	.text.LED_CONTROL1_SetPWMSyncKill,"ax",%progbits
 511              		.align	2
 512              		.global	LED_CONTROL1_SetPWMSyncKill
 513              		.code	16
 514              		.thumb_func
 515              		.type	LED_CONTROL1_SetPWMSyncKill, %function
 516              	LED_CONTROL1_SetPWMSyncKill:
 517              	.LFB10:
ARM GAS  C:\Users\poornima\AppData\Local\Temp\ccn19ius.s 			page 18


 453:Generated_Source\PSoC4/LED_CONTROL1.c **** 
 454:Generated_Source\PSoC4/LED_CONTROL1.c **** 
 455:Generated_Source\PSoC4/LED_CONTROL1.c **** 
 456:Generated_Source\PSoC4/LED_CONTROL1.c **** /*******************************************************************************
 457:Generated_Source\PSoC4/LED_CONTROL1.c **** * Function Name: LED_CONTROL1_SetPWMSyncKill
 458:Generated_Source\PSoC4/LED_CONTROL1.c **** ********************************************************************************
 459:Generated_Source\PSoC4/LED_CONTROL1.c **** *
 460:Generated_Source\PSoC4/LED_CONTROL1.c **** * Summary:
 461:Generated_Source\PSoC4/LED_CONTROL1.c **** *  Writes the register that controls whether the PWM kill signal (stop input)
 462:Generated_Source\PSoC4/LED_CONTROL1.c **** *  causes asynchronous or synchronous kill operation.  By default the kill
 463:Generated_Source\PSoC4/LED_CONTROL1.c **** *  operation is asynchronous.  This functionality is only applicable to the PWM
 464:Generated_Source\PSoC4/LED_CONTROL1.c **** *  and PWM with dead time modes.
 465:Generated_Source\PSoC4/LED_CONTROL1.c **** *
 466:Generated_Source\PSoC4/LED_CONTROL1.c **** *  For Synchronous mode the kill signal disables both the line and line_n
 467:Generated_Source\PSoC4/LED_CONTROL1.c **** *  signals until the next terminal count.
 468:Generated_Source\PSoC4/LED_CONTROL1.c **** *
 469:Generated_Source\PSoC4/LED_CONTROL1.c **** *  For Asynchronous mode the kill signal disables both the line and line_n
 470:Generated_Source\PSoC4/LED_CONTROL1.c **** *  signals when the kill signal is present.  This mode should only be used
 471:Generated_Source\PSoC4/LED_CONTROL1.c **** *  when the kill signal (stop input) is configured in the pass through mode
 472:Generated_Source\PSoC4/LED_CONTROL1.c **** *  (Level sensitive signal).
 473:Generated_Source\PSoC4/LED_CONTROL1.c **** 
 474:Generated_Source\PSoC4/LED_CONTROL1.c **** *
 475:Generated_Source\PSoC4/LED_CONTROL1.c **** * Parameters:
 476:Generated_Source\PSoC4/LED_CONTROL1.c **** *  syncKillEnable
 477:Generated_Source\PSoC4/LED_CONTROL1.c **** *   Values:
 478:Generated_Source\PSoC4/LED_CONTROL1.c **** *     - 0 - Asynchronous
 479:Generated_Source\PSoC4/LED_CONTROL1.c **** *     - 1 - Synchronous
 480:Generated_Source\PSoC4/LED_CONTROL1.c **** *
 481:Generated_Source\PSoC4/LED_CONTROL1.c **** * Return:
 482:Generated_Source\PSoC4/LED_CONTROL1.c **** *  None
 483:Generated_Source\PSoC4/LED_CONTROL1.c **** *
 484:Generated_Source\PSoC4/LED_CONTROL1.c **** *******************************************************************************/
 485:Generated_Source\PSoC4/LED_CONTROL1.c **** void LED_CONTROL1_SetPWMSyncKill(uint32 syncKillEnable)
 486:Generated_Source\PSoC4/LED_CONTROL1.c **** {
 518              		.loc 1 486 0
 519              		.cfi_startproc
 520 0000 90B5     		push	{r4, r7, lr}
 521              		.cfi_def_cfa_offset 12
 522              		.cfi_offset 4, -12
 523              		.cfi_offset 7, -8
 524              		.cfi_offset 14, -4
 525 0002 85B0     		sub	sp, sp, #20
 526              		.cfi_def_cfa_offset 32
 527 0004 00AF     		add	r7, sp, #0
 528              		.cfi_def_cfa_register 7
 529 0006 7860     		str	r0, [r7, #4]
 487:Generated_Source\PSoC4/LED_CONTROL1.c ****     uint8 enableInterrupts;
 488:Generated_Source\PSoC4/LED_CONTROL1.c **** 
 489:Generated_Source\PSoC4/LED_CONTROL1.c ****     enableInterrupts = CyEnterCriticalSection();
 530              		.loc 1 489 0
 531 0008 0F23     		mov	r3, #15
 532 000a FC18     		add	r4, r7, r3
 533 000c FFF7FEFF 		bl	CyEnterCriticalSection
 534 0010 031C     		mov	r3, r0
 535 0012 2370     		strb	r3, [r4]
 490:Generated_Source\PSoC4/LED_CONTROL1.c **** 
 491:Generated_Source\PSoC4/LED_CONTROL1.c ****     LED_CONTROL1_CONTROL_REG &= (uint32)~LED_CONTROL1_PWM_SYNC_KILL_MASK;
ARM GAS  C:\Users\poornima\AppData\Local\Temp\ccn19ius.s 			page 19


 536              		.loc 1 491 0
 537 0014 0B4B     		ldr	r3, .L30
 538 0016 0B4A     		ldr	r2, .L30
 539 0018 1268     		ldr	r2, [r2]
 540 001a 0421     		mov	r1, #4
 541 001c 8A43     		bic	r2, r1
 542 001e 1A60     		str	r2, [r3]
 492:Generated_Source\PSoC4/LED_CONTROL1.c ****     LED_CONTROL1_CONTROL_REG |= ((uint32)((syncKillEnable & LED_CONTROL1_1BIT_MASK)  <<
 543              		.loc 1 492 0
 544 0020 084B     		ldr	r3, .L30
 545 0022 084A     		ldr	r2, .L30
 546 0024 1168     		ldr	r1, [r2]
 547 0026 7A68     		ldr	r2, [r7, #4]
 548 0028 0120     		mov	r0, #1
 549 002a 0240     		and	r2, r0
 550 002c 9200     		lsl	r2, r2, #2
 551 002e 0A43     		orr	r2, r1
 552 0030 1A60     		str	r2, [r3]
 493:Generated_Source\PSoC4/LED_CONTROL1.c ****                                                LED_CONTROL1_PWM_SYNC_KILL_SHIFT));
 494:Generated_Source\PSoC4/LED_CONTROL1.c **** 
 495:Generated_Source\PSoC4/LED_CONTROL1.c ****     CyExitCriticalSection(enableInterrupts);
 553              		.loc 1 495 0
 554 0032 0F23     		mov	r3, #15
 555 0034 FB18     		add	r3, r7, r3
 556 0036 1B78     		ldrb	r3, [r3]
 557 0038 181C     		mov	r0, r3
 558 003a FFF7FEFF 		bl	CyExitCriticalSection
 496:Generated_Source\PSoC4/LED_CONTROL1.c **** }
 559              		.loc 1 496 0
 560 003e BD46     		mov	sp, r7
 561 0040 05B0     		add	sp, sp, #20
 562              		@ sp needed
 563 0042 90BD     		pop	{r4, r7, pc}
 564              	.L31:
 565              		.align	2
 566              	.L30:
 567 0044 40012040 		.word	1075839296
 568              		.cfi_endproc
 569              	.LFE10:
 570              		.size	LED_CONTROL1_SetPWMSyncKill, .-LED_CONTROL1_SetPWMSyncKill
 571              		.section	.text.LED_CONTROL1_SetPWMStopOnKill,"ax",%progbits
 572              		.align	2
 573              		.global	LED_CONTROL1_SetPWMStopOnKill
 574              		.code	16
 575              		.thumb_func
 576              		.type	LED_CONTROL1_SetPWMStopOnKill, %function
 577              	LED_CONTROL1_SetPWMStopOnKill:
 578              	.LFB11:
 497:Generated_Source\PSoC4/LED_CONTROL1.c **** 
 498:Generated_Source\PSoC4/LED_CONTROL1.c **** 
 499:Generated_Source\PSoC4/LED_CONTROL1.c **** /*******************************************************************************
 500:Generated_Source\PSoC4/LED_CONTROL1.c **** * Function Name: LED_CONTROL1_SetPWMStopOnKill
 501:Generated_Source\PSoC4/LED_CONTROL1.c **** ********************************************************************************
 502:Generated_Source\PSoC4/LED_CONTROL1.c **** *
 503:Generated_Source\PSoC4/LED_CONTROL1.c **** * Summary:
 504:Generated_Source\PSoC4/LED_CONTROL1.c **** *  Writes the register that controls whether the PWM kill signal (stop input)
 505:Generated_Source\PSoC4/LED_CONTROL1.c **** *  causes the PWM counter to stop.  By default the kill operation does not stop
ARM GAS  C:\Users\poornima\AppData\Local\Temp\ccn19ius.s 			page 20


 506:Generated_Source\PSoC4/LED_CONTROL1.c **** *  the counter.  This functionality is only applicable to the three PWM modes.
 507:Generated_Source\PSoC4/LED_CONTROL1.c **** *
 508:Generated_Source\PSoC4/LED_CONTROL1.c **** *
 509:Generated_Source\PSoC4/LED_CONTROL1.c **** * Parameters:
 510:Generated_Source\PSoC4/LED_CONTROL1.c **** *  stopOnKillEnable
 511:Generated_Source\PSoC4/LED_CONTROL1.c **** *   Values:
 512:Generated_Source\PSoC4/LED_CONTROL1.c **** *     - 0 - Don't stop
 513:Generated_Source\PSoC4/LED_CONTROL1.c **** *     - 1 - Stop
 514:Generated_Source\PSoC4/LED_CONTROL1.c **** *
 515:Generated_Source\PSoC4/LED_CONTROL1.c **** * Return:
 516:Generated_Source\PSoC4/LED_CONTROL1.c **** *  None
 517:Generated_Source\PSoC4/LED_CONTROL1.c **** *
 518:Generated_Source\PSoC4/LED_CONTROL1.c **** *******************************************************************************/
 519:Generated_Source\PSoC4/LED_CONTROL1.c **** void LED_CONTROL1_SetPWMStopOnKill(uint32 stopOnKillEnable)
 520:Generated_Source\PSoC4/LED_CONTROL1.c **** {
 579              		.loc 1 520 0
 580              		.cfi_startproc
 581 0000 90B5     		push	{r4, r7, lr}
 582              		.cfi_def_cfa_offset 12
 583              		.cfi_offset 4, -12
 584              		.cfi_offset 7, -8
 585              		.cfi_offset 14, -4
 586 0002 85B0     		sub	sp, sp, #20
 587              		.cfi_def_cfa_offset 32
 588 0004 00AF     		add	r7, sp, #0
 589              		.cfi_def_cfa_register 7
 590 0006 7860     		str	r0, [r7, #4]
 521:Generated_Source\PSoC4/LED_CONTROL1.c ****     uint8 enableInterrupts;
 522:Generated_Source\PSoC4/LED_CONTROL1.c **** 
 523:Generated_Source\PSoC4/LED_CONTROL1.c ****     enableInterrupts = CyEnterCriticalSection();
 591              		.loc 1 523 0
 592 0008 0F23     		mov	r3, #15
 593 000a FC18     		add	r4, r7, r3
 594 000c FFF7FEFF 		bl	CyEnterCriticalSection
 595 0010 031C     		mov	r3, r0
 596 0012 2370     		strb	r3, [r4]
 524:Generated_Source\PSoC4/LED_CONTROL1.c **** 
 525:Generated_Source\PSoC4/LED_CONTROL1.c ****     LED_CONTROL1_CONTROL_REG &= (uint32)~LED_CONTROL1_PWM_STOP_KILL_MASK;
 597              		.loc 1 525 0
 598 0014 0B4B     		ldr	r3, .L33
 599 0016 0B4A     		ldr	r2, .L33
 600 0018 1268     		ldr	r2, [r2]
 601 001a 0821     		mov	r1, #8
 602 001c 8A43     		bic	r2, r1
 603 001e 1A60     		str	r2, [r3]
 526:Generated_Source\PSoC4/LED_CONTROL1.c ****     LED_CONTROL1_CONTROL_REG |= ((uint32)((stopOnKillEnable & LED_CONTROL1_1BIT_MASK)  <<
 604              		.loc 1 526 0
 605 0020 084B     		ldr	r3, .L33
 606 0022 084A     		ldr	r2, .L33
 607 0024 1168     		ldr	r1, [r2]
 608 0026 7A68     		ldr	r2, [r7, #4]
 609 0028 0120     		mov	r0, #1
 610 002a 0240     		and	r2, r0
 611 002c D200     		lsl	r2, r2, #3
 612 002e 0A43     		orr	r2, r1
 613 0030 1A60     		str	r2, [r3]
 527:Generated_Source\PSoC4/LED_CONTROL1.c ****                                                          LED_CONTROL1_PWM_STOP_KILL_SHIFT));
ARM GAS  C:\Users\poornima\AppData\Local\Temp\ccn19ius.s 			page 21


 528:Generated_Source\PSoC4/LED_CONTROL1.c **** 
 529:Generated_Source\PSoC4/LED_CONTROL1.c ****     CyExitCriticalSection(enableInterrupts);
 614              		.loc 1 529 0
 615 0032 0F23     		mov	r3, #15
 616 0034 FB18     		add	r3, r7, r3
 617 0036 1B78     		ldrb	r3, [r3]
 618 0038 181C     		mov	r0, r3
 619 003a FFF7FEFF 		bl	CyExitCriticalSection
 530:Generated_Source\PSoC4/LED_CONTROL1.c **** }
 620              		.loc 1 530 0
 621 003e BD46     		mov	sp, r7
 622 0040 05B0     		add	sp, sp, #20
 623              		@ sp needed
 624 0042 90BD     		pop	{r4, r7, pc}
 625              	.L34:
 626              		.align	2
 627              	.L33:
 628 0044 40012040 		.word	1075839296
 629              		.cfi_endproc
 630              	.LFE11:
 631              		.size	LED_CONTROL1_SetPWMStopOnKill, .-LED_CONTROL1_SetPWMStopOnKill
 632              		.section	.text.LED_CONTROL1_SetPWMDeadTime,"ax",%progbits
 633              		.align	2
 634              		.global	LED_CONTROL1_SetPWMDeadTime
 635              		.code	16
 636              		.thumb_func
 637              		.type	LED_CONTROL1_SetPWMDeadTime, %function
 638              	LED_CONTROL1_SetPWMDeadTime:
 639              	.LFB12:
 531:Generated_Source\PSoC4/LED_CONTROL1.c **** 
 532:Generated_Source\PSoC4/LED_CONTROL1.c **** 
 533:Generated_Source\PSoC4/LED_CONTROL1.c **** /*******************************************************************************
 534:Generated_Source\PSoC4/LED_CONTROL1.c **** * Function Name: LED_CONTROL1_SetPWMDeadTime
 535:Generated_Source\PSoC4/LED_CONTROL1.c **** ********************************************************************************
 536:Generated_Source\PSoC4/LED_CONTROL1.c **** *
 537:Generated_Source\PSoC4/LED_CONTROL1.c **** * Summary:
 538:Generated_Source\PSoC4/LED_CONTROL1.c **** *  Writes the dead time control value.  This value delays the rising edge of
 539:Generated_Source\PSoC4/LED_CONTROL1.c **** *  both the line and line_n signals the designated number of cycles resulting
 540:Generated_Source\PSoC4/LED_CONTROL1.c **** *  in both signals being inactive for that many cycles.  This functionality is
 541:Generated_Source\PSoC4/LED_CONTROL1.c **** *  only applicable to the PWM in the dead time mode.
 542:Generated_Source\PSoC4/LED_CONTROL1.c **** 
 543:Generated_Source\PSoC4/LED_CONTROL1.c **** *
 544:Generated_Source\PSoC4/LED_CONTROL1.c **** * Parameters:
 545:Generated_Source\PSoC4/LED_CONTROL1.c **** *  Dead time to insert
 546:Generated_Source\PSoC4/LED_CONTROL1.c **** *   Values: 0 to 255
 547:Generated_Source\PSoC4/LED_CONTROL1.c **** *
 548:Generated_Source\PSoC4/LED_CONTROL1.c **** * Return:
 549:Generated_Source\PSoC4/LED_CONTROL1.c **** *  None
 550:Generated_Source\PSoC4/LED_CONTROL1.c **** *
 551:Generated_Source\PSoC4/LED_CONTROL1.c **** *******************************************************************************/
 552:Generated_Source\PSoC4/LED_CONTROL1.c **** void LED_CONTROL1_SetPWMDeadTime(uint32 deadTime)
 553:Generated_Source\PSoC4/LED_CONTROL1.c **** {
 640              		.loc 1 553 0
 641              		.cfi_startproc
 642 0000 90B5     		push	{r4, r7, lr}
 643              		.cfi_def_cfa_offset 12
 644              		.cfi_offset 4, -12
ARM GAS  C:\Users\poornima\AppData\Local\Temp\ccn19ius.s 			page 22


 645              		.cfi_offset 7, -8
 646              		.cfi_offset 14, -4
 647 0002 85B0     		sub	sp, sp, #20
 648              		.cfi_def_cfa_offset 32
 649 0004 00AF     		add	r7, sp, #0
 650              		.cfi_def_cfa_register 7
 651 0006 7860     		str	r0, [r7, #4]
 554:Generated_Source\PSoC4/LED_CONTROL1.c ****     uint8 enableInterrupts;
 555:Generated_Source\PSoC4/LED_CONTROL1.c **** 
 556:Generated_Source\PSoC4/LED_CONTROL1.c ****     enableInterrupts = CyEnterCriticalSection();
 652              		.loc 1 556 0
 653 0008 0F23     		mov	r3, #15
 654 000a FC18     		add	r4, r7, r3
 655 000c FFF7FEFF 		bl	CyEnterCriticalSection
 656 0010 031C     		mov	r3, r0
 657 0012 2370     		strb	r3, [r4]
 557:Generated_Source\PSoC4/LED_CONTROL1.c **** 
 558:Generated_Source\PSoC4/LED_CONTROL1.c ****     LED_CONTROL1_CONTROL_REG &= (uint32)~LED_CONTROL1_PRESCALER_MASK;
 658              		.loc 1 558 0
 659 0014 0B4B     		ldr	r3, .L36
 660 0016 0B4A     		ldr	r2, .L36
 661 0018 1268     		ldr	r2, [r2]
 662 001a 0B49     		ldr	r1, .L36+4
 663 001c 0A40     		and	r2, r1
 664 001e 1A60     		str	r2, [r3]
 559:Generated_Source\PSoC4/LED_CONTROL1.c ****     LED_CONTROL1_CONTROL_REG |= ((uint32)((deadTime & LED_CONTROL1_8BIT_MASK) <<
 665              		.loc 1 559 0
 666 0020 084B     		ldr	r3, .L36
 667 0022 084A     		ldr	r2, .L36
 668 0024 1168     		ldr	r1, [r2]
 669 0026 7A68     		ldr	r2, [r7, #4]
 670 0028 1202     		lsl	r2, r2, #8
 671 002a 1204     		lsl	r2, r2, #16
 672 002c 120C     		lsr	r2, r2, #16
 673 002e 0A43     		orr	r2, r1
 674 0030 1A60     		str	r2, [r3]
 560:Generated_Source\PSoC4/LED_CONTROL1.c ****                                                           LED_CONTROL1_PRESCALER_SHIFT));
 561:Generated_Source\PSoC4/LED_CONTROL1.c **** 
 562:Generated_Source\PSoC4/LED_CONTROL1.c ****     CyExitCriticalSection(enableInterrupts);
 675              		.loc 1 562 0
 676 0032 0F23     		mov	r3, #15
 677 0034 FB18     		add	r3, r7, r3
 678 0036 1B78     		ldrb	r3, [r3]
 679 0038 181C     		mov	r0, r3
 680 003a FFF7FEFF 		bl	CyExitCriticalSection
 563:Generated_Source\PSoC4/LED_CONTROL1.c **** }
 681              		.loc 1 563 0
 682 003e BD46     		mov	sp, r7
 683 0040 05B0     		add	sp, sp, #20
 684              		@ sp needed
 685 0042 90BD     		pop	{r4, r7, pc}
 686              	.L37:
 687              		.align	2
 688              	.L36:
 689 0044 40012040 		.word	1075839296
 690 0048 FF00FFFF 		.word	-65281
 691              		.cfi_endproc
ARM GAS  C:\Users\poornima\AppData\Local\Temp\ccn19ius.s 			page 23


 692              	.LFE12:
 693              		.size	LED_CONTROL1_SetPWMDeadTime, .-LED_CONTROL1_SetPWMDeadTime
 694              		.section	.text.LED_CONTROL1_SetPWMInvert,"ax",%progbits
 695              		.align	2
 696              		.global	LED_CONTROL1_SetPWMInvert
 697              		.code	16
 698              		.thumb_func
 699              		.type	LED_CONTROL1_SetPWMInvert, %function
 700              	LED_CONTROL1_SetPWMInvert:
 701              	.LFB13:
 564:Generated_Source\PSoC4/LED_CONTROL1.c **** 
 565:Generated_Source\PSoC4/LED_CONTROL1.c **** 
 566:Generated_Source\PSoC4/LED_CONTROL1.c **** /*******************************************************************************
 567:Generated_Source\PSoC4/LED_CONTROL1.c **** * Function Name: LED_CONTROL1_SetPWMInvert
 568:Generated_Source\PSoC4/LED_CONTROL1.c **** ********************************************************************************
 569:Generated_Source\PSoC4/LED_CONTROL1.c **** *
 570:Generated_Source\PSoC4/LED_CONTROL1.c **** * Summary:
 571:Generated_Source\PSoC4/LED_CONTROL1.c **** *  Writes the bits that control whether the line and line_n outputs are
 572:Generated_Source\PSoC4/LED_CONTROL1.c **** *  inverted from their normal output values.  This functionality is only
 573:Generated_Source\PSoC4/LED_CONTROL1.c **** *  applicable to the three PWM modes.
 574:Generated_Source\PSoC4/LED_CONTROL1.c **** *
 575:Generated_Source\PSoC4/LED_CONTROL1.c **** * Parameters:
 576:Generated_Source\PSoC4/LED_CONTROL1.c **** *  mask: Mask of outputs to invert.
 577:Generated_Source\PSoC4/LED_CONTROL1.c **** *   Values:
 578:Generated_Source\PSoC4/LED_CONTROL1.c **** *         - LED_CONTROL1_INVERT_LINE   - Inverts the line output
 579:Generated_Source\PSoC4/LED_CONTROL1.c **** *         - LED_CONTROL1_INVERT_LINE_N - Inverts the line_n output
 580:Generated_Source\PSoC4/LED_CONTROL1.c **** *
 581:Generated_Source\PSoC4/LED_CONTROL1.c **** * Return:
 582:Generated_Source\PSoC4/LED_CONTROL1.c **** *  None
 583:Generated_Source\PSoC4/LED_CONTROL1.c **** *
 584:Generated_Source\PSoC4/LED_CONTROL1.c **** *******************************************************************************/
 585:Generated_Source\PSoC4/LED_CONTROL1.c **** void LED_CONTROL1_SetPWMInvert(uint32 mask)
 586:Generated_Source\PSoC4/LED_CONTROL1.c **** {
 702              		.loc 1 586 0
 703              		.cfi_startproc
 704 0000 90B5     		push	{r4, r7, lr}
 705              		.cfi_def_cfa_offset 12
 706              		.cfi_offset 4, -12
 707              		.cfi_offset 7, -8
 708              		.cfi_offset 14, -4
 709 0002 85B0     		sub	sp, sp, #20
 710              		.cfi_def_cfa_offset 32
 711 0004 00AF     		add	r7, sp, #0
 712              		.cfi_def_cfa_register 7
 713 0006 7860     		str	r0, [r7, #4]
 587:Generated_Source\PSoC4/LED_CONTROL1.c ****     uint8 enableInterrupts;
 588:Generated_Source\PSoC4/LED_CONTROL1.c **** 
 589:Generated_Source\PSoC4/LED_CONTROL1.c ****     enableInterrupts = CyEnterCriticalSection();
 714              		.loc 1 589 0
 715 0008 0F23     		mov	r3, #15
 716 000a FC18     		add	r4, r7, r3
 717 000c FFF7FEFF 		bl	CyEnterCriticalSection
 718 0010 031C     		mov	r3, r0
 719 0012 2370     		strb	r3, [r4]
 590:Generated_Source\PSoC4/LED_CONTROL1.c **** 
 591:Generated_Source\PSoC4/LED_CONTROL1.c ****     LED_CONTROL1_CONTROL_REG &= (uint32)~LED_CONTROL1_INV_OUT_MASK;
 720              		.loc 1 591 0
ARM GAS  C:\Users\poornima\AppData\Local\Temp\ccn19ius.s 			page 24


 721 0014 0A4B     		ldr	r3, .L39
 722 0016 0A4A     		ldr	r2, .L39
 723 0018 1268     		ldr	r2, [r2]
 724 001a 0A49     		ldr	r1, .L39+4
 725 001c 0A40     		and	r2, r1
 726 001e 1A60     		str	r2, [r3]
 592:Generated_Source\PSoC4/LED_CONTROL1.c ****     LED_CONTROL1_CONTROL_REG |= mask;
 727              		.loc 1 592 0
 728 0020 074B     		ldr	r3, .L39
 729 0022 074A     		ldr	r2, .L39
 730 0024 1168     		ldr	r1, [r2]
 731 0026 7A68     		ldr	r2, [r7, #4]
 732 0028 0A43     		orr	r2, r1
 733 002a 1A60     		str	r2, [r3]
 593:Generated_Source\PSoC4/LED_CONTROL1.c **** 
 594:Generated_Source\PSoC4/LED_CONTROL1.c ****     CyExitCriticalSection(enableInterrupts);
 734              		.loc 1 594 0
 735 002c 0F23     		mov	r3, #15
 736 002e FB18     		add	r3, r7, r3
 737 0030 1B78     		ldrb	r3, [r3]
 738 0032 181C     		mov	r0, r3
 739 0034 FFF7FEFF 		bl	CyExitCriticalSection
 595:Generated_Source\PSoC4/LED_CONTROL1.c **** }
 740              		.loc 1 595 0
 741 0038 BD46     		mov	sp, r7
 742 003a 05B0     		add	sp, sp, #20
 743              		@ sp needed
 744 003c 90BD     		pop	{r4, r7, pc}
 745              	.L40:
 746 003e C046     		.align	2
 747              	.L39:
 748 0040 40012040 		.word	1075839296
 749 0044 FFFFCFFF 		.word	-3145729
 750              		.cfi_endproc
 751              	.LFE13:
 752              		.size	LED_CONTROL1_SetPWMInvert, .-LED_CONTROL1_SetPWMInvert
 753              		.section	.text.LED_CONTROL1_WriteCounter,"ax",%progbits
 754              		.align	2
 755              		.global	LED_CONTROL1_WriteCounter
 756              		.code	16
 757              		.thumb_func
 758              		.type	LED_CONTROL1_WriteCounter, %function
 759              	LED_CONTROL1_WriteCounter:
 760              	.LFB14:
 596:Generated_Source\PSoC4/LED_CONTROL1.c **** 
 597:Generated_Source\PSoC4/LED_CONTROL1.c **** 
 598:Generated_Source\PSoC4/LED_CONTROL1.c **** 
 599:Generated_Source\PSoC4/LED_CONTROL1.c **** /*******************************************************************************
 600:Generated_Source\PSoC4/LED_CONTROL1.c **** * Function Name: LED_CONTROL1_WriteCounter
 601:Generated_Source\PSoC4/LED_CONTROL1.c **** ********************************************************************************
 602:Generated_Source\PSoC4/LED_CONTROL1.c **** *
 603:Generated_Source\PSoC4/LED_CONTROL1.c **** * Summary:
 604:Generated_Source\PSoC4/LED_CONTROL1.c **** *  Writes a new 16bit counter value directly into the counter register, thus
 605:Generated_Source\PSoC4/LED_CONTROL1.c **** *  setting the counter (not the period) to the value written. It is not
 606:Generated_Source\PSoC4/LED_CONTROL1.c **** *  advised to write to this field when the counter is running.
 607:Generated_Source\PSoC4/LED_CONTROL1.c **** *
 608:Generated_Source\PSoC4/LED_CONTROL1.c **** * Parameters:
ARM GAS  C:\Users\poornima\AppData\Local\Temp\ccn19ius.s 			page 25


 609:Generated_Source\PSoC4/LED_CONTROL1.c **** *  count: value to write
 610:Generated_Source\PSoC4/LED_CONTROL1.c **** *
 611:Generated_Source\PSoC4/LED_CONTROL1.c **** * Return:
 612:Generated_Source\PSoC4/LED_CONTROL1.c **** *  None
 613:Generated_Source\PSoC4/LED_CONTROL1.c **** *
 614:Generated_Source\PSoC4/LED_CONTROL1.c **** *******************************************************************************/
 615:Generated_Source\PSoC4/LED_CONTROL1.c **** void LED_CONTROL1_WriteCounter(uint32 count)
 616:Generated_Source\PSoC4/LED_CONTROL1.c **** {
 761              		.loc 1 616 0
 762              		.cfi_startproc
 763 0000 80B5     		push	{r7, lr}
 764              		.cfi_def_cfa_offset 8
 765              		.cfi_offset 7, -8
 766              		.cfi_offset 14, -4
 767 0002 82B0     		sub	sp, sp, #8
 768              		.cfi_def_cfa_offset 16
 769 0004 00AF     		add	r7, sp, #0
 770              		.cfi_def_cfa_register 7
 771 0006 7860     		str	r0, [r7, #4]
 617:Generated_Source\PSoC4/LED_CONTROL1.c ****     LED_CONTROL1_COUNTER_REG = (count & LED_CONTROL1_16BIT_MASK);
 772              		.loc 1 617 0
 773 0008 034B     		ldr	r3, .L42
 774 000a 7A68     		ldr	r2, [r7, #4]
 775 000c 1204     		lsl	r2, r2, #16
 776 000e 120C     		lsr	r2, r2, #16
 777 0010 1A60     		str	r2, [r3]
 618:Generated_Source\PSoC4/LED_CONTROL1.c **** }
 778              		.loc 1 618 0
 779 0012 BD46     		mov	sp, r7
 780 0014 02B0     		add	sp, sp, #8
 781              		@ sp needed
 782 0016 80BD     		pop	{r7, pc}
 783              	.L43:
 784              		.align	2
 785              	.L42:
 786 0018 48012040 		.word	1075839304
 787              		.cfi_endproc
 788              	.LFE14:
 789              		.size	LED_CONTROL1_WriteCounter, .-LED_CONTROL1_WriteCounter
 790              		.section	.text.LED_CONTROL1_ReadCounter,"ax",%progbits
 791              		.align	2
 792              		.global	LED_CONTROL1_ReadCounter
 793              		.code	16
 794              		.thumb_func
 795              		.type	LED_CONTROL1_ReadCounter, %function
 796              	LED_CONTROL1_ReadCounter:
 797              	.LFB15:
 619:Generated_Source\PSoC4/LED_CONTROL1.c **** 
 620:Generated_Source\PSoC4/LED_CONTROL1.c **** 
 621:Generated_Source\PSoC4/LED_CONTROL1.c **** /*******************************************************************************
 622:Generated_Source\PSoC4/LED_CONTROL1.c **** * Function Name: LED_CONTROL1_ReadCounter
 623:Generated_Source\PSoC4/LED_CONTROL1.c **** ********************************************************************************
 624:Generated_Source\PSoC4/LED_CONTROL1.c **** *
 625:Generated_Source\PSoC4/LED_CONTROL1.c **** * Summary:
 626:Generated_Source\PSoC4/LED_CONTROL1.c **** *  Reads the current counter value.
 627:Generated_Source\PSoC4/LED_CONTROL1.c **** *
 628:Generated_Source\PSoC4/LED_CONTROL1.c **** * Parameters:
ARM GAS  C:\Users\poornima\AppData\Local\Temp\ccn19ius.s 			page 26


 629:Generated_Source\PSoC4/LED_CONTROL1.c **** *  None
 630:Generated_Source\PSoC4/LED_CONTROL1.c **** *
 631:Generated_Source\PSoC4/LED_CONTROL1.c **** * Return:
 632:Generated_Source\PSoC4/LED_CONTROL1.c **** *  Current counter value
 633:Generated_Source\PSoC4/LED_CONTROL1.c **** *
 634:Generated_Source\PSoC4/LED_CONTROL1.c **** *******************************************************************************/
 635:Generated_Source\PSoC4/LED_CONTROL1.c **** uint32 LED_CONTROL1_ReadCounter(void)
 636:Generated_Source\PSoC4/LED_CONTROL1.c **** {
 798              		.loc 1 636 0
 799              		.cfi_startproc
 800 0000 80B5     		push	{r7, lr}
 801              		.cfi_def_cfa_offset 8
 802              		.cfi_offset 7, -8
 803              		.cfi_offset 14, -4
 804 0002 00AF     		add	r7, sp, #0
 805              		.cfi_def_cfa_register 7
 637:Generated_Source\PSoC4/LED_CONTROL1.c ****     return (LED_CONTROL1_COUNTER_REG & LED_CONTROL1_16BIT_MASK);
 806              		.loc 1 637 0
 807 0004 034B     		ldr	r3, .L46
 808 0006 1B68     		ldr	r3, [r3]
 809 0008 1B04     		lsl	r3, r3, #16
 810 000a 1B0C     		lsr	r3, r3, #16
 638:Generated_Source\PSoC4/LED_CONTROL1.c **** }
 811              		.loc 1 638 0
 812 000c 181C     		mov	r0, r3
 813 000e BD46     		mov	sp, r7
 814              		@ sp needed
 815 0010 80BD     		pop	{r7, pc}
 816              	.L47:
 817 0012 C046     		.align	2
 818              	.L46:
 819 0014 48012040 		.word	1075839304
 820              		.cfi_endproc
 821              	.LFE15:
 822              		.size	LED_CONTROL1_ReadCounter, .-LED_CONTROL1_ReadCounter
 823              		.section	.text.LED_CONTROL1_SetCounterMode,"ax",%progbits
 824              		.align	2
 825              		.global	LED_CONTROL1_SetCounterMode
 826              		.code	16
 827              		.thumb_func
 828              		.type	LED_CONTROL1_SetCounterMode, %function
 829              	LED_CONTROL1_SetCounterMode:
 830              	.LFB16:
 639:Generated_Source\PSoC4/LED_CONTROL1.c **** 
 640:Generated_Source\PSoC4/LED_CONTROL1.c **** 
 641:Generated_Source\PSoC4/LED_CONTROL1.c **** /*******************************************************************************
 642:Generated_Source\PSoC4/LED_CONTROL1.c **** * Function Name: LED_CONTROL1_SetCounterMode
 643:Generated_Source\PSoC4/LED_CONTROL1.c **** ********************************************************************************
 644:Generated_Source\PSoC4/LED_CONTROL1.c **** *
 645:Generated_Source\PSoC4/LED_CONTROL1.c **** * Summary:
 646:Generated_Source\PSoC4/LED_CONTROL1.c **** *  Sets the counter mode.  Applicable to all modes except Quadrature Decoder
 647:Generated_Source\PSoC4/LED_CONTROL1.c **** *  and the PWM with a pseudo random output.
 648:Generated_Source\PSoC4/LED_CONTROL1.c **** *
 649:Generated_Source\PSoC4/LED_CONTROL1.c **** * Parameters:
 650:Generated_Source\PSoC4/LED_CONTROL1.c **** *  counterMode: Enumerated counter type values
 651:Generated_Source\PSoC4/LED_CONTROL1.c **** *   Values:
 652:Generated_Source\PSoC4/LED_CONTROL1.c **** *     - LED_CONTROL1_COUNT_UP       - Counts up
ARM GAS  C:\Users\poornima\AppData\Local\Temp\ccn19ius.s 			page 27


 653:Generated_Source\PSoC4/LED_CONTROL1.c **** *     - LED_CONTROL1_COUNT_DOWN     - Counts down
 654:Generated_Source\PSoC4/LED_CONTROL1.c **** *     - LED_CONTROL1_COUNT_UPDOWN0  - Counts up and down. Terminal count
 655:Generated_Source\PSoC4/LED_CONTROL1.c **** *                                         generated when counter reaches 0
 656:Generated_Source\PSoC4/LED_CONTROL1.c **** *     - LED_CONTROL1_COUNT_UPDOWN1  - Counts up and down. Terminal count
 657:Generated_Source\PSoC4/LED_CONTROL1.c **** *                                         generated both when counter reaches 0
 658:Generated_Source\PSoC4/LED_CONTROL1.c **** *                                         and period
 659:Generated_Source\PSoC4/LED_CONTROL1.c **** *
 660:Generated_Source\PSoC4/LED_CONTROL1.c **** * Return:
 661:Generated_Source\PSoC4/LED_CONTROL1.c **** *  None
 662:Generated_Source\PSoC4/LED_CONTROL1.c **** *
 663:Generated_Source\PSoC4/LED_CONTROL1.c **** *******************************************************************************/
 664:Generated_Source\PSoC4/LED_CONTROL1.c **** void LED_CONTROL1_SetCounterMode(uint32 counterMode)
 665:Generated_Source\PSoC4/LED_CONTROL1.c **** {
 831              		.loc 1 665 0
 832              		.cfi_startproc
 833 0000 90B5     		push	{r4, r7, lr}
 834              		.cfi_def_cfa_offset 12
 835              		.cfi_offset 4, -12
 836              		.cfi_offset 7, -8
 837              		.cfi_offset 14, -4
 838 0002 85B0     		sub	sp, sp, #20
 839              		.cfi_def_cfa_offset 32
 840 0004 00AF     		add	r7, sp, #0
 841              		.cfi_def_cfa_register 7
 842 0006 7860     		str	r0, [r7, #4]
 666:Generated_Source\PSoC4/LED_CONTROL1.c ****     uint8 enableInterrupts;
 667:Generated_Source\PSoC4/LED_CONTROL1.c **** 
 668:Generated_Source\PSoC4/LED_CONTROL1.c ****     enableInterrupts = CyEnterCriticalSection();
 843              		.loc 1 668 0
 844 0008 0F23     		mov	r3, #15
 845 000a FC18     		add	r4, r7, r3
 846 000c FFF7FEFF 		bl	CyEnterCriticalSection
 847 0010 031C     		mov	r3, r0
 848 0012 2370     		strb	r3, [r4]
 669:Generated_Source\PSoC4/LED_CONTROL1.c **** 
 670:Generated_Source\PSoC4/LED_CONTROL1.c ****     LED_CONTROL1_CONTROL_REG &= (uint32)~LED_CONTROL1_UPDOWN_MASK;
 849              		.loc 1 670 0
 850 0014 0A4B     		ldr	r3, .L49
 851 0016 0A4A     		ldr	r2, .L49
 852 0018 1268     		ldr	r2, [r2]
 853 001a 0A49     		ldr	r1, .L49+4
 854 001c 0A40     		and	r2, r1
 855 001e 1A60     		str	r2, [r3]
 671:Generated_Source\PSoC4/LED_CONTROL1.c ****     LED_CONTROL1_CONTROL_REG |= counterMode;
 856              		.loc 1 671 0
 857 0020 074B     		ldr	r3, .L49
 858 0022 074A     		ldr	r2, .L49
 859 0024 1168     		ldr	r1, [r2]
 860 0026 7A68     		ldr	r2, [r7, #4]
 861 0028 0A43     		orr	r2, r1
 862 002a 1A60     		str	r2, [r3]
 672:Generated_Source\PSoC4/LED_CONTROL1.c **** 
 673:Generated_Source\PSoC4/LED_CONTROL1.c ****     CyExitCriticalSection(enableInterrupts);
 863              		.loc 1 673 0
 864 002c 0F23     		mov	r3, #15
 865 002e FB18     		add	r3, r7, r3
 866 0030 1B78     		ldrb	r3, [r3]
ARM GAS  C:\Users\poornima\AppData\Local\Temp\ccn19ius.s 			page 28


 867 0032 181C     		mov	r0, r3
 868 0034 FFF7FEFF 		bl	CyExitCriticalSection
 674:Generated_Source\PSoC4/LED_CONTROL1.c **** }
 869              		.loc 1 674 0
 870 0038 BD46     		mov	sp, r7
 871 003a 05B0     		add	sp, sp, #20
 872              		@ sp needed
 873 003c 90BD     		pop	{r4, r7, pc}
 874              	.L50:
 875 003e C046     		.align	2
 876              	.L49:
 877 0040 40012040 		.word	1075839296
 878 0044 FFFFFCFF 		.word	-196609
 879              		.cfi_endproc
 880              	.LFE16:
 881              		.size	LED_CONTROL1_SetCounterMode, .-LED_CONTROL1_SetCounterMode
 882              		.section	.text.LED_CONTROL1_WritePeriod,"ax",%progbits
 883              		.align	2
 884              		.global	LED_CONTROL1_WritePeriod
 885              		.code	16
 886              		.thumb_func
 887              		.type	LED_CONTROL1_WritePeriod, %function
 888              	LED_CONTROL1_WritePeriod:
 889              	.LFB17:
 675:Generated_Source\PSoC4/LED_CONTROL1.c **** 
 676:Generated_Source\PSoC4/LED_CONTROL1.c **** 
 677:Generated_Source\PSoC4/LED_CONTROL1.c **** /*******************************************************************************
 678:Generated_Source\PSoC4/LED_CONTROL1.c **** * Function Name: LED_CONTROL1_WritePeriod
 679:Generated_Source\PSoC4/LED_CONTROL1.c **** ********************************************************************************
 680:Generated_Source\PSoC4/LED_CONTROL1.c **** *
 681:Generated_Source\PSoC4/LED_CONTROL1.c **** * Summary:
 682:Generated_Source\PSoC4/LED_CONTROL1.c **** *  Writes the 16 bit period register with the new period value.
 683:Generated_Source\PSoC4/LED_CONTROL1.c **** *  To cause the counter to count for N cycles this register should be written
 684:Generated_Source\PSoC4/LED_CONTROL1.c **** *  with N-1 (counts from 0 to period inclusive).
 685:Generated_Source\PSoC4/LED_CONTROL1.c **** *
 686:Generated_Source\PSoC4/LED_CONTROL1.c **** * Parameters:
 687:Generated_Source\PSoC4/LED_CONTROL1.c **** *  period: Period value
 688:Generated_Source\PSoC4/LED_CONTROL1.c **** *
 689:Generated_Source\PSoC4/LED_CONTROL1.c **** * Return:
 690:Generated_Source\PSoC4/LED_CONTROL1.c **** *  None
 691:Generated_Source\PSoC4/LED_CONTROL1.c **** *
 692:Generated_Source\PSoC4/LED_CONTROL1.c **** *******************************************************************************/
 693:Generated_Source\PSoC4/LED_CONTROL1.c **** void LED_CONTROL1_WritePeriod(uint32 period)
 694:Generated_Source\PSoC4/LED_CONTROL1.c **** {
 890              		.loc 1 694 0
 891              		.cfi_startproc
 892 0000 80B5     		push	{r7, lr}
 893              		.cfi_def_cfa_offset 8
 894              		.cfi_offset 7, -8
 895              		.cfi_offset 14, -4
 896 0002 82B0     		sub	sp, sp, #8
 897              		.cfi_def_cfa_offset 16
 898 0004 00AF     		add	r7, sp, #0
 899              		.cfi_def_cfa_register 7
 900 0006 7860     		str	r0, [r7, #4]
 695:Generated_Source\PSoC4/LED_CONTROL1.c ****     LED_CONTROL1_PERIOD_REG = (period & LED_CONTROL1_16BIT_MASK);
 901              		.loc 1 695 0
ARM GAS  C:\Users\poornima\AppData\Local\Temp\ccn19ius.s 			page 29


 902 0008 034B     		ldr	r3, .L52
 903 000a 7A68     		ldr	r2, [r7, #4]
 904 000c 1204     		lsl	r2, r2, #16
 905 000e 120C     		lsr	r2, r2, #16
 906 0010 1A60     		str	r2, [r3]
 696:Generated_Source\PSoC4/LED_CONTROL1.c **** }
 907              		.loc 1 696 0
 908 0012 BD46     		mov	sp, r7
 909 0014 02B0     		add	sp, sp, #8
 910              		@ sp needed
 911 0016 80BD     		pop	{r7, pc}
 912              	.L53:
 913              		.align	2
 914              	.L52:
 915 0018 54012040 		.word	1075839316
 916              		.cfi_endproc
 917              	.LFE17:
 918              		.size	LED_CONTROL1_WritePeriod, .-LED_CONTROL1_WritePeriod
 919              		.section	.text.LED_CONTROL1_ReadPeriod,"ax",%progbits
 920              		.align	2
 921              		.global	LED_CONTROL1_ReadPeriod
 922              		.code	16
 923              		.thumb_func
 924              		.type	LED_CONTROL1_ReadPeriod, %function
 925              	LED_CONTROL1_ReadPeriod:
 926              	.LFB18:
 697:Generated_Source\PSoC4/LED_CONTROL1.c **** 
 698:Generated_Source\PSoC4/LED_CONTROL1.c **** 
 699:Generated_Source\PSoC4/LED_CONTROL1.c **** /*******************************************************************************
 700:Generated_Source\PSoC4/LED_CONTROL1.c **** * Function Name: LED_CONTROL1_ReadPeriod
 701:Generated_Source\PSoC4/LED_CONTROL1.c **** ********************************************************************************
 702:Generated_Source\PSoC4/LED_CONTROL1.c **** *
 703:Generated_Source\PSoC4/LED_CONTROL1.c **** * Summary:
 704:Generated_Source\PSoC4/LED_CONTROL1.c **** *  Reads the 16 bit period register.
 705:Generated_Source\PSoC4/LED_CONTROL1.c **** *
 706:Generated_Source\PSoC4/LED_CONTROL1.c **** * Parameters:
 707:Generated_Source\PSoC4/LED_CONTROL1.c **** *  None
 708:Generated_Source\PSoC4/LED_CONTROL1.c **** *
 709:Generated_Source\PSoC4/LED_CONTROL1.c **** * Return:
 710:Generated_Source\PSoC4/LED_CONTROL1.c **** *  Period value
 711:Generated_Source\PSoC4/LED_CONTROL1.c **** *
 712:Generated_Source\PSoC4/LED_CONTROL1.c **** *******************************************************************************/
 713:Generated_Source\PSoC4/LED_CONTROL1.c **** uint32 LED_CONTROL1_ReadPeriod(void)
 714:Generated_Source\PSoC4/LED_CONTROL1.c **** {
 927              		.loc 1 714 0
 928              		.cfi_startproc
 929 0000 80B5     		push	{r7, lr}
 930              		.cfi_def_cfa_offset 8
 931              		.cfi_offset 7, -8
 932              		.cfi_offset 14, -4
 933 0002 00AF     		add	r7, sp, #0
 934              		.cfi_def_cfa_register 7
 715:Generated_Source\PSoC4/LED_CONTROL1.c ****     return (LED_CONTROL1_PERIOD_REG & LED_CONTROL1_16BIT_MASK);
 935              		.loc 1 715 0
 936 0004 034B     		ldr	r3, .L56
 937 0006 1B68     		ldr	r3, [r3]
 938 0008 1B04     		lsl	r3, r3, #16
ARM GAS  C:\Users\poornima\AppData\Local\Temp\ccn19ius.s 			page 30


 939 000a 1B0C     		lsr	r3, r3, #16
 716:Generated_Source\PSoC4/LED_CONTROL1.c **** }
 940              		.loc 1 716 0
 941 000c 181C     		mov	r0, r3
 942 000e BD46     		mov	sp, r7
 943              		@ sp needed
 944 0010 80BD     		pop	{r7, pc}
 945              	.L57:
 946 0012 C046     		.align	2
 947              	.L56:
 948 0014 54012040 		.word	1075839316
 949              		.cfi_endproc
 950              	.LFE18:
 951              		.size	LED_CONTROL1_ReadPeriod, .-LED_CONTROL1_ReadPeriod
 952              		.section	.text.LED_CONTROL1_SetCompareSwap,"ax",%progbits
 953              		.align	2
 954              		.global	LED_CONTROL1_SetCompareSwap
 955              		.code	16
 956              		.thumb_func
 957              		.type	LED_CONTROL1_SetCompareSwap, %function
 958              	LED_CONTROL1_SetCompareSwap:
 959              	.LFB19:
 717:Generated_Source\PSoC4/LED_CONTROL1.c **** 
 718:Generated_Source\PSoC4/LED_CONTROL1.c **** 
 719:Generated_Source\PSoC4/LED_CONTROL1.c **** /*******************************************************************************
 720:Generated_Source\PSoC4/LED_CONTROL1.c **** * Function Name: LED_CONTROL1_SetCompareSwap
 721:Generated_Source\PSoC4/LED_CONTROL1.c **** ********************************************************************************
 722:Generated_Source\PSoC4/LED_CONTROL1.c **** *
 723:Generated_Source\PSoC4/LED_CONTROL1.c **** * Summary:
 724:Generated_Source\PSoC4/LED_CONTROL1.c **** *  Writes the register that controls whether the compare registers are
 725:Generated_Source\PSoC4/LED_CONTROL1.c **** *  swapped. When enabled in the Timer/Counter mode(without capture) the swap
 726:Generated_Source\PSoC4/LED_CONTROL1.c **** *  occurs at a TC event. In the PWM mode the swap occurs at the next TC event
 727:Generated_Source\PSoC4/LED_CONTROL1.c **** *  following a hardware switch event.
 728:Generated_Source\PSoC4/LED_CONTROL1.c **** *
 729:Generated_Source\PSoC4/LED_CONTROL1.c **** * Parameters:
 730:Generated_Source\PSoC4/LED_CONTROL1.c **** *  swapEnable
 731:Generated_Source\PSoC4/LED_CONTROL1.c **** *   Values:
 732:Generated_Source\PSoC4/LED_CONTROL1.c **** *     - 0 - Disable swap
 733:Generated_Source\PSoC4/LED_CONTROL1.c **** *     - 1 - Enable swap
 734:Generated_Source\PSoC4/LED_CONTROL1.c **** *
 735:Generated_Source\PSoC4/LED_CONTROL1.c **** * Return:
 736:Generated_Source\PSoC4/LED_CONTROL1.c **** *  None
 737:Generated_Source\PSoC4/LED_CONTROL1.c **** *
 738:Generated_Source\PSoC4/LED_CONTROL1.c **** *******************************************************************************/
 739:Generated_Source\PSoC4/LED_CONTROL1.c **** void LED_CONTROL1_SetCompareSwap(uint32 swapEnable)
 740:Generated_Source\PSoC4/LED_CONTROL1.c **** {
 960              		.loc 1 740 0
 961              		.cfi_startproc
 962 0000 90B5     		push	{r4, r7, lr}
 963              		.cfi_def_cfa_offset 12
 964              		.cfi_offset 4, -12
 965              		.cfi_offset 7, -8
 966              		.cfi_offset 14, -4
 967 0002 85B0     		sub	sp, sp, #20
 968              		.cfi_def_cfa_offset 32
 969 0004 00AF     		add	r7, sp, #0
 970              		.cfi_def_cfa_register 7
ARM GAS  C:\Users\poornima\AppData\Local\Temp\ccn19ius.s 			page 31


 971 0006 7860     		str	r0, [r7, #4]
 741:Generated_Source\PSoC4/LED_CONTROL1.c ****     uint8 enableInterrupts;
 742:Generated_Source\PSoC4/LED_CONTROL1.c **** 
 743:Generated_Source\PSoC4/LED_CONTROL1.c ****     enableInterrupts = CyEnterCriticalSection();
 972              		.loc 1 743 0
 973 0008 0F23     		mov	r3, #15
 974 000a FC18     		add	r4, r7, r3
 975 000c FFF7FEFF 		bl	CyEnterCriticalSection
 976 0010 031C     		mov	r3, r0
 977 0012 2370     		strb	r3, [r4]
 744:Generated_Source\PSoC4/LED_CONTROL1.c **** 
 745:Generated_Source\PSoC4/LED_CONTROL1.c ****     LED_CONTROL1_CONTROL_REG &= (uint32)~LED_CONTROL1_RELOAD_CC_MASK;
 978              		.loc 1 745 0
 979 0014 0B4B     		ldr	r3, .L59
 980 0016 0B4A     		ldr	r2, .L59
 981 0018 1268     		ldr	r2, [r2]
 982 001a 0121     		mov	r1, #1
 983 001c 8A43     		bic	r2, r1
 984 001e 1A60     		str	r2, [r3]
 746:Generated_Source\PSoC4/LED_CONTROL1.c ****     LED_CONTROL1_CONTROL_REG |= (swapEnable & LED_CONTROL1_1BIT_MASK);
 985              		.loc 1 746 0
 986 0020 084B     		ldr	r3, .L59
 987 0022 084A     		ldr	r2, .L59
 988 0024 1168     		ldr	r1, [r2]
 989 0026 7A68     		ldr	r2, [r7, #4]
 990 0028 0120     		mov	r0, #1
 991 002a 0240     		and	r2, r0
 992 002c 0A43     		orr	r2, r1
 993 002e 1A60     		str	r2, [r3]
 747:Generated_Source\PSoC4/LED_CONTROL1.c **** 
 748:Generated_Source\PSoC4/LED_CONTROL1.c ****     CyExitCriticalSection(enableInterrupts);
 994              		.loc 1 748 0
 995 0030 0F23     		mov	r3, #15
 996 0032 FB18     		add	r3, r7, r3
 997 0034 1B78     		ldrb	r3, [r3]
 998 0036 181C     		mov	r0, r3
 999 0038 FFF7FEFF 		bl	CyExitCriticalSection
 749:Generated_Source\PSoC4/LED_CONTROL1.c **** }
 1000              		.loc 1 749 0
 1001 003c BD46     		mov	sp, r7
 1002 003e 05B0     		add	sp, sp, #20
 1003              		@ sp needed
 1004 0040 90BD     		pop	{r4, r7, pc}
 1005              	.L60:
 1006 0042 C046     		.align	2
 1007              	.L59:
 1008 0044 40012040 		.word	1075839296
 1009              		.cfi_endproc
 1010              	.LFE19:
 1011              		.size	LED_CONTROL1_SetCompareSwap, .-LED_CONTROL1_SetCompareSwap
 1012              		.section	.text.LED_CONTROL1_WritePeriodBuf,"ax",%progbits
 1013              		.align	2
 1014              		.global	LED_CONTROL1_WritePeriodBuf
 1015              		.code	16
 1016              		.thumb_func
 1017              		.type	LED_CONTROL1_WritePeriodBuf, %function
 1018              	LED_CONTROL1_WritePeriodBuf:
ARM GAS  C:\Users\poornima\AppData\Local\Temp\ccn19ius.s 			page 32


 1019              	.LFB20:
 750:Generated_Source\PSoC4/LED_CONTROL1.c **** 
 751:Generated_Source\PSoC4/LED_CONTROL1.c **** 
 752:Generated_Source\PSoC4/LED_CONTROL1.c **** /*******************************************************************************
 753:Generated_Source\PSoC4/LED_CONTROL1.c **** * Function Name: LED_CONTROL1_WritePeriodBuf
 754:Generated_Source\PSoC4/LED_CONTROL1.c **** ********************************************************************************
 755:Generated_Source\PSoC4/LED_CONTROL1.c **** *
 756:Generated_Source\PSoC4/LED_CONTROL1.c **** * Summary:
 757:Generated_Source\PSoC4/LED_CONTROL1.c **** *  Writes the 16 bit period buf register with the new period value.
 758:Generated_Source\PSoC4/LED_CONTROL1.c **** *
 759:Generated_Source\PSoC4/LED_CONTROL1.c **** * Parameters:
 760:Generated_Source\PSoC4/LED_CONTROL1.c **** *  periodBuf: Period value
 761:Generated_Source\PSoC4/LED_CONTROL1.c **** *
 762:Generated_Source\PSoC4/LED_CONTROL1.c **** * Return:
 763:Generated_Source\PSoC4/LED_CONTROL1.c **** *  None
 764:Generated_Source\PSoC4/LED_CONTROL1.c **** *
 765:Generated_Source\PSoC4/LED_CONTROL1.c **** *******************************************************************************/
 766:Generated_Source\PSoC4/LED_CONTROL1.c **** void LED_CONTROL1_WritePeriodBuf(uint32 periodBuf)
 767:Generated_Source\PSoC4/LED_CONTROL1.c **** {
 1020              		.loc 1 767 0
 1021              		.cfi_startproc
 1022 0000 80B5     		push	{r7, lr}
 1023              		.cfi_def_cfa_offset 8
 1024              		.cfi_offset 7, -8
 1025              		.cfi_offset 14, -4
 1026 0002 82B0     		sub	sp, sp, #8
 1027              		.cfi_def_cfa_offset 16
 1028 0004 00AF     		add	r7, sp, #0
 1029              		.cfi_def_cfa_register 7
 1030 0006 7860     		str	r0, [r7, #4]
 768:Generated_Source\PSoC4/LED_CONTROL1.c ****     LED_CONTROL1_PERIOD_BUF_REG = (periodBuf & LED_CONTROL1_16BIT_MASK);
 1031              		.loc 1 768 0
 1032 0008 034B     		ldr	r3, .L62
 1033 000a 7A68     		ldr	r2, [r7, #4]
 1034 000c 1204     		lsl	r2, r2, #16
 1035 000e 120C     		lsr	r2, r2, #16
 1036 0010 1A60     		str	r2, [r3]
 769:Generated_Source\PSoC4/LED_CONTROL1.c **** }
 1037              		.loc 1 769 0
 1038 0012 BD46     		mov	sp, r7
 1039 0014 02B0     		add	sp, sp, #8
 1040              		@ sp needed
 1041 0016 80BD     		pop	{r7, pc}
 1042              	.L63:
 1043              		.align	2
 1044              	.L62:
 1045 0018 58012040 		.word	1075839320
 1046              		.cfi_endproc
 1047              	.LFE20:
 1048              		.size	LED_CONTROL1_WritePeriodBuf, .-LED_CONTROL1_WritePeriodBuf
 1049              		.section	.text.LED_CONTROL1_ReadPeriodBuf,"ax",%progbits
 1050              		.align	2
 1051              		.global	LED_CONTROL1_ReadPeriodBuf
 1052              		.code	16
 1053              		.thumb_func
 1054              		.type	LED_CONTROL1_ReadPeriodBuf, %function
 1055              	LED_CONTROL1_ReadPeriodBuf:
ARM GAS  C:\Users\poornima\AppData\Local\Temp\ccn19ius.s 			page 33


 1056              	.LFB21:
 770:Generated_Source\PSoC4/LED_CONTROL1.c **** 
 771:Generated_Source\PSoC4/LED_CONTROL1.c **** 
 772:Generated_Source\PSoC4/LED_CONTROL1.c **** /*******************************************************************************
 773:Generated_Source\PSoC4/LED_CONTROL1.c **** * Function Name: LED_CONTROL1_ReadPeriodBuf
 774:Generated_Source\PSoC4/LED_CONTROL1.c **** ********************************************************************************
 775:Generated_Source\PSoC4/LED_CONTROL1.c **** *
 776:Generated_Source\PSoC4/LED_CONTROL1.c **** * Summary:
 777:Generated_Source\PSoC4/LED_CONTROL1.c **** *  Reads the 16 bit period buf register.
 778:Generated_Source\PSoC4/LED_CONTROL1.c **** *
 779:Generated_Source\PSoC4/LED_CONTROL1.c **** * Parameters:
 780:Generated_Source\PSoC4/LED_CONTROL1.c **** *  None
 781:Generated_Source\PSoC4/LED_CONTROL1.c **** *
 782:Generated_Source\PSoC4/LED_CONTROL1.c **** * Return:
 783:Generated_Source\PSoC4/LED_CONTROL1.c **** *  Period value
 784:Generated_Source\PSoC4/LED_CONTROL1.c **** *
 785:Generated_Source\PSoC4/LED_CONTROL1.c **** *******************************************************************************/
 786:Generated_Source\PSoC4/LED_CONTROL1.c **** uint32 LED_CONTROL1_ReadPeriodBuf(void)
 787:Generated_Source\PSoC4/LED_CONTROL1.c **** {
 1057              		.loc 1 787 0
 1058              		.cfi_startproc
 1059 0000 80B5     		push	{r7, lr}
 1060              		.cfi_def_cfa_offset 8
 1061              		.cfi_offset 7, -8
 1062              		.cfi_offset 14, -4
 1063 0002 00AF     		add	r7, sp, #0
 1064              		.cfi_def_cfa_register 7
 788:Generated_Source\PSoC4/LED_CONTROL1.c ****     return (LED_CONTROL1_PERIOD_BUF_REG & LED_CONTROL1_16BIT_MASK);
 1065              		.loc 1 788 0
 1066 0004 034B     		ldr	r3, .L66
 1067 0006 1B68     		ldr	r3, [r3]
 1068 0008 1B04     		lsl	r3, r3, #16
 1069 000a 1B0C     		lsr	r3, r3, #16
 789:Generated_Source\PSoC4/LED_CONTROL1.c **** }
 1070              		.loc 1 789 0
 1071 000c 181C     		mov	r0, r3
 1072 000e BD46     		mov	sp, r7
 1073              		@ sp needed
 1074 0010 80BD     		pop	{r7, pc}
 1075              	.L67:
 1076 0012 C046     		.align	2
 1077              	.L66:
 1078 0014 58012040 		.word	1075839320
 1079              		.cfi_endproc
 1080              	.LFE21:
 1081              		.size	LED_CONTROL1_ReadPeriodBuf, .-LED_CONTROL1_ReadPeriodBuf
 1082              		.section	.text.LED_CONTROL1_SetPeriodSwap,"ax",%progbits
 1083              		.align	2
 1084              		.global	LED_CONTROL1_SetPeriodSwap
 1085              		.code	16
 1086              		.thumb_func
 1087              		.type	LED_CONTROL1_SetPeriodSwap, %function
 1088              	LED_CONTROL1_SetPeriodSwap:
 1089              	.LFB22:
 790:Generated_Source\PSoC4/LED_CONTROL1.c **** 
 791:Generated_Source\PSoC4/LED_CONTROL1.c **** 
 792:Generated_Source\PSoC4/LED_CONTROL1.c **** /*******************************************************************************
ARM GAS  C:\Users\poornima\AppData\Local\Temp\ccn19ius.s 			page 34


 793:Generated_Source\PSoC4/LED_CONTROL1.c **** * Function Name: LED_CONTROL1_SetPeriodSwap
 794:Generated_Source\PSoC4/LED_CONTROL1.c **** ********************************************************************************
 795:Generated_Source\PSoC4/LED_CONTROL1.c **** *
 796:Generated_Source\PSoC4/LED_CONTROL1.c **** * Summary:
 797:Generated_Source\PSoC4/LED_CONTROL1.c **** *  Writes the register that controls whether the period registers are
 798:Generated_Source\PSoC4/LED_CONTROL1.c **** *  swapped. When enabled in Timer/Counter mode the swap occurs at a TC event.
 799:Generated_Source\PSoC4/LED_CONTROL1.c **** *  In the PWM mode the swap occurs at the next TC event following a hardware
 800:Generated_Source\PSoC4/LED_CONTROL1.c **** *  switch event.
 801:Generated_Source\PSoC4/LED_CONTROL1.c **** *
 802:Generated_Source\PSoC4/LED_CONTROL1.c **** * Parameters:
 803:Generated_Source\PSoC4/LED_CONTROL1.c **** *  swapEnable
 804:Generated_Source\PSoC4/LED_CONTROL1.c **** *   Values:
 805:Generated_Source\PSoC4/LED_CONTROL1.c **** *     - 0 - Disable swap
 806:Generated_Source\PSoC4/LED_CONTROL1.c **** *     - 1 - Enable swap
 807:Generated_Source\PSoC4/LED_CONTROL1.c **** *
 808:Generated_Source\PSoC4/LED_CONTROL1.c **** * Return:
 809:Generated_Source\PSoC4/LED_CONTROL1.c **** *  None
 810:Generated_Source\PSoC4/LED_CONTROL1.c **** *
 811:Generated_Source\PSoC4/LED_CONTROL1.c **** *******************************************************************************/
 812:Generated_Source\PSoC4/LED_CONTROL1.c **** void LED_CONTROL1_SetPeriodSwap(uint32 swapEnable)
 813:Generated_Source\PSoC4/LED_CONTROL1.c **** {
 1090              		.loc 1 813 0
 1091              		.cfi_startproc
 1092 0000 90B5     		push	{r4, r7, lr}
 1093              		.cfi_def_cfa_offset 12
 1094              		.cfi_offset 4, -12
 1095              		.cfi_offset 7, -8
 1096              		.cfi_offset 14, -4
 1097 0002 85B0     		sub	sp, sp, #20
 1098              		.cfi_def_cfa_offset 32
 1099 0004 00AF     		add	r7, sp, #0
 1100              		.cfi_def_cfa_register 7
 1101 0006 7860     		str	r0, [r7, #4]
 814:Generated_Source\PSoC4/LED_CONTROL1.c ****     uint8 enableInterrupts;
 815:Generated_Source\PSoC4/LED_CONTROL1.c **** 
 816:Generated_Source\PSoC4/LED_CONTROL1.c ****     enableInterrupts = CyEnterCriticalSection();
 1102              		.loc 1 816 0
 1103 0008 0F23     		mov	r3, #15
 1104 000a FC18     		add	r4, r7, r3
 1105 000c FFF7FEFF 		bl	CyEnterCriticalSection
 1106 0010 031C     		mov	r3, r0
 1107 0012 2370     		strb	r3, [r4]
 817:Generated_Source\PSoC4/LED_CONTROL1.c **** 
 818:Generated_Source\PSoC4/LED_CONTROL1.c ****     LED_CONTROL1_CONTROL_REG &= (uint32)~LED_CONTROL1_RELOAD_PERIOD_MASK;
 1108              		.loc 1 818 0
 1109 0014 0B4B     		ldr	r3, .L69
 1110 0016 0B4A     		ldr	r2, .L69
 1111 0018 1268     		ldr	r2, [r2]
 1112 001a 0221     		mov	r1, #2
 1113 001c 8A43     		bic	r2, r1
 1114 001e 1A60     		str	r2, [r3]
 819:Generated_Source\PSoC4/LED_CONTROL1.c ****     LED_CONTROL1_CONTROL_REG |= ((uint32)((swapEnable & LED_CONTROL1_1BIT_MASK) <<
 1115              		.loc 1 819 0
 1116 0020 084B     		ldr	r3, .L69
 1117 0022 084A     		ldr	r2, .L69
 1118 0024 1168     		ldr	r1, [r2]
 1119 0026 7A68     		ldr	r2, [r7, #4]
ARM GAS  C:\Users\poornima\AppData\Local\Temp\ccn19ius.s 			page 35


 1120 0028 0120     		mov	r0, #1
 1121 002a 0240     		and	r2, r0
 1122 002c 5200     		lsl	r2, r2, #1
 1123 002e 0A43     		orr	r2, r1
 1124 0030 1A60     		str	r2, [r3]
 820:Generated_Source\PSoC4/LED_CONTROL1.c ****                                                             LED_CONTROL1_RELOAD_PERIOD_SHIFT));
 821:Generated_Source\PSoC4/LED_CONTROL1.c **** 
 822:Generated_Source\PSoC4/LED_CONTROL1.c ****     CyExitCriticalSection(enableInterrupts);
 1125              		.loc 1 822 0
 1126 0032 0F23     		mov	r3, #15
 1127 0034 FB18     		add	r3, r7, r3
 1128 0036 1B78     		ldrb	r3, [r3]
 1129 0038 181C     		mov	r0, r3
 1130 003a FFF7FEFF 		bl	CyExitCriticalSection
 823:Generated_Source\PSoC4/LED_CONTROL1.c **** }
 1131              		.loc 1 823 0
 1132 003e BD46     		mov	sp, r7
 1133 0040 05B0     		add	sp, sp, #20
 1134              		@ sp needed
 1135 0042 90BD     		pop	{r4, r7, pc}
 1136              	.L70:
 1137              		.align	2
 1138              	.L69:
 1139 0044 40012040 		.word	1075839296
 1140              		.cfi_endproc
 1141              	.LFE22:
 1142              		.size	LED_CONTROL1_SetPeriodSwap, .-LED_CONTROL1_SetPeriodSwap
 1143              		.section	.text.LED_CONTROL1_WriteCompare,"ax",%progbits
 1144              		.align	2
 1145              		.global	LED_CONTROL1_WriteCompare
 1146              		.code	16
 1147              		.thumb_func
 1148              		.type	LED_CONTROL1_WriteCompare, %function
 1149              	LED_CONTROL1_WriteCompare:
 1150              	.LFB23:
 824:Generated_Source\PSoC4/LED_CONTROL1.c **** 
 825:Generated_Source\PSoC4/LED_CONTROL1.c **** 
 826:Generated_Source\PSoC4/LED_CONTROL1.c **** /*******************************************************************************
 827:Generated_Source\PSoC4/LED_CONTROL1.c **** * Function Name: LED_CONTROL1_WriteCompare
 828:Generated_Source\PSoC4/LED_CONTROL1.c **** ********************************************************************************
 829:Generated_Source\PSoC4/LED_CONTROL1.c **** *
 830:Generated_Source\PSoC4/LED_CONTROL1.c **** * Summary:
 831:Generated_Source\PSoC4/LED_CONTROL1.c **** *  Writes the 16 bit compare register with the new compare value. Not
 832:Generated_Source\PSoC4/LED_CONTROL1.c **** *  applicable for Timer/Counter with Capture or in Quadrature Decoder modes.
 833:Generated_Source\PSoC4/LED_CONTROL1.c **** *
 834:Generated_Source\PSoC4/LED_CONTROL1.c **** * Parameters:
 835:Generated_Source\PSoC4/LED_CONTROL1.c **** *  compare: Compare value
 836:Generated_Source\PSoC4/LED_CONTROL1.c **** *
 837:Generated_Source\PSoC4/LED_CONTROL1.c **** * Return:
 838:Generated_Source\PSoC4/LED_CONTROL1.c **** *  None
 839:Generated_Source\PSoC4/LED_CONTROL1.c **** *
 840:Generated_Source\PSoC4/LED_CONTROL1.c **** * Note:
 841:Generated_Source\PSoC4/LED_CONTROL1.c **** *  It is not recommended to use the value equal to "0" or equal to 
 842:Generated_Source\PSoC4/LED_CONTROL1.c **** *  "period value" in Center or Asymmetric align PWM modes on the 
 843:Generated_Source\PSoC4/LED_CONTROL1.c **** *  PSoC 4100/PSoC 4200 devices.
 844:Generated_Source\PSoC4/LED_CONTROL1.c **** *  PSoC 4000 devices write the 16 bit compare register with the decremented 
 845:Generated_Source\PSoC4/LED_CONTROL1.c **** *  compare value in the Up counting mode (except 0x0u), and the incremented 
ARM GAS  C:\Users\poornima\AppData\Local\Temp\ccn19ius.s 			page 36


 846:Generated_Source\PSoC4/LED_CONTROL1.c **** *  compare value in the Down counting mode (except 0xFFFFu).
 847:Generated_Source\PSoC4/LED_CONTROL1.c **** *
 848:Generated_Source\PSoC4/LED_CONTROL1.c **** *******************************************************************************/
 849:Generated_Source\PSoC4/LED_CONTROL1.c **** void LED_CONTROL1_WriteCompare(uint32 compare)
 850:Generated_Source\PSoC4/LED_CONTROL1.c **** {
 1151              		.loc 1 850 0
 1152              		.cfi_startproc
 1153 0000 80B5     		push	{r7, lr}
 1154              		.cfi_def_cfa_offset 8
 1155              		.cfi_offset 7, -8
 1156              		.cfi_offset 14, -4
 1157 0002 82B0     		sub	sp, sp, #8
 1158              		.cfi_def_cfa_offset 16
 1159 0004 00AF     		add	r7, sp, #0
 1160              		.cfi_def_cfa_register 7
 1161 0006 7860     		str	r0, [r7, #4]
 851:Generated_Source\PSoC4/LED_CONTROL1.c ****     #if (LED_CONTROL1_CY_TCPWM_4000)
 852:Generated_Source\PSoC4/LED_CONTROL1.c ****         uint32 currentMode;
 853:Generated_Source\PSoC4/LED_CONTROL1.c ****     #endif /* (LED_CONTROL1_CY_TCPWM_4000) */
 854:Generated_Source\PSoC4/LED_CONTROL1.c **** 
 855:Generated_Source\PSoC4/LED_CONTROL1.c ****     #if (LED_CONTROL1_CY_TCPWM_4000)
 856:Generated_Source\PSoC4/LED_CONTROL1.c ****         currentMode = ((LED_CONTROL1_CONTROL_REG & LED_CONTROL1_UPDOWN_MASK) >> LED_CONTROL1_UPDOWN
 857:Generated_Source\PSoC4/LED_CONTROL1.c **** 
 858:Generated_Source\PSoC4/LED_CONTROL1.c ****         if (((uint32)LED_CONTROL1__COUNT_DOWN == currentMode) && (0xFFFFu != compare))
 859:Generated_Source\PSoC4/LED_CONTROL1.c ****         {
 860:Generated_Source\PSoC4/LED_CONTROL1.c ****             compare++;
 861:Generated_Source\PSoC4/LED_CONTROL1.c ****         }
 862:Generated_Source\PSoC4/LED_CONTROL1.c ****         else if (((uint32)LED_CONTROL1__COUNT_UP == currentMode) && (0u != compare))
 863:Generated_Source\PSoC4/LED_CONTROL1.c ****         {
 864:Generated_Source\PSoC4/LED_CONTROL1.c ****             compare--;
 865:Generated_Source\PSoC4/LED_CONTROL1.c ****         }
 866:Generated_Source\PSoC4/LED_CONTROL1.c ****         else
 867:Generated_Source\PSoC4/LED_CONTROL1.c ****         {
 868:Generated_Source\PSoC4/LED_CONTROL1.c ****         }
 869:Generated_Source\PSoC4/LED_CONTROL1.c ****         
 870:Generated_Source\PSoC4/LED_CONTROL1.c ****     
 871:Generated_Source\PSoC4/LED_CONTROL1.c ****     #endif /* (LED_CONTROL1_CY_TCPWM_4000) */
 872:Generated_Source\PSoC4/LED_CONTROL1.c ****     
 873:Generated_Source\PSoC4/LED_CONTROL1.c ****     LED_CONTROL1_COMP_CAP_REG = (compare & LED_CONTROL1_16BIT_MASK);
 1162              		.loc 1 873 0
 1163 0008 034B     		ldr	r3, .L72
 1164 000a 7A68     		ldr	r2, [r7, #4]
 1165 000c 1204     		lsl	r2, r2, #16
 1166 000e 120C     		lsr	r2, r2, #16
 1167 0010 1A60     		str	r2, [r3]
 874:Generated_Source\PSoC4/LED_CONTROL1.c **** }
 1168              		.loc 1 874 0
 1169 0012 BD46     		mov	sp, r7
 1170 0014 02B0     		add	sp, sp, #8
 1171              		@ sp needed
 1172 0016 80BD     		pop	{r7, pc}
 1173              	.L73:
 1174              		.align	2
 1175              	.L72:
 1176 0018 4C012040 		.word	1075839308
 1177              		.cfi_endproc
 1178              	.LFE23:
ARM GAS  C:\Users\poornima\AppData\Local\Temp\ccn19ius.s 			page 37


 1179              		.size	LED_CONTROL1_WriteCompare, .-LED_CONTROL1_WriteCompare
 1180              		.section	.text.LED_CONTROL1_ReadCompare,"ax",%progbits
 1181              		.align	2
 1182              		.global	LED_CONTROL1_ReadCompare
 1183              		.code	16
 1184              		.thumb_func
 1185              		.type	LED_CONTROL1_ReadCompare, %function
 1186              	LED_CONTROL1_ReadCompare:
 1187              	.LFB24:
 875:Generated_Source\PSoC4/LED_CONTROL1.c **** 
 876:Generated_Source\PSoC4/LED_CONTROL1.c **** 
 877:Generated_Source\PSoC4/LED_CONTROL1.c **** /*******************************************************************************
 878:Generated_Source\PSoC4/LED_CONTROL1.c **** * Function Name: LED_CONTROL1_ReadCompare
 879:Generated_Source\PSoC4/LED_CONTROL1.c **** ********************************************************************************
 880:Generated_Source\PSoC4/LED_CONTROL1.c **** *
 881:Generated_Source\PSoC4/LED_CONTROL1.c **** * Summary:
 882:Generated_Source\PSoC4/LED_CONTROL1.c **** *  Reads the compare register. Not applicable for Timer/Counter with Capture
 883:Generated_Source\PSoC4/LED_CONTROL1.c **** *  or in Quadrature Decoder modes.
 884:Generated_Source\PSoC4/LED_CONTROL1.c **** *  PSoC 4000 devices read the incremented compare register value in the 
 885:Generated_Source\PSoC4/LED_CONTROL1.c **** *  Up counting mode (except 0xFFFFu), and the decremented value in the 
 886:Generated_Source\PSoC4/LED_CONTROL1.c **** *  Down counting mode (except 0x0u).
 887:Generated_Source\PSoC4/LED_CONTROL1.c **** *
 888:Generated_Source\PSoC4/LED_CONTROL1.c **** * Parameters:
 889:Generated_Source\PSoC4/LED_CONTROL1.c **** *  None
 890:Generated_Source\PSoC4/LED_CONTROL1.c **** *
 891:Generated_Source\PSoC4/LED_CONTROL1.c **** * Return:
 892:Generated_Source\PSoC4/LED_CONTROL1.c **** *  Compare value
 893:Generated_Source\PSoC4/LED_CONTROL1.c **** *
 894:Generated_Source\PSoC4/LED_CONTROL1.c **** * Note:
 895:Generated_Source\PSoC4/LED_CONTROL1.c **** *  PSoC 4000 devices read the incremented compare register value in the 
 896:Generated_Source\PSoC4/LED_CONTROL1.c **** *  Up counting mode (except 0xFFFFu), and the decremented value in the 
 897:Generated_Source\PSoC4/LED_CONTROL1.c **** *  Down counting mode (except 0x0u).
 898:Generated_Source\PSoC4/LED_CONTROL1.c **** *
 899:Generated_Source\PSoC4/LED_CONTROL1.c **** *******************************************************************************/
 900:Generated_Source\PSoC4/LED_CONTROL1.c **** uint32 LED_CONTROL1_ReadCompare(void)
 901:Generated_Source\PSoC4/LED_CONTROL1.c **** {
 1188              		.loc 1 901 0
 1189              		.cfi_startproc
 1190 0000 80B5     		push	{r7, lr}
 1191              		.cfi_def_cfa_offset 8
 1192              		.cfi_offset 7, -8
 1193              		.cfi_offset 14, -4
 1194 0002 00AF     		add	r7, sp, #0
 1195              		.cfi_def_cfa_register 7
 902:Generated_Source\PSoC4/LED_CONTROL1.c ****     #if (LED_CONTROL1_CY_TCPWM_4000)
 903:Generated_Source\PSoC4/LED_CONTROL1.c ****         uint32 currentMode;
 904:Generated_Source\PSoC4/LED_CONTROL1.c ****         uint32 regVal;
 905:Generated_Source\PSoC4/LED_CONTROL1.c ****     #endif /* (LED_CONTROL1_CY_TCPWM_4000) */
 906:Generated_Source\PSoC4/LED_CONTROL1.c **** 
 907:Generated_Source\PSoC4/LED_CONTROL1.c ****     #if (LED_CONTROL1_CY_TCPWM_4000)
 908:Generated_Source\PSoC4/LED_CONTROL1.c ****         currentMode = ((LED_CONTROL1_CONTROL_REG & LED_CONTROL1_UPDOWN_MASK) >> LED_CONTROL1_UPDOWN
 909:Generated_Source\PSoC4/LED_CONTROL1.c ****         
 910:Generated_Source\PSoC4/LED_CONTROL1.c ****         regVal = LED_CONTROL1_COMP_CAP_REG;
 911:Generated_Source\PSoC4/LED_CONTROL1.c ****         
 912:Generated_Source\PSoC4/LED_CONTROL1.c ****         if (((uint32)LED_CONTROL1__COUNT_DOWN == currentMode) && (0u != regVal))
 913:Generated_Source\PSoC4/LED_CONTROL1.c ****         {
 914:Generated_Source\PSoC4/LED_CONTROL1.c ****             regVal--;
ARM GAS  C:\Users\poornima\AppData\Local\Temp\ccn19ius.s 			page 38


 915:Generated_Source\PSoC4/LED_CONTROL1.c ****         }
 916:Generated_Source\PSoC4/LED_CONTROL1.c ****         else if (((uint32)LED_CONTROL1__COUNT_UP == currentMode) && (0xFFFFu != regVal))
 917:Generated_Source\PSoC4/LED_CONTROL1.c ****         {
 918:Generated_Source\PSoC4/LED_CONTROL1.c ****             regVal++;
 919:Generated_Source\PSoC4/LED_CONTROL1.c ****         }
 920:Generated_Source\PSoC4/LED_CONTROL1.c ****         else
 921:Generated_Source\PSoC4/LED_CONTROL1.c ****         {
 922:Generated_Source\PSoC4/LED_CONTROL1.c ****         }
 923:Generated_Source\PSoC4/LED_CONTROL1.c **** 
 924:Generated_Source\PSoC4/LED_CONTROL1.c ****         return (regVal & LED_CONTROL1_16BIT_MASK);
 925:Generated_Source\PSoC4/LED_CONTROL1.c ****     #else
 926:Generated_Source\PSoC4/LED_CONTROL1.c ****         return (LED_CONTROL1_COMP_CAP_REG & LED_CONTROL1_16BIT_MASK);
 1196              		.loc 1 926 0
 1197 0004 034B     		ldr	r3, .L76
 1198 0006 1B68     		ldr	r3, [r3]
 1199 0008 1B04     		lsl	r3, r3, #16
 1200 000a 1B0C     		lsr	r3, r3, #16
 927:Generated_Source\PSoC4/LED_CONTROL1.c ****     #endif /* (LED_CONTROL1_CY_TCPWM_4000) */
 928:Generated_Source\PSoC4/LED_CONTROL1.c **** }
 1201              		.loc 1 928 0
 1202 000c 181C     		mov	r0, r3
 1203 000e BD46     		mov	sp, r7
 1204              		@ sp needed
 1205 0010 80BD     		pop	{r7, pc}
 1206              	.L77:
 1207 0012 C046     		.align	2
 1208              	.L76:
 1209 0014 4C012040 		.word	1075839308
 1210              		.cfi_endproc
 1211              	.LFE24:
 1212              		.size	LED_CONTROL1_ReadCompare, .-LED_CONTROL1_ReadCompare
 1213              		.section	.text.LED_CONTROL1_WriteCompareBuf,"ax",%progbits
 1214              		.align	2
 1215              		.global	LED_CONTROL1_WriteCompareBuf
 1216              		.code	16
 1217              		.thumb_func
 1218              		.type	LED_CONTROL1_WriteCompareBuf, %function
 1219              	LED_CONTROL1_WriteCompareBuf:
 1220              	.LFB25:
 929:Generated_Source\PSoC4/LED_CONTROL1.c **** 
 930:Generated_Source\PSoC4/LED_CONTROL1.c **** 
 931:Generated_Source\PSoC4/LED_CONTROL1.c **** /*******************************************************************************
 932:Generated_Source\PSoC4/LED_CONTROL1.c **** * Function Name: LED_CONTROL1_WriteCompareBuf
 933:Generated_Source\PSoC4/LED_CONTROL1.c **** ********************************************************************************
 934:Generated_Source\PSoC4/LED_CONTROL1.c **** *
 935:Generated_Source\PSoC4/LED_CONTROL1.c **** * Summary:
 936:Generated_Source\PSoC4/LED_CONTROL1.c **** *  Writes the 16 bit compare buffer register with the new compare value. Not
 937:Generated_Source\PSoC4/LED_CONTROL1.c **** *  applicable for Timer/Counter with Capture or in Quadrature Decoder modes.
 938:Generated_Source\PSoC4/LED_CONTROL1.c **** *
 939:Generated_Source\PSoC4/LED_CONTROL1.c **** * Parameters:
 940:Generated_Source\PSoC4/LED_CONTROL1.c **** *  compareBuf: Compare value
 941:Generated_Source\PSoC4/LED_CONTROL1.c **** *
 942:Generated_Source\PSoC4/LED_CONTROL1.c **** * Return:
 943:Generated_Source\PSoC4/LED_CONTROL1.c **** *  None
 944:Generated_Source\PSoC4/LED_CONTROL1.c **** *
 945:Generated_Source\PSoC4/LED_CONTROL1.c **** * Note:
 946:Generated_Source\PSoC4/LED_CONTROL1.c **** *  It is not recommended to use the value equal to "0" or equal to 
ARM GAS  C:\Users\poornima\AppData\Local\Temp\ccn19ius.s 			page 39


 947:Generated_Source\PSoC4/LED_CONTROL1.c **** *  "period value" in Center or Asymmetric align PWM modes on the 
 948:Generated_Source\PSoC4/LED_CONTROL1.c **** *  PSoC 4100/PSoC 4200 devices.
 949:Generated_Source\PSoC4/LED_CONTROL1.c **** *  PSoC 4000 devices write the 16 bit compare register with the decremented 
 950:Generated_Source\PSoC4/LED_CONTROL1.c **** *  compare value in the Up counting mode (except 0x0u), and the incremented 
 951:Generated_Source\PSoC4/LED_CONTROL1.c **** *  compare value in the Down counting mode (except 0xFFFFu).
 952:Generated_Source\PSoC4/LED_CONTROL1.c **** *
 953:Generated_Source\PSoC4/LED_CONTROL1.c **** *******************************************************************************/
 954:Generated_Source\PSoC4/LED_CONTROL1.c **** void LED_CONTROL1_WriteCompareBuf(uint32 compareBuf)
 955:Generated_Source\PSoC4/LED_CONTROL1.c **** {
 1221              		.loc 1 955 0
 1222              		.cfi_startproc
 1223 0000 80B5     		push	{r7, lr}
 1224              		.cfi_def_cfa_offset 8
 1225              		.cfi_offset 7, -8
 1226              		.cfi_offset 14, -4
 1227 0002 82B0     		sub	sp, sp, #8
 1228              		.cfi_def_cfa_offset 16
 1229 0004 00AF     		add	r7, sp, #0
 1230              		.cfi_def_cfa_register 7
 1231 0006 7860     		str	r0, [r7, #4]
 956:Generated_Source\PSoC4/LED_CONTROL1.c ****     #if (LED_CONTROL1_CY_TCPWM_4000)
 957:Generated_Source\PSoC4/LED_CONTROL1.c ****         uint32 currentMode;
 958:Generated_Source\PSoC4/LED_CONTROL1.c ****     #endif /* (LED_CONTROL1_CY_TCPWM_4000) */
 959:Generated_Source\PSoC4/LED_CONTROL1.c **** 
 960:Generated_Source\PSoC4/LED_CONTROL1.c ****     #if (LED_CONTROL1_CY_TCPWM_4000)
 961:Generated_Source\PSoC4/LED_CONTROL1.c ****         currentMode = ((LED_CONTROL1_CONTROL_REG & LED_CONTROL1_UPDOWN_MASK) >> LED_CONTROL1_UPDOWN
 962:Generated_Source\PSoC4/LED_CONTROL1.c **** 
 963:Generated_Source\PSoC4/LED_CONTROL1.c ****         if (((uint32)LED_CONTROL1__COUNT_DOWN == currentMode) && (0xFFFFu != compareBuf))
 964:Generated_Source\PSoC4/LED_CONTROL1.c ****         {
 965:Generated_Source\PSoC4/LED_CONTROL1.c ****             compareBuf++;
 966:Generated_Source\PSoC4/LED_CONTROL1.c ****         }
 967:Generated_Source\PSoC4/LED_CONTROL1.c ****         else if (((uint32)LED_CONTROL1__COUNT_UP == currentMode) && (0u != compareBuf))
 968:Generated_Source\PSoC4/LED_CONTROL1.c ****         {
 969:Generated_Source\PSoC4/LED_CONTROL1.c ****             compareBuf --;
 970:Generated_Source\PSoC4/LED_CONTROL1.c ****         }
 971:Generated_Source\PSoC4/LED_CONTROL1.c ****         else
 972:Generated_Source\PSoC4/LED_CONTROL1.c ****         {
 973:Generated_Source\PSoC4/LED_CONTROL1.c ****         }
 974:Generated_Source\PSoC4/LED_CONTROL1.c ****     #endif /* (LED_CONTROL1_CY_TCPWM_4000) */
 975:Generated_Source\PSoC4/LED_CONTROL1.c ****     
 976:Generated_Source\PSoC4/LED_CONTROL1.c ****     LED_CONTROL1_COMP_CAP_BUF_REG = (compareBuf & LED_CONTROL1_16BIT_MASK);
 1232              		.loc 1 976 0
 1233 0008 034B     		ldr	r3, .L79
 1234 000a 7A68     		ldr	r2, [r7, #4]
 1235 000c 1204     		lsl	r2, r2, #16
 1236 000e 120C     		lsr	r2, r2, #16
 1237 0010 1A60     		str	r2, [r3]
 977:Generated_Source\PSoC4/LED_CONTROL1.c **** }
 1238              		.loc 1 977 0
 1239 0012 BD46     		mov	sp, r7
 1240 0014 02B0     		add	sp, sp, #8
 1241              		@ sp needed
 1242 0016 80BD     		pop	{r7, pc}
 1243              	.L80:
 1244              		.align	2
 1245              	.L79:
 1246 0018 50012040 		.word	1075839312
ARM GAS  C:\Users\poornima\AppData\Local\Temp\ccn19ius.s 			page 40


 1247              		.cfi_endproc
 1248              	.LFE25:
 1249              		.size	LED_CONTROL1_WriteCompareBuf, .-LED_CONTROL1_WriteCompareBuf
 1250              		.section	.text.LED_CONTROL1_ReadCompareBuf,"ax",%progbits
 1251              		.align	2
 1252              		.global	LED_CONTROL1_ReadCompareBuf
 1253              		.code	16
 1254              		.thumb_func
 1255              		.type	LED_CONTROL1_ReadCompareBuf, %function
 1256              	LED_CONTROL1_ReadCompareBuf:
 1257              	.LFB26:
 978:Generated_Source\PSoC4/LED_CONTROL1.c **** 
 979:Generated_Source\PSoC4/LED_CONTROL1.c **** 
 980:Generated_Source\PSoC4/LED_CONTROL1.c **** /*******************************************************************************
 981:Generated_Source\PSoC4/LED_CONTROL1.c **** * Function Name: LED_CONTROL1_ReadCompareBuf
 982:Generated_Source\PSoC4/LED_CONTROL1.c **** ********************************************************************************
 983:Generated_Source\PSoC4/LED_CONTROL1.c **** *
 984:Generated_Source\PSoC4/LED_CONTROL1.c **** * Summary:
 985:Generated_Source\PSoC4/LED_CONTROL1.c **** *  Reads the compare buffer register. Not applicable for Timer/Counter with
 986:Generated_Source\PSoC4/LED_CONTROL1.c **** *  Capture or in Quadrature Decoder modes.
 987:Generated_Source\PSoC4/LED_CONTROL1.c **** *
 988:Generated_Source\PSoC4/LED_CONTROL1.c **** * Parameters:
 989:Generated_Source\PSoC4/LED_CONTROL1.c **** *  None
 990:Generated_Source\PSoC4/LED_CONTROL1.c **** *
 991:Generated_Source\PSoC4/LED_CONTROL1.c **** * Return:
 992:Generated_Source\PSoC4/LED_CONTROL1.c **** *  Compare buffer value
 993:Generated_Source\PSoC4/LED_CONTROL1.c **** *
 994:Generated_Source\PSoC4/LED_CONTROL1.c **** * Note:
 995:Generated_Source\PSoC4/LED_CONTROL1.c **** *  PSoC 4000 devices read the incremented compare register value in the 
 996:Generated_Source\PSoC4/LED_CONTROL1.c **** *  Up counting mode (except 0xFFFFu), and the decremented value in the 
 997:Generated_Source\PSoC4/LED_CONTROL1.c **** *  Down counting mode (except 0x0u).
 998:Generated_Source\PSoC4/LED_CONTROL1.c **** *
 999:Generated_Source\PSoC4/LED_CONTROL1.c **** *******************************************************************************/
1000:Generated_Source\PSoC4/LED_CONTROL1.c **** uint32 LED_CONTROL1_ReadCompareBuf(void)
1001:Generated_Source\PSoC4/LED_CONTROL1.c **** {
 1258              		.loc 1 1001 0
 1259              		.cfi_startproc
 1260 0000 80B5     		push	{r7, lr}
 1261              		.cfi_def_cfa_offset 8
 1262              		.cfi_offset 7, -8
 1263              		.cfi_offset 14, -4
 1264 0002 00AF     		add	r7, sp, #0
 1265              		.cfi_def_cfa_register 7
1002:Generated_Source\PSoC4/LED_CONTROL1.c ****     #if (LED_CONTROL1_CY_TCPWM_4000)
1003:Generated_Source\PSoC4/LED_CONTROL1.c ****         uint32 currentMode;
1004:Generated_Source\PSoC4/LED_CONTROL1.c ****         uint32 regVal;
1005:Generated_Source\PSoC4/LED_CONTROL1.c ****     #endif /* (LED_CONTROL1_CY_TCPWM_4000) */
1006:Generated_Source\PSoC4/LED_CONTROL1.c **** 
1007:Generated_Source\PSoC4/LED_CONTROL1.c ****     #if (LED_CONTROL1_CY_TCPWM_4000)
1008:Generated_Source\PSoC4/LED_CONTROL1.c ****         currentMode = ((LED_CONTROL1_CONTROL_REG & LED_CONTROL1_UPDOWN_MASK) >> LED_CONTROL1_UPDOWN
1009:Generated_Source\PSoC4/LED_CONTROL1.c **** 
1010:Generated_Source\PSoC4/LED_CONTROL1.c ****         regVal = LED_CONTROL1_COMP_CAP_BUF_REG;
1011:Generated_Source\PSoC4/LED_CONTROL1.c ****         
1012:Generated_Source\PSoC4/LED_CONTROL1.c ****         if (((uint32)LED_CONTROL1__COUNT_DOWN == currentMode) && (0u != regVal))
1013:Generated_Source\PSoC4/LED_CONTROL1.c ****         {
1014:Generated_Source\PSoC4/LED_CONTROL1.c ****             regVal--;
1015:Generated_Source\PSoC4/LED_CONTROL1.c ****         }
ARM GAS  C:\Users\poornima\AppData\Local\Temp\ccn19ius.s 			page 41


1016:Generated_Source\PSoC4/LED_CONTROL1.c ****         else if (((uint32)LED_CONTROL1__COUNT_UP == currentMode) && (0xFFFFu != regVal))
1017:Generated_Source\PSoC4/LED_CONTROL1.c ****         {
1018:Generated_Source\PSoC4/LED_CONTROL1.c ****             regVal++;
1019:Generated_Source\PSoC4/LED_CONTROL1.c ****         }
1020:Generated_Source\PSoC4/LED_CONTROL1.c ****         else
1021:Generated_Source\PSoC4/LED_CONTROL1.c ****         {
1022:Generated_Source\PSoC4/LED_CONTROL1.c ****         }
1023:Generated_Source\PSoC4/LED_CONTROL1.c **** 
1024:Generated_Source\PSoC4/LED_CONTROL1.c ****         return (regVal & LED_CONTROL1_16BIT_MASK);
1025:Generated_Source\PSoC4/LED_CONTROL1.c ****     #else
1026:Generated_Source\PSoC4/LED_CONTROL1.c ****         return (LED_CONTROL1_COMP_CAP_BUF_REG & LED_CONTROL1_16BIT_MASK);
 1266              		.loc 1 1026 0
 1267 0004 034B     		ldr	r3, .L83
 1268 0006 1B68     		ldr	r3, [r3]
 1269 0008 1B04     		lsl	r3, r3, #16
 1270 000a 1B0C     		lsr	r3, r3, #16
1027:Generated_Source\PSoC4/LED_CONTROL1.c ****     #endif /* (LED_CONTROL1_CY_TCPWM_4000) */
1028:Generated_Source\PSoC4/LED_CONTROL1.c **** }
 1271              		.loc 1 1028 0
 1272 000c 181C     		mov	r0, r3
 1273 000e BD46     		mov	sp, r7
 1274              		@ sp needed
 1275 0010 80BD     		pop	{r7, pc}
 1276              	.L84:
 1277 0012 C046     		.align	2
 1278              	.L83:
 1279 0014 50012040 		.word	1075839312
 1280              		.cfi_endproc
 1281              	.LFE26:
 1282              		.size	LED_CONTROL1_ReadCompareBuf, .-LED_CONTROL1_ReadCompareBuf
 1283              		.section	.text.LED_CONTROL1_ReadCapture,"ax",%progbits
 1284              		.align	2
 1285              		.global	LED_CONTROL1_ReadCapture
 1286              		.code	16
 1287              		.thumb_func
 1288              		.type	LED_CONTROL1_ReadCapture, %function
 1289              	LED_CONTROL1_ReadCapture:
 1290              	.LFB27:
1029:Generated_Source\PSoC4/LED_CONTROL1.c **** 
1030:Generated_Source\PSoC4/LED_CONTROL1.c **** 
1031:Generated_Source\PSoC4/LED_CONTROL1.c **** /*******************************************************************************
1032:Generated_Source\PSoC4/LED_CONTROL1.c **** * Function Name: LED_CONTROL1_ReadCapture
1033:Generated_Source\PSoC4/LED_CONTROL1.c **** ********************************************************************************
1034:Generated_Source\PSoC4/LED_CONTROL1.c **** *
1035:Generated_Source\PSoC4/LED_CONTROL1.c **** * Summary:
1036:Generated_Source\PSoC4/LED_CONTROL1.c **** *  Reads the captured counter value. This API is applicable only for
1037:Generated_Source\PSoC4/LED_CONTROL1.c **** *  Timer/Counter with the capture mode and Quadrature Decoder modes.
1038:Generated_Source\PSoC4/LED_CONTROL1.c **** *
1039:Generated_Source\PSoC4/LED_CONTROL1.c **** * Parameters:
1040:Generated_Source\PSoC4/LED_CONTROL1.c **** *  None
1041:Generated_Source\PSoC4/LED_CONTROL1.c **** *
1042:Generated_Source\PSoC4/LED_CONTROL1.c **** * Return:
1043:Generated_Source\PSoC4/LED_CONTROL1.c **** *  Capture value
1044:Generated_Source\PSoC4/LED_CONTROL1.c **** *
1045:Generated_Source\PSoC4/LED_CONTROL1.c **** *******************************************************************************/
1046:Generated_Source\PSoC4/LED_CONTROL1.c **** uint32 LED_CONTROL1_ReadCapture(void)
1047:Generated_Source\PSoC4/LED_CONTROL1.c **** {
ARM GAS  C:\Users\poornima\AppData\Local\Temp\ccn19ius.s 			page 42


 1291              		.loc 1 1047 0
 1292              		.cfi_startproc
 1293 0000 80B5     		push	{r7, lr}
 1294              		.cfi_def_cfa_offset 8
 1295              		.cfi_offset 7, -8
 1296              		.cfi_offset 14, -4
 1297 0002 00AF     		add	r7, sp, #0
 1298              		.cfi_def_cfa_register 7
1048:Generated_Source\PSoC4/LED_CONTROL1.c ****     return (LED_CONTROL1_COMP_CAP_REG & LED_CONTROL1_16BIT_MASK);
 1299              		.loc 1 1048 0
 1300 0004 034B     		ldr	r3, .L87
 1301 0006 1B68     		ldr	r3, [r3]
 1302 0008 1B04     		lsl	r3, r3, #16
 1303 000a 1B0C     		lsr	r3, r3, #16
1049:Generated_Source\PSoC4/LED_CONTROL1.c **** }
 1304              		.loc 1 1049 0
 1305 000c 181C     		mov	r0, r3
 1306 000e BD46     		mov	sp, r7
 1307              		@ sp needed
 1308 0010 80BD     		pop	{r7, pc}
 1309              	.L88:
 1310 0012 C046     		.align	2
 1311              	.L87:
 1312 0014 4C012040 		.word	1075839308
 1313              		.cfi_endproc
 1314              	.LFE27:
 1315              		.size	LED_CONTROL1_ReadCapture, .-LED_CONTROL1_ReadCapture
 1316              		.section	.text.LED_CONTROL1_ReadCaptureBuf,"ax",%progbits
 1317              		.align	2
 1318              		.global	LED_CONTROL1_ReadCaptureBuf
 1319              		.code	16
 1320              		.thumb_func
 1321              		.type	LED_CONTROL1_ReadCaptureBuf, %function
 1322              	LED_CONTROL1_ReadCaptureBuf:
 1323              	.LFB28:
1050:Generated_Source\PSoC4/LED_CONTROL1.c **** 
1051:Generated_Source\PSoC4/LED_CONTROL1.c **** 
1052:Generated_Source\PSoC4/LED_CONTROL1.c **** /*******************************************************************************
1053:Generated_Source\PSoC4/LED_CONTROL1.c **** * Function Name: LED_CONTROL1_ReadCaptureBuf
1054:Generated_Source\PSoC4/LED_CONTROL1.c **** ********************************************************************************
1055:Generated_Source\PSoC4/LED_CONTROL1.c **** *
1056:Generated_Source\PSoC4/LED_CONTROL1.c **** * Summary:
1057:Generated_Source\PSoC4/LED_CONTROL1.c **** *  Reads the capture buffer register. This API is applicable only for
1058:Generated_Source\PSoC4/LED_CONTROL1.c **** *  Timer/Counter with the capture mode and Quadrature Decoder modes.
1059:Generated_Source\PSoC4/LED_CONTROL1.c **** *
1060:Generated_Source\PSoC4/LED_CONTROL1.c **** * Parameters:
1061:Generated_Source\PSoC4/LED_CONTROL1.c **** *  None
1062:Generated_Source\PSoC4/LED_CONTROL1.c **** *
1063:Generated_Source\PSoC4/LED_CONTROL1.c **** * Return:
1064:Generated_Source\PSoC4/LED_CONTROL1.c **** *  Capture buffer value
1065:Generated_Source\PSoC4/LED_CONTROL1.c **** *
1066:Generated_Source\PSoC4/LED_CONTROL1.c **** *******************************************************************************/
1067:Generated_Source\PSoC4/LED_CONTROL1.c **** uint32 LED_CONTROL1_ReadCaptureBuf(void)
1068:Generated_Source\PSoC4/LED_CONTROL1.c **** {
 1324              		.loc 1 1068 0
 1325              		.cfi_startproc
 1326 0000 80B5     		push	{r7, lr}
ARM GAS  C:\Users\poornima\AppData\Local\Temp\ccn19ius.s 			page 43


 1327              		.cfi_def_cfa_offset 8
 1328              		.cfi_offset 7, -8
 1329              		.cfi_offset 14, -4
 1330 0002 00AF     		add	r7, sp, #0
 1331              		.cfi_def_cfa_register 7
1069:Generated_Source\PSoC4/LED_CONTROL1.c ****     return (LED_CONTROL1_COMP_CAP_BUF_REG & LED_CONTROL1_16BIT_MASK);
 1332              		.loc 1 1069 0
 1333 0004 034B     		ldr	r3, .L91
 1334 0006 1B68     		ldr	r3, [r3]
 1335 0008 1B04     		lsl	r3, r3, #16
 1336 000a 1B0C     		lsr	r3, r3, #16
1070:Generated_Source\PSoC4/LED_CONTROL1.c **** }
 1337              		.loc 1 1070 0
 1338 000c 181C     		mov	r0, r3
 1339 000e BD46     		mov	sp, r7
 1340              		@ sp needed
 1341 0010 80BD     		pop	{r7, pc}
 1342              	.L92:
 1343 0012 C046     		.align	2
 1344              	.L91:
 1345 0014 50012040 		.word	1075839312
 1346              		.cfi_endproc
 1347              	.LFE28:
 1348              		.size	LED_CONTROL1_ReadCaptureBuf, .-LED_CONTROL1_ReadCaptureBuf
 1349              		.section	.text.LED_CONTROL1_SetCaptureMode,"ax",%progbits
 1350              		.align	2
 1351              		.global	LED_CONTROL1_SetCaptureMode
 1352              		.code	16
 1353              		.thumb_func
 1354              		.type	LED_CONTROL1_SetCaptureMode, %function
 1355              	LED_CONTROL1_SetCaptureMode:
 1356              	.LFB29:
1071:Generated_Source\PSoC4/LED_CONTROL1.c **** 
1072:Generated_Source\PSoC4/LED_CONTROL1.c **** 
1073:Generated_Source\PSoC4/LED_CONTROL1.c **** /*******************************************************************************
1074:Generated_Source\PSoC4/LED_CONTROL1.c **** * Function Name: LED_CONTROL1_SetCaptureMode
1075:Generated_Source\PSoC4/LED_CONTROL1.c **** ********************************************************************************
1076:Generated_Source\PSoC4/LED_CONTROL1.c **** *
1077:Generated_Source\PSoC4/LED_CONTROL1.c **** * Summary:
1078:Generated_Source\PSoC4/LED_CONTROL1.c **** *  Sets the capture trigger mode. For PWM mode this is the switch input.
1079:Generated_Source\PSoC4/LED_CONTROL1.c **** *  This input is not applicable to the Timer/Counter without Capture and
1080:Generated_Source\PSoC4/LED_CONTROL1.c **** *  Quadrature Decoder modes.
1081:Generated_Source\PSoC4/LED_CONTROL1.c **** *
1082:Generated_Source\PSoC4/LED_CONTROL1.c **** * Parameters:
1083:Generated_Source\PSoC4/LED_CONTROL1.c **** *  triggerMode: Enumerated trigger mode value
1084:Generated_Source\PSoC4/LED_CONTROL1.c **** *   Values:
1085:Generated_Source\PSoC4/LED_CONTROL1.c **** *     - LED_CONTROL1_TRIG_LEVEL     - Level
1086:Generated_Source\PSoC4/LED_CONTROL1.c **** *     - LED_CONTROL1_TRIG_RISING    - Rising edge
1087:Generated_Source\PSoC4/LED_CONTROL1.c **** *     - LED_CONTROL1_TRIG_FALLING   - Falling edge
1088:Generated_Source\PSoC4/LED_CONTROL1.c **** *     - LED_CONTROL1_TRIG_BOTH      - Both rising and falling edge
1089:Generated_Source\PSoC4/LED_CONTROL1.c **** *
1090:Generated_Source\PSoC4/LED_CONTROL1.c **** * Return:
1091:Generated_Source\PSoC4/LED_CONTROL1.c **** *  None
1092:Generated_Source\PSoC4/LED_CONTROL1.c **** *
1093:Generated_Source\PSoC4/LED_CONTROL1.c **** *******************************************************************************/
1094:Generated_Source\PSoC4/LED_CONTROL1.c **** void LED_CONTROL1_SetCaptureMode(uint32 triggerMode)
1095:Generated_Source\PSoC4/LED_CONTROL1.c **** {
ARM GAS  C:\Users\poornima\AppData\Local\Temp\ccn19ius.s 			page 44


 1357              		.loc 1 1095 0
 1358              		.cfi_startproc
 1359 0000 90B5     		push	{r4, r7, lr}
 1360              		.cfi_def_cfa_offset 12
 1361              		.cfi_offset 4, -12
 1362              		.cfi_offset 7, -8
 1363              		.cfi_offset 14, -4
 1364 0002 85B0     		sub	sp, sp, #20
 1365              		.cfi_def_cfa_offset 32
 1366 0004 00AF     		add	r7, sp, #0
 1367              		.cfi_def_cfa_register 7
 1368 0006 7860     		str	r0, [r7, #4]
1096:Generated_Source\PSoC4/LED_CONTROL1.c ****     uint8 enableInterrupts;
1097:Generated_Source\PSoC4/LED_CONTROL1.c **** 
1098:Generated_Source\PSoC4/LED_CONTROL1.c ****     enableInterrupts = CyEnterCriticalSection();
 1369              		.loc 1 1098 0
 1370 0008 0F23     		mov	r3, #15
 1371 000a FC18     		add	r4, r7, r3
 1372 000c FFF7FEFF 		bl	CyEnterCriticalSection
 1373 0010 031C     		mov	r3, r0
 1374 0012 2370     		strb	r3, [r4]
1099:Generated_Source\PSoC4/LED_CONTROL1.c **** 
1100:Generated_Source\PSoC4/LED_CONTROL1.c ****     LED_CONTROL1_TRIG_CONTROL1_REG &= (uint32)~LED_CONTROL1_CAPTURE_MASK;
 1375              		.loc 1 1100 0
 1376 0014 0A4B     		ldr	r3, .L94
 1377 0016 0A4A     		ldr	r2, .L94
 1378 0018 1268     		ldr	r2, [r2]
 1379 001a 0321     		mov	r1, #3
 1380 001c 8A43     		bic	r2, r1
 1381 001e 1A60     		str	r2, [r3]
1101:Generated_Source\PSoC4/LED_CONTROL1.c ****     LED_CONTROL1_TRIG_CONTROL1_REG |= triggerMode;
 1382              		.loc 1 1101 0
 1383 0020 074B     		ldr	r3, .L94
 1384 0022 074A     		ldr	r2, .L94
 1385 0024 1168     		ldr	r1, [r2]
 1386 0026 7A68     		ldr	r2, [r7, #4]
 1387 0028 0A43     		orr	r2, r1
 1388 002a 1A60     		str	r2, [r3]
1102:Generated_Source\PSoC4/LED_CONTROL1.c **** 
1103:Generated_Source\PSoC4/LED_CONTROL1.c ****     CyExitCriticalSection(enableInterrupts);
 1389              		.loc 1 1103 0
 1390 002c 0F23     		mov	r3, #15
 1391 002e FB18     		add	r3, r7, r3
 1392 0030 1B78     		ldrb	r3, [r3]
 1393 0032 181C     		mov	r0, r3
 1394 0034 FFF7FEFF 		bl	CyExitCriticalSection
1104:Generated_Source\PSoC4/LED_CONTROL1.c **** }
 1395              		.loc 1 1104 0
 1396 0038 BD46     		mov	sp, r7
 1397 003a 05B0     		add	sp, sp, #20
 1398              		@ sp needed
 1399 003c 90BD     		pop	{r4, r7, pc}
 1400              	.L95:
 1401 003e C046     		.align	2
 1402              	.L94:
 1403 0040 64012040 		.word	1075839332
 1404              		.cfi_endproc
ARM GAS  C:\Users\poornima\AppData\Local\Temp\ccn19ius.s 			page 45


 1405              	.LFE29:
 1406              		.size	LED_CONTROL1_SetCaptureMode, .-LED_CONTROL1_SetCaptureMode
 1407              		.section	.text.LED_CONTROL1_SetReloadMode,"ax",%progbits
 1408              		.align	2
 1409              		.global	LED_CONTROL1_SetReloadMode
 1410              		.code	16
 1411              		.thumb_func
 1412              		.type	LED_CONTROL1_SetReloadMode, %function
 1413              	LED_CONTROL1_SetReloadMode:
 1414              	.LFB30:
1105:Generated_Source\PSoC4/LED_CONTROL1.c **** 
1106:Generated_Source\PSoC4/LED_CONTROL1.c **** 
1107:Generated_Source\PSoC4/LED_CONTROL1.c **** /*******************************************************************************
1108:Generated_Source\PSoC4/LED_CONTROL1.c **** * Function Name: LED_CONTROL1_SetReloadMode
1109:Generated_Source\PSoC4/LED_CONTROL1.c **** ********************************************************************************
1110:Generated_Source\PSoC4/LED_CONTROL1.c **** *
1111:Generated_Source\PSoC4/LED_CONTROL1.c **** * Summary:
1112:Generated_Source\PSoC4/LED_CONTROL1.c **** *  Sets the reload trigger mode. For Quadrature Decoder mode this is the index
1113:Generated_Source\PSoC4/LED_CONTROL1.c **** *  input.
1114:Generated_Source\PSoC4/LED_CONTROL1.c **** *
1115:Generated_Source\PSoC4/LED_CONTROL1.c **** * Parameters:
1116:Generated_Source\PSoC4/LED_CONTROL1.c **** *  triggerMode: Enumerated trigger mode value
1117:Generated_Source\PSoC4/LED_CONTROL1.c **** *   Values:
1118:Generated_Source\PSoC4/LED_CONTROL1.c **** *     - LED_CONTROL1_TRIG_LEVEL     - Level
1119:Generated_Source\PSoC4/LED_CONTROL1.c **** *     - LED_CONTROL1_TRIG_RISING    - Rising edge
1120:Generated_Source\PSoC4/LED_CONTROL1.c **** *     - LED_CONTROL1_TRIG_FALLING   - Falling edge
1121:Generated_Source\PSoC4/LED_CONTROL1.c **** *     - LED_CONTROL1_TRIG_BOTH      - Both rising and falling edge
1122:Generated_Source\PSoC4/LED_CONTROL1.c **** *
1123:Generated_Source\PSoC4/LED_CONTROL1.c **** * Return:
1124:Generated_Source\PSoC4/LED_CONTROL1.c **** *  None
1125:Generated_Source\PSoC4/LED_CONTROL1.c **** *
1126:Generated_Source\PSoC4/LED_CONTROL1.c **** *******************************************************************************/
1127:Generated_Source\PSoC4/LED_CONTROL1.c **** void LED_CONTROL1_SetReloadMode(uint32 triggerMode)
1128:Generated_Source\PSoC4/LED_CONTROL1.c **** {
 1415              		.loc 1 1128 0
 1416              		.cfi_startproc
 1417 0000 90B5     		push	{r4, r7, lr}
 1418              		.cfi_def_cfa_offset 12
 1419              		.cfi_offset 4, -12
 1420              		.cfi_offset 7, -8
 1421              		.cfi_offset 14, -4
 1422 0002 85B0     		sub	sp, sp, #20
 1423              		.cfi_def_cfa_offset 32
 1424 0004 00AF     		add	r7, sp, #0
 1425              		.cfi_def_cfa_register 7
 1426 0006 7860     		str	r0, [r7, #4]
1129:Generated_Source\PSoC4/LED_CONTROL1.c ****     uint8 enableInterrupts;
1130:Generated_Source\PSoC4/LED_CONTROL1.c **** 
1131:Generated_Source\PSoC4/LED_CONTROL1.c ****     enableInterrupts = CyEnterCriticalSection();
 1427              		.loc 1 1131 0
 1428 0008 0F23     		mov	r3, #15
 1429 000a FC18     		add	r4, r7, r3
 1430 000c FFF7FEFF 		bl	CyEnterCriticalSection
 1431 0010 031C     		mov	r3, r0
 1432 0012 2370     		strb	r3, [r4]
1132:Generated_Source\PSoC4/LED_CONTROL1.c **** 
1133:Generated_Source\PSoC4/LED_CONTROL1.c ****     LED_CONTROL1_TRIG_CONTROL1_REG &= (uint32)~LED_CONTROL1_RELOAD_MASK;
ARM GAS  C:\Users\poornima\AppData\Local\Temp\ccn19ius.s 			page 46


 1433              		.loc 1 1133 0
 1434 0014 0A4B     		ldr	r3, .L97
 1435 0016 0A4A     		ldr	r2, .L97
 1436 0018 1268     		ldr	r2, [r2]
 1437 001a 3021     		mov	r1, #48
 1438 001c 8A43     		bic	r2, r1
 1439 001e 1A60     		str	r2, [r3]
1134:Generated_Source\PSoC4/LED_CONTROL1.c ****     LED_CONTROL1_TRIG_CONTROL1_REG |= ((uint32)(triggerMode << LED_CONTROL1_RELOAD_SHIFT));
 1440              		.loc 1 1134 0
 1441 0020 074B     		ldr	r3, .L97
 1442 0022 074A     		ldr	r2, .L97
 1443 0024 1168     		ldr	r1, [r2]
 1444 0026 7A68     		ldr	r2, [r7, #4]
 1445 0028 1201     		lsl	r2, r2, #4
 1446 002a 0A43     		orr	r2, r1
 1447 002c 1A60     		str	r2, [r3]
1135:Generated_Source\PSoC4/LED_CONTROL1.c **** 
1136:Generated_Source\PSoC4/LED_CONTROL1.c ****     CyExitCriticalSection(enableInterrupts);
 1448              		.loc 1 1136 0
 1449 002e 0F23     		mov	r3, #15
 1450 0030 FB18     		add	r3, r7, r3
 1451 0032 1B78     		ldrb	r3, [r3]
 1452 0034 181C     		mov	r0, r3
 1453 0036 FFF7FEFF 		bl	CyExitCriticalSection
1137:Generated_Source\PSoC4/LED_CONTROL1.c **** }
 1454              		.loc 1 1137 0
 1455 003a BD46     		mov	sp, r7
 1456 003c 05B0     		add	sp, sp, #20
 1457              		@ sp needed
 1458 003e 90BD     		pop	{r4, r7, pc}
 1459              	.L98:
 1460              		.align	2
 1461              	.L97:
 1462 0040 64012040 		.word	1075839332
 1463              		.cfi_endproc
 1464              	.LFE30:
 1465              		.size	LED_CONTROL1_SetReloadMode, .-LED_CONTROL1_SetReloadMode
 1466              		.section	.text.LED_CONTROL1_SetStartMode,"ax",%progbits
 1467              		.align	2
 1468              		.global	LED_CONTROL1_SetStartMode
 1469              		.code	16
 1470              		.thumb_func
 1471              		.type	LED_CONTROL1_SetStartMode, %function
 1472              	LED_CONTROL1_SetStartMode:
 1473              	.LFB31:
1138:Generated_Source\PSoC4/LED_CONTROL1.c **** 
1139:Generated_Source\PSoC4/LED_CONTROL1.c **** 
1140:Generated_Source\PSoC4/LED_CONTROL1.c **** /*******************************************************************************
1141:Generated_Source\PSoC4/LED_CONTROL1.c **** * Function Name: LED_CONTROL1_SetStartMode
1142:Generated_Source\PSoC4/LED_CONTROL1.c **** ********************************************************************************
1143:Generated_Source\PSoC4/LED_CONTROL1.c **** *
1144:Generated_Source\PSoC4/LED_CONTROL1.c **** * Summary:
1145:Generated_Source\PSoC4/LED_CONTROL1.c **** *  Sets the start trigger mode. For Quadrature Decoder mode this is the
1146:Generated_Source\PSoC4/LED_CONTROL1.c **** *  phiB input.
1147:Generated_Source\PSoC4/LED_CONTROL1.c **** *
1148:Generated_Source\PSoC4/LED_CONTROL1.c **** * Parameters:
1149:Generated_Source\PSoC4/LED_CONTROL1.c **** *  triggerMode: Enumerated trigger mode value
ARM GAS  C:\Users\poornima\AppData\Local\Temp\ccn19ius.s 			page 47


1150:Generated_Source\PSoC4/LED_CONTROL1.c **** *   Values:
1151:Generated_Source\PSoC4/LED_CONTROL1.c **** *     - LED_CONTROL1_TRIG_LEVEL     - Level
1152:Generated_Source\PSoC4/LED_CONTROL1.c **** *     - LED_CONTROL1_TRIG_RISING    - Rising edge
1153:Generated_Source\PSoC4/LED_CONTROL1.c **** *     - LED_CONTROL1_TRIG_FALLING   - Falling edge
1154:Generated_Source\PSoC4/LED_CONTROL1.c **** *     - LED_CONTROL1_TRIG_BOTH      - Both rising and falling edge
1155:Generated_Source\PSoC4/LED_CONTROL1.c **** *
1156:Generated_Source\PSoC4/LED_CONTROL1.c **** * Return:
1157:Generated_Source\PSoC4/LED_CONTROL1.c **** *  None
1158:Generated_Source\PSoC4/LED_CONTROL1.c **** *
1159:Generated_Source\PSoC4/LED_CONTROL1.c **** *******************************************************************************/
1160:Generated_Source\PSoC4/LED_CONTROL1.c **** void LED_CONTROL1_SetStartMode(uint32 triggerMode)
1161:Generated_Source\PSoC4/LED_CONTROL1.c **** {
 1474              		.loc 1 1161 0
 1475              		.cfi_startproc
 1476 0000 90B5     		push	{r4, r7, lr}
 1477              		.cfi_def_cfa_offset 12
 1478              		.cfi_offset 4, -12
 1479              		.cfi_offset 7, -8
 1480              		.cfi_offset 14, -4
 1481 0002 85B0     		sub	sp, sp, #20
 1482              		.cfi_def_cfa_offset 32
 1483 0004 00AF     		add	r7, sp, #0
 1484              		.cfi_def_cfa_register 7
 1485 0006 7860     		str	r0, [r7, #4]
1162:Generated_Source\PSoC4/LED_CONTROL1.c ****     uint8 enableInterrupts;
1163:Generated_Source\PSoC4/LED_CONTROL1.c **** 
1164:Generated_Source\PSoC4/LED_CONTROL1.c ****     enableInterrupts = CyEnterCriticalSection();
 1486              		.loc 1 1164 0
 1487 0008 0F23     		mov	r3, #15
 1488 000a FC18     		add	r4, r7, r3
 1489 000c FFF7FEFF 		bl	CyEnterCriticalSection
 1490 0010 031C     		mov	r3, r0
 1491 0012 2370     		strb	r3, [r4]
1165:Generated_Source\PSoC4/LED_CONTROL1.c **** 
1166:Generated_Source\PSoC4/LED_CONTROL1.c ****     LED_CONTROL1_TRIG_CONTROL1_REG &= (uint32)~LED_CONTROL1_START_MASK;
 1492              		.loc 1 1166 0
 1493 0014 0A4B     		ldr	r3, .L100
 1494 0016 0A4A     		ldr	r2, .L100
 1495 0018 1268     		ldr	r2, [r2]
 1496 001a 0A49     		ldr	r1, .L100+4
 1497 001c 0A40     		and	r2, r1
 1498 001e 1A60     		str	r2, [r3]
1167:Generated_Source\PSoC4/LED_CONTROL1.c ****     LED_CONTROL1_TRIG_CONTROL1_REG |= ((uint32)(triggerMode << LED_CONTROL1_START_SHIFT));
 1499              		.loc 1 1167 0
 1500 0020 074B     		ldr	r3, .L100
 1501 0022 074A     		ldr	r2, .L100
 1502 0024 1168     		ldr	r1, [r2]
 1503 0026 7A68     		ldr	r2, [r7, #4]
 1504 0028 1202     		lsl	r2, r2, #8
 1505 002a 0A43     		orr	r2, r1
 1506 002c 1A60     		str	r2, [r3]
1168:Generated_Source\PSoC4/LED_CONTROL1.c **** 
1169:Generated_Source\PSoC4/LED_CONTROL1.c ****     CyExitCriticalSection(enableInterrupts);
 1507              		.loc 1 1169 0
 1508 002e 0F23     		mov	r3, #15
 1509 0030 FB18     		add	r3, r7, r3
 1510 0032 1B78     		ldrb	r3, [r3]
ARM GAS  C:\Users\poornima\AppData\Local\Temp\ccn19ius.s 			page 48


 1511 0034 181C     		mov	r0, r3
 1512 0036 FFF7FEFF 		bl	CyExitCriticalSection
1170:Generated_Source\PSoC4/LED_CONTROL1.c **** }
 1513              		.loc 1 1170 0
 1514 003a BD46     		mov	sp, r7
 1515 003c 05B0     		add	sp, sp, #20
 1516              		@ sp needed
 1517 003e 90BD     		pop	{r4, r7, pc}
 1518              	.L101:
 1519              		.align	2
 1520              	.L100:
 1521 0040 64012040 		.word	1075839332
 1522 0044 FFFCFFFF 		.word	-769
 1523              		.cfi_endproc
 1524              	.LFE31:
 1525              		.size	LED_CONTROL1_SetStartMode, .-LED_CONTROL1_SetStartMode
 1526              		.section	.text.LED_CONTROL1_SetStopMode,"ax",%progbits
 1527              		.align	2
 1528              		.global	LED_CONTROL1_SetStopMode
 1529              		.code	16
 1530              		.thumb_func
 1531              		.type	LED_CONTROL1_SetStopMode, %function
 1532              	LED_CONTROL1_SetStopMode:
 1533              	.LFB32:
1171:Generated_Source\PSoC4/LED_CONTROL1.c **** 
1172:Generated_Source\PSoC4/LED_CONTROL1.c **** 
1173:Generated_Source\PSoC4/LED_CONTROL1.c **** /*******************************************************************************
1174:Generated_Source\PSoC4/LED_CONTROL1.c **** * Function Name: LED_CONTROL1_SetStopMode
1175:Generated_Source\PSoC4/LED_CONTROL1.c **** ********************************************************************************
1176:Generated_Source\PSoC4/LED_CONTROL1.c **** *
1177:Generated_Source\PSoC4/LED_CONTROL1.c **** * Summary:
1178:Generated_Source\PSoC4/LED_CONTROL1.c **** *  Sets the stop trigger mode. For PWM mode this is the kill input.
1179:Generated_Source\PSoC4/LED_CONTROL1.c **** *
1180:Generated_Source\PSoC4/LED_CONTROL1.c **** * Parameters:
1181:Generated_Source\PSoC4/LED_CONTROL1.c **** *  triggerMode: Enumerated trigger mode value
1182:Generated_Source\PSoC4/LED_CONTROL1.c **** *   Values:
1183:Generated_Source\PSoC4/LED_CONTROL1.c **** *     - LED_CONTROL1_TRIG_LEVEL     - Level
1184:Generated_Source\PSoC4/LED_CONTROL1.c **** *     - LED_CONTROL1_TRIG_RISING    - Rising edge
1185:Generated_Source\PSoC4/LED_CONTROL1.c **** *     - LED_CONTROL1_TRIG_FALLING   - Falling edge
1186:Generated_Source\PSoC4/LED_CONTROL1.c **** *     - LED_CONTROL1_TRIG_BOTH      - Both rising and falling edge
1187:Generated_Source\PSoC4/LED_CONTROL1.c **** *
1188:Generated_Source\PSoC4/LED_CONTROL1.c **** * Return:
1189:Generated_Source\PSoC4/LED_CONTROL1.c **** *  None
1190:Generated_Source\PSoC4/LED_CONTROL1.c **** *
1191:Generated_Source\PSoC4/LED_CONTROL1.c **** *******************************************************************************/
1192:Generated_Source\PSoC4/LED_CONTROL1.c **** void LED_CONTROL1_SetStopMode(uint32 triggerMode)
1193:Generated_Source\PSoC4/LED_CONTROL1.c **** {
 1534              		.loc 1 1193 0
 1535              		.cfi_startproc
 1536 0000 90B5     		push	{r4, r7, lr}
 1537              		.cfi_def_cfa_offset 12
 1538              		.cfi_offset 4, -12
 1539              		.cfi_offset 7, -8
 1540              		.cfi_offset 14, -4
 1541 0002 85B0     		sub	sp, sp, #20
 1542              		.cfi_def_cfa_offset 32
 1543 0004 00AF     		add	r7, sp, #0
ARM GAS  C:\Users\poornima\AppData\Local\Temp\ccn19ius.s 			page 49


 1544              		.cfi_def_cfa_register 7
 1545 0006 7860     		str	r0, [r7, #4]
1194:Generated_Source\PSoC4/LED_CONTROL1.c ****     uint8 enableInterrupts;
1195:Generated_Source\PSoC4/LED_CONTROL1.c **** 
1196:Generated_Source\PSoC4/LED_CONTROL1.c ****     enableInterrupts = CyEnterCriticalSection();
 1546              		.loc 1 1196 0
 1547 0008 0F23     		mov	r3, #15
 1548 000a FC18     		add	r4, r7, r3
 1549 000c FFF7FEFF 		bl	CyEnterCriticalSection
 1550 0010 031C     		mov	r3, r0
 1551 0012 2370     		strb	r3, [r4]
1197:Generated_Source\PSoC4/LED_CONTROL1.c **** 
1198:Generated_Source\PSoC4/LED_CONTROL1.c ****     LED_CONTROL1_TRIG_CONTROL1_REG &= (uint32)~LED_CONTROL1_STOP_MASK;
 1552              		.loc 1 1198 0
 1553 0014 0A4B     		ldr	r3, .L103
 1554 0016 0A4A     		ldr	r2, .L103
 1555 0018 1268     		ldr	r2, [r2]
 1556 001a C021     		mov	r1, #192
 1557 001c 8A43     		bic	r2, r1
 1558 001e 1A60     		str	r2, [r3]
1199:Generated_Source\PSoC4/LED_CONTROL1.c ****     LED_CONTROL1_TRIG_CONTROL1_REG |= ((uint32)(triggerMode << LED_CONTROL1_STOP_SHIFT));
 1559              		.loc 1 1199 0
 1560 0020 074B     		ldr	r3, .L103
 1561 0022 074A     		ldr	r2, .L103
 1562 0024 1168     		ldr	r1, [r2]
 1563 0026 7A68     		ldr	r2, [r7, #4]
 1564 0028 9201     		lsl	r2, r2, #6
 1565 002a 0A43     		orr	r2, r1
 1566 002c 1A60     		str	r2, [r3]
1200:Generated_Source\PSoC4/LED_CONTROL1.c **** 
1201:Generated_Source\PSoC4/LED_CONTROL1.c ****     CyExitCriticalSection(enableInterrupts);
 1567              		.loc 1 1201 0
 1568 002e 0F23     		mov	r3, #15
 1569 0030 FB18     		add	r3, r7, r3
 1570 0032 1B78     		ldrb	r3, [r3]
 1571 0034 181C     		mov	r0, r3
 1572 0036 FFF7FEFF 		bl	CyExitCriticalSection
1202:Generated_Source\PSoC4/LED_CONTROL1.c **** }
 1573              		.loc 1 1202 0
 1574 003a BD46     		mov	sp, r7
 1575 003c 05B0     		add	sp, sp, #20
 1576              		@ sp needed
 1577 003e 90BD     		pop	{r4, r7, pc}
 1578              	.L104:
 1579              		.align	2
 1580              	.L103:
 1581 0040 64012040 		.word	1075839332
 1582              		.cfi_endproc
 1583              	.LFE32:
 1584              		.size	LED_CONTROL1_SetStopMode, .-LED_CONTROL1_SetStopMode
 1585              		.section	.text.LED_CONTROL1_SetCountMode,"ax",%progbits
 1586              		.align	2
 1587              		.global	LED_CONTROL1_SetCountMode
 1588              		.code	16
 1589              		.thumb_func
 1590              		.type	LED_CONTROL1_SetCountMode, %function
 1591              	LED_CONTROL1_SetCountMode:
ARM GAS  C:\Users\poornima\AppData\Local\Temp\ccn19ius.s 			page 50


 1592              	.LFB33:
1203:Generated_Source\PSoC4/LED_CONTROL1.c **** 
1204:Generated_Source\PSoC4/LED_CONTROL1.c **** 
1205:Generated_Source\PSoC4/LED_CONTROL1.c **** /*******************************************************************************
1206:Generated_Source\PSoC4/LED_CONTROL1.c **** * Function Name: LED_CONTROL1_SetCountMode
1207:Generated_Source\PSoC4/LED_CONTROL1.c **** ********************************************************************************
1208:Generated_Source\PSoC4/LED_CONTROL1.c **** *
1209:Generated_Source\PSoC4/LED_CONTROL1.c **** * Summary:
1210:Generated_Source\PSoC4/LED_CONTROL1.c **** *  Sets the count trigger mode. For Quadrature Decoder mode this is the phiA
1211:Generated_Source\PSoC4/LED_CONTROL1.c **** *  input.
1212:Generated_Source\PSoC4/LED_CONTROL1.c **** *
1213:Generated_Source\PSoC4/LED_CONTROL1.c **** * Parameters:
1214:Generated_Source\PSoC4/LED_CONTROL1.c **** *  triggerMode: Enumerated trigger mode value
1215:Generated_Source\PSoC4/LED_CONTROL1.c **** *   Values:
1216:Generated_Source\PSoC4/LED_CONTROL1.c **** *     - LED_CONTROL1_TRIG_LEVEL     - Level
1217:Generated_Source\PSoC4/LED_CONTROL1.c **** *     - LED_CONTROL1_TRIG_RISING    - Rising edge
1218:Generated_Source\PSoC4/LED_CONTROL1.c **** *     - LED_CONTROL1_TRIG_FALLING   - Falling edge
1219:Generated_Source\PSoC4/LED_CONTROL1.c **** *     - LED_CONTROL1_TRIG_BOTH      - Both rising and falling edge
1220:Generated_Source\PSoC4/LED_CONTROL1.c **** *
1221:Generated_Source\PSoC4/LED_CONTROL1.c **** * Return:
1222:Generated_Source\PSoC4/LED_CONTROL1.c **** *  None
1223:Generated_Source\PSoC4/LED_CONTROL1.c **** *
1224:Generated_Source\PSoC4/LED_CONTROL1.c **** *******************************************************************************/
1225:Generated_Source\PSoC4/LED_CONTROL1.c **** void LED_CONTROL1_SetCountMode(uint32 triggerMode)
1226:Generated_Source\PSoC4/LED_CONTROL1.c **** {
 1593              		.loc 1 1226 0
 1594              		.cfi_startproc
 1595 0000 90B5     		push	{r4, r7, lr}
 1596              		.cfi_def_cfa_offset 12
 1597              		.cfi_offset 4, -12
 1598              		.cfi_offset 7, -8
 1599              		.cfi_offset 14, -4
 1600 0002 85B0     		sub	sp, sp, #20
 1601              		.cfi_def_cfa_offset 32
 1602 0004 00AF     		add	r7, sp, #0
 1603              		.cfi_def_cfa_register 7
 1604 0006 7860     		str	r0, [r7, #4]
1227:Generated_Source\PSoC4/LED_CONTROL1.c ****     uint8 enableInterrupts;
1228:Generated_Source\PSoC4/LED_CONTROL1.c **** 
1229:Generated_Source\PSoC4/LED_CONTROL1.c ****     enableInterrupts = CyEnterCriticalSection();
 1605              		.loc 1 1229 0
 1606 0008 0F23     		mov	r3, #15
 1607 000a FC18     		add	r4, r7, r3
 1608 000c FFF7FEFF 		bl	CyEnterCriticalSection
 1609 0010 031C     		mov	r3, r0
 1610 0012 2370     		strb	r3, [r4]
1230:Generated_Source\PSoC4/LED_CONTROL1.c **** 
1231:Generated_Source\PSoC4/LED_CONTROL1.c ****     LED_CONTROL1_TRIG_CONTROL1_REG &= (uint32)~LED_CONTROL1_COUNT_MASK;
 1611              		.loc 1 1231 0
 1612 0014 0A4B     		ldr	r3, .L106
 1613 0016 0A4A     		ldr	r2, .L106
 1614 0018 1268     		ldr	r2, [r2]
 1615 001a 0C21     		mov	r1, #12
 1616 001c 8A43     		bic	r2, r1
 1617 001e 1A60     		str	r2, [r3]
1232:Generated_Source\PSoC4/LED_CONTROL1.c ****     LED_CONTROL1_TRIG_CONTROL1_REG |= ((uint32)(triggerMode << LED_CONTROL1_COUNT_SHIFT));
 1618              		.loc 1 1232 0
ARM GAS  C:\Users\poornima\AppData\Local\Temp\ccn19ius.s 			page 51


 1619 0020 074B     		ldr	r3, .L106
 1620 0022 074A     		ldr	r2, .L106
 1621 0024 1168     		ldr	r1, [r2]
 1622 0026 7A68     		ldr	r2, [r7, #4]
 1623 0028 9200     		lsl	r2, r2, #2
 1624 002a 0A43     		orr	r2, r1
 1625 002c 1A60     		str	r2, [r3]
1233:Generated_Source\PSoC4/LED_CONTROL1.c **** 
1234:Generated_Source\PSoC4/LED_CONTROL1.c ****     CyExitCriticalSection(enableInterrupts);
 1626              		.loc 1 1234 0
 1627 002e 0F23     		mov	r3, #15
 1628 0030 FB18     		add	r3, r7, r3
 1629 0032 1B78     		ldrb	r3, [r3]
 1630 0034 181C     		mov	r0, r3
 1631 0036 FFF7FEFF 		bl	CyExitCriticalSection
1235:Generated_Source\PSoC4/LED_CONTROL1.c **** }
 1632              		.loc 1 1235 0
 1633 003a BD46     		mov	sp, r7
 1634 003c 05B0     		add	sp, sp, #20
 1635              		@ sp needed
 1636 003e 90BD     		pop	{r4, r7, pc}
 1637              	.L107:
 1638              		.align	2
 1639              	.L106:
 1640 0040 64012040 		.word	1075839332
 1641              		.cfi_endproc
 1642              	.LFE33:
 1643              		.size	LED_CONTROL1_SetCountMode, .-LED_CONTROL1_SetCountMode
 1644              		.section	.text.LED_CONTROL1_TriggerCommand,"ax",%progbits
 1645              		.align	2
 1646              		.global	LED_CONTROL1_TriggerCommand
 1647              		.code	16
 1648              		.thumb_func
 1649              		.type	LED_CONTROL1_TriggerCommand, %function
 1650              	LED_CONTROL1_TriggerCommand:
 1651              	.LFB34:
1236:Generated_Source\PSoC4/LED_CONTROL1.c **** 
1237:Generated_Source\PSoC4/LED_CONTROL1.c **** 
1238:Generated_Source\PSoC4/LED_CONTROL1.c **** /*******************************************************************************
1239:Generated_Source\PSoC4/LED_CONTROL1.c **** * Function Name: LED_CONTROL1_TriggerCommand
1240:Generated_Source\PSoC4/LED_CONTROL1.c **** ********************************************************************************
1241:Generated_Source\PSoC4/LED_CONTROL1.c **** *
1242:Generated_Source\PSoC4/LED_CONTROL1.c **** * Summary:
1243:Generated_Source\PSoC4/LED_CONTROL1.c **** *  Triggers the designated command to occur on the designated TCPWM instances.
1244:Generated_Source\PSoC4/LED_CONTROL1.c **** *  The mask can be used to apply this command simultaneously to more than one
1245:Generated_Source\PSoC4/LED_CONTROL1.c **** *  instance.  This allows multiple TCPWM instances to be synchronized.
1246:Generated_Source\PSoC4/LED_CONTROL1.c **** *
1247:Generated_Source\PSoC4/LED_CONTROL1.c **** * Parameters:
1248:Generated_Source\PSoC4/LED_CONTROL1.c **** *  mask: A combination of mask bits for each instance of the TCPWM that the
1249:Generated_Source\PSoC4/LED_CONTROL1.c **** *        command should apply to.  This function from one instance can be used
1250:Generated_Source\PSoC4/LED_CONTROL1.c **** *        to apply the command to any of the instances in the design.
1251:Generated_Source\PSoC4/LED_CONTROL1.c **** *        The mask value for a specific instance is available with the MASK
1252:Generated_Source\PSoC4/LED_CONTROL1.c **** *        define.
1253:Generated_Source\PSoC4/LED_CONTROL1.c **** *  command: Enumerated command values. Capture command only applicable for
1254:Generated_Source\PSoC4/LED_CONTROL1.c **** *           Timer/Counter with Capture and PWM modes.
1255:Generated_Source\PSoC4/LED_CONTROL1.c **** *   Values:
1256:Generated_Source\PSoC4/LED_CONTROL1.c **** *     - LED_CONTROL1_CMD_CAPTURE    - Trigger Capture/Switch command
ARM GAS  C:\Users\poornima\AppData\Local\Temp\ccn19ius.s 			page 52


1257:Generated_Source\PSoC4/LED_CONTROL1.c **** *     - LED_CONTROL1_CMD_RELOAD     - Trigger Reload/Index command
1258:Generated_Source\PSoC4/LED_CONTROL1.c **** *     - LED_CONTROL1_CMD_STOP       - Trigger Stop/Kill command
1259:Generated_Source\PSoC4/LED_CONTROL1.c **** *     - LED_CONTROL1_CMD_START      - Trigger Start/phiB command
1260:Generated_Source\PSoC4/LED_CONTROL1.c **** *
1261:Generated_Source\PSoC4/LED_CONTROL1.c **** * Return:
1262:Generated_Source\PSoC4/LED_CONTROL1.c **** *  None
1263:Generated_Source\PSoC4/LED_CONTROL1.c **** *
1264:Generated_Source\PSoC4/LED_CONTROL1.c **** *******************************************************************************/
1265:Generated_Source\PSoC4/LED_CONTROL1.c **** void LED_CONTROL1_TriggerCommand(uint32 mask, uint32 command)
1266:Generated_Source\PSoC4/LED_CONTROL1.c **** {
 1652              		.loc 1 1266 0
 1653              		.cfi_startproc
 1654 0000 90B5     		push	{r4, r7, lr}
 1655              		.cfi_def_cfa_offset 12
 1656              		.cfi_offset 4, -12
 1657              		.cfi_offset 7, -8
 1658              		.cfi_offset 14, -4
 1659 0002 85B0     		sub	sp, sp, #20
 1660              		.cfi_def_cfa_offset 32
 1661 0004 00AF     		add	r7, sp, #0
 1662              		.cfi_def_cfa_register 7
 1663 0006 7860     		str	r0, [r7, #4]
 1664 0008 3960     		str	r1, [r7]
1267:Generated_Source\PSoC4/LED_CONTROL1.c ****     uint8 enableInterrupts;
1268:Generated_Source\PSoC4/LED_CONTROL1.c **** 
1269:Generated_Source\PSoC4/LED_CONTROL1.c ****     enableInterrupts = CyEnterCriticalSection();
 1665              		.loc 1 1269 0
 1666 000a 0F23     		mov	r3, #15
 1667 000c FC18     		add	r4, r7, r3
 1668 000e FFF7FEFF 		bl	CyEnterCriticalSection
 1669 0012 031C     		mov	r3, r0
 1670 0014 2370     		strb	r3, [r4]
1270:Generated_Source\PSoC4/LED_CONTROL1.c **** 
1271:Generated_Source\PSoC4/LED_CONTROL1.c ****     LED_CONTROL1_COMMAND_REG = ((uint32)(mask << command));
 1671              		.loc 1 1271 0
 1672 0016 074B     		ldr	r3, .L109
 1673 0018 3A68     		ldr	r2, [r7]
 1674 001a 7968     		ldr	r1, [r7, #4]
 1675 001c 9140     		lsl	r1, r1, r2
 1676 001e 0A1C     		mov	r2, r1
 1677 0020 1A60     		str	r2, [r3]
1272:Generated_Source\PSoC4/LED_CONTROL1.c **** 
1273:Generated_Source\PSoC4/LED_CONTROL1.c ****     CyExitCriticalSection(enableInterrupts);
 1678              		.loc 1 1273 0
 1679 0022 0F23     		mov	r3, #15
 1680 0024 FB18     		add	r3, r7, r3
 1681 0026 1B78     		ldrb	r3, [r3]
 1682 0028 181C     		mov	r0, r3
 1683 002a FFF7FEFF 		bl	CyExitCriticalSection
1274:Generated_Source\PSoC4/LED_CONTROL1.c **** }
 1684              		.loc 1 1274 0
 1685 002e BD46     		mov	sp, r7
 1686 0030 05B0     		add	sp, sp, #20
 1687              		@ sp needed
 1688 0032 90BD     		pop	{r4, r7, pc}
 1689              	.L110:
 1690              		.align	2
ARM GAS  C:\Users\poornima\AppData\Local\Temp\ccn19ius.s 			page 53


 1691              	.L109:
 1692 0034 08002040 		.word	1075838984
 1693              		.cfi_endproc
 1694              	.LFE34:
 1695              		.size	LED_CONTROL1_TriggerCommand, .-LED_CONTROL1_TriggerCommand
 1696              		.section	.text.LED_CONTROL1_ReadStatus,"ax",%progbits
 1697              		.align	2
 1698              		.global	LED_CONTROL1_ReadStatus
 1699              		.code	16
 1700              		.thumb_func
 1701              		.type	LED_CONTROL1_ReadStatus, %function
 1702              	LED_CONTROL1_ReadStatus:
 1703              	.LFB35:
1275:Generated_Source\PSoC4/LED_CONTROL1.c **** 
1276:Generated_Source\PSoC4/LED_CONTROL1.c **** 
1277:Generated_Source\PSoC4/LED_CONTROL1.c **** /*******************************************************************************
1278:Generated_Source\PSoC4/LED_CONTROL1.c **** * Function Name: LED_CONTROL1_ReadStatus
1279:Generated_Source\PSoC4/LED_CONTROL1.c **** ********************************************************************************
1280:Generated_Source\PSoC4/LED_CONTROL1.c **** *
1281:Generated_Source\PSoC4/LED_CONTROL1.c **** * Summary:
1282:Generated_Source\PSoC4/LED_CONTROL1.c **** *  Reads the status of the LED_CONTROL1.
1283:Generated_Source\PSoC4/LED_CONTROL1.c **** *
1284:Generated_Source\PSoC4/LED_CONTROL1.c **** * Parameters:
1285:Generated_Source\PSoC4/LED_CONTROL1.c **** *  None
1286:Generated_Source\PSoC4/LED_CONTROL1.c **** *
1287:Generated_Source\PSoC4/LED_CONTROL1.c **** * Return:
1288:Generated_Source\PSoC4/LED_CONTROL1.c **** *  Status
1289:Generated_Source\PSoC4/LED_CONTROL1.c **** *   Values:
1290:Generated_Source\PSoC4/LED_CONTROL1.c **** *     - LED_CONTROL1_STATUS_DOWN    - Set if counting down
1291:Generated_Source\PSoC4/LED_CONTROL1.c **** *     - LED_CONTROL1_STATUS_RUNNING - Set if counter is running
1292:Generated_Source\PSoC4/LED_CONTROL1.c **** *
1293:Generated_Source\PSoC4/LED_CONTROL1.c **** *******************************************************************************/
1294:Generated_Source\PSoC4/LED_CONTROL1.c **** uint32 LED_CONTROL1_ReadStatus(void)
1295:Generated_Source\PSoC4/LED_CONTROL1.c **** {
 1704              		.loc 1 1295 0
 1705              		.cfi_startproc
 1706 0000 80B5     		push	{r7, lr}
 1707              		.cfi_def_cfa_offset 8
 1708              		.cfi_offset 7, -8
 1709              		.cfi_offset 14, -4
 1710 0002 00AF     		add	r7, sp, #0
 1711              		.cfi_def_cfa_register 7
1296:Generated_Source\PSoC4/LED_CONTROL1.c ****     return ((LED_CONTROL1_STATUS_REG >> LED_CONTROL1_RUNNING_STATUS_SHIFT) |
 1712              		.loc 1 1296 0
 1713 0004 054B     		ldr	r3, .L113
 1714 0006 1B68     		ldr	r3, [r3]
 1715 0008 9A0F     		lsr	r2, r3, #30
1297:Generated_Source\PSoC4/LED_CONTROL1.c ****             (LED_CONTROL1_STATUS_REG & LED_CONTROL1_STATUS_DOWN));
 1716              		.loc 1 1297 0
 1717 000a 044B     		ldr	r3, .L113
 1718 000c 1B68     		ldr	r3, [r3]
 1719 000e 0121     		mov	r1, #1
 1720 0010 0B40     		and	r3, r1
1296:Generated_Source\PSoC4/LED_CONTROL1.c ****     return ((LED_CONTROL1_STATUS_REG >> LED_CONTROL1_RUNNING_STATUS_SHIFT) |
 1721              		.loc 1 1296 0
 1722 0012 1343     		orr	r3, r2
1298:Generated_Source\PSoC4/LED_CONTROL1.c **** }
ARM GAS  C:\Users\poornima\AppData\Local\Temp\ccn19ius.s 			page 54


 1723              		.loc 1 1298 0
 1724 0014 181C     		mov	r0, r3
 1725 0016 BD46     		mov	sp, r7
 1726              		@ sp needed
 1727 0018 80BD     		pop	{r7, pc}
 1728              	.L114:
 1729 001a C046     		.align	2
 1730              	.L113:
 1731 001c 44012040 		.word	1075839300
 1732              		.cfi_endproc
 1733              	.LFE35:
 1734              		.size	LED_CONTROL1_ReadStatus, .-LED_CONTROL1_ReadStatus
 1735              		.section	.text.LED_CONTROL1_SetInterruptMode,"ax",%progbits
 1736              		.align	2
 1737              		.global	LED_CONTROL1_SetInterruptMode
 1738              		.code	16
 1739              		.thumb_func
 1740              		.type	LED_CONTROL1_SetInterruptMode, %function
 1741              	LED_CONTROL1_SetInterruptMode:
 1742              	.LFB36:
1299:Generated_Source\PSoC4/LED_CONTROL1.c **** 
1300:Generated_Source\PSoC4/LED_CONTROL1.c **** 
1301:Generated_Source\PSoC4/LED_CONTROL1.c **** /*******************************************************************************
1302:Generated_Source\PSoC4/LED_CONTROL1.c **** * Function Name: LED_CONTROL1_SetInterruptMode
1303:Generated_Source\PSoC4/LED_CONTROL1.c **** ********************************************************************************
1304:Generated_Source\PSoC4/LED_CONTROL1.c **** *
1305:Generated_Source\PSoC4/LED_CONTROL1.c **** * Summary:
1306:Generated_Source\PSoC4/LED_CONTROL1.c **** *  Sets the interrupt mask to control which interrupt
1307:Generated_Source\PSoC4/LED_CONTROL1.c **** *  requests generate the interrupt signal.
1308:Generated_Source\PSoC4/LED_CONTROL1.c **** *
1309:Generated_Source\PSoC4/LED_CONTROL1.c **** * Parameters:
1310:Generated_Source\PSoC4/LED_CONTROL1.c **** *   interruptMask: Mask of bits to be enabled
1311:Generated_Source\PSoC4/LED_CONTROL1.c **** *   Values:
1312:Generated_Source\PSoC4/LED_CONTROL1.c **** *     - LED_CONTROL1_INTR_MASK_TC       - Terminal count mask
1313:Generated_Source\PSoC4/LED_CONTROL1.c **** *     - LED_CONTROL1_INTR_MASK_CC_MATCH - Compare count / capture mask
1314:Generated_Source\PSoC4/LED_CONTROL1.c **** *
1315:Generated_Source\PSoC4/LED_CONTROL1.c **** * Return:
1316:Generated_Source\PSoC4/LED_CONTROL1.c **** *  None
1317:Generated_Source\PSoC4/LED_CONTROL1.c **** *
1318:Generated_Source\PSoC4/LED_CONTROL1.c **** *******************************************************************************/
1319:Generated_Source\PSoC4/LED_CONTROL1.c **** void LED_CONTROL1_SetInterruptMode(uint32 interruptMask)
1320:Generated_Source\PSoC4/LED_CONTROL1.c **** {
 1743              		.loc 1 1320 0
 1744              		.cfi_startproc
 1745 0000 80B5     		push	{r7, lr}
 1746              		.cfi_def_cfa_offset 8
 1747              		.cfi_offset 7, -8
 1748              		.cfi_offset 14, -4
 1749 0002 82B0     		sub	sp, sp, #8
 1750              		.cfi_def_cfa_offset 16
 1751 0004 00AF     		add	r7, sp, #0
 1752              		.cfi_def_cfa_register 7
 1753 0006 7860     		str	r0, [r7, #4]
1321:Generated_Source\PSoC4/LED_CONTROL1.c ****     LED_CONTROL1_INTERRUPT_MASK_REG =  interruptMask;
 1754              		.loc 1 1321 0
 1755 0008 024B     		ldr	r3, .L116
 1756 000a 7A68     		ldr	r2, [r7, #4]
ARM GAS  C:\Users\poornima\AppData\Local\Temp\ccn19ius.s 			page 55


 1757 000c 1A60     		str	r2, [r3]
1322:Generated_Source\PSoC4/LED_CONTROL1.c **** }
 1758              		.loc 1 1322 0
 1759 000e BD46     		mov	sp, r7
 1760 0010 02B0     		add	sp, sp, #8
 1761              		@ sp needed
 1762 0012 80BD     		pop	{r7, pc}
 1763              	.L117:
 1764              		.align	2
 1765              	.L116:
 1766 0014 78012040 		.word	1075839352
 1767              		.cfi_endproc
 1768              	.LFE36:
 1769              		.size	LED_CONTROL1_SetInterruptMode, .-LED_CONTROL1_SetInterruptMode
 1770              		.section	.text.LED_CONTROL1_GetInterruptSourceMasked,"ax",%progbits
 1771              		.align	2
 1772              		.global	LED_CONTROL1_GetInterruptSourceMasked
 1773              		.code	16
 1774              		.thumb_func
 1775              		.type	LED_CONTROL1_GetInterruptSourceMasked, %function
 1776              	LED_CONTROL1_GetInterruptSourceMasked:
 1777              	.LFB37:
1323:Generated_Source\PSoC4/LED_CONTROL1.c **** 
1324:Generated_Source\PSoC4/LED_CONTROL1.c **** 
1325:Generated_Source\PSoC4/LED_CONTROL1.c **** /*******************************************************************************
1326:Generated_Source\PSoC4/LED_CONTROL1.c **** * Function Name: LED_CONTROL1_GetInterruptSourceMasked
1327:Generated_Source\PSoC4/LED_CONTROL1.c **** ********************************************************************************
1328:Generated_Source\PSoC4/LED_CONTROL1.c **** *
1329:Generated_Source\PSoC4/LED_CONTROL1.c **** * Summary:
1330:Generated_Source\PSoC4/LED_CONTROL1.c **** *  Gets the interrupt requests masked by the interrupt mask.
1331:Generated_Source\PSoC4/LED_CONTROL1.c **** *
1332:Generated_Source\PSoC4/LED_CONTROL1.c **** * Parameters:
1333:Generated_Source\PSoC4/LED_CONTROL1.c **** *   None
1334:Generated_Source\PSoC4/LED_CONTROL1.c **** *
1335:Generated_Source\PSoC4/LED_CONTROL1.c **** * Return:
1336:Generated_Source\PSoC4/LED_CONTROL1.c **** *  Masked interrupt source
1337:Generated_Source\PSoC4/LED_CONTROL1.c **** *   Values:
1338:Generated_Source\PSoC4/LED_CONTROL1.c **** *     - LED_CONTROL1_INTR_MASK_TC       - Terminal count mask
1339:Generated_Source\PSoC4/LED_CONTROL1.c **** *     - LED_CONTROL1_INTR_MASK_CC_MATCH - Compare count / capture mask
1340:Generated_Source\PSoC4/LED_CONTROL1.c **** *
1341:Generated_Source\PSoC4/LED_CONTROL1.c **** *******************************************************************************/
1342:Generated_Source\PSoC4/LED_CONTROL1.c **** uint32 LED_CONTROL1_GetInterruptSourceMasked(void)
1343:Generated_Source\PSoC4/LED_CONTROL1.c **** {
 1778              		.loc 1 1343 0
 1779              		.cfi_startproc
 1780 0000 80B5     		push	{r7, lr}
 1781              		.cfi_def_cfa_offset 8
 1782              		.cfi_offset 7, -8
 1783              		.cfi_offset 14, -4
 1784 0002 00AF     		add	r7, sp, #0
 1785              		.cfi_def_cfa_register 7
1344:Generated_Source\PSoC4/LED_CONTROL1.c ****     return (LED_CONTROL1_INTERRUPT_MASKED_REG);
 1786              		.loc 1 1344 0
 1787 0004 024B     		ldr	r3, .L120
 1788 0006 1B68     		ldr	r3, [r3]
1345:Generated_Source\PSoC4/LED_CONTROL1.c **** }
 1789              		.loc 1 1345 0
ARM GAS  C:\Users\poornima\AppData\Local\Temp\ccn19ius.s 			page 56


 1790 0008 181C     		mov	r0, r3
 1791 000a BD46     		mov	sp, r7
 1792              		@ sp needed
 1793 000c 80BD     		pop	{r7, pc}
 1794              	.L121:
 1795 000e C046     		.align	2
 1796              	.L120:
 1797 0010 7C012040 		.word	1075839356
 1798              		.cfi_endproc
 1799              	.LFE37:
 1800              		.size	LED_CONTROL1_GetInterruptSourceMasked, .-LED_CONTROL1_GetInterruptSourceMasked
 1801              		.section	.text.LED_CONTROL1_GetInterruptSource,"ax",%progbits
 1802              		.align	2
 1803              		.global	LED_CONTROL1_GetInterruptSource
 1804              		.code	16
 1805              		.thumb_func
 1806              		.type	LED_CONTROL1_GetInterruptSource, %function
 1807              	LED_CONTROL1_GetInterruptSource:
 1808              	.LFB38:
1346:Generated_Source\PSoC4/LED_CONTROL1.c **** 
1347:Generated_Source\PSoC4/LED_CONTROL1.c **** 
1348:Generated_Source\PSoC4/LED_CONTROL1.c **** /*******************************************************************************
1349:Generated_Source\PSoC4/LED_CONTROL1.c **** * Function Name: LED_CONTROL1_GetInterruptSource
1350:Generated_Source\PSoC4/LED_CONTROL1.c **** ********************************************************************************
1351:Generated_Source\PSoC4/LED_CONTROL1.c **** *
1352:Generated_Source\PSoC4/LED_CONTROL1.c **** * Summary:
1353:Generated_Source\PSoC4/LED_CONTROL1.c **** *  Gets the interrupt requests (without masking).
1354:Generated_Source\PSoC4/LED_CONTROL1.c **** *
1355:Generated_Source\PSoC4/LED_CONTROL1.c **** * Parameters:
1356:Generated_Source\PSoC4/LED_CONTROL1.c **** *  None
1357:Generated_Source\PSoC4/LED_CONTROL1.c **** *
1358:Generated_Source\PSoC4/LED_CONTROL1.c **** * Return:
1359:Generated_Source\PSoC4/LED_CONTROL1.c **** *  Interrupt request value
1360:Generated_Source\PSoC4/LED_CONTROL1.c **** *   Values:
1361:Generated_Source\PSoC4/LED_CONTROL1.c **** *     - LED_CONTROL1_INTR_MASK_TC       - Terminal count mask
1362:Generated_Source\PSoC4/LED_CONTROL1.c **** *     - LED_CONTROL1_INTR_MASK_CC_MATCH - Compare count / capture mask
1363:Generated_Source\PSoC4/LED_CONTROL1.c **** *
1364:Generated_Source\PSoC4/LED_CONTROL1.c **** *******************************************************************************/
1365:Generated_Source\PSoC4/LED_CONTROL1.c **** uint32 LED_CONTROL1_GetInterruptSource(void)
1366:Generated_Source\PSoC4/LED_CONTROL1.c **** {
 1809              		.loc 1 1366 0
 1810              		.cfi_startproc
 1811 0000 80B5     		push	{r7, lr}
 1812              		.cfi_def_cfa_offset 8
 1813              		.cfi_offset 7, -8
 1814              		.cfi_offset 14, -4
 1815 0002 00AF     		add	r7, sp, #0
 1816              		.cfi_def_cfa_register 7
1367:Generated_Source\PSoC4/LED_CONTROL1.c ****     return (LED_CONTROL1_INTERRUPT_REQ_REG);
 1817              		.loc 1 1367 0
 1818 0004 024B     		ldr	r3, .L124
 1819 0006 1B68     		ldr	r3, [r3]
1368:Generated_Source\PSoC4/LED_CONTROL1.c **** }
 1820              		.loc 1 1368 0
 1821 0008 181C     		mov	r0, r3
 1822 000a BD46     		mov	sp, r7
 1823              		@ sp needed
ARM GAS  C:\Users\poornima\AppData\Local\Temp\ccn19ius.s 			page 57


 1824 000c 80BD     		pop	{r7, pc}
 1825              	.L125:
 1826 000e C046     		.align	2
 1827              	.L124:
 1828 0010 70012040 		.word	1075839344
 1829              		.cfi_endproc
 1830              	.LFE38:
 1831              		.size	LED_CONTROL1_GetInterruptSource, .-LED_CONTROL1_GetInterruptSource
 1832              		.section	.text.LED_CONTROL1_ClearInterrupt,"ax",%progbits
 1833              		.align	2
 1834              		.global	LED_CONTROL1_ClearInterrupt
 1835              		.code	16
 1836              		.thumb_func
 1837              		.type	LED_CONTROL1_ClearInterrupt, %function
 1838              	LED_CONTROL1_ClearInterrupt:
 1839              	.LFB39:
1369:Generated_Source\PSoC4/LED_CONTROL1.c **** 
1370:Generated_Source\PSoC4/LED_CONTROL1.c **** 
1371:Generated_Source\PSoC4/LED_CONTROL1.c **** /*******************************************************************************
1372:Generated_Source\PSoC4/LED_CONTROL1.c **** * Function Name: LED_CONTROL1_ClearInterrupt
1373:Generated_Source\PSoC4/LED_CONTROL1.c **** ********************************************************************************
1374:Generated_Source\PSoC4/LED_CONTROL1.c **** *
1375:Generated_Source\PSoC4/LED_CONTROL1.c **** * Summary:
1376:Generated_Source\PSoC4/LED_CONTROL1.c **** *  Clears the interrupt request.
1377:Generated_Source\PSoC4/LED_CONTROL1.c **** *
1378:Generated_Source\PSoC4/LED_CONTROL1.c **** * Parameters:
1379:Generated_Source\PSoC4/LED_CONTROL1.c **** *   interruptMask: Mask of interrupts to clear
1380:Generated_Source\PSoC4/LED_CONTROL1.c **** *   Values:
1381:Generated_Source\PSoC4/LED_CONTROL1.c **** *     - LED_CONTROL1_INTR_MASK_TC       - Terminal count mask
1382:Generated_Source\PSoC4/LED_CONTROL1.c **** *     - LED_CONTROL1_INTR_MASK_CC_MATCH - Compare count / capture mask
1383:Generated_Source\PSoC4/LED_CONTROL1.c **** *
1384:Generated_Source\PSoC4/LED_CONTROL1.c **** * Return:
1385:Generated_Source\PSoC4/LED_CONTROL1.c **** *  None
1386:Generated_Source\PSoC4/LED_CONTROL1.c **** *
1387:Generated_Source\PSoC4/LED_CONTROL1.c **** *******************************************************************************/
1388:Generated_Source\PSoC4/LED_CONTROL1.c **** void LED_CONTROL1_ClearInterrupt(uint32 interruptMask)
1389:Generated_Source\PSoC4/LED_CONTROL1.c **** {
 1840              		.loc 1 1389 0
 1841              		.cfi_startproc
 1842 0000 80B5     		push	{r7, lr}
 1843              		.cfi_def_cfa_offset 8
 1844              		.cfi_offset 7, -8
 1845              		.cfi_offset 14, -4
 1846 0002 82B0     		sub	sp, sp, #8
 1847              		.cfi_def_cfa_offset 16
 1848 0004 00AF     		add	r7, sp, #0
 1849              		.cfi_def_cfa_register 7
 1850 0006 7860     		str	r0, [r7, #4]
1390:Generated_Source\PSoC4/LED_CONTROL1.c ****     LED_CONTROL1_INTERRUPT_REQ_REG = interruptMask;
 1851              		.loc 1 1390 0
 1852 0008 024B     		ldr	r3, .L127
 1853 000a 7A68     		ldr	r2, [r7, #4]
 1854 000c 1A60     		str	r2, [r3]
1391:Generated_Source\PSoC4/LED_CONTROL1.c **** }
 1855              		.loc 1 1391 0
 1856 000e BD46     		mov	sp, r7
 1857 0010 02B0     		add	sp, sp, #8
ARM GAS  C:\Users\poornima\AppData\Local\Temp\ccn19ius.s 			page 58


 1858              		@ sp needed
 1859 0012 80BD     		pop	{r7, pc}
 1860              	.L128:
 1861              		.align	2
 1862              	.L127:
 1863 0014 70012040 		.word	1075839344
 1864              		.cfi_endproc
 1865              	.LFE39:
 1866              		.size	LED_CONTROL1_ClearInterrupt, .-LED_CONTROL1_ClearInterrupt
 1867              		.section	.text.LED_CONTROL1_SetInterrupt,"ax",%progbits
 1868              		.align	2
 1869              		.global	LED_CONTROL1_SetInterrupt
 1870              		.code	16
 1871              		.thumb_func
 1872              		.type	LED_CONTROL1_SetInterrupt, %function
 1873              	LED_CONTROL1_SetInterrupt:
 1874              	.LFB40:
1392:Generated_Source\PSoC4/LED_CONTROL1.c **** 
1393:Generated_Source\PSoC4/LED_CONTROL1.c **** 
1394:Generated_Source\PSoC4/LED_CONTROL1.c **** /*******************************************************************************
1395:Generated_Source\PSoC4/LED_CONTROL1.c **** * Function Name: LED_CONTROL1_SetInterrupt
1396:Generated_Source\PSoC4/LED_CONTROL1.c **** ********************************************************************************
1397:Generated_Source\PSoC4/LED_CONTROL1.c **** *
1398:Generated_Source\PSoC4/LED_CONTROL1.c **** * Summary:
1399:Generated_Source\PSoC4/LED_CONTROL1.c **** *  Sets a software interrupt request.
1400:Generated_Source\PSoC4/LED_CONTROL1.c **** *
1401:Generated_Source\PSoC4/LED_CONTROL1.c **** * Parameters:
1402:Generated_Source\PSoC4/LED_CONTROL1.c **** *   interruptMask: Mask of interrupts to set
1403:Generated_Source\PSoC4/LED_CONTROL1.c **** *   Values:
1404:Generated_Source\PSoC4/LED_CONTROL1.c **** *     - LED_CONTROL1_INTR_MASK_TC       - Terminal count mask
1405:Generated_Source\PSoC4/LED_CONTROL1.c **** *     - LED_CONTROL1_INTR_MASK_CC_MATCH - Compare count / capture mask
1406:Generated_Source\PSoC4/LED_CONTROL1.c **** *
1407:Generated_Source\PSoC4/LED_CONTROL1.c **** * Return:
1408:Generated_Source\PSoC4/LED_CONTROL1.c **** *  None
1409:Generated_Source\PSoC4/LED_CONTROL1.c **** *
1410:Generated_Source\PSoC4/LED_CONTROL1.c **** *******************************************************************************/
1411:Generated_Source\PSoC4/LED_CONTROL1.c **** void LED_CONTROL1_SetInterrupt(uint32 interruptMask)
1412:Generated_Source\PSoC4/LED_CONTROL1.c **** {
 1875              		.loc 1 1412 0
 1876              		.cfi_startproc
 1877 0000 80B5     		push	{r7, lr}
 1878              		.cfi_def_cfa_offset 8
 1879              		.cfi_offset 7, -8
 1880              		.cfi_offset 14, -4
 1881 0002 82B0     		sub	sp, sp, #8
 1882              		.cfi_def_cfa_offset 16
 1883 0004 00AF     		add	r7, sp, #0
 1884              		.cfi_def_cfa_register 7
 1885 0006 7860     		str	r0, [r7, #4]
1413:Generated_Source\PSoC4/LED_CONTROL1.c ****     LED_CONTROL1_INTERRUPT_SET_REG = interruptMask;
 1886              		.loc 1 1413 0
 1887 0008 024B     		ldr	r3, .L130
 1888 000a 7A68     		ldr	r2, [r7, #4]
 1889 000c 1A60     		str	r2, [r3]
1414:Generated_Source\PSoC4/LED_CONTROL1.c **** }
 1890              		.loc 1 1414 0
 1891 000e BD46     		mov	sp, r7
ARM GAS  C:\Users\poornima\AppData\Local\Temp\ccn19ius.s 			page 59


 1892 0010 02B0     		add	sp, sp, #8
 1893              		@ sp needed
 1894 0012 80BD     		pop	{r7, pc}
 1895              	.L131:
 1896              		.align	2
 1897              	.L130:
 1898 0014 74012040 		.word	1075839348
 1899              		.cfi_endproc
 1900              	.LFE40:
 1901              		.size	LED_CONTROL1_SetInterrupt, .-LED_CONTROL1_SetInterrupt
 1902              		.text
 1903              	.Letext0:
 1904              		.file 2 "Generated_Source\\PSoC4\\cytypes.h"