ARM GAS  C:\Users\poornima\AppData\Local\Temp\ccVfpcDo.s 			page 1


   1              		.cpu cortex-m0
   2              		.fpu softvfp
   3              		.eabi_attribute 20, 1
   4              		.eabi_attribute 21, 1
   5              		.eabi_attribute 23, 3
   6              		.eabi_attribute 24, 1
   7              		.eabi_attribute 25, 1
   8              		.eabi_attribute 26, 1
   9              		.eabi_attribute 30, 6
  10              		.eabi_attribute 34, 0
  11              		.eabi_attribute 18, 4
  12              		.code	16
  13              		.file	"main.c"
  14              		.text
  15              	.Ltext0:
  16              		.cfi_sections	.debug_frame
  17              		.global	cache
  18              		.bss
  19              		.align	2
  20              		.type	cache, %object
  21              		.size	cache, 128
  22              	cache:
  23 0000 00000000 		.space	128
  23      00000000 
  23      00000000 
  23      00000000 
  23      00000000 
  24              		.global	update
  25              		.align	2
  26              		.type	update, %object
  27              		.size	update, 128
  28              	update:
  29 0080 00000000 		.space	128
  29      00000000 
  29      00000000 
  29      00000000 
  29      00000000 
  30              		.comm	curPos1,2,2
  31              		.comm	oldCurPos1,2,2
  32              		.comm	curPos2,2,2
  33              		.comm	oldCurPos2,2,2
  34              		.comm	sock1,4,4
  35              		.comm	but1,4,4
  36              		.comm	but2,4,4
  37              		.comm	but3,4,4
  38              		.comm	but4,4,4
  39              		.comm	but5,4,4
  40              		.comm	oldSock1,4,4
  41              		.comm	oldBut1,4,4
  42              		.comm	oldBut2,4,4
  43              		.comm	oldBut3,4,4
  44              		.comm	oldBut4,4,4
  45              		.comm	oldBut5,4,4
  46              		.comm	temp1,1,1
  47              		.comm	temp2,1,1
  48              		.comm	temp3,1,1
  49              		.comm	temp4,1,1
ARM GAS  C:\Users\poornima\AppData\Local\Temp\ccVfpcDo.s 			page 2


  50              		.comm	temp5,1,1
  51              		.comm	temp6,1,1
  52              		.comm	i2cReadBuffer,2,4
  53              		.comm	i2cWriteBuffer,4,4
  54              		.global	compare
  55              		.data
  56              		.align	2
  57              		.type	compare, %object
  58              		.size	compare, 2
  59              	compare:
  60 0000 52       		.byte	82
  61 0001 44       		.byte	68
  62 0002 0000     		.section	.rodata
  63              		.align	2
  64              	.LC3:
  65 0000 696E7369 		.ascii	"inside I2C_Slave_I2CSlaveStatus \012\015\000"
  65      64652049 
  65      32435F53 
  65      6C617665 
  65      5F493243 
  66 0023 00       		.align	2
  67              	.LC5:
  68 0024 200A0D00 		.ascii	" \012\015\000"
  69              		.align	2
  70              	.LC7:
  71 0028 72657365 		.ascii	"reset\012\015\000"
  71      740A0D00 
  72              		.align	2
  73              	.LC10:
  74 0030 72656164 		.ascii	"ready ack sent \012\015\000"
  74      79206163 
  74      6B207365 
  74      6E74200A 
  74      0D00
  75 0042 0000     		.align	2
  76              	.LC12:
  77 0044 74657374 		.ascii	"test \012\015\000"
  77      200A0D00 
  78              		.align	2
  79              	.LC14:
  80 004c 0A0D00   		.ascii	"\012\015\000"
  81 004f 00       		.align	2
  82              	.LC17:
  83 0050 65786365 		.ascii	"excecuting the master commands \012\015\000"
  83      63757469 
  83      6E672074 
  83      6865206D 
  83      61737465 
  84              		.section	.text.main,"ax",%progbits
  85              		.align	2
  86              		.global	main
  87              		.code	16
  88              		.thumb_func
  89              		.type	main, %function
  90              	main:
  91              	.LFB36:
  92              		.file 1 "main.c"
ARM GAS  C:\Users\poornima\AppData\Local\Temp\ccVfpcDo.s 			page 3


   1:main.c        **** /*******************************************************************************
   2:main.c        **** * File Name: main.c
   3:main.c        **** *
   4:main.c        **** * Version: 1.30
   5:main.c        **** *
   6:main.c        **** * Description:
   7:main.c        **** *  The project explains the usage of CapSense CSD component. The 2 buttons and
   8:main.c        **** *  linear sliders are used as sensing elements. LED displays buttons active
   9:main.c        **** *  state and slider position is shown on LCD.
  10:main.c        **** *
  11:main.c        **** ********************************************************************************
  12:main.c        **** * Copyright 2013, Cypress Semiconductor Corporation. All rights reserved.
  13:main.c        **** * This software is owned by Cypress Semiconductor Corporation and is protected
  14:main.c        **** * by and subject to worldwide patent and copyright laws and treaties.
  15:main.c        **** * Therefore, you may use this software only as provided in the license agreement
  16:main.c        **** * accompanying the software package from which you obtained this software.
  17:main.c        **** * CYPRESS AND ITS SUPPLIERS MAKE NO WARRANTY OF ANY KIND, EXPRESS OR IMPLIED,
  18:main.c        **** * WITH REGARD TO THIS SOFTWARE, INCLUDING, BUT NOT LIMITED TO, NONINFRINGEMENT,
  19:main.c        **** * IMPLIED WARRANTIES OF MERCHANTABILITY AND FITNESS FOR A PARTICULAR PURPOSE.
  20:main.c        **** *******************************************************************************/
  21:main.c        **** 
  22:main.c        **** #include <main.h>
  23:main.c        **** #include <CyFlash.h>
  24:main.c        **** 
  25:main.c        **** /* CapSense Slider resoluton is set to 127 (7 bits).
  26:main.c        **** *  Since PWM has 16 bit resolution, slider position value should be shifted left
  27:main.c        **** *  by 9 bits.
  28:main.c        **** */
  29:main.c        **** #define SLIDER_POS_TO_COMPARE_SHIFT    (9u)
  30:main.c        **** 
  31:main.c        **** /* WDT counter configuration */
  32:main.c        **** #define WDT_COUNT0_MATCH    (0x0FFFu)
  33:main.c        **** #define WDT_COUNT1_MATCH    (0x0008u)
  34:main.c        **** 
  35:main.c        **** /* Prototype of WDT ISR */
  36:main.c        **** CY_ISR_PROTO(WdtIsrHandler);
  37:main.c        **** 
  38:main.c        **** /*Defining a Flash Row ,that is to be used for caching the latest status*/
  39:main.c        **** /* Defines second ROW from the last ROW */
  40:main.c        **** #define CY_TEST_FLASH_ROW       (CY_FLASH_NUMBER_ROWS - 2u)
  41:main.c        **** 
  42:main.c        **** /* Defines absolut address of ROW */
  43:main.c        **** #define CY_TEST_FLASH_ADDR      (CY_TEST_FLASH_ROW * CY_FLASH_SIZEOF_ROW)
  44:main.c        **** 
  45:main.c        **** /* Defines ID of the array to write */
  46:main.c        **** //#define ARRAY_ID                ((uint8)(CY_TEST_FLASH_ROW / CY_FLASH_SIZEOF_ROW))
  47:main.c        **** 
  48:main.c        **** /* Defines second ROW from the last ROW in the defined array */
  49:main.c        **** //#define ARRAY_ID_ROW_ADDR   ((uint16)(CY_FLASH_SIZEOF_ROW - 2u))
  50:main.c        **** 
  51:main.c        **** uint8 cache[CY_FLASH_SIZEOF_ROW]={0};
  52:main.c        **** uint8 update[CY_FLASH_SIZEOF_ROW]={0};
  53:main.c        **** uint16 curPos1, oldCurPos1, curPos2, oldCurPos2;
  54:main.c        **** uint32 sock1, but1, but2, but3, but4, but5, oldSock1, oldBut1, oldBut2, oldBut3, oldBut4, oldBut5;
  55:main.c        **** uint8 temp1,temp2,temp3,temp4,temp5,temp6;
  56:main.c        **** 
  57:main.c        **** /* I2C slave read and write buffers */
ARM GAS  C:\Users\poornima\AppData\Local\Temp\ccVfpcDo.s 			page 4


  58:main.c        **** //uint8 i2cReadBuffer [BUFFER_SIZE] = {PACKET_SOP, STS_CMD_FAIL, PACKET_EOP};
  59:main.c        **** uint8 i2cReadBuffer [READ_BUFFER_SIZE]; // we need to change this value according to our pwm buffer
  60:main.c        **** uint8 i2cWriteBuffer[WRITE_BUFFER_SIZE];
  61:main.c        **** 
  62:main.c        **** uint8 compare[2]={0x52,0x44};
  63:main.c        ****                   /*R ,D*/
  64:main.c        **** 
  65:main.c        **** /*******************************************************************************
  66:main.c        **** * Function Name: main
  67:main.c        **** ********************************************************************************
  68:main.c        **** * Summary:
  69:main.c        **** *  Main function performs following functions:
  70:main.c        **** *   1. Enable global interrupts.
  71:main.c        **** *   2. Initialize CapSense CSD and Start the sensor scanning loop.
  72:main.c        **** *   3. Process scanning results and display it on with LEDs.
  73:main.c        **** *
  74:main.c        **** * Parameters:
  75:main.c        **** *  None
  76:main.c        **** *
  77:main.c        **** * Return:
  78:main.c        **** *  None
  79:main.c        **** *
  80:main.c        **** *******************************************************************************/
  81:main.c        **** int main()
  82:main.c        **** {   uint8 i;
  93              		.loc 1 82 0
  94              		.cfi_startproc
  95 0000 80B5     		push	{r7, lr}
  96              		.cfi_def_cfa_offset 8
  97              		.cfi_offset 7, -8
  98              		.cfi_offset 14, -4
  99 0002 82B0     		sub	sp, sp, #8
 100              		.cfi_def_cfa_offset 16
 101 0004 00AF     		add	r7, sp, #0
 102              		.cfi_def_cfa_register 7
  83:main.c        ****     
  84:main.c        ****     /* Start UART(SCB mode)*/ 
  85:main.c        ****     UART_Start();
 103              		.loc 1 85 0
 104 0006 FFF7FEFF 		bl	UART_Start
  86:main.c        ****     
  87:main.c        ****     /* Start I2C slave (SCB mode) */
  88:main.c        ****     I2C_Slave_I2CSlaveInitReadBuf(i2cReadBuffer, READ_BUFFER_SIZE);
 105              		.loc 1 88 0
 106 000a AE4B     		ldr	r3, .L26
 107 000c 181C     		mov	r0, r3
 108 000e 0221     		mov	r1, #2
 109 0010 FFF7FEFF 		bl	I2C_Slave_I2CSlaveInitReadBuf
  89:main.c        ****     I2C_Slave_I2CSlaveInitWriteBuf(i2cWriteBuffer, WRITE_BUFFER_SIZE);
 110              		.loc 1 89 0
 111 0014 AC4B     		ldr	r3, .L26+4
 112 0016 181C     		mov	r0, r3
 113 0018 0421     		mov	r1, #4
 114 001a FFF7FEFF 		bl	I2C_Slave_I2CSlaveInitWriteBuf
  90:main.c        ****     I2C_Slave_Start();
 115              		.loc 1 90 0
 116 001e FFF7FEFF 		bl	I2C_Slave_Start
ARM GAS  C:\Users\poornima\AppData\Local\Temp\ccVfpcDo.s 			page 5


  91:main.c        ****    
  92:main.c        ****     /* Enable global interrupts */
  93:main.c        ****     CyGlobalIntEnable;
 117              		.loc 1 93 0
 118              	@ 93 "main.c" 1
 119 0022 62B6     		CPSIE   i
 120              	@ 0 "" 2
  94:main.c        **** 
  95:main.c        ****     /* Start PWM and CapSense components */
  96:main.c        ****     LED_CONTROL1_Start();
 121              		.loc 1 96 0
 122              		.code	16
 123 0024 FFF7FEFF 		bl	LED_CONTROL1_Start
  97:main.c        ****     LED_CONTROL2_Start();
 124              		.loc 1 97 0
 125 0028 FFF7FEFF 		bl	LED_CONTROL2_Start
  98:main.c        **** 
  99:main.c        ****     CapSense_Start();
 126              		.loc 1 99 0
 127 002c FFF7FEFF 		bl	CapSense_Start
 100:main.c        **** 
 101:main.c        ****     /* Initialize baselines */
 102:main.c        ****     CapSense_InitializeAllBaselines();
 128              		.loc 1 102 0
 129 0030 FFF7FEFF 		bl	CapSense_InitializeAllBaselines
 103:main.c        ****    
 104:main.c        ****     //UART_UartPutString("UPDATING THE STATUS \n\r");
 105:main.c        ****     
 106:main.c        ****     /* Reading from the Flash memory and setting up the widgets to previous status(status before th
 107:main.c        ****     for(i=0;i<8;i++){
 130              		.loc 1 107 0
 131 0034 FB1D     		add	r3, r7, #7
 132 0036 0022     		mov	r2, #0
 133 0038 1A70     		strb	r2, [r3]
 134 003a 0EE0     		b	.L2
 135              	.L3:
 108:main.c        ****         update[i]=(*((uint8 *) (CY_TEST_FLASH_ADDR + i)));
 136              		.loc 1 108 0 discriminator 3
 137 003c FB1D     		add	r3, r7, #7
 138 003e 1B78     		ldrb	r3, [r3]
 139 0040 FA1D     		add	r2, r7, #7
 140 0042 1278     		ldrb	r2, [r2]
 141 0044 A149     		ldr	r1, .L26+8
 142 0046 8C46     		mov	ip, r1
 143 0048 6244     		add	r2, r2, ip
 144 004a 1178     		ldrb	r1, [r2]
 145 004c A04A     		ldr	r2, .L26+12
 146 004e D154     		strb	r1, [r2, r3]
 107:main.c        ****         update[i]=(*((uint8 *) (CY_TEST_FLASH_ADDR + i)));
 147              		.loc 1 107 0 discriminator 3
 148 0050 FB1D     		add	r3, r7, #7
 149 0052 1A78     		ldrb	r2, [r3]
 150 0054 FB1D     		add	r3, r7, #7
 151 0056 0132     		add	r2, r2, #1
 152 0058 1A70     		strb	r2, [r3]
 153              	.L2:
 107:main.c        ****         update[i]=(*((uint8 *) (CY_TEST_FLASH_ADDR + i)));
ARM GAS  C:\Users\poornima\AppData\Local\Temp\ccVfpcDo.s 			page 6


 154              		.loc 1 107 0 is_stmt 0 discriminator 1
 155 005a FB1D     		add	r3, r7, #7
 156 005c 1B78     		ldrb	r3, [r3]
 157 005e 072B     		cmp	r3, #7
 158 0060 ECD9     		bls	.L3
 109:main.c        ****     }
 110:main.c        ****       
 111:main.c        ****     for(i=0;i<8;i++){
 159              		.loc 1 111 0 is_stmt 1
 160 0062 FB1D     		add	r3, r7, #7
 161 0064 0022     		mov	r2, #0
 162 0066 1A70     		strb	r2, [r3]
 163 0068 11E0     		b	.L4
 164              	.L5:
 112:main.c        ****        //UART_UartPutChar(update[i]); 
 113:main.c        ****        //UART_UartPutString("\n\r");
 114:main.c        ****        ExecuteCommand(i,update[i]);
 165              		.loc 1 114 0 discriminator 3
 166 006a FB1D     		add	r3, r7, #7
 167 006c 1978     		ldrb	r1, [r3]
 168 006e FB1D     		add	r3, r7, #7
 169 0070 1B78     		ldrb	r3, [r3]
 170 0072 974A     		ldr	r2, .L26+12
 171 0074 D35C     		ldrb	r3, [r2, r3]
 172 0076 081C     		mov	r0, r1
 173 0078 191C     		mov	r1, r3
 174 007a FFF7FEFF 		bl	ExecuteCommand
 115:main.c        ****        CyDelay(50);
 175              		.loc 1 115 0 discriminator 3
 176 007e 3220     		mov	r0, #50
 177 0080 FFF7FEFF 		bl	CyDelay
 111:main.c        ****        //UART_UartPutChar(update[i]); 
 178              		.loc 1 111 0 discriminator 3
 179 0084 FB1D     		add	r3, r7, #7
 180 0086 1A78     		ldrb	r2, [r3]
 181 0088 FB1D     		add	r3, r7, #7
 182 008a 0132     		add	r2, r2, #1
 183 008c 1A70     		strb	r2, [r3]
 184              	.L4:
 111:main.c        ****        //UART_UartPutChar(update[i]); 
 185              		.loc 1 111 0 is_stmt 0 discriminator 1
 186 008e FB1D     		add	r3, r7, #7
 187 0090 1B78     		ldrb	r3, [r3]
 188 0092 072B     		cmp	r3, #7
 189 0094 E9D9     		bls	.L5
 190              	.L25:
 116:main.c        ****     }
 117:main.c        ****     //UART_UartPutString("update finihsed \n\r");
 118:main.c        ****     
 119:main.c        ****     
 120:main.c        ****     //Capsense Loop
 121:main.c        ****     //UART_UartPutString("Main Loop Started \n\r");
 122:main.c        ****     while(1u)
 123:main.c        ****     {   //CyDelay(100);
 124:main.c        ****         //UART_UartPutString("before I2C_Slave_I2CSlaveStatus \n\r");
 125:main.c        ****         
 126:main.c        ****         /* Write complete: parse command packet */
ARM GAS  C:\Users\poornima\AppData\Local\Temp\ccVfpcDo.s 			page 7


 127:main.c        ****         if (0u != (I2C_Slave_I2CSlaveStatus() & I2C_Slave_I2C_SSTAT_WR_CMPLT))
 191              		.loc 1 127 0 is_stmt 1
 192 0096 FFF7FEFF 		bl	I2C_Slave_I2CSlaveStatus
 193 009a 021C     		mov	r2, r0
 194 009c 1023     		mov	r3, #16
 195 009e 1340     		and	r3, r2
 196 00a0 00D1     		bne	.LCB90
 197 00a2 FAE0     		b	.L6	@long jump
 198              	.LCB90:
 128:main.c        ****         {
 129:main.c        ****            UART_UartPutString("inside I2C_Slave_I2CSlaveStatus \n\r");
 199              		.loc 1 129 0
 200 00a4 8B4B     		ldr	r3, .L26+16
 201 00a6 181C     		mov	r0, r3
 202 00a8 FFF7FEFF 		bl	UART_UartPutString
 130:main.c        ****              UART_UartPutChar(i2cWriteBuffer[0] +0x30);
 203              		.loc 1 130 0
 204 00ac 864B     		ldr	r3, .L26+4
 205 00ae 1B78     		ldrb	r3, [r3]
 206 00b0 3033     		add	r3, r3, #48
 207 00b2 181C     		mov	r0, r3
 208 00b4 FFF7FEFF 		bl	UART_SpiUartWriteTxData
 131:main.c        ****                 UART_UartPutChar(i2cWriteBuffer[1]);
 209              		.loc 1 131 0
 210 00b8 834B     		ldr	r3, .L26+4
 211 00ba 5B78     		ldrb	r3, [r3, #1]
 212 00bc 181C     		mov	r0, r3
 213 00be FFF7FEFF 		bl	UART_SpiUartWriteTxData
 132:main.c        ****                 UART_UartPutString(" \n\r");
 214              		.loc 1 132 0
 215 00c2 854B     		ldr	r3, .L26+20
 216 00c4 181C     		mov	r0, r3
 217 00c6 FFF7FEFF 		bl	UART_UartPutString
 133:main.c        ****             
 134:main.c        ****             /* Check packet length */
 135:main.c        ****             if (1u <= I2C_Slave_I2CSlaveGetWriteBufSize())
 218              		.loc 1 135 0
 219 00ca FFF7FEFF 		bl	I2C_Slave_I2CSlaveGetWriteBufSize
 220 00ce 031E     		sub	r3, r0, #0
 221 00d0 00D1     		bne	.LCB109
 222 00d2 DEE0     		b	.L7	@long jump
 223              	.LCB109:
 136:main.c        ****             {
 137:main.c        ****                 //UART_UartPutString("inside I2C_Slave_I2CSlaveGetWriteBufSize \n\r");
 138:main.c        ****                 //UART_UartPutString("before ExecuteCommand \n\r");
 139:main.c        ****                 //UART_UartPutString("String cmp pass \n\r");
 140:main.c        ****                 
 141:main.c        ****                 /*Sendind master a ready ack*/
 142:main.c        ****                
 143:main.c        ****                 
 144:main.c        ****                 if(i2cWriteBuffer[0]==0x52 && i2cWriteBuffer[1]==0x53 )
 224              		.loc 1 144 0
 225 00d4 7C4B     		ldr	r3, .L26+4
 226 00d6 1B78     		ldrb	r3, [r3]
 227 00d8 522B     		cmp	r3, #82
 228 00da 35D1     		bne	.L8
 229              		.loc 1 144 0 is_stmt 0 discriminator 1
ARM GAS  C:\Users\poornima\AppData\Local\Temp\ccVfpcDo.s 			page 8


 230 00dc 7A4B     		ldr	r3, .L26+4
 231 00de 5B78     		ldrb	r3, [r3, #1]
 232 00e0 532B     		cmp	r3, #83
 233 00e2 31D1     		bne	.L8
 145:main.c        ****                 {   
 146:main.c        ****                     UART_UartPutString("reset\n\r");
 234              		.loc 1 146 0 is_stmt 1
 235 00e4 7D4B     		ldr	r3, .L26+24
 236 00e6 181C     		mov	r0, r3
 237 00e8 FFF7FEFF 		bl	UART_UartPutString
 147:main.c        ****                    /* Setup ISR for interrupts at WDT counter 0 events. */
 148:main.c        ****                     WdtIsr_StartEx(WdtIsrHandler);
 238              		.loc 1 148 0
 239 00ec 7C4B     		ldr	r3, .L26+28
 240 00ee 181C     		mov	r0, r3
 241 00f0 FFF7FEFF 		bl	WdtIsr_StartEx
 149:main.c        **** 
 150:main.c        **** 	                /* Set WDT counter 0 to generate interrupt on match */
 151:main.c        **** 	                CySysWdtWriteMode(CY_SYS_WDT_COUNTER0, CY_SYS_WDT_MODE_INT);
 242              		.loc 1 151 0
 243 00f4 0020     		mov	r0, #0
 244 00f6 0121     		mov	r1, #1
 245 00f8 FFF7FEFF 		bl	CySysWdtSetMode
 152:main.c        **** 	                CySysWdtWriteMatch(CY_SYS_WDT_COUNTER0, WDT_COUNT0_MATCH);
 246              		.loc 1 152 0
 247 00fc 794B     		ldr	r3, .L26+32
 248 00fe 0020     		mov	r0, #0
 249 0100 191C     		mov	r1, r3
 250 0102 FFF7FEFF 		bl	CySysWdtSetMatch
 153:main.c        **** 	                CySysWdtWriteClearOnMatch(CY_SYS_WDT_COUNTER0, 1u);
 251              		.loc 1 153 0
 252 0106 0020     		mov	r0, #0
 253 0108 0121     		mov	r1, #1
 254 010a FFF7FEFF 		bl	CySysWdtSetClearOnMatch
 154:main.c        **** 	
 155:main.c        **** 	                /* Enable WDT counters 0 and 1 cascade */
 156:main.c        **** 	                CySysWdtWriteCascade(CY_SYS_WDT_CASCADE_01);
 255              		.loc 1 156 0
 256 010e 0820     		mov	r0, #8
 257 0110 FFF7FEFF 		bl	CySysWdtSetCascade
 157:main.c        ****     
 158:main.c        **** 	                /* Set WDT counter 1 to generate reset on match */
 159:main.c        **** 	                CySysWdtWriteMatch(CY_SYS_WDT_COUNTER1, WDT_COUNT1_MATCH);
 258              		.loc 1 159 0
 259 0114 0120     		mov	r0, #1
 260 0116 0821     		mov	r1, #8
 261 0118 FFF7FEFF 		bl	CySysWdtSetMatch
 160:main.c        **** 	                CySysWdtWriteMode(CY_SYS_WDT_COUNTER1, CY_SYS_WDT_MODE_RESET);
 262              		.loc 1 160 0
 263 011c 0120     		mov	r0, #1
 264 011e 0221     		mov	r1, #2
 265 0120 FFF7FEFF 		bl	CySysWdtSetMode
 161:main.c        ****                     CySysWdtWriteClearOnMatch(CY_SYS_WDT_COUNTER1, 1u);
 266              		.loc 1 161 0
 267 0124 0120     		mov	r0, #1
 268 0126 0121     		mov	r1, #1
 269 0128 FFF7FEFF 		bl	CySysWdtSetClearOnMatch
ARM GAS  C:\Users\poornima\AppData\Local\Temp\ccVfpcDo.s 			page 9


 162:main.c        **** 	
 163:main.c        **** 	                /* Enable WDT counters 0 and 1 */
 164:main.c        **** 	                CySysWdtEnable(CY_SYS_WDT_COUNTER0_MASK | CY_SYS_WDT_COUNTER1_MASK);
 270              		.loc 1 164 0
 271 012c 0223     		mov	r3, #2
 272 012e FF33     		add	r3, r3, #255
 273 0130 181C     		mov	r0, r3
 274 0132 FFF7FEFF 		bl	CySysWdtEnable
 165:main.c        **** 	
 166:main.c        **** 	                /* Lock WDT registers and try to disable WDT counters 0 and 1 */
 167:main.c        **** 	                CySysWdtLock();
 275              		.loc 1 167 0
 276 0136 FFF7FEFF 		bl	CySysWdtLock
 168:main.c        **** 	                CySysWdtDisable(CY_SYS_WDT_COUNTER1_MASK);
 277              		.loc 1 168 0
 278 013a 8023     		mov	r3, #128
 279 013c 5B00     		lsl	r3, r3, #1
 280 013e 181C     		mov	r0, r3
 281 0140 FFF7FEFF 		bl	CySysWdtDisable
 169:main.c        **** 	                CySysWdtUnlock();
 282              		.loc 1 169 0
 283 0144 FFF7FEFF 		bl	CySysWdtUnlock
 284              	.L8:
 170:main.c        ****                     
 171:main.c        ****                 }
 172:main.c        ****                 
 173:main.c        ****                 
 174:main.c        ****                 if(i2cWriteBuffer[0]==0x52 && i2cWriteBuffer[1]==0x44 )
 285              		.loc 1 174 0
 286 0148 5F4B     		ldr	r3, .L26+4
 287 014a 1B78     		ldrb	r3, [r3]
 288 014c 522B     		cmp	r3, #82
 289 014e 21D1     		bne	.L9
 290              		.loc 1 174 0 is_stmt 0 discriminator 1
 291 0150 5D4B     		ldr	r3, .L26+4
 292 0152 5B78     		ldrb	r3, [r3, #1]
 293 0154 442B     		cmp	r3, #68
 294 0156 1DD1     		bne	.L9
 175:main.c        ****                 {   
 176:main.c        ****                     UART_UartPutString("ready ack sent \n\r");
 295              		.loc 1 176 0 is_stmt 1
 296 0158 634B     		ldr	r3, .L26+36
 297 015a 181C     		mov	r0, r3
 298 015c FFF7FEFF 		bl	UART_UartPutString
 177:main.c        ****                     
 178:main.c        ****                     i2cReadBuffer[0] = 0x52;
 299              		.loc 1 178 0
 300 0160 584B     		ldr	r3, .L26
 301 0162 5222     		mov	r2, #82
 302 0164 1A70     		strb	r2, [r3]
 179:main.c        ****                     i2cReadBuffer[1] = 0x44;
 303              		.loc 1 179 0
 304 0166 574B     		ldr	r3, .L26
 305 0168 4422     		mov	r2, #68
 306 016a 5A70     		strb	r2, [r3, #1]
 180:main.c        ****                     
 181:main.c        ****                     InterPin_Write(~InterPin_Read());
ARM GAS  C:\Users\poornima\AppData\Local\Temp\ccVfpcDo.s 			page 10


 307              		.loc 1 181 0
 308 016c FFF7FEFF 		bl	InterPin_Read
 309 0170 031C     		mov	r3, r0
 310 0172 DB43     		mvn	r3, r3
 311 0174 DBB2     		uxtb	r3, r3
 312 0176 181C     		mov	r0, r3
 313 0178 FFF7FEFF 		bl	InterPin_Write
 182:main.c        ****                     CyDelay(100);
 314              		.loc 1 182 0
 315 017c 6420     		mov	r0, #100
 316 017e FFF7FEFF 		bl	CyDelay
 183:main.c        ****                     InterPin_Write(~InterPin_Read());
 317              		.loc 1 183 0
 318 0182 FFF7FEFF 		bl	InterPin_Read
 319 0186 031C     		mov	r3, r0
 320 0188 DB43     		mvn	r3, r3
 321 018a DBB2     		uxtb	r3, r3
 322 018c 181C     		mov	r0, r3
 323 018e FFF7FEFF 		bl	InterPin_Write
 324 0192 7EE0     		b	.L7
 325              	.L9:
 184:main.c        ****                     
 185:main.c        ****                 }
 186:main.c        ****                 /*Sending data according to master request*/
 187:main.c        ****                 else if( i2cWriteBuffer[1]==0x72)
 326              		.loc 1 187 0
 327 0194 4C4B     		ldr	r3, .L26+4
 328 0196 5B78     		ldrb	r3, [r3, #1]
 329 0198 722B     		cmp	r3, #114
 330 019a 6DD1     		bne	.L10
 188:main.c        ****                 
 189:main.c        ****                 { UART_UartPutString("test \n\r");
 331              		.loc 1 189 0
 332 019c 534B     		ldr	r3, .L26+40
 333 019e 181C     		mov	r0, r3
 334 01a0 FFF7FEFF 		bl	UART_UartPutString
 190:main.c        ****                     i2cReadBuffer[0] = i2cWriteBuffer[0];
 335              		.loc 1 190 0
 336 01a4 484B     		ldr	r3, .L26+4
 337 01a6 1A78     		ldrb	r2, [r3]
 338 01a8 464B     		ldr	r3, .L26
 339 01aa 1A70     		strb	r2, [r3]
 191:main.c        ****                  for(i=0;i<8;i++){
 340              		.loc 1 191 0
 341 01ac FB1D     		add	r3, r7, #7
 342 01ae 0022     		mov	r2, #0
 343 01b0 1A70     		strb	r2, [r3]
 344 01b2 0EE0     		b	.L11
 345              	.L12:
 192:main.c        ****                             update[i]=(*((uint8 *) (CY_TEST_FLASH_ADDR + i)));
 346              		.loc 1 192 0 discriminator 3
 347 01b4 FB1D     		add	r3, r7, #7
 348 01b6 1B78     		ldrb	r3, [r3]
 349 01b8 FA1D     		add	r2, r7, #7
 350 01ba 1278     		ldrb	r2, [r2]
 351 01bc 4349     		ldr	r1, .L26+8
 352 01be 8C46     		mov	ip, r1
ARM GAS  C:\Users\poornima\AppData\Local\Temp\ccVfpcDo.s 			page 11


 353 01c0 6244     		add	r2, r2, ip
 354 01c2 1178     		ldrb	r1, [r2]
 355 01c4 424A     		ldr	r2, .L26+12
 356 01c6 D154     		strb	r1, [r2, r3]
 191:main.c        ****                  for(i=0;i<8;i++){
 357              		.loc 1 191 0 discriminator 3
 358 01c8 FB1D     		add	r3, r7, #7
 359 01ca 1A78     		ldrb	r2, [r3]
 360 01cc FB1D     		add	r3, r7, #7
 361 01ce 0132     		add	r2, r2, #1
 362 01d0 1A70     		strb	r2, [r3]
 363              	.L11:
 191:main.c        ****                  for(i=0;i<8;i++){
 364              		.loc 1 191 0 is_stmt 0 discriminator 1
 365 01d2 FB1D     		add	r3, r7, #7
 366 01d4 1B78     		ldrb	r3, [r3]
 367 01d6 072B     		cmp	r3, #7
 368 01d8 ECD9     		bls	.L12
 193:main.c        ****                             }
 194:main.c        ****                  UART_UartPutChar(update[0]+0x30);
 369              		.loc 1 194 0 is_stmt 1
 370 01da 3D4B     		ldr	r3, .L26+12
 371 01dc 1B78     		ldrb	r3, [r3]
 372 01de 3033     		add	r3, r3, #48
 373 01e0 181C     		mov	r0, r3
 374 01e2 FFF7FEFF 		bl	UART_SpiUartWriteTxData
 195:main.c        ****                 UART_UartPutString("\n\r");
 375              		.loc 1 195 0
 376 01e6 424B     		ldr	r3, .L26+44
 377 01e8 181C     		mov	r0, r3
 378 01ea FFF7FEFF 		bl	UART_UartPutString
 196:main.c        ****                     switch(i2cWriteBuffer[0])
 379              		.loc 1 196 0
 380 01ee 364B     		ldr	r3, .L26+4
 381 01f0 1B78     		ldrb	r3, [r3]
 382 01f2 072B     		cmp	r3, #7
 383 01f4 2CD8     		bhi	.L13
 384 01f6 9A00     		lsl	r2, r3, #2
 385 01f8 3E4B     		ldr	r3, .L26+48
 386 01fa D318     		add	r3, r2, r3
 387 01fc 1B68     		ldr	r3, [r3]
 388 01fe 9F46     		mov	pc, r3
 389              		.section	.rodata
 390 0072 0000     		.align	2
 391              	.L15:
 392 0074 00020000 		.word	.L14
 393 0078 0A020000 		.word	.L16
 394 007c 14020000 		.word	.L17
 395 0080 1E020000 		.word	.L18
 396 0084 28020000 		.word	.L19
 397 0088 32020000 		.word	.L20
 398 008c 3C020000 		.word	.L21
 399 0090 46020000 		.word	.L22
 400              		.section	.text.main
 401              	.L14:
 197:main.c        ****                     {
 198:main.c        ****                         case FAN1: i2cReadBuffer[1]=update[FAN1];
ARM GAS  C:\Users\poornima\AppData\Local\Temp\ccVfpcDo.s 			page 12


 402              		.loc 1 198 0
 403 0200 334B     		ldr	r3, .L26+12
 404 0202 1A78     		ldrb	r2, [r3]
 405 0204 2F4B     		ldr	r3, .L26
 406 0206 5A70     		strb	r2, [r3, #1]
 199:main.c        ****                                     break;
 407              		.loc 1 199 0
 408 0208 22E0     		b	.L13
 409              	.L16:
 200:main.c        ****                         case FAN2: i2cReadBuffer[1]=update[FAN2];
 410              		.loc 1 200 0
 411 020a 314B     		ldr	r3, .L26+12
 412 020c 5A78     		ldrb	r2, [r3, #1]
 413 020e 2D4B     		ldr	r3, .L26
 414 0210 5A70     		strb	r2, [r3, #1]
 201:main.c        ****                                     break;
 415              		.loc 1 201 0
 416 0212 1DE0     		b	.L13
 417              	.L17:
 202:main.c        ****                         case SWITCH1:i2cReadBuffer[1]=update[SWITCH1];
 418              		.loc 1 202 0
 419 0214 2E4B     		ldr	r3, .L26+12
 420 0216 9A78     		ldrb	r2, [r3, #2]
 421 0218 2A4B     		ldr	r3, .L26
 422 021a 5A70     		strb	r2, [r3, #1]
 203:main.c        ****                                     break;
 423              		.loc 1 203 0
 424 021c 18E0     		b	.L13
 425              	.L18:
 204:main.c        ****                         case SWITCH2:i2cReadBuffer[1]=update[SWITCH2];
 426              		.loc 1 204 0
 427 021e 2C4B     		ldr	r3, .L26+12
 428 0220 DA78     		ldrb	r2, [r3, #3]
 429 0222 284B     		ldr	r3, .L26
 430 0224 5A70     		strb	r2, [r3, #1]
 205:main.c        ****                                     break;
 431              		.loc 1 205 0
 432 0226 13E0     		b	.L13
 433              	.L19:
 206:main.c        ****                         case SWITCH3:i2cReadBuffer[1]=update[SWITCH3];
 434              		.loc 1 206 0
 435 0228 294B     		ldr	r3, .L26+12
 436 022a 1A79     		ldrb	r2, [r3, #4]
 437 022c 254B     		ldr	r3, .L26
 438 022e 5A70     		strb	r2, [r3, #1]
 207:main.c        ****                                     break;
 439              		.loc 1 207 0
 440 0230 0EE0     		b	.L13
 441              	.L20:
 208:main.c        ****                         case SWITCH4:i2cReadBuffer[1]=update[SWITCH4];
 442              		.loc 1 208 0
 443 0232 274B     		ldr	r3, .L26+12
 444 0234 5A79     		ldrb	r2, [r3, #5]
 445 0236 234B     		ldr	r3, .L26
 446 0238 5A70     		strb	r2, [r3, #1]
 209:main.c        ****                                     break;
 447              		.loc 1 209 0
ARM GAS  C:\Users\poornima\AppData\Local\Temp\ccVfpcDo.s 			page 13


 448 023a 09E0     		b	.L13
 449              	.L21:
 210:main.c        ****                         case SWITCH5:i2cReadBuffer[1]=update[SWITCH5];
 450              		.loc 1 210 0
 451 023c 244B     		ldr	r3, .L26+12
 452 023e 9A79     		ldrb	r2, [r3, #6]
 453 0240 204B     		ldr	r3, .L26
 454 0242 5A70     		strb	r2, [r3, #1]
 211:main.c        ****                                     break;
 455              		.loc 1 211 0
 456 0244 04E0     		b	.L13
 457              	.L22:
 212:main.c        ****                         case SOCKET1:i2cReadBuffer[1]=update[SOCKET1];
 458              		.loc 1 212 0
 459 0246 224B     		ldr	r3, .L26+12
 460 0248 DA79     		ldrb	r2, [r3, #7]
 461 024a 1E4B     		ldr	r3, .L26
 462 024c 5A70     		strb	r2, [r3, #1]
 213:main.c        ****                                     break;
 463              		.loc 1 213 0
 464 024e C046     		mov	r8, r8
 465              	.L13:
 214:main.c        ****                     }
 215:main.c        ****                     InterPin_Write(~InterPin_Read());
 466              		.loc 1 215 0
 467 0250 FFF7FEFF 		bl	InterPin_Read
 468 0254 031C     		mov	r3, r0
 469 0256 DB43     		mvn	r3, r3
 470 0258 DBB2     		uxtb	r3, r3
 471 025a 181C     		mov	r0, r3
 472 025c FFF7FEFF 		bl	InterPin_Write
 216:main.c        ****                     CyDelay(50);
 473              		.loc 1 216 0
 474 0260 3220     		mov	r0, #50
 475 0262 FFF7FEFF 		bl	CyDelay
 217:main.c        ****                     InterPin_Write(~InterPin_Read());
 476              		.loc 1 217 0
 477 0266 FFF7FEFF 		bl	InterPin_Read
 478 026a 031C     		mov	r3, r0
 479 026c DB43     		mvn	r3, r3
 480 026e DBB2     		uxtb	r3, r3
 481 0270 181C     		mov	r0, r3
 482 0272 FFF7FEFF 		bl	InterPin_Write
 483 0276 0CE0     		b	.L7
 484              	.L10:
 218:main.c        ****                     
 219:main.c        ****                 }
 220:main.c        ****                else
 221:main.c        ****                 {
 222:main.c        ****                 UART_UartPutString("excecuting the master commands \n\r");
 485              		.loc 1 222 0
 486 0278 1F4B     		ldr	r3, .L26+52
 487 027a 181C     		mov	r0, r3
 488 027c FFF7FEFF 		bl	UART_UartPutString
 223:main.c        ****                 ExecuteCommand(i2cWriteBuffer[0], i2cWriteBuffer[1]);
 489              		.loc 1 223 0
 490 0280 114B     		ldr	r3, .L26+4
ARM GAS  C:\Users\poornima\AppData\Local\Temp\ccVfpcDo.s 			page 14


 491 0282 1B78     		ldrb	r3, [r3]
 492 0284 1A1C     		mov	r2, r3
 493 0286 104B     		ldr	r3, .L26+4
 494 0288 5B78     		ldrb	r3, [r3, #1]
 495 028a 101C     		mov	r0, r2
 496 028c 191C     		mov	r1, r3
 497 028e FFF7FEFF 		bl	ExecuteCommand
 498              	.L7:
 224:main.c        ****                 }
 225:main.c        ****             }
 226:main.c        **** 
 227:main.c        ****             /* Clear slave write buffer and status */
 228:main.c        ****             I2C_Slave_I2CSlaveClearWriteBuf();
 499              		.loc 1 228 0
 500 0292 FFF7FEFF 		bl	I2C_Slave_I2CSlaveClearWriteBuf
 229:main.c        ****             (void) I2C_Slave_I2CSlaveClearWriteStatus();
 501              		.loc 1 229 0
 502 0296 FFF7FEFF 		bl	I2C_Slave_I2CSlaveClearWriteStatus
 503              	.L6:
 230:main.c        ****         }
 231:main.c        **** 
 232:main.c        **** 
 233:main.c        ****         /* Read complete: expose buffer to master */
 234:main.c        ****         if (0u != (I2C_Slave_I2CSlaveStatus() & I2C_Slave_I2C_SSTAT_RD_CMPLT))
 504              		.loc 1 234 0
 505 029a FFF7FEFF 		bl	I2C_Slave_I2CSlaveStatus
 506 029e 021C     		mov	r2, r0
 507 02a0 0123     		mov	r3, #1
 508 02a2 1340     		and	r3, r2
 509 02a4 03D0     		beq	.L23
 235:main.c        ****         {
 236:main.c        ****             /* Clear slave read buffer and status */
 237:main.c        ****             I2C_Slave_I2CSlaveClearReadBuf();
 510              		.loc 1 237 0
 511 02a6 FFF7FEFF 		bl	I2C_Slave_I2CSlaveClearReadBuf
 238:main.c        ****             (void) I2C_Slave_I2CSlaveClearReadStatus();
 512              		.loc 1 238 0
 513 02aa FFF7FEFF 		bl	I2C_Slave_I2CSlaveClearReadStatus
 514              	.L23:
 239:main.c        ****         }
 240:main.c        ****         
 241:main.c        ****         /* Check whether the scanning of all enabled widgets is completed. */
 242:main.c        ****         if(0u == CapSense_IsBusy())
 515              		.loc 1 242 0
 516 02ae FFF7FEFF 		bl	CapSense_IsBusy
 517 02b2 031E     		sub	r3, r0, #0
 518 02b4 03D1     		bne	.L24
 243:main.c        ****        
 244:main.c        ****         {   // UART_UartPutString("Capsense\n\r");
 245:main.c        ****             /* Update all baselines */
 246:main.c        ****             CapSense_UpdateEnabledBaselines();
 519              		.loc 1 246 0
 520 02b6 FFF7FEFF 		bl	CapSense_UpdateEnabledBaselines
 247:main.c        **** 
 248:main.c        ****             /* Start scanning all enabled sensors */
 249:main.c        ****             CapSense_ScanEnabledWidgets();
 521              		.loc 1 249 0
ARM GAS  C:\Users\poornima\AppData\Local\Temp\ccVfpcDo.s 			page 15


 522 02ba FFF7FEFF 		bl	CapSense_ScanEnabledWidgets
 523              	.L24:
 250:main.c        ****         }
 251:main.c        **** 
 252:main.c        ****         /* Display CapSense state using LEDs */
 253:main.c        ****         //UART_UartPutString("touch on the panel \n\r");
 254:main.c        ****         CapSense_DisplayState();
 524              		.loc 1 254 0
 525 02be FFF7FEFF 		bl	CapSense_DisplayState
 255:main.c        ****        
 256:main.c        ****     }
 526              		.loc 1 256 0
 527 02c2 E8E6     		b	.L25
 528              	.L27:
 529              		.align	2
 530              	.L26:
 531 02c4 00000000 		.word	i2cReadBuffer
 532 02c8 00000000 		.word	i2cWriteBuffer
 533 02cc 00FF0100 		.word	130816
 534 02d0 00000000 		.word	update
 535 02d4 00000000 		.word	.LC3
 536 02d8 24000000 		.word	.LC5
 537 02dc 28000000 		.word	.LC7
 538 02e0 00000000 		.word	WdtIsrHandler
 539 02e4 FF0F0000 		.word	4095
 540 02e8 30000000 		.word	.LC10
 541 02ec 44000000 		.word	.LC12
 542 02f0 4C000000 		.word	.LC14
 543 02f4 74000000 		.word	.L15
 544 02f8 50000000 		.word	.LC17
 545              		.cfi_endproc
 546              	.LFE36:
 547              		.size	main, .-main
 548              		.section	.rodata
 549              		.align	2
 550              	.LC36:
 551 0094 696E2043 		.ascii	"in CapSense_DisplayState :: Switch 3, value 100   A"
 551      61705365 
 551      6E73655F 
 551      44697370 
 551      6C617953 
 552 00c7 0A0D00   		.ascii	"\012\015\000"
 553 00ca 0000     		.align	2
 554              	.LC38:
 555 00cc 696E2043 		.ascii	"in CapSense_DisplayState :: Switch 3, value 0   A\012"
 555      61705365 
 555      6E73655F 
 555      44697370 
 555      6C617953 
 556 00fe 0D00     		.ascii	"\015\000"
 557              		.align	2
 558              	.LC44:
 559 0100 696E2043 		.ascii	"in CapSense_DisplayState :: Switch 5, value 0  \012"
 559      61705365 
 559      6E73655F 
 559      44697370 
 559      6C617953 
ARM GAS  C:\Users\poornima\AppData\Local\Temp\ccVfpcDo.s 			page 16


 560 0130 0D00     		.ascii	"\015\000"
 561              		.section	.text.CapSense_DisplayState,"ax",%progbits
 562              		.align	2
 563              		.global	CapSense_DisplayState
 564              		.code	16
 565              		.thumb_func
 566              		.type	CapSense_DisplayState, %function
 567              	CapSense_DisplayState:
 568              	.LFB37:
 257:main.c        **** }
 258:main.c        **** 
 259:main.c        **** /*******************************************************************************
 260:main.c        **** * Function Name: CapSense_DisplayState
 261:main.c        **** ********************************************************************************
 262:main.c        **** * Summary:
 263:main.c        **** *  Changes LEDs brightness by changing the duty cycle of PWM signals.
 264:main.c        **** *
 265:main.c        **** * Parameters:
 266:main.c        **** *  None
 267:main.c        **** *
 268:main.c        **** * Return:
 269:main.c        **** *  None
 270:main.c        **** *
 271:main.c        **** *******************************************************************************/
 272:main.c        **** void CapSense_DisplayState(void)
 273:main.c        **** {
 569              		.loc 1 273 0
 570              		.cfi_startproc
 571 0000 80B5     		push	{r7, lr}
 572              		.cfi_def_cfa_offset 8
 573              		.cfi_offset 7, -8
 574              		.cfi_offset 14, -4
 575 0002 00AF     		add	r7, sp, #0
 576              		.cfi_def_cfa_register 7
 274:main.c        ****     /* Find Radial Slider Position */
 275:main.c        ****     curPos1 = CapSense_GetRadialCentroidPos(CapSense_RADIALSLIDER0__RS);
 577              		.loc 1 275 0
 578 0004 0020     		mov	r0, #0
 579 0006 FFF7FEFF 		bl	CapSense_GetRadialCentroidPos
 580 000a 031C     		mov	r3, r0
 581 000c 1A1C     		mov	r2, r3
 582 000e D14B     		ldr	r3, .L57
 583 0010 1A80     		strh	r2, [r3]
 276:main.c        ****     
 277:main.c        ****    // UART_UartPutChar(curPos1);
 278:main.c        ****     //UART_UartPutString("\n\r");
 279:main.c        ****     
 280:main.c        ****     curPos2 = CapSense_GetRadialCentroidPos(CapSense_RADIALSLIDER1__RS);
 584              		.loc 1 280 0
 585 0012 0120     		mov	r0, #1
 586 0014 FFF7FEFF 		bl	CapSense_GetRadialCentroidPos
 587 0018 031C     		mov	r3, r0
 588 001a 1A1C     		mov	r2, r3
 589 001c CE4B     		ldr	r3, .L57+4
 590 001e 1A80     		strh	r2, [r3]
 281:main.c        ****     
 282:main.c        ****     /* Switch 1 - 5 and Socket 1Control Code */
ARM GAS  C:\Users\poornima\AppData\Local\Temp\ccVfpcDo.s 			page 17


 283:main.c        ****     but1 = CapSense_CheckIsSensorActive(CapSense_BUTTON0__BTN);
 591              		.loc 1 283 0
 592 0020 0220     		mov	r0, #2
 593 0022 FFF7FEFF 		bl	CapSense_CheckIsSensorActive
 594 0026 021C     		mov	r2, r0
 595 0028 CC4B     		ldr	r3, .L57+8
 596 002a 1A60     		str	r2, [r3]
 284:main.c        ****     but2 = CapSense_CheckIsWidgetActive(CapSense_BUTTON1__BTN);
 597              		.loc 1 284 0
 598 002c 0320     		mov	r0, #3
 599 002e FFF7FEFF 		bl	CapSense_CheckIsWidgetActive
 600 0032 021C     		mov	r2, r0
 601 0034 CA4B     		ldr	r3, .L57+12
 602 0036 1A60     		str	r2, [r3]
 285:main.c        ****     but3 = CapSense_CheckIsWidgetActive(CapSense_BUTTON2__BTN);
 603              		.loc 1 285 0
 604 0038 0420     		mov	r0, #4
 605 003a FFF7FEFF 		bl	CapSense_CheckIsWidgetActive
 606 003e 021C     		mov	r2, r0
 607 0040 C84B     		ldr	r3, .L57+16
 608 0042 1A60     		str	r2, [r3]
 286:main.c        ****     but4 = CapSense_CheckIsWidgetActive(CapSense_BUTTON3__BTN);
 609              		.loc 1 286 0
 610 0044 0520     		mov	r0, #5
 611 0046 FFF7FEFF 		bl	CapSense_CheckIsWidgetActive
 612 004a 021C     		mov	r2, r0
 613 004c C64B     		ldr	r3, .L57+20
 614 004e 1A60     		str	r2, [r3]
 287:main.c        ****     but5 = CapSense_CheckIsWidgetActive(CapSense_BUTTON4__BTN);
 615              		.loc 1 287 0
 616 0050 0620     		mov	r0, #6
 617 0052 FFF7FEFF 		bl	CapSense_CheckIsWidgetActive
 618 0056 021C     		mov	r2, r0
 619 0058 C44B     		ldr	r3, .L57+24
 620 005a 1A60     		str	r2, [r3]
 288:main.c        ****     sock1= CapSense_CheckIsWidgetActive(CapSense_BUTTON5__BTN);
 621              		.loc 1 288 0
 622 005c 0720     		mov	r0, #7
 623 005e FFF7FEFF 		bl	CapSense_CheckIsWidgetActive
 624 0062 021C     		mov	r2, r0
 625 0064 C24B     		ldr	r3, .L57+28
 626 0066 1A60     		str	r2, [r3]
 289:main.c        ****     
 290:main.c        ****     //CyDelay(50);
 291:main.c        ****     
 292:main.c        ****   /* Switch 1 Control Code */
 293:main.c        ****   if(but1==1 && temp1==1)
 627              		.loc 1 293 0
 628 0068 BC4B     		ldr	r3, .L57+8
 629 006a 1B68     		ldr	r3, [r3]
 630 006c 012B     		cmp	r3, #1
 631 006e 36D1     		bne	.L29
 632              		.loc 1 293 0 is_stmt 0 discriminator 1
 633 0070 C04B     		ldr	r3, .L57+32
 634 0072 1B78     		ldrb	r3, [r3]
 635 0074 012B     		cmp	r3, #1
 636 0076 32D1     		bne	.L29
ARM GAS  C:\Users\poornima\AppData\Local\Temp\ccVfpcDo.s 			page 18


 294:main.c        ****     {
 295:main.c        ****             if(oldBut1==0)
 637              		.loc 1 295 0 is_stmt 1
 638 0078 BF4B     		ldr	r3, .L57+36
 639 007a 1B68     		ldr	r3, [r3]
 640 007c 002B     		cmp	r3, #0
 641 007e 0AD1     		bne	.L30
 296:main.c        ****             {
 297:main.c        ****                 //UART_UartPutString("in CapSense_DisplayState :: Switch 1, value 100 \n\r");
 298:main.c        ****                 UpdateSwitchLeds(SWITCH1, 100);
 642              		.loc 1 298 0
 643 0080 0220     		mov	r0, #2
 644 0082 6421     		mov	r1, #100
 645 0084 FFF7FEFF 		bl	UpdateSwitchLeds
 299:main.c        ****                 i2cReadBuffer[1] = 100u;
 646              		.loc 1 299 0
 647 0088 BC4B     		ldr	r3, .L57+40
 648 008a 6422     		mov	r2, #100
 649 008c 5A70     		strb	r2, [r3, #1]
 300:main.c        ****                 oldBut1=1;
 650              		.loc 1 300 0
 651 008e BA4B     		ldr	r3, .L57+36
 652 0090 0122     		mov	r2, #1
 653 0092 1A60     		str	r2, [r3]
 654 0094 09E0     		b	.L31
 655              	.L30:
 301:main.c        ****             }
 302:main.c        ****             
 303:main.c        ****             else
 304:main.c        ****             {
 305:main.c        ****                 //UART_UartPutString("in CapSense_DisplayState :: Switch 1, value 0  \n\r");
 306:main.c        ****                 UpdateSwitchLeds(SWITCH1, 0);
 656              		.loc 1 306 0
 657 0096 0220     		mov	r0, #2
 658 0098 0021     		mov	r1, #0
 659 009a FFF7FEFF 		bl	UpdateSwitchLeds
 307:main.c        ****                 i2cReadBuffer[1] = 0u;
 660              		.loc 1 307 0
 661 009e B74B     		ldr	r3, .L57+40
 662 00a0 0022     		mov	r2, #0
 663 00a2 5A70     		strb	r2, [r3, #1]
 308:main.c        ****                 oldBut1=0;
 664              		.loc 1 308 0
 665 00a4 B44B     		ldr	r3, .L57+36
 666 00a6 0022     		mov	r2, #0
 667 00a8 1A60     		str	r2, [r3]
 668              	.L31:
 309:main.c        ****             }
 310:main.c        ****         temp1=0;
 669              		.loc 1 310 0
 670 00aa B24B     		ldr	r3, .L57+32
 671 00ac 0022     		mov	r2, #0
 672 00ae 1A70     		strb	r2, [r3]
 311:main.c        ****         i2cReadBuffer[0] = SWITCH1;
 673              		.loc 1 311 0
 674 00b0 B24B     		ldr	r3, .L57+40
 675 00b2 0222     		mov	r2, #2
ARM GAS  C:\Users\poornima\AppData\Local\Temp\ccVfpcDo.s 			page 19


 676 00b4 1A70     		strb	r2, [r3]
 312:main.c        ****        
 313:main.c        ****         InterPin_Write(~InterPin_Read());
 677              		.loc 1 313 0
 678 00b6 FFF7FEFF 		bl	InterPin_Read
 679 00ba 031C     		mov	r3, r0
 680 00bc DB43     		mvn	r3, r3
 681 00be DBB2     		uxtb	r3, r3
 682 00c0 181C     		mov	r0, r3
 683 00c2 FFF7FEFF 		bl	InterPin_Write
 314:main.c        ****         CyDelay(50);
 684              		.loc 1 314 0
 685 00c6 3220     		mov	r0, #50
 686 00c8 FFF7FEFF 		bl	CyDelay
 315:main.c        ****         InterPin_Write(~InterPin_Read());
 687              		.loc 1 315 0
 688 00cc FFF7FEFF 		bl	InterPin_Read
 689 00d0 031C     		mov	r3, r0
 690 00d2 DB43     		mvn	r3, r3
 691 00d4 DBB2     		uxtb	r3, r3
 692 00d6 181C     		mov	r0, r3
 693 00d8 FFF7FEFF 		bl	InterPin_Write
 694 00dc 06E0     		b	.L32
 695              	.L29:
 316:main.c        ****             
 317:main.c        ****     }          
 318:main.c        ****     else if (but1==0 )
 696              		.loc 1 318 0
 697 00de 9F4B     		ldr	r3, .L57+8
 698 00e0 1B68     		ldr	r3, [r3]
 699 00e2 002B     		cmp	r3, #0
 700 00e4 02D1     		bne	.L32
 319:main.c        ****     {
 320:main.c        ****         temp1=1;   
 701              		.loc 1 320 0
 702 00e6 A34B     		ldr	r3, .L57+32
 703 00e8 0122     		mov	r2, #1
 704 00ea 1A70     		strb	r2, [r3]
 705              	.L32:
 321:main.c        ****     }
 322:main.c        ****         
 323:main.c        ****     /* Switch 2 Control Code */ 
 324:main.c        ****     if(but2==1 && temp2==1)
 706              		.loc 1 324 0
 707 00ec 9C4B     		ldr	r3, .L57+12
 708 00ee 1B68     		ldr	r3, [r3]
 709 00f0 012B     		cmp	r3, #1
 710 00f2 36D1     		bne	.L33
 711              		.loc 1 324 0 is_stmt 0 discriminator 1
 712 00f4 A24B     		ldr	r3, .L57+44
 713 00f6 1B78     		ldrb	r3, [r3]
 714 00f8 012B     		cmp	r3, #1
 715 00fa 32D1     		bne	.L33
 325:main.c        ****    {
 326:main.c        ****             if(oldBut2==0)
 716              		.loc 1 326 0 is_stmt 1
 717 00fc A14B     		ldr	r3, .L57+48
ARM GAS  C:\Users\poornima\AppData\Local\Temp\ccVfpcDo.s 			page 20


 718 00fe 1B68     		ldr	r3, [r3]
 719 0100 002B     		cmp	r3, #0
 720 0102 0AD1     		bne	.L34
 327:main.c        ****             {
 328:main.c        ****                // UART_UartPutString("in CapSense_DisplayState :: Switch 2, value 100  \n\r");
 329:main.c        ****                 UpdateSwitchLeds(SWITCH2, 100);
 721              		.loc 1 329 0
 722 0104 0320     		mov	r0, #3
 723 0106 6421     		mov	r1, #100
 724 0108 FFF7FEFF 		bl	UpdateSwitchLeds
 330:main.c        ****                 i2cReadBuffer[1] = 100u;
 725              		.loc 1 330 0
 726 010c 9B4B     		ldr	r3, .L57+40
 727 010e 6422     		mov	r2, #100
 728 0110 5A70     		strb	r2, [r3, #1]
 331:main.c        ****                 oldBut2=1;
 729              		.loc 1 331 0
 730 0112 9C4B     		ldr	r3, .L57+48
 731 0114 0122     		mov	r2, #1
 732 0116 1A60     		str	r2, [r3]
 733 0118 09E0     		b	.L35
 734              	.L34:
 332:main.c        ****             }
 333:main.c        ****             else
 334:main.c        ****             {
 335:main.c        ****                 //UART_UartPutString("in CapSense_DisplayState :: Switch 2, value 0  \n\r");
 336:main.c        ****                 UpdateSwitchLeds(SWITCH2, 0);
 735              		.loc 1 336 0
 736 011a 0320     		mov	r0, #3
 737 011c 0021     		mov	r1, #0
 738 011e FFF7FEFF 		bl	UpdateSwitchLeds
 337:main.c        ****                 i2cReadBuffer[1] = 0u;
 739              		.loc 1 337 0
 740 0122 964B     		ldr	r3, .L57+40
 741 0124 0022     		mov	r2, #0
 742 0126 5A70     		strb	r2, [r3, #1]
 338:main.c        ****                 oldBut2=0;
 743              		.loc 1 338 0
 744 0128 964B     		ldr	r3, .L57+48
 745 012a 0022     		mov	r2, #0
 746 012c 1A60     		str	r2, [r3]
 747              	.L35:
 339:main.c        ****                 
 340:main.c        ****             }
 341:main.c        ****              
 342:main.c        ****         temp2=0;
 748              		.loc 1 342 0
 749 012e 944B     		ldr	r3, .L57+44
 750 0130 0022     		mov	r2, #0
 751 0132 1A70     		strb	r2, [r3]
 343:main.c        ****         i2cReadBuffer[0] = SWITCH2;
 752              		.loc 1 343 0
 753 0134 914B     		ldr	r3, .L57+40
 754 0136 0322     		mov	r2, #3
 755 0138 1A70     		strb	r2, [r3]
 344:main.c        ****        
 345:main.c        ****         InterPin_Write(~InterPin_Read());
ARM GAS  C:\Users\poornima\AppData\Local\Temp\ccVfpcDo.s 			page 21


 756              		.loc 1 345 0
 757 013a FFF7FEFF 		bl	InterPin_Read
 758 013e 031C     		mov	r3, r0
 759 0140 DB43     		mvn	r3, r3
 760 0142 DBB2     		uxtb	r3, r3
 761 0144 181C     		mov	r0, r3
 762 0146 FFF7FEFF 		bl	InterPin_Write
 346:main.c        ****         CyDelay(50);
 763              		.loc 1 346 0
 764 014a 3220     		mov	r0, #50
 765 014c FFF7FEFF 		bl	CyDelay
 347:main.c        ****         InterPin_Write(~InterPin_Read());
 766              		.loc 1 347 0
 767 0150 FFF7FEFF 		bl	InterPin_Read
 768 0154 031C     		mov	r3, r0
 769 0156 DB43     		mvn	r3, r3
 770 0158 DBB2     		uxtb	r3, r3
 771 015a 181C     		mov	r0, r3
 772 015c FFF7FEFF 		bl	InterPin_Write
 773 0160 06E0     		b	.L36
 774              	.L33:
 348:main.c        ****     }          
 349:main.c        ****     else if (but2==0)
 775              		.loc 1 349 0
 776 0162 7F4B     		ldr	r3, .L57+12
 777 0164 1B68     		ldr	r3, [r3]
 778 0166 002B     		cmp	r3, #0
 779 0168 02D1     		bne	.L36
 350:main.c        ****     {
 351:main.c        ****         temp2=1;   
 780              		.loc 1 351 0
 781 016a 854B     		ldr	r3, .L57+44
 782 016c 0122     		mov	r2, #1
 783 016e 1A70     		strb	r2, [r3]
 784              	.L36:
 352:main.c        ****     }
 353:main.c        ****     
 354:main.c        ****     /* Switch 3 Control Code */
 355:main.c        ****    if(but3==1 && temp3==1)
 785              		.loc 1 355 0
 786 0170 7C4B     		ldr	r3, .L57+16
 787 0172 1B68     		ldr	r3, [r3]
 788 0174 012B     		cmp	r3, #1
 789 0176 36D1     		bne	.L37
 790              		.loc 1 355 0 is_stmt 0 discriminator 1
 791 0178 834B     		ldr	r3, .L57+52
 792 017a 1B78     		ldrb	r3, [r3]
 793 017c 012B     		cmp	r3, #1
 794 017e 32D1     		bne	.L37
 356:main.c        ****         {
 357:main.c        ****             if(oldBut3==0)
 795              		.loc 1 357 0 is_stmt 1
 796 0180 824B     		ldr	r3, .L57+56
 797 0182 1B68     		ldr	r3, [r3]
 798 0184 002B     		cmp	r3, #0
 799 0186 0AD1     		bne	.L38
 358:main.c        ****             {
ARM GAS  C:\Users\poornima\AppData\Local\Temp\ccVfpcDo.s 			page 22


 359:main.c        ****                // UART_UartPutString("in CapSense_DisplayState :: Switch 3, value 100   A\n\r");
 360:main.c        ****                 UpdateSwitchLeds(SWITCH3, 100);
 800              		.loc 1 360 0
 801 0188 0420     		mov	r0, #4
 802 018a 6421     		mov	r1, #100
 803 018c FFF7FEFF 		bl	UpdateSwitchLeds
 361:main.c        ****                 i2cReadBuffer[1] = 1u;
 804              		.loc 1 361 0
 805 0190 7A4B     		ldr	r3, .L57+40
 806 0192 0122     		mov	r2, #1
 807 0194 5A70     		strb	r2, [r3, #1]
 362:main.c        ****                 oldBut3=1;
 808              		.loc 1 362 0
 809 0196 7D4B     		ldr	r3, .L57+56
 810 0198 0122     		mov	r2, #1
 811 019a 1A60     		str	r2, [r3]
 812 019c 09E0     		b	.L39
 813              	.L38:
 363:main.c        ****             }
 364:main.c        ****             
 365:main.c        ****             else
 366:main.c        ****             {
 367:main.c        ****                // UART_UartPutString("in CapSense_DisplayState :: Switch 3, value 0   A\n\r");
 368:main.c        ****                 UpdateSwitchLeds(SWITCH3, 0);
 814              		.loc 1 368 0
 815 019e 0420     		mov	r0, #4
 816 01a0 0021     		mov	r1, #0
 817 01a2 FFF7FEFF 		bl	UpdateSwitchLeds
 369:main.c        ****                 i2cReadBuffer[1] = 0u;
 818              		.loc 1 369 0
 819 01a6 754B     		ldr	r3, .L57+40
 820 01a8 0022     		mov	r2, #0
 821 01aa 5A70     		strb	r2, [r3, #1]
 370:main.c        ****                 oldBut3=0;
 822              		.loc 1 370 0
 823 01ac 774B     		ldr	r3, .L57+56
 824 01ae 0022     		mov	r2, #0
 825 01b0 1A60     		str	r2, [r3]
 826              	.L39:
 371:main.c        ****                 
 372:main.c        ****             }
 373:main.c        ****         temp3=0;
 827              		.loc 1 373 0
 828 01b2 754B     		ldr	r3, .L57+52
 829 01b4 0022     		mov	r2, #0
 830 01b6 1A70     		strb	r2, [r3]
 374:main.c        ****         i2cReadBuffer[0] = SWITCH3;
 831              		.loc 1 374 0
 832 01b8 704B     		ldr	r3, .L57+40
 833 01ba 0422     		mov	r2, #4
 834 01bc 1A70     		strb	r2, [r3]
 375:main.c        ****        
 376:main.c        ****         InterPin_Write(~InterPin_Read());
 835              		.loc 1 376 0
 836 01be FFF7FEFF 		bl	InterPin_Read
 837 01c2 031C     		mov	r3, r0
 838 01c4 DB43     		mvn	r3, r3
ARM GAS  C:\Users\poornima\AppData\Local\Temp\ccVfpcDo.s 			page 23


 839 01c6 DBB2     		uxtb	r3, r3
 840 01c8 181C     		mov	r0, r3
 841 01ca FFF7FEFF 		bl	InterPin_Write
 377:main.c        ****         CyDelay(50);
 842              		.loc 1 377 0
 843 01ce 3220     		mov	r0, #50
 844 01d0 FFF7FEFF 		bl	CyDelay
 378:main.c        ****         InterPin_Write(~InterPin_Read());
 845              		.loc 1 378 0
 846 01d4 FFF7FEFF 		bl	InterPin_Read
 847 01d8 031C     		mov	r3, r0
 848 01da DB43     		mvn	r3, r3
 849 01dc DBB2     		uxtb	r3, r3
 850 01de 181C     		mov	r0, r3
 851 01e0 FFF7FEFF 		bl	InterPin_Write
 852 01e4 06E0     		b	.L40
 853              	.L37:
 379:main.c        ****         }          
 380:main.c        ****    else if (but3==0)
 854              		.loc 1 380 0
 855 01e6 5F4B     		ldr	r3, .L57+16
 856 01e8 1B68     		ldr	r3, [r3]
 857 01ea 002B     		cmp	r3, #0
 858 01ec 02D1     		bne	.L40
 381:main.c        ****    {
 382:main.c        ****     temp3=1;   
 859              		.loc 1 382 0
 860 01ee 664B     		ldr	r3, .L57+52
 861 01f0 0122     		mov	r2, #1
 862 01f2 1A70     		strb	r2, [r3]
 863              	.L40:
 383:main.c        ****    }
 384:main.c        ****         
 385:main.c        ****    /* Switch 4 Control Code */      
 386:main.c        **** /*  if(but4==1 && temp4==1)
 387:main.c        ****         {
 388:main.c        ****        
 389:main.c        ****         LED14_Write(~LED14_Read());
 390:main.c        ****         i2cReadBuffer[0] = SWITCH4;
 391:main.c        ****         if(LED14_Read())
 392:main.c        ****         {
 393:main.c        ****               i2cReadBuffer[1] =100u;
 394:main.c        ****               cache[5]=100;
 395:main.c        ****               CySysFlashWriteRow(CY_TEST_FLASH_ROW, cache); 
 396:main.c        ****         }
 397:main.c        ****         else
 398:main.c        ****         {    cache[5]=0;
 399:main.c        ****              CySysFlashWriteRow(CY_TEST_FLASH_ROW, cache); 
 400:main.c        ****              i2cReadBuffer[1] = 0u;
 401:main.c        ****         }
 402:main.c        ****          temp4=0;
 403:main.c        ****         }          
 404:main.c        ****    else if (but4==0 )
 405:main.c        ****     {
 406:main.c        ****       temp4=1;   
 407:main.c        ****     }
 408:main.c        **** */
ARM GAS  C:\Users\poornima\AppData\Local\Temp\ccVfpcDo.s 			page 24


 409:main.c        ****    
 410:main.c        ****   /* Switch 4 Control Code */
 411:main.c        ****    if(but4==1 && temp4==1)
 864              		.loc 1 411 0
 865 01f4 5C4B     		ldr	r3, .L57+20
 866 01f6 1B68     		ldr	r3, [r3]
 867 01f8 012B     		cmp	r3, #1
 868 01fa 3ED1     		bne	.L41
 869              		.loc 1 411 0 is_stmt 0 discriminator 1
 870 01fc 644B     		ldr	r3, .L57+60
 871 01fe 1B78     		ldrb	r3, [r3]
 872 0200 012B     		cmp	r3, #1
 873 0202 3AD1     		bne	.L41
 412:main.c        ****         {
 413:main.c        ****             if(oldBut4==0)
 874              		.loc 1 413 0 is_stmt 1
 875 0204 634B     		ldr	r3, .L57+64
 876 0206 1B68     		ldr	r3, [r3]
 877 0208 002B     		cmp	r3, #0
 878 020a 0ED1     		bne	.L42
 414:main.c        ****             {
 415:main.c        ****                 UART_UartPutString("in CapSense_DisplayState :: Switch 3, value 100   A\n\r");
 879              		.loc 1 415 0
 880 020c 624B     		ldr	r3, .L57+68
 881 020e 181C     		mov	r0, r3
 882 0210 FFF7FEFF 		bl	UART_UartPutString
 416:main.c        ****                 UpdateSwitchLeds(SWITCH4, 100);
 883              		.loc 1 416 0
 884 0214 0520     		mov	r0, #5
 885 0216 6421     		mov	r1, #100
 886 0218 FFF7FEFF 		bl	UpdateSwitchLeds
 417:main.c        ****                 i2cReadBuffer[1] = 1u;
 887              		.loc 1 417 0
 888 021c 574B     		ldr	r3, .L57+40
 889 021e 0122     		mov	r2, #1
 890 0220 5A70     		strb	r2, [r3, #1]
 418:main.c        ****                 oldBut4=1;
 891              		.loc 1 418 0
 892 0222 5C4B     		ldr	r3, .L57+64
 893 0224 0122     		mov	r2, #1
 894 0226 1A60     		str	r2, [r3]
 895 0228 0DE0     		b	.L43
 896              	.L42:
 419:main.c        ****             }
 420:main.c        ****             
 421:main.c        ****             else
 422:main.c        ****             {
 423:main.c        ****                 UART_UartPutString("in CapSense_DisplayState :: Switch 3, value 0   A\n\r");
 897              		.loc 1 423 0
 898 022a 5C4B     		ldr	r3, .L57+72
 899 022c 181C     		mov	r0, r3
 900 022e FFF7FEFF 		bl	UART_UartPutString
 424:main.c        ****                 UpdateSwitchLeds(SWITCH4, 0);
 901              		.loc 1 424 0
 902 0232 0520     		mov	r0, #5
 903 0234 0021     		mov	r1, #0
 904 0236 FFF7FEFF 		bl	UpdateSwitchLeds
ARM GAS  C:\Users\poornima\AppData\Local\Temp\ccVfpcDo.s 			page 25


 425:main.c        ****                 i2cReadBuffer[1] = 0u;
 905              		.loc 1 425 0
 906 023a 504B     		ldr	r3, .L57+40
 907 023c 0022     		mov	r2, #0
 908 023e 5A70     		strb	r2, [r3, #1]
 426:main.c        ****                 oldBut4=0;
 909              		.loc 1 426 0
 910 0240 544B     		ldr	r3, .L57+64
 911 0242 0022     		mov	r2, #0
 912 0244 1A60     		str	r2, [r3]
 913              	.L43:
 427:main.c        ****                 
 428:main.c        ****             }
 429:main.c        ****         temp4=0;
 914              		.loc 1 429 0
 915 0246 524B     		ldr	r3, .L57+60
 916 0248 0022     		mov	r2, #0
 917 024a 1A70     		strb	r2, [r3]
 430:main.c        ****         i2cReadBuffer[0] = SWITCH4;
 918              		.loc 1 430 0
 919 024c 4B4B     		ldr	r3, .L57+40
 920 024e 0522     		mov	r2, #5
 921 0250 1A70     		strb	r2, [r3]
 431:main.c        ****        
 432:main.c        ****         InterPin_Write(~InterPin_Read());
 922              		.loc 1 432 0
 923 0252 FFF7FEFF 		bl	InterPin_Read
 924 0256 031C     		mov	r3, r0
 925 0258 DB43     		mvn	r3, r3
 926 025a DBB2     		uxtb	r3, r3
 927 025c 181C     		mov	r0, r3
 928 025e FFF7FEFF 		bl	InterPin_Write
 433:main.c        ****         CyDelay(50);
 929              		.loc 1 433 0
 930 0262 3220     		mov	r0, #50
 931 0264 FFF7FEFF 		bl	CyDelay
 434:main.c        ****         InterPin_Write(~InterPin_Read());
 932              		.loc 1 434 0
 933 0268 FFF7FEFF 		bl	InterPin_Read
 934 026c 031C     		mov	r3, r0
 935 026e DB43     		mvn	r3, r3
 936 0270 DBB2     		uxtb	r3, r3
 937 0272 181C     		mov	r0, r3
 938 0274 FFF7FEFF 		bl	InterPin_Write
 939 0278 06E0     		b	.L44
 940              	.L41:
 435:main.c        ****         }          
 436:main.c        ****    else if (but4==0)
 941              		.loc 1 436 0
 942 027a 3B4B     		ldr	r3, .L57+20
 943 027c 1B68     		ldr	r3, [r3]
 944 027e 002B     		cmp	r3, #0
 945 0280 02D1     		bne	.L44
 437:main.c        ****    {
 438:main.c        ****     temp4=1;   
 946              		.loc 1 438 0
 947 0282 434B     		ldr	r3, .L57+60
ARM GAS  C:\Users\poornima\AppData\Local\Temp\ccVfpcDo.s 			page 26


 948 0284 0122     		mov	r2, #1
 949 0286 1A70     		strb	r2, [r3]
 950              	.L44:
 439:main.c        ****    }
 440:main.c        ****   /* Switch 5 Control Code */
 441:main.c        ****    if(but5==1 && temp5==1)
 951              		.loc 1 441 0
 952 0288 384B     		ldr	r3, .L57+24
 953 028a 1B68     		ldr	r3, [r3]
 954 028c 012B     		cmp	r3, #1
 955 028e 3ED1     		bne	.L45
 956              		.loc 1 441 0 is_stmt 0 discriminator 1
 957 0290 434B     		ldr	r3, .L57+76
 958 0292 1B78     		ldrb	r3, [r3]
 959 0294 012B     		cmp	r3, #1
 960 0296 3AD1     		bne	.L45
 442:main.c        ****         {
 443:main.c        ****             if(oldBut5==0)
 961              		.loc 1 443 0 is_stmt 1
 962 0298 424B     		ldr	r3, .L57+80
 963 029a 1B68     		ldr	r3, [r3]
 964 029c 002B     		cmp	r3, #0
 965 029e 0ED1     		bne	.L46
 444:main.c        ****             {
 445:main.c        ****                 UART_UartPutString("in CapSense_DisplayState :: Switch 3, value 100   A\n\r");
 966              		.loc 1 445 0
 967 02a0 3D4B     		ldr	r3, .L57+68
 968 02a2 181C     		mov	r0, r3
 969 02a4 FFF7FEFF 		bl	UART_UartPutString
 446:main.c        ****                 UpdateSwitchLeds(SWITCH5, 100);
 970              		.loc 1 446 0
 971 02a8 0620     		mov	r0, #6
 972 02aa 6421     		mov	r1, #100
 973 02ac FFF7FEFF 		bl	UpdateSwitchLeds
 447:main.c        ****                 i2cReadBuffer[1] = 1u;
 974              		.loc 1 447 0
 975 02b0 324B     		ldr	r3, .L57+40
 976 02b2 0122     		mov	r2, #1
 977 02b4 5A70     		strb	r2, [r3, #1]
 448:main.c        ****                 oldBut5=1;
 978              		.loc 1 448 0
 979 02b6 3B4B     		ldr	r3, .L57+80
 980 02b8 0122     		mov	r2, #1
 981 02ba 1A60     		str	r2, [r3]
 982 02bc 0DE0     		b	.L47
 983              	.L46:
 449:main.c        ****             }
 450:main.c        ****             
 451:main.c        ****             else
 452:main.c        ****             {
 453:main.c        ****                 UART_UartPutString("in CapSense_DisplayState :: Switch 3, value 0   A\n\r");
 984              		.loc 1 453 0
 985 02be 374B     		ldr	r3, .L57+72
 986 02c0 181C     		mov	r0, r3
 987 02c2 FFF7FEFF 		bl	UART_UartPutString
 454:main.c        ****                 UpdateSwitchLeds(SWITCH5, 0);
 988              		.loc 1 454 0
ARM GAS  C:\Users\poornima\AppData\Local\Temp\ccVfpcDo.s 			page 27


 989 02c6 0620     		mov	r0, #6
 990 02c8 0021     		mov	r1, #0
 991 02ca FFF7FEFF 		bl	UpdateSwitchLeds
 455:main.c        ****                 i2cReadBuffer[1] = 0u;
 992              		.loc 1 455 0
 993 02ce 2B4B     		ldr	r3, .L57+40
 994 02d0 0022     		mov	r2, #0
 995 02d2 5A70     		strb	r2, [r3, #1]
 456:main.c        ****                 oldBut5=0;
 996              		.loc 1 456 0
 997 02d4 334B     		ldr	r3, .L57+80
 998 02d6 0022     		mov	r2, #0
 999 02d8 1A60     		str	r2, [r3]
 1000              	.L47:
 457:main.c        ****                 
 458:main.c        ****             }
 459:main.c        ****         temp5=0;
 1001              		.loc 1 459 0
 1002 02da 314B     		ldr	r3, .L57+76
 1003 02dc 0022     		mov	r2, #0
 1004 02de 1A70     		strb	r2, [r3]
 460:main.c        ****         i2cReadBuffer[0] = SWITCH5;
 1005              		.loc 1 460 0
 1006 02e0 264B     		ldr	r3, .L57+40
 1007 02e2 0622     		mov	r2, #6
 1008 02e4 1A70     		strb	r2, [r3]
 461:main.c        ****        
 462:main.c        ****         InterPin_Write(~InterPin_Read());
 1009              		.loc 1 462 0
 1010 02e6 FFF7FEFF 		bl	InterPin_Read
 1011 02ea 031C     		mov	r3, r0
 1012 02ec DB43     		mvn	r3, r3
 1013 02ee DBB2     		uxtb	r3, r3
 1014 02f0 181C     		mov	r0, r3
 1015 02f2 FFF7FEFF 		bl	InterPin_Write
 463:main.c        ****         CyDelay(50);
 1016              		.loc 1 463 0
 1017 02f6 3220     		mov	r0, #50
 1018 02f8 FFF7FEFF 		bl	CyDelay
 464:main.c        ****         InterPin_Write(~InterPin_Read());
 1019              		.loc 1 464 0
 1020 02fc FFF7FEFF 		bl	InterPin_Read
 1021 0300 031C     		mov	r3, r0
 1022 0302 DB43     		mvn	r3, r3
 1023 0304 DBB2     		uxtb	r3, r3
 1024 0306 181C     		mov	r0, r3
 1025 0308 FFF7FEFF 		bl	InterPin_Write
 1026 030c 06E0     		b	.L48
 1027              	.L45:
 465:main.c        ****         }          
 466:main.c        ****    else if (but5==0)
 1028              		.loc 1 466 0
 1029 030e 174B     		ldr	r3, .L57+24
 1030 0310 1B68     		ldr	r3, [r3]
 1031 0312 002B     		cmp	r3, #0
 1032 0314 02D1     		bne	.L48
 467:main.c        ****    {
ARM GAS  C:\Users\poornima\AppData\Local\Temp\ccVfpcDo.s 			page 28


 468:main.c        ****     temp5=1;   
 1033              		.loc 1 468 0
 1034 0316 224B     		ldr	r3, .L57+76
 1035 0318 0122     		mov	r2, #1
 1036 031a 1A70     		strb	r2, [r3]
 1037              	.L48:
 469:main.c        ****    }
 470:main.c        ****  
 471:main.c        ****   
 472:main.c        **** 
 473:main.c        ****    /* Socket 1 Control Code */
 474:main.c        ****    if(sock1==1 && temp6==1)
 1038              		.loc 1 474 0
 1039 031c 144B     		ldr	r3, .L57+28
 1040 031e 1B68     		ldr	r3, [r3]
 1041 0320 012B     		cmp	r3, #1
 1042 0322 6FD1     		bne	.L49
 1043              		.loc 1 474 0 is_stmt 0 discriminator 1
 1044 0324 204B     		ldr	r3, .L57+84
 1045 0326 1B78     		ldrb	r3, [r3]
 1046 0328 012B     		cmp	r3, #1
 1047 032a 6BD1     		bne	.L49
 475:main.c        ****         {
 476:main.c        ****             if(oldSock1==0)
 1048              		.loc 1 476 0 is_stmt 1
 1049 032c 1F4B     		ldr	r3, .L57+88
 1050 032e 1B68     		ldr	r3, [r3]
 1051 0330 002B     		cmp	r3, #0
 1052 0332 3FD1     		bne	.L50
 477:main.c        ****             {
 478:main.c        ****                 UART_UartPutString("in CapSense_DisplayState :: Switch 5, value 0  \n\r");
 1053              		.loc 1 478 0
 1054 0334 1E4B     		ldr	r3, .L57+92
 1055 0336 181C     		mov	r0, r3
 1056 0338 FFF7FEFF 		bl	UART_UartPutString
 479:main.c        ****                 UpdateSwitchLeds(SOCKET1, 100);
 1057              		.loc 1 479 0
 1058 033c 0720     		mov	r0, #7
 1059 033e 6421     		mov	r1, #100
 1060 0340 FFF7FEFF 		bl	UpdateSwitchLeds
 480:main.c        ****                 i2cReadBuffer[1] = 100u;
 1061              		.loc 1 480 0
 1062 0344 0D4B     		ldr	r3, .L57+40
 1063 0346 6422     		mov	r2, #100
 1064 0348 5A70     		strb	r2, [r3, #1]
 481:main.c        ****                 oldSock1=1;
 1065              		.loc 1 481 0
 1066 034a 184B     		ldr	r3, .L57+88
 1067 034c 0122     		mov	r2, #1
 1068 034e 1A60     		str	r2, [r3]
 1069 0350 3EE0     		b	.L51
 1070              	.L58:
 1071 0352 C046     		.align	2
 1072              	.L57:
 1073 0354 00000000 		.word	curPos1
 1074 0358 00000000 		.word	curPos2
 1075 035c 00000000 		.word	but1
ARM GAS  C:\Users\poornima\AppData\Local\Temp\ccVfpcDo.s 			page 29


 1076 0360 00000000 		.word	but2
 1077 0364 00000000 		.word	but3
 1078 0368 00000000 		.word	but4
 1079 036c 00000000 		.word	but5
 1080 0370 00000000 		.word	sock1
 1081 0374 00000000 		.word	temp1
 1082 0378 00000000 		.word	oldBut1
 1083 037c 00000000 		.word	i2cReadBuffer
 1084 0380 00000000 		.word	temp2
 1085 0384 00000000 		.word	oldBut2
 1086 0388 00000000 		.word	temp3
 1087 038c 00000000 		.word	oldBut3
 1088 0390 00000000 		.word	temp4
 1089 0394 00000000 		.word	oldBut4
 1090 0398 94000000 		.word	.LC36
 1091 039c CC000000 		.word	.LC38
 1092 03a0 00000000 		.word	temp5
 1093 03a4 00000000 		.word	oldBut5
 1094 03a8 00000000 		.word	temp6
 1095 03ac 00000000 		.word	oldSock1
 1096 03b0 00010000 		.word	.LC44
 1097              	.L50:
 482:main.c        ****             }
 483:main.c        ****             
 484:main.c        ****             else
 485:main.c        ****             {
 486:main.c        ****                UART_UartPutString("in CapSense_DisplayState :: Switch 5, value 0  \n\r");
 1098              		.loc 1 486 0
 1099 03b4 544B     		ldr	r3, .L59
 1100 03b6 181C     		mov	r0, r3
 1101 03b8 FFF7FEFF 		bl	UART_UartPutString
 487:main.c        ****                 UpdateSwitchLeds(SOCKET1, 0);
 1102              		.loc 1 487 0
 1103 03bc 0720     		mov	r0, #7
 1104 03be 0021     		mov	r1, #0
 1105 03c0 FFF7FEFF 		bl	UpdateSwitchLeds
 488:main.c        ****                 i2cReadBuffer[1] = 0u;
 1106              		.loc 1 488 0
 1107 03c4 514B     		ldr	r3, .L59+4
 1108 03c6 0022     		mov	r2, #0
 1109 03c8 5A70     		strb	r2, [r3, #1]
 489:main.c        ****                 oldSock1=0;
 1110              		.loc 1 489 0
 1111 03ca 514B     		ldr	r3, .L59+8
 1112 03cc 0022     		mov	r2, #0
 1113 03ce 1A60     		str	r2, [r3]
 1114              	.L51:
 490:main.c        ****                 
 491:main.c        ****             }
 492:main.c        ****         temp6=0;
 1115              		.loc 1 492 0
 1116 03d0 504B     		ldr	r3, .L59+12
 1117 03d2 0022     		mov	r2, #0
 1118 03d4 1A70     		strb	r2, [r3]
 493:main.c        ****         i2cReadBuffer[0] = SOCKET1;
 1119              		.loc 1 493 0
 1120 03d6 4D4B     		ldr	r3, .L59+4
ARM GAS  C:\Users\poornima\AppData\Local\Temp\ccVfpcDo.s 			page 30


 1121 03d8 0722     		mov	r2, #7
 1122 03da 1A70     		strb	r2, [r3]
 494:main.c        ****         
 495:main.c        ****         InterPin_Write(~InterPin_Read());
 1123              		.loc 1 495 0
 1124 03dc FFF7FEFF 		bl	InterPin_Read
 1125 03e0 031C     		mov	r3, r0
 1126 03e2 DB43     		mvn	r3, r3
 1127 03e4 DBB2     		uxtb	r3, r3
 1128 03e6 181C     		mov	r0, r3
 1129 03e8 FFF7FEFF 		bl	InterPin_Write
 496:main.c        ****         CyDelay(50);
 1130              		.loc 1 496 0
 1131 03ec 3220     		mov	r0, #50
 1132 03ee FFF7FEFF 		bl	CyDelay
 497:main.c        ****         InterPin_Write(~InterPin_Read());
 1133              		.loc 1 497 0
 1134 03f2 FFF7FEFF 		bl	InterPin_Read
 1135 03f6 031C     		mov	r3, r0
 1136 03f8 DB43     		mvn	r3, r3
 1137 03fa DBB2     		uxtb	r3, r3
 1138 03fc 181C     		mov	r0, r3
 1139 03fe FFF7FEFF 		bl	InterPin_Write
 1140 0402 06E0     		b	.L52
 1141              	.L49:
 498:main.c        ****         }          
 499:main.c        ****    else if (sock1==0)
 1142              		.loc 1 499 0
 1143 0404 444B     		ldr	r3, .L59+16
 1144 0406 1B68     		ldr	r3, [r3]
 1145 0408 002B     		cmp	r3, #0
 1146 040a 02D1     		bne	.L52
 500:main.c        ****     {
 501:main.c        ****          temp6=1;   
 1147              		.loc 1 501 0
 1148 040c 414B     		ldr	r3, .L59+12
 1149 040e 0122     		mov	r2, #1
 1150 0410 1A70     		strb	r2, [r3]
 1151              	.L52:
 502:main.c        ****     }
 503:main.c        ****     
 504:main.c        ****     /* Fan 1 Control Code */
 505:main.c        ****     
 506:main.c        ****     /* Reset position - FAN1 */
 507:main.c        ****     if(curPos1 == 0xFFFFu)
 1152              		.loc 1 507 0
 1153 0412 424B     		ldr	r3, .L59+20
 1154 0414 1B88     		ldrh	r3, [r3]
 1155 0416 424A     		ldr	r2, .L59+24
 1156 0418 9342     		cmp	r3, r2
 1157 041a 02D1     		bne	.L53
 508:main.c        ****     {
 509:main.c        ****         curPos1 = 0u;
 1158              		.loc 1 509 0
 1159 041c 3F4B     		ldr	r3, .L59+20
 1160 041e 0022     		mov	r2, #0
 1161 0420 1A80     		strh	r2, [r3]
ARM GAS  C:\Users\poornima\AppData\Local\Temp\ccVfpcDo.s 			page 31


 1162              	.L53:
 510:main.c        ****     }
 511:main.c        ****     
 512:main.c        ****     /* Move bargraph */
 513:main.c        ****     if (curPos1 != oldCurPos1)
 1163              		.loc 1 513 0
 1164 0422 3E4B     		ldr	r3, .L59+20
 1165 0424 1A88     		ldrh	r2, [r3]
 1166 0426 3F4B     		ldr	r3, .L59+28
 1167 0428 1B88     		ldrh	r3, [r3]
 1168 042a 9A42     		cmp	r2, r3
 1169 042c 2DD0     		beq	.L54
 514:main.c        ****     {
 515:main.c        ****        //UART_UartPutString("in CapSense_DisplayState :: Fan 1\n");
 516:main.c        ****         
 517:main.c        ****         oldCurPos1 = curPos1;
 1170              		.loc 1 517 0
 1171 042e 3B4B     		ldr	r3, .L59+20
 1172 0430 1A88     		ldrh	r2, [r3]
 1173 0432 3C4B     		ldr	r3, .L59+28
 1174 0434 1A80     		strh	r2, [r3]
 518:main.c        ****         /* Display Slider bargraph */
 519:main.c        ****         if (curPos1 != 0u)
 1175              		.loc 1 519 0
 1176 0436 394B     		ldr	r3, .L59+20
 1177 0438 1B88     		ldrh	r3, [r3]
 1178 043a 002B     		cmp	r3, #0
 1179 043c 25D0     		beq	.L54
 520:main.c        ****         {
 521:main.c        ****             LED_CONTROL1_WriteCompare((uint32)curPos1 << SLIDER_POS_TO_COMPARE_SHIFT);       
 1180              		.loc 1 521 0
 1181 043e 374B     		ldr	r3, .L59+20
 1182 0440 1B88     		ldrh	r3, [r3]
 1183 0442 5B02     		lsl	r3, r3, #9
 1184 0444 181C     		mov	r0, r3
 1185 0446 FFF7FEFF 		bl	LED_CONTROL1_WriteCompare
 522:main.c        ****             i2cReadBuffer[0] = FAN1;
 1186              		.loc 1 522 0
 1187 044a 304B     		ldr	r3, .L59+4
 1188 044c 0022     		mov	r2, #0
 1189 044e 1A70     		strb	r2, [r3]
 523:main.c        ****             i2cReadBuffer[1] = curPos1;
 1190              		.loc 1 523 0
 1191 0450 324B     		ldr	r3, .L59+20
 1192 0452 1B88     		ldrh	r3, [r3]
 1193 0454 DAB2     		uxtb	r2, r3
 1194 0456 2D4B     		ldr	r3, .L59+4
 1195 0458 5A70     		strb	r2, [r3, #1]
 524:main.c        ****             UpdateLedsFan1(curPos1);
 1196              		.loc 1 524 0
 1197 045a 304B     		ldr	r3, .L59+20
 1198 045c 1B88     		ldrh	r3, [r3]
 1199 045e 181C     		mov	r0, r3
 1200 0460 FFF7FEFF 		bl	UpdateLedsFan1
 525:main.c        ****             InterPin_Write(~InterPin_Read());
 1201              		.loc 1 525 0
 1202 0464 FFF7FEFF 		bl	InterPin_Read
ARM GAS  C:\Users\poornima\AppData\Local\Temp\ccVfpcDo.s 			page 32


 1203 0468 031C     		mov	r3, r0
 1204 046a DB43     		mvn	r3, r3
 1205 046c DBB2     		uxtb	r3, r3
 1206 046e 181C     		mov	r0, r3
 1207 0470 FFF7FEFF 		bl	InterPin_Write
 526:main.c        ****             CyDelay(50);
 1208              		.loc 1 526 0
 1209 0474 3220     		mov	r0, #50
 1210 0476 FFF7FEFF 		bl	CyDelay
 527:main.c        ****             InterPin_Write(~InterPin_Read());
 1211              		.loc 1 527 0
 1212 047a FFF7FEFF 		bl	InterPin_Read
 1213 047e 031C     		mov	r3, r0
 1214 0480 DB43     		mvn	r3, r3
 1215 0482 DBB2     		uxtb	r3, r3
 1216 0484 181C     		mov	r0, r3
 1217 0486 FFF7FEFF 		bl	InterPin_Write
 1218              	.L54:
 528:main.c        ****         }
 529:main.c        ****         else{
 530:main.c        ****            //UART_UartPutString("in CapSense_DisplayState :: Fan 1\n");
 531:main.c        ****         }
 532:main.c        ****     }
 533:main.c        ****     
 534:main.c        ****     /* Fan 2 Control Code */ 
 535:main.c        ****     
 536:main.c        ****     /* Reset position - FAN2*/
 537:main.c        ****     if(curPos2 == 0xFFFFu)
 1219              		.loc 1 537 0
 1220 048a 274B     		ldr	r3, .L59+32
 1221 048c 1B88     		ldrh	r3, [r3]
 1222 048e 244A     		ldr	r2, .L59+24
 1223 0490 9342     		cmp	r3, r2
 1224 0492 02D1     		bne	.L55
 538:main.c        ****     {
 539:main.c        ****         curPos2 = 0u;
 1225              		.loc 1 539 0
 1226 0494 244B     		ldr	r3, .L59+32
 1227 0496 0022     		mov	r2, #0
 1228 0498 1A80     		strh	r2, [r3]
 1229              	.L55:
 540:main.c        ****     }
 541:main.c        **** 
 542:main.c        ****     /* Move bargraph */
 543:main.c        ****     if (curPos2 != oldCurPos2)
 1230              		.loc 1 543 0
 1231 049a 234B     		ldr	r3, .L59+32
 1232 049c 1A88     		ldrh	r2, [r3]
 1233 049e 234B     		ldr	r3, .L59+36
 1234 04a0 1B88     		ldrh	r3, [r3]
 1235 04a2 9A42     		cmp	r2, r3
 1236 04a4 2DD0     		beq	.L28
 544:main.c        ****     {
 545:main.c        ****         //UART_UartPutString("in CapSense_DisplayState :: Fan 1\n");
 546:main.c        ****         oldCurPos2 = curPos2;
 1237              		.loc 1 546 0
 1238 04a6 204B     		ldr	r3, .L59+32
ARM GAS  C:\Users\poornima\AppData\Local\Temp\ccVfpcDo.s 			page 33


 1239 04a8 1A88     		ldrh	r2, [r3]
 1240 04aa 204B     		ldr	r3, .L59+36
 1241 04ac 1A80     		strh	r2, [r3]
 547:main.c        ****         /* Display Slider bargraph */
 548:main.c        ****         if (curPos2 != 0u)
 1242              		.loc 1 548 0
 1243 04ae 1E4B     		ldr	r3, .L59+32
 1244 04b0 1B88     		ldrh	r3, [r3]
 1245 04b2 002B     		cmp	r3, #0
 1246 04b4 25D0     		beq	.L28
 549:main.c        ****         {
 550:main.c        ****             LED_CONTROL2_WriteCompare((uint32)curPos2 << SLIDER_POS_TO_COMPARE_SHIFT);
 1247              		.loc 1 550 0
 1248 04b6 1C4B     		ldr	r3, .L59+32
 1249 04b8 1B88     		ldrh	r3, [r3]
 1250 04ba 5B02     		lsl	r3, r3, #9
 1251 04bc 181C     		mov	r0, r3
 1252 04be FFF7FEFF 		bl	LED_CONTROL2_WriteCompare
 551:main.c        ****             UpdateLedsFan2(curPos2);
 1253              		.loc 1 551 0
 1254 04c2 194B     		ldr	r3, .L59+32
 1255 04c4 1B88     		ldrh	r3, [r3]
 1256 04c6 181C     		mov	r0, r3
 1257 04c8 FFF7FEFF 		bl	UpdateLedsFan2
 552:main.c        ****            
 553:main.c        ****             i2cReadBuffer[0] = FAN2;
 1258              		.loc 1 553 0
 1259 04cc 0F4B     		ldr	r3, .L59+4
 1260 04ce 0122     		mov	r2, #1
 1261 04d0 1A70     		strb	r2, [r3]
 554:main.c        ****             i2cReadBuffer[1] = curPos2;
 1262              		.loc 1 554 0
 1263 04d2 154B     		ldr	r3, .L59+32
 1264 04d4 1B88     		ldrh	r3, [r3]
 1265 04d6 DAB2     		uxtb	r2, r3
 1266 04d8 0C4B     		ldr	r3, .L59+4
 1267 04da 5A70     		strb	r2, [r3, #1]
 555:main.c        ****             InterPin_Write(~InterPin_Read());
 1268              		.loc 1 555 0
 1269 04dc FFF7FEFF 		bl	InterPin_Read
 1270 04e0 031C     		mov	r3, r0
 1271 04e2 DB43     		mvn	r3, r3
 1272 04e4 DBB2     		uxtb	r3, r3
 1273 04e6 181C     		mov	r0, r3
 1274 04e8 FFF7FEFF 		bl	InterPin_Write
 556:main.c        ****             CyDelay(50);
 1275              		.loc 1 556 0
 1276 04ec 3220     		mov	r0, #50
 1277 04ee FFF7FEFF 		bl	CyDelay
 557:main.c        ****             InterPin_Write(~InterPin_Read());
 1278              		.loc 1 557 0
 1279 04f2 FFF7FEFF 		bl	InterPin_Read
 1280 04f6 031C     		mov	r3, r0
 1281 04f8 DB43     		mvn	r3, r3
 1282 04fa DBB2     		uxtb	r3, r3
 1283 04fc 181C     		mov	r0, r3
 1284 04fe FFF7FEFF 		bl	InterPin_Write
ARM GAS  C:\Users\poornima\AppData\Local\Temp\ccVfpcDo.s 			page 34


 1285              	.L28:
 558:main.c        ****         }
 559:main.c        ****     }
 560:main.c        ****    
 561:main.c        **** }
 1286              		.loc 1 561 0
 1287 0502 BD46     		mov	sp, r7
 1288              		@ sp needed
 1289 0504 80BD     		pop	{r7, pc}
 1290              	.L60:
 1291 0506 C046     		.align	2
 1292              	.L59:
 1293 0508 00010000 		.word	.LC44
 1294 050c 00000000 		.word	i2cReadBuffer
 1295 0510 00000000 		.word	oldSock1
 1296 0514 00000000 		.word	temp6
 1297 0518 00000000 		.word	sock1
 1298 051c 00000000 		.word	curPos1
 1299 0520 FFFF0000 		.word	65535
 1300 0524 00000000 		.word	oldCurPos1
 1301 0528 00000000 		.word	curPos2
 1302 052c 00000000 		.word	oldCurPos2
 1303              		.cfi_endproc
 1304              	.LFE37:
 1305              		.size	CapSense_DisplayState, .-CapSense_DisplayState
 1306              		.section	.text.ExecuteCommand,"ax",%progbits
 1307              		.align	2
 1308              		.global	ExecuteCommand
 1309              		.code	16
 1310              		.thumb_func
 1311              		.type	ExecuteCommand, %function
 1312              	ExecuteCommand:
 1313              	.LFB38:
 562:main.c        **** 
 563:main.c        **** /*******************************************************************************
 564:main.c        **** * Function Name: ExecuteCommand
 565:main.c        **** ********************************************************************************
 566:main.c        **** * Summary:
 567:main.c        **** *  Executes received command to control the LED color and returns status.
 568:main.c        **** *  If the command is unknown, the LED color is not changed.
 569:main.c        **** *
 570:main.c        **** * Parameters:
 571:main.c        **** *  cmd: command to execute. Available commands:
 572:main.c        **** *   - CMD_SET_RED:   set red color of the LED.
 573:main.c        **** *   - CMD_SET_GREEN: set green color of the LED.
 574:main.c        **** *   - CMD_SET_BLUE:  set blue color of the LED.
 575:main.c        **** *   - CMD_SET_OFF:   turn off the LED.
 576:main.c        **** *
 577:main.c        **** * Return:
 578:main.c        **** *  Returns status of command execution. There are two statuses
 579:main.c        **** *  - STS_CMD_DONE: command is executed successfully.
 580:main.c        **** *  - STS_CMD_FAIL: unknown command
 581:main.c        **** *
 582:main.c        **** *******************************************************************************/
 583:main.c        **** uint8 ExecuteCommand(uint32 cmd, uint32 value)
 584:main.c        **** {
 1314              		.loc 1 584 0
ARM GAS  C:\Users\poornima\AppData\Local\Temp\ccVfpcDo.s 			page 35


 1315              		.cfi_startproc
 1316 0000 80B5     		push	{r7, lr}
 1317              		.cfi_def_cfa_offset 8
 1318              		.cfi_offset 7, -8
 1319              		.cfi_offset 14, -4
 1320 0002 84B0     		sub	sp, sp, #16
 1321              		.cfi_def_cfa_offset 24
 1322 0004 00AF     		add	r7, sp, #0
 1323              		.cfi_def_cfa_register 7
 1324 0006 7860     		str	r0, [r7, #4]
 1325 0008 3960     		str	r1, [r7]
 585:main.c        ****     //UART_UartPutString("in ExecuteCommand \n");
 586:main.c        ****     uint8 status;
 587:main.c        ****     status = STS_CMD_DONE;
 1326              		.loc 1 587 0
 1327 000a 0F23     		mov	r3, #15
 1328 000c FB18     		add	r3, r7, r3
 1329 000e 0022     		mov	r2, #0
 1330 0010 1A70     		strb	r2, [r3]
 588:main.c        **** 
 589:main.c        ****     /* Execute received command */
 590:main.c        ****     switch (cmd)
 1331              		.loc 1 590 0
 1332 0012 7B68     		ldr	r3, [r7, #4]
 1333 0014 012B     		cmp	r3, #1
 1334 0016 09D0     		beq	.L63
 1335 0018 02D3     		bcc	.L64
 1336 001a 072B     		cmp	r3, #7
 1337 001c 15D8     		bhi	.L62
 1338 001e 0BE0     		b	.L68
 1339              	.L64:
 591:main.c        ****     {
 592:main.c        ****         case FAN1:
 593:main.c        ****          //   UART_UartPutString("in ExecuteCommand :: FAN1\n");
 594:main.c        ****             UpdateLedsFan1(value);
 1340              		.loc 1 594 0
 1341 0020 3B68     		ldr	r3, [r7]
 1342 0022 9BB2     		uxth	r3, r3
 1343 0024 181C     		mov	r0, r3
 1344 0026 FFF7FEFF 		bl	UpdateLedsFan1
 595:main.c        ****             break;
 1345              		.loc 1 595 0
 1346 002a 13E0     		b	.L66
 1347              	.L63:
 596:main.c        ****         case FAN2:
 597:main.c        ****            // UART_UartPutString("in ExecuteCommand :: FAN2\n");
 598:main.c        ****             UpdateLedsFan2(value);
 1348              		.loc 1 598 0
 1349 002c 3B68     		ldr	r3, [r7]
 1350 002e 9BB2     		uxth	r3, r3
 1351 0030 181C     		mov	r0, r3
 1352 0032 FFF7FEFF 		bl	UpdateLedsFan2
 599:main.c        ****             break;
 1353              		.loc 1 599 0
 1354 0036 0DE0     		b	.L66
 1355              	.L68:
 600:main.c        ****         case SWITCH1:
ARM GAS  C:\Users\poornima\AppData\Local\Temp\ccVfpcDo.s 			page 36


 601:main.c        ****         case SWITCH2:
 602:main.c        ****         case SWITCH3:
 603:main.c        ****         case SWITCH4:
 604:main.c        ****         case SWITCH5:
 605:main.c        ****         case SOCKET1:
 606:main.c        ****             //UART_UartPutString("in ExecuteCommand :: Switch & Socket\n");
 607:main.c        ****             UpdateSwitchLeds(cmd, value);
 1356              		.loc 1 607 0
 1357 0038 7B68     		ldr	r3, [r7, #4]
 1358 003a 9AB2     		uxth	r2, r3
 1359 003c 3B68     		ldr	r3, [r7]
 1360 003e 9BB2     		uxth	r3, r3
 1361 0040 101C     		mov	r0, r2
 1362 0042 191C     		mov	r1, r3
 1363 0044 FFF7FEFF 		bl	UpdateSwitchLeds
 608:main.c        ****             break;
 1364              		.loc 1 608 0
 1365 0048 04E0     		b	.L66
 1366              	.L62:
 609:main.c        ****         default:
 610:main.c        ****             //UART_UartPutString("in ExecuteCommand :: default\n");
 611:main.c        ****             status = STS_CMD_FAIL;
 1367              		.loc 1 611 0
 1368 004a 0F23     		mov	r3, #15
 1369 004c FB18     		add	r3, r7, r3
 1370 004e FF22     		mov	r2, #255
 1371 0050 1A70     		strb	r2, [r3]
 612:main.c        ****             break;
 1372              		.loc 1 612 0
 1373 0052 C046     		mov	r8, r8
 1374              	.L66:
 613:main.c        ****     }
 614:main.c        **** 
 615:main.c        ****     return (status);                            
 1375              		.loc 1 615 0
 1376 0054 0F23     		mov	r3, #15
 1377 0056 FB18     		add	r3, r7, r3
 1378 0058 1B78     		ldrb	r3, [r3]
 616:main.c        **** }
 1379              		.loc 1 616 0
 1380 005a 181C     		mov	r0, r3
 1381 005c BD46     		mov	sp, r7
 1382 005e 04B0     		add	sp, sp, #16
 1383              		@ sp needed
 1384 0060 80BD     		pop	{r7, pc}
 1385              		.cfi_endproc
 1386              	.LFE38:
 1387              		.size	ExecuteCommand, .-ExecuteCommand
 1388 0062 C046     		.section	.text.UpdateSwitchLeds,"ax",%progbits
 1389              		.align	2
 1390              		.global	UpdateSwitchLeds
 1391              		.code	16
 1392              		.thumb_func
 1393              		.type	UpdateSwitchLeds, %function
 1394              	UpdateSwitchLeds:
 1395              	.LFB39:
 617:main.c        **** 
ARM GAS  C:\Users\poornima\AppData\Local\Temp\ccVfpcDo.s 			page 37


 618:main.c        **** void UpdateSwitchLeds(uint16 res, uint16 curPos)
 619:main.c        **** 
 620:main.c        **** { // static uint8 flag5=0;
 1396              		.loc 1 620 0
 1397              		.cfi_startproc
 1398 0000 80B5     		push	{r7, lr}
 1399              		.cfi_def_cfa_offset 8
 1400              		.cfi_offset 7, -8
 1401              		.cfi_offset 14, -4
 1402 0002 82B0     		sub	sp, sp, #8
 1403              		.cfi_def_cfa_offset 16
 1404 0004 00AF     		add	r7, sp, #0
 1405              		.cfi_def_cfa_register 7
 1406 0006 021C     		mov	r2, r0
 1407 0008 BB1D     		add	r3, r7, #6
 1408 000a 1A80     		strh	r2, [r3]
 1409 000c 3B1D     		add	r3, r7, #4
 1410 000e 0A1C     		add	r2, r1, #0
 1411 0010 1A80     		strh	r2, [r3]
 621:main.c        ****     //UART_UartPutString("in UpdateSwitchLeds\n\r");
 622:main.c        ****                       
 623:main.c        ****        switch(res)
 1412              		.loc 1 623 0
 1413 0012 BB1D     		add	r3, r7, #6
 1414 0014 1B88     		ldrh	r3, [r3]
 1415 0016 072B     		cmp	r3, #7
 1416 0018 00D9     		bls	.LCB1140
 1417 001a FBE0     		b	.L70	@long jump
 1418              	.LCB1140:
 1419 001c 9A00     		lsl	r2, r3, #2
 1420 001e 914B     		ldr	r3, .L91
 1421 0020 D318     		add	r3, r2, r3
 1422 0022 1B68     		ldr	r3, [r3]
 1423 0024 9F46     		mov	pc, r3
 1424              		.section	.rodata
 1425 0132 0000     		.align	2
 1426              	.L72:
 1427 0134 14020000 		.word	.L70
 1428 0138 14020000 		.word	.L70
 1429 013c 26000000 		.word	.L71
 1430 0140 76000000 		.word	.L73
 1431 0144 C6000000 		.word	.L74
 1432 0148 1A010000 		.word	.L75
 1433 014c 6A010000 		.word	.L76
 1434 0150 C4010000 		.word	.L77
 1435              		.section	.text.UpdateSwitchLeds
 1436              	.L71:
 624:main.c        ****     {
 625:main.c        ****             case SWITCH1:
 626:main.c        ****                 if(curPos == 100 )
 1437              		.loc 1 626 0
 1438 0026 3B1D     		add	r3, r7, #4
 1439 0028 1B88     		ldrh	r3, [r3]
 1440 002a 642B     		cmp	r3, #100
 1441 002c 11D1     		bne	.L78
 627:main.c        ****                 {
 628:main.c        ****                     //UART_UartPutString("in UpdateSwitchLeds :: switch1 :: on \n");
ARM GAS  C:\Users\poornima\AppData\Local\Temp\ccVfpcDo.s 			page 38


 629:main.c        ****                     LED11_Write(1);
 1442              		.loc 1 629 0
 1443 002e 0120     		mov	r0, #1
 1444 0030 FFF7FEFF 		bl	LED11_Write
 630:main.c        ****                     Triac3_Write(1);
 1445              		.loc 1 630 0
 1446 0034 0120     		mov	r0, #1
 1447 0036 FFF7FEFF 		bl	Triac3_Write
 631:main.c        ****                                  
 632:main.c        ****                     cache[2]=curPos;
 1448              		.loc 1 632 0
 1449 003a 3B1D     		add	r3, r7, #4
 1450 003c 1B88     		ldrh	r3, [r3]
 1451 003e DAB2     		uxtb	r2, r3
 1452 0040 894B     		ldr	r3, .L91+4
 1453 0042 9A70     		strb	r2, [r3, #2]
 633:main.c        ****                     CySysFlashWriteRow(CY_TEST_FLASH_ROW, cache);
 1454              		.loc 1 633 0
 1455 0044 894A     		ldr	r2, .L91+8
 1456 0046 884B     		ldr	r3, .L91+4
 1457 0048 101C     		mov	r0, r2
 1458 004a 191C     		mov	r1, r3
 1459 004c FFF7FEFF 		bl	CySysFlashWriteRow
 634:main.c        ****                     
 635:main.c        ****                 }
 636:main.c        ****                 else
 637:main.c        ****                 {
 638:main.c        ****                     //UART_UartPutString("in UpdateSwitchLeds :: switch1 :: off \n");
 639:main.c        ****                     LED11_Write(0);
 640:main.c        ****                     Triac3_Write(0);
 641:main.c        ****                                        
 642:main.c        ****                     cache[2]=curPos;
 643:main.c        ****                     CySysFlashWriteRow(CY_TEST_FLASH_ROW, cache);
 644:main.c        ****                 }
 645:main.c        ****                 break;
 1460              		.loc 1 645 0
 1461 0050 05E1     		b	.L69
 1462              	.L78:
 639:main.c        ****                     Triac3_Write(0);
 1463              		.loc 1 639 0
 1464 0052 0020     		mov	r0, #0
 1465 0054 FFF7FEFF 		bl	LED11_Write
 640:main.c        ****                                        
 1466              		.loc 1 640 0
 1467 0058 0020     		mov	r0, #0
 1468 005a FFF7FEFF 		bl	Triac3_Write
 642:main.c        ****                     CySysFlashWriteRow(CY_TEST_FLASH_ROW, cache);
 1469              		.loc 1 642 0
 1470 005e 3B1D     		add	r3, r7, #4
 1471 0060 1B88     		ldrh	r3, [r3]
 1472 0062 DAB2     		uxtb	r2, r3
 1473 0064 804B     		ldr	r3, .L91+4
 1474 0066 9A70     		strb	r2, [r3, #2]
 643:main.c        ****                 }
 1475              		.loc 1 643 0
 1476 0068 804A     		ldr	r2, .L91+8
 1477 006a 7F4B     		ldr	r3, .L91+4
ARM GAS  C:\Users\poornima\AppData\Local\Temp\ccVfpcDo.s 			page 39


 1478 006c 101C     		mov	r0, r2
 1479 006e 191C     		mov	r1, r3
 1480 0070 FFF7FEFF 		bl	CySysFlashWriteRow
 1481              		.loc 1 645 0
 1482 0074 F3E0     		b	.L69
 1483              	.L73:
 646:main.c        ****             case SWITCH2:
 647:main.c        ****                 if(curPos == 100 )
 1484              		.loc 1 647 0
 1485 0076 3B1D     		add	r3, r7, #4
 1486 0078 1B88     		ldrh	r3, [r3]
 1487 007a 642B     		cmp	r3, #100
 1488 007c 11D1     		bne	.L81
 648:main.c        ****                 {
 649:main.c        ****                     //UART_UartPutString("in UpdateSwitchLeds :: switch2 :: on \n");
 650:main.c        ****                     LED12_Write(1);
 1489              		.loc 1 650 0
 1490 007e 0120     		mov	r0, #1
 1491 0080 FFF7FEFF 		bl	LED12_Write
 651:main.c        ****                     Triac4_Write(1);
 1492              		.loc 1 651 0
 1493 0084 0120     		mov	r0, #1
 1494 0086 FFF7FEFF 		bl	Triac4_Write
 652:main.c        ****                                         
 653:main.c        ****                     cache[3]=curPos;
 1495              		.loc 1 653 0
 1496 008a 3B1D     		add	r3, r7, #4
 1497 008c 1B88     		ldrh	r3, [r3]
 1498 008e DAB2     		uxtb	r2, r3
 1499 0090 754B     		ldr	r3, .L91+4
 1500 0092 DA70     		strb	r2, [r3, #3]
 654:main.c        ****                     CySysFlashWriteRow(CY_TEST_FLASH_ROW, cache);
 1501              		.loc 1 654 0
 1502 0094 754A     		ldr	r2, .L91+8
 1503 0096 744B     		ldr	r3, .L91+4
 1504 0098 101C     		mov	r0, r2
 1505 009a 191C     		mov	r1, r3
 1506 009c FFF7FEFF 		bl	CySysFlashWriteRow
 655:main.c        ****                     
 656:main.c        ****                 }
 657:main.c        ****                 else
 658:main.c        ****                 {
 659:main.c        ****                     //UART_UartPutString("in UpdateSwitchLeds :: switch2 :: off \n");
 660:main.c        ****                     LED12_Write(0);
 661:main.c        ****                     Triac4_Write(0);
 662:main.c        ****                                        
 663:main.c        ****                     cache[3]=curPos;
 664:main.c        ****                     CySysFlashWriteRow(CY_TEST_FLASH_ROW, cache);
 665:main.c        ****                     
 666:main.c        ****                 }
 667:main.c        ****                 break;
 1507              		.loc 1 667 0
 1508 00a0 DDE0     		b	.L69
 1509              	.L81:
 660:main.c        ****                     Triac4_Write(0);
 1510              		.loc 1 660 0
 1511 00a2 0020     		mov	r0, #0
ARM GAS  C:\Users\poornima\AppData\Local\Temp\ccVfpcDo.s 			page 40


 1512 00a4 FFF7FEFF 		bl	LED12_Write
 661:main.c        ****                                        
 1513              		.loc 1 661 0
 1514 00a8 0020     		mov	r0, #0
 1515 00aa FFF7FEFF 		bl	Triac4_Write
 663:main.c        ****                     CySysFlashWriteRow(CY_TEST_FLASH_ROW, cache);
 1516              		.loc 1 663 0
 1517 00ae 3B1D     		add	r3, r7, #4
 1518 00b0 1B88     		ldrh	r3, [r3]
 1519 00b2 DAB2     		uxtb	r2, r3
 1520 00b4 6C4B     		ldr	r3, .L91+4
 1521 00b6 DA70     		strb	r2, [r3, #3]
 664:main.c        ****                     
 1522              		.loc 1 664 0
 1523 00b8 6C4A     		ldr	r2, .L91+8
 1524 00ba 6B4B     		ldr	r3, .L91+4
 1525 00bc 101C     		mov	r0, r2
 1526 00be 191C     		mov	r1, r3
 1527 00c0 FFF7FEFF 		bl	CySysFlashWriteRow
 1528              		.loc 1 667 0
 1529 00c4 CBE0     		b	.L69
 1530              	.L74:
 668:main.c        ****             case SWITCH3:
 669:main.c        ****                 if(curPos == 0x100 )
 1531              		.loc 1 669 0
 1532 00c6 3B1D     		add	r3, r7, #4
 1533 00c8 1A88     		ldrh	r2, [r3]
 1534 00ca 8023     		mov	r3, #128
 1535 00cc 5B00     		lsl	r3, r3, #1
 1536 00ce 9A42     		cmp	r2, r3
 1537 00d0 11D1     		bne	.L83
 670:main.c        ****                 {
 671:main.c        ****                     //UART_UartPutString("in UpdateSwitchLeds :: switch3 :: on \n");
 672:main.c        ****                     LED13_Write(1);
 1538              		.loc 1 672 0
 1539 00d2 0120     		mov	r0, #1
 1540 00d4 FFF7FEFF 		bl	LED13_Write
 673:main.c        ****                     Triac5_Write(1);
 1541              		.loc 1 673 0
 1542 00d8 0120     		mov	r0, #1
 1543 00da FFF7FEFF 		bl	Triac5_Write
 674:main.c        ****                                        
 675:main.c        ****                     cache[4]=curPos;
 1544              		.loc 1 675 0
 1545 00de 3B1D     		add	r3, r7, #4
 1546 00e0 1B88     		ldrh	r3, [r3]
 1547 00e2 DAB2     		uxtb	r2, r3
 1548 00e4 604B     		ldr	r3, .L91+4
 1549 00e6 1A71     		strb	r2, [r3, #4]
 676:main.c        ****                     CySysFlashWriteRow(CY_TEST_FLASH_ROW, cache);
 1550              		.loc 1 676 0
 1551 00e8 604A     		ldr	r2, .L91+8
 1552 00ea 5F4B     		ldr	r3, .L91+4
 1553 00ec 101C     		mov	r0, r2
 1554 00ee 191C     		mov	r1, r3
 1555 00f0 FFF7FEFF 		bl	CySysFlashWriteRow
 677:main.c        ****                     
ARM GAS  C:\Users\poornima\AppData\Local\Temp\ccVfpcDo.s 			page 41


 678:main.c        ****                 }
 679:main.c        ****                 else
 680:main.c        ****                 {
 681:main.c        ****                     //UART_UartPutString("in UpdateSwitchLeds :: switch3 :: off \n");
 682:main.c        ****                     LED13_Write(0);
 683:main.c        ****                     Triac5_Write(0);
 684:main.c        ****                                        
 685:main.c        ****                     cache[4]=curPos;
 686:main.c        ****                     CySysFlashWriteRow(CY_TEST_FLASH_ROW, cache);
 687:main.c        ****                    
 688:main.c        ****                 }
 689:main.c        ****                 break;
 1556              		.loc 1 689 0
 1557 00f4 B3E0     		b	.L69
 1558              	.L83:
 682:main.c        ****                     Triac5_Write(0);
 1559              		.loc 1 682 0
 1560 00f6 0020     		mov	r0, #0
 1561 00f8 FFF7FEFF 		bl	LED13_Write
 683:main.c        ****                                        
 1562              		.loc 1 683 0
 1563 00fc 0020     		mov	r0, #0
 1564 00fe FFF7FEFF 		bl	Triac5_Write
 685:main.c        ****                     CySysFlashWriteRow(CY_TEST_FLASH_ROW, cache);
 1565              		.loc 1 685 0
 1566 0102 3B1D     		add	r3, r7, #4
 1567 0104 1B88     		ldrh	r3, [r3]
 1568 0106 DAB2     		uxtb	r2, r3
 1569 0108 574B     		ldr	r3, .L91+4
 1570 010a 1A71     		strb	r2, [r3, #4]
 686:main.c        ****                    
 1571              		.loc 1 686 0
 1572 010c 574A     		ldr	r2, .L91+8
 1573 010e 564B     		ldr	r3, .L91+4
 1574 0110 101C     		mov	r0, r2
 1575 0112 191C     		mov	r1, r3
 1576 0114 FFF7FEFF 		bl	CySysFlashWriteRow
 1577              		.loc 1 689 0
 1578 0118 A1E0     		b	.L69
 1579              	.L75:
 690:main.c        ****             case SWITCH4:
 691:main.c        ****                 if(curPos == 100 )
 1580              		.loc 1 691 0
 1581 011a 3B1D     		add	r3, r7, #4
 1582 011c 1B88     		ldrh	r3, [r3]
 1583 011e 642B     		cmp	r3, #100
 1584 0120 11D1     		bne	.L85
 692:main.c        ****                 {
 693:main.c        ****                     //UART_UartPutString("in UpdateSwitchLeds :: switch4 :: on \n");
 694:main.c        ****                     LED14_Write(1);
 1585              		.loc 1 694 0
 1586 0122 0120     		mov	r0, #1
 1587 0124 FFF7FEFF 		bl	LED14_Write
 695:main.c        ****                     Triac6_Write(1);
 1588              		.loc 1 695 0
 1589 0128 0120     		mov	r0, #1
 1590 012a FFF7FEFF 		bl	Triac6_Write
ARM GAS  C:\Users\poornima\AppData\Local\Temp\ccVfpcDo.s 			page 42


 696:main.c        ****                                       
 697:main.c        ****                     cache[5]=curPos;
 1591              		.loc 1 697 0
 1592 012e 3B1D     		add	r3, r7, #4
 1593 0130 1B88     		ldrh	r3, [r3]
 1594 0132 DAB2     		uxtb	r2, r3
 1595 0134 4C4B     		ldr	r3, .L91+4
 1596 0136 5A71     		strb	r2, [r3, #5]
 698:main.c        ****                     CySysFlashWriteRow(CY_TEST_FLASH_ROW, cache); 
 1597              		.loc 1 698 0
 1598 0138 4C4A     		ldr	r2, .L91+8
 1599 013a 4B4B     		ldr	r3, .L91+4
 1600 013c 101C     		mov	r0, r2
 1601 013e 191C     		mov	r1, r3
 1602 0140 FFF7FEFF 		bl	CySysFlashWriteRow
 699:main.c        ****                 }
 700:main.c        ****                    
 701:main.c        ****                 else
 702:main.c        ****                 {
 703:main.c        ****                     //UART_UartPutString("in UpdateSwitchLeds :: switch4 :: off \n");
 704:main.c        ****                     LED14_Write(0);
 705:main.c        ****                     Triac6_Write(0);
 706:main.c        ****                   
 707:main.c        ****                     cache[5]=curPos;
 708:main.c        ****                     CySysFlashWriteRow(CY_TEST_FLASH_ROW, cache);
 709:main.c        ****                 }   
 710:main.c        ****                    
 711:main.c        ****                 break;
 1603              		.loc 1 711 0
 1604 0144 8BE0     		b	.L69
 1605              	.L85:
 704:main.c        ****                     Triac6_Write(0);
 1606              		.loc 1 704 0
 1607 0146 0020     		mov	r0, #0
 1608 0148 FFF7FEFF 		bl	LED14_Write
 705:main.c        ****                   
 1609              		.loc 1 705 0
 1610 014c 0020     		mov	r0, #0
 1611 014e FFF7FEFF 		bl	Triac6_Write
 707:main.c        ****                     CySysFlashWriteRow(CY_TEST_FLASH_ROW, cache);
 1612              		.loc 1 707 0
 1613 0152 3B1D     		add	r3, r7, #4
 1614 0154 1B88     		ldrh	r3, [r3]
 1615 0156 DAB2     		uxtb	r2, r3
 1616 0158 434B     		ldr	r3, .L91+4
 1617 015a 5A71     		strb	r2, [r3, #5]
 708:main.c        ****                 }   
 1618              		.loc 1 708 0
 1619 015c 434A     		ldr	r2, .L91+8
 1620 015e 424B     		ldr	r3, .L91+4
 1621 0160 101C     		mov	r0, r2
 1622 0162 191C     		mov	r1, r3
 1623 0164 FFF7FEFF 		bl	CySysFlashWriteRow
 1624              		.loc 1 711 0
 1625 0168 79E0     		b	.L69
 1626              	.L76:
 712:main.c        ****             case SWITCH5:
ARM GAS  C:\Users\poornima\AppData\Local\Temp\ccVfpcDo.s 			page 43


 713:main.c        ****                 if(curPos == 100 )
 1627              		.loc 1 713 0
 1628 016a 3B1D     		add	r3, r7, #4
 1629 016c 1B88     		ldrh	r3, [r3]
 1630 016e 642B     		cmp	r3, #100
 1631 0170 11D1     		bne	.L87
 714:main.c        ****                 {
 715:main.c        ****                   //  UART_UartPutString("in UpdateSwitchLeds :: switch5 :: on \n\r");
 716:main.c        ****                     LED15_Write(1);
 1632              		.loc 1 716 0
 1633 0172 0120     		mov	r0, #1
 1634 0174 FFF7FEFF 		bl	LED15_Write
 717:main.c        ****                     Triac7_Write(1);
 1635              		.loc 1 717 0
 1636 0178 0120     		mov	r0, #1
 1637 017a FFF7FEFF 		bl	Triac7_Write
 718:main.c        ****                    // flag5=1;                  
 719:main.c        ****                     cache[6]=curPos;
 1638              		.loc 1 719 0
 1639 017e 3B1D     		add	r3, r7, #4
 1640 0180 1B88     		ldrh	r3, [r3]
 1641 0182 DAB2     		uxtb	r2, r3
 1642 0184 384B     		ldr	r3, .L91+4
 1643 0186 9A71     		strb	r2, [r3, #6]
 720:main.c        ****                     CySysFlashWriteRow(CY_TEST_FLASH_ROW, cache);
 1644              		.loc 1 720 0
 1645 0188 384A     		ldr	r2, .L91+8
 1646 018a 374B     		ldr	r3, .L91+4
 1647 018c 101C     		mov	r0, r2
 1648 018e 191C     		mov	r1, r3
 1649 0190 FFF7FEFF 		bl	CySysFlashWriteRow
 1650 0194 15E0     		b	.L88
 1651              	.L87:
 721:main.c        ****                     
 722:main.c        ****                 }
 723:main.c        ****                 else if (curPos ==0)
 1652              		.loc 1 723 0
 1653 0196 3B1D     		add	r3, r7, #4
 1654 0198 1B88     		ldrh	r3, [r3]
 1655 019a 002B     		cmp	r3, #0
 1656 019c 11D1     		bne	.L88
 724:main.c        ****                 {
 725:main.c        ****                   //  UART_UartPutString("in UpdateSwitchLeds :: switch5 :: off \n\r");
 726:main.c        ****                     LED15_Write(0);
 1657              		.loc 1 726 0
 1658 019e 0020     		mov	r0, #0
 1659 01a0 FFF7FEFF 		bl	LED15_Write
 727:main.c        ****                     Triac7_Write(0);
 1660              		.loc 1 727 0
 1661 01a4 0020     		mov	r0, #0
 1662 01a6 FFF7FEFF 		bl	Triac7_Write
 728:main.c        ****                    // flag5=0;                   
 729:main.c        ****                     cache[6]=curPos;
 1663              		.loc 1 729 0
 1664 01aa 3B1D     		add	r3, r7, #4
 1665 01ac 1B88     		ldrh	r3, [r3]
 1666 01ae DAB2     		uxtb	r2, r3
ARM GAS  C:\Users\poornima\AppData\Local\Temp\ccVfpcDo.s 			page 44


 1667 01b0 2D4B     		ldr	r3, .L91+4
 1668 01b2 9A71     		strb	r2, [r3, #6]
 730:main.c        ****                     CySysFlashWriteRow(CY_TEST_FLASH_ROW, cache);
 1669              		.loc 1 730 0
 1670 01b4 2D4A     		ldr	r2, .L91+8
 1671 01b6 2C4B     		ldr	r3, .L91+4
 1672 01b8 101C     		mov	r0, r2
 1673 01ba 191C     		mov	r1, r3
 1674 01bc FFF7FEFF 		bl	CySysFlashWriteRow
 731:main.c        ****                     
 732:main.c        ****                 }
 733:main.c        ****                 break;
 1675              		.loc 1 733 0
 1676 01c0 4DE0     		b	.L69
 1677              	.L88:
 1678 01c2 4CE0     		b	.L69
 1679              	.L77:
 734:main.c        ****             case SOCKET1:
 735:main.c        ****                 if(curPos == 100 )
 1680              		.loc 1 735 0
 1681 01c4 3B1D     		add	r3, r7, #4
 1682 01c6 1B88     		ldrh	r3, [r3]
 1683 01c8 642B     		cmp	r3, #100
 1684 01ca 11D1     		bne	.L89
 736:main.c        ****                 {
 737:main.c        ****                     //UART_UartPutString("in UpdateSwitchLeds :: socket1 :: on \n");
 738:main.c        ****                     LED16_Write(1);
 1685              		.loc 1 738 0
 1686 01cc 0120     		mov	r0, #1
 1687 01ce FFF7FEFF 		bl	LED16_Write
 739:main.c        ****                     Triac8_Write(1);
 1688              		.loc 1 739 0
 1689 01d2 0120     		mov	r0, #1
 1690 01d4 FFF7FEFF 		bl	Triac8_Write
 740:main.c        ****                                        
 741:main.c        ****                     cache[7]=curPos;
 1691              		.loc 1 741 0
 1692 01d8 3B1D     		add	r3, r7, #4
 1693 01da 1B88     		ldrh	r3, [r3]
 1694 01dc DAB2     		uxtb	r2, r3
 1695 01de 224B     		ldr	r3, .L91+4
 1696 01e0 DA71     		strb	r2, [r3, #7]
 742:main.c        ****                     CySysFlashWriteRow(CY_TEST_FLASH_ROW, cache);
 1697              		.loc 1 742 0
 1698 01e2 224A     		ldr	r2, .L91+8
 1699 01e4 204B     		ldr	r3, .L91+4
 1700 01e6 101C     		mov	r0, r2
 1701 01e8 191C     		mov	r1, r3
 1702 01ea FFF7FEFF 		bl	CySysFlashWriteRow
 743:main.c        ****                    
 744:main.c        ****                 }
 745:main.c        ****                 else
 746:main.c        ****                 {
 747:main.c        ****                     //UART_UartPutString("in UpdateSwitchLeds :: socket1 :: off \n");
 748:main.c        ****                     LED16_Write(0);
 749:main.c        ****                     Triac8_Write(0);
 750:main.c        ****                                        
ARM GAS  C:\Users\poornima\AppData\Local\Temp\ccVfpcDo.s 			page 45


 751:main.c        ****                     cache[7]=curPos;
 752:main.c        ****                     CySysFlashWriteRow(CY_TEST_FLASH_ROW, cache);
 753:main.c        ****                    
 754:main.c        ****                 }
 755:main.c        ****                 break;
 1703              		.loc 1 755 0
 1704 01ee 36E0     		b	.L69
 1705              	.L89:
 748:main.c        ****                     Triac8_Write(0);
 1706              		.loc 1 748 0
 1707 01f0 0020     		mov	r0, #0
 1708 01f2 FFF7FEFF 		bl	LED16_Write
 749:main.c        ****                                        
 1709              		.loc 1 749 0
 1710 01f6 0020     		mov	r0, #0
 1711 01f8 FFF7FEFF 		bl	Triac8_Write
 751:main.c        ****                     CySysFlashWriteRow(CY_TEST_FLASH_ROW, cache);
 1712              		.loc 1 751 0
 1713 01fc 3B1D     		add	r3, r7, #4
 1714 01fe 1B88     		ldrh	r3, [r3]
 1715 0200 DAB2     		uxtb	r2, r3
 1716 0202 194B     		ldr	r3, .L91+4
 1717 0204 DA71     		strb	r2, [r3, #7]
 752:main.c        ****                    
 1718              		.loc 1 752 0
 1719 0206 194A     		ldr	r2, .L91+8
 1720 0208 174B     		ldr	r3, .L91+4
 1721 020a 101C     		mov	r0, r2
 1722 020c 191C     		mov	r1, r3
 1723 020e FFF7FEFF 		bl	CySysFlashWriteRow
 1724              		.loc 1 755 0
 1725 0212 24E0     		b	.L69
 1726              	.L70:
 756:main.c        ****             default:
 757:main.c        ****                 //UART_UartPutString("in UpdateSwitchLeds :: All :: on \n");
 758:main.c        ****                 LED11_Write(1);
 1727              		.loc 1 758 0
 1728 0214 0120     		mov	r0, #1
 1729 0216 FFF7FEFF 		bl	LED11_Write
 759:main.c        ****                 LED12_Write(1);
 1730              		.loc 1 759 0
 1731 021a 0120     		mov	r0, #1
 1732 021c FFF7FEFF 		bl	LED12_Write
 760:main.c        ****                 LED13_Write(1);
 1733              		.loc 1 760 0
 1734 0220 0120     		mov	r0, #1
 1735 0222 FFF7FEFF 		bl	LED13_Write
 761:main.c        ****                 LED14_Write(1);
 1736              		.loc 1 761 0
 1737 0226 0120     		mov	r0, #1
 1738 0228 FFF7FEFF 		bl	LED14_Write
 762:main.c        ****                 LED15_Write(1);
 1739              		.loc 1 762 0
 1740 022c 0120     		mov	r0, #1
 1741 022e FFF7FEFF 		bl	LED15_Write
 763:main.c        ****                 LED16_Write(1);
 1742              		.loc 1 763 0
ARM GAS  C:\Users\poornima\AppData\Local\Temp\ccVfpcDo.s 			page 46


 1743 0232 0120     		mov	r0, #1
 1744 0234 FFF7FEFF 		bl	LED16_Write
 764:main.c        ****                 Triac3_Write(1);
 1745              		.loc 1 764 0
 1746 0238 0120     		mov	r0, #1
 1747 023a FFF7FEFF 		bl	Triac3_Write
 765:main.c        ****                 Triac4_Write(1);
 1748              		.loc 1 765 0
 1749 023e 0120     		mov	r0, #1
 1750 0240 FFF7FEFF 		bl	Triac4_Write
 766:main.c        ****                 Triac5_Write(1);
 1751              		.loc 1 766 0
 1752 0244 0120     		mov	r0, #1
 1753 0246 FFF7FEFF 		bl	Triac5_Write
 767:main.c        ****                 Triac6_Write(1);
 1754              		.loc 1 767 0
 1755 024a 0120     		mov	r0, #1
 1756 024c FFF7FEFF 		bl	Triac6_Write
 768:main.c        ****                 Triac7_Write(1);
 1757              		.loc 1 768 0
 1758 0250 0120     		mov	r0, #1
 1759 0252 FFF7FEFF 		bl	Triac7_Write
 769:main.c        ****                 Triac8_Write(1);
 1760              		.loc 1 769 0
 1761 0256 0120     		mov	r0, #1
 1762 0258 FFF7FEFF 		bl	Triac8_Write
 770:main.c        ****                 break;
 1763              		.loc 1 770 0
 1764 025c C046     		mov	r8, r8
 1765              	.L69:
 771:main.c        ****     }
 772:main.c        **** }
 1766              		.loc 1 772 0
 1767 025e BD46     		mov	sp, r7
 1768 0260 02B0     		add	sp, sp, #8
 1769              		@ sp needed
 1770 0262 80BD     		pop	{r7, pc}
 1771              	.L92:
 1772              		.align	2
 1773              	.L91:
 1774 0264 34010000 		.word	.L72
 1775 0268 00000000 		.word	cache
 1776 026c FE030000 		.word	1022
 1777              		.cfi_endproc
 1778              	.LFE39:
 1779              		.size	UpdateSwitchLeds, .-UpdateSwitchLeds
 1780              		.section	.rodata
 1781              		.align	2
 1782              	.LC50:
 1783 0154 696E2055 		.ascii	"in UpdateLedsFan1\012\015\000"
 1783      70646174 
 1783      654C6564 
 1783      7346616E 
 1783      310A0D00 
 1784              		.section	.text.UpdateLedsFan1,"ax",%progbits
 1785              		.align	2
 1786              		.global	UpdateLedsFan1
ARM GAS  C:\Users\poornima\AppData\Local\Temp\ccVfpcDo.s 			page 47


 1787              		.code	16
 1788              		.thumb_func
 1789              		.type	UpdateLedsFan1, %function
 1790              	UpdateLedsFan1:
 1791              	.LFB40:
 773:main.c        **** 
 774:main.c        **** // Fan 1 - updating LED
 775:main.c        **** void UpdateLedsFan1(uint16 curPos)
 776:main.c        **** {
 1792              		.loc 1 776 0
 1793              		.cfi_startproc
 1794 0000 80B5     		push	{r7, lr}
 1795              		.cfi_def_cfa_offset 8
 1796              		.cfi_offset 7, -8
 1797              		.cfi_offset 14, -4
 1798 0002 82B0     		sub	sp, sp, #8
 1799              		.cfi_def_cfa_offset 16
 1800 0004 00AF     		add	r7, sp, #0
 1801              		.cfi_def_cfa_register 7
 1802 0006 021C     		mov	r2, r0
 1803 0008 BB1D     		add	r3, r7, #6
 1804 000a 1A80     		strh	r2, [r3]
 777:main.c        ****     /* Turn of all LEDs first */
 778:main.c        ****     LED6_Write(0);
 1805              		.loc 1 778 0
 1806 000c 0020     		mov	r0, #0
 1807 000e FFF7FEFF 		bl	LED6_Write
 779:main.c        ****     LED7_Write(0);
 1808              		.loc 1 779 0
 1809 0012 0020     		mov	r0, #0
 1810 0014 FFF7FEFF 		bl	LED7_Write
 780:main.c        ****     LED8_Write(0);
 1811              		.loc 1 780 0
 1812 0018 0020     		mov	r0, #0
 1813 001a FFF7FEFF 		bl	LED8_Write
 781:main.c        ****     LED9_Write(0);
 1814              		.loc 1 781 0
 1815 001e 0020     		mov	r0, #0
 1816 0020 FFF7FEFF 		bl	LED9_Write
 782:main.c        ****     LED10_Write(0);
 1817              		.loc 1 782 0
 1818 0024 0020     		mov	r0, #0
 1819 0026 FFF7FEFF 		bl	LED10_Write
 783:main.c        ****     Triac1_Write(0);
 1820              		.loc 1 783 0
 1821 002a 0020     		mov	r0, #0
 1822 002c FFF7FEFF 		bl	Triac1_Write
 784:main.c        ****     
 785:main.c        ****     
 786:main.c        ****     UART_UartPutString("in UpdateLedsFan1\n\r");
 1823              		.loc 1 786 0
 1824 0030 374B     		ldr	r3, .L99
 1825 0032 181C     		mov	r0, r3
 1826 0034 FFF7FEFF 		bl	UART_UartPutString
 787:main.c        ****     
 788:main.c        ****     if(curPos<0)
 789:main.c        ****     {
ARM GAS  C:\Users\poornima\AppData\Local\Temp\ccVfpcDo.s 			page 48


 790:main.c        ****         cache[0]=0;
 791:main.c        ****      CySysFlashWriteRow(CY_TEST_FLASH_ROW, cache);
 792:main.c        ****     
 793:main.c        ****     }
 794:main.c        ****     if (curPos > 10)
 1827              		.loc 1 794 0
 1828 0038 BB1D     		add	r3, r7, #6
 1829 003a 1B88     		ldrh	r3, [r3]
 1830 003c 0A2B     		cmp	r3, #10
 1831 003e 10D9     		bls	.L94
 795:main.c        ****     {
 796:main.c        ****         //UART_UartPutString("in UpdateLedsFan1 :: range >10\n");
 797:main.c        ****         LED6_Write(1);
 1832              		.loc 1 797 0
 1833 0040 0120     		mov	r0, #1
 1834 0042 FFF7FEFF 		bl	LED6_Write
 798:main.c        ****         Triac1_Write(1);
 1835              		.loc 1 798 0
 1836 0046 0120     		mov	r0, #1
 1837 0048 FFF7FEFF 		bl	Triac1_Write
 799:main.c        ****         
 800:main.c        ****         cache[0]=curPos;
 1838              		.loc 1 800 0
 1839 004c BB1D     		add	r3, r7, #6
 1840 004e 1B88     		ldrh	r3, [r3]
 1841 0050 DAB2     		uxtb	r2, r3
 1842 0052 304B     		ldr	r3, .L99+4
 1843 0054 1A70     		strb	r2, [r3]
 801:main.c        ****         CySysFlashWriteRow(CY_TEST_FLASH_ROW, cache);
 1844              		.loc 1 801 0
 1845 0056 304A     		ldr	r2, .L99+8
 1846 0058 2E4B     		ldr	r3, .L99+4
 1847 005a 101C     		mov	r0, r2
 1848 005c 191C     		mov	r1, r3
 1849 005e FFF7FEFF 		bl	CySysFlashWriteRow
 1850              	.L94:
 802:main.c        ****         
 803:main.c        ****     }
 804:main.c        ****     
 805:main.c        ****     if (curPos > 20)
 1851              		.loc 1 805 0
 1852 0062 BB1D     		add	r3, r7, #6
 1853 0064 1B88     		ldrh	r3, [r3]
 1854 0066 142B     		cmp	r3, #20
 1855 0068 10D9     		bls	.L95
 806:main.c        ****     {
 807:main.c        ****         //UART_UartPutString("in UpdateLedsFan1 :: range >20\n");
 808:main.c        ****         LED7_Write(1);
 1856              		.loc 1 808 0
 1857 006a 0120     		mov	r0, #1
 1858 006c FFF7FEFF 		bl	LED7_Write
 809:main.c        ****         Triac1_Write(1);
 1859              		.loc 1 809 0
 1860 0070 0120     		mov	r0, #1
 1861 0072 FFF7FEFF 		bl	Triac1_Write
 810:main.c        ****         
 811:main.c        ****         cache[0]=curPos;
ARM GAS  C:\Users\poornima\AppData\Local\Temp\ccVfpcDo.s 			page 49


 1862              		.loc 1 811 0
 1863 0076 BB1D     		add	r3, r7, #6
 1864 0078 1B88     		ldrh	r3, [r3]
 1865 007a DAB2     		uxtb	r2, r3
 1866 007c 254B     		ldr	r3, .L99+4
 1867 007e 1A70     		strb	r2, [r3]
 812:main.c        ****         CySysFlashWriteRow(CY_TEST_FLASH_ROW, cache);
 1868              		.loc 1 812 0
 1869 0080 254A     		ldr	r2, .L99+8
 1870 0082 244B     		ldr	r3, .L99+4
 1871 0084 101C     		mov	r0, r2
 1872 0086 191C     		mov	r1, r3
 1873 0088 FFF7FEFF 		bl	CySysFlashWriteRow
 1874              	.L95:
 813:main.c        ****     }
 814:main.c        ****     
 815:main.c        ****     if (curPos > 40)
 1875              		.loc 1 815 0
 1876 008c BB1D     		add	r3, r7, #6
 1877 008e 1B88     		ldrh	r3, [r3]
 1878 0090 282B     		cmp	r3, #40
 1879 0092 10D9     		bls	.L96
 816:main.c        ****     {
 817:main.c        ****        // UART_UartPutString("in UpdateLedsFan1 :: range >40\n");
 818:main.c        ****         LED8_Write(1);
 1880              		.loc 1 818 0
 1881 0094 0120     		mov	r0, #1
 1882 0096 FFF7FEFF 		bl	LED8_Write
 819:main.c        ****         Triac1_Write(1);
 1883              		.loc 1 819 0
 1884 009a 0120     		mov	r0, #1
 1885 009c FFF7FEFF 		bl	Triac1_Write
 820:main.c        ****        
 821:main.c        ****         cache[0]=curPos;
 1886              		.loc 1 821 0
 1887 00a0 BB1D     		add	r3, r7, #6
 1888 00a2 1B88     		ldrh	r3, [r3]
 1889 00a4 DAB2     		uxtb	r2, r3
 1890 00a6 1B4B     		ldr	r3, .L99+4
 1891 00a8 1A70     		strb	r2, [r3]
 822:main.c        ****         CySysFlashWriteRow(CY_TEST_FLASH_ROW, cache);
 1892              		.loc 1 822 0
 1893 00aa 1B4A     		ldr	r2, .L99+8
 1894 00ac 194B     		ldr	r3, .L99+4
 1895 00ae 101C     		mov	r0, r2
 1896 00b0 191C     		mov	r1, r3
 1897 00b2 FFF7FEFF 		bl	CySysFlashWriteRow
 1898              	.L96:
 823:main.c        ****     }
 824:main.c        ****     
 825:main.c        ****     if (curPos > 60)
 1899              		.loc 1 825 0
 1900 00b6 BB1D     		add	r3, r7, #6
 1901 00b8 1B88     		ldrh	r3, [r3]
 1902 00ba 3C2B     		cmp	r3, #60
 1903 00bc 10D9     		bls	.L97
 826:main.c        ****     {
ARM GAS  C:\Users\poornima\AppData\Local\Temp\ccVfpcDo.s 			page 50


 827:main.c        ****        // UART_UartPutString("in UpdateLedsFan1 :: range > 60\n");
 828:main.c        ****         LED9_Write(1);
 1904              		.loc 1 828 0
 1905 00be 0120     		mov	r0, #1
 1906 00c0 FFF7FEFF 		bl	LED9_Write
 829:main.c        ****         Triac1_Write(1);
 1907              		.loc 1 829 0
 1908 00c4 0120     		mov	r0, #1
 1909 00c6 FFF7FEFF 		bl	Triac1_Write
 830:main.c        ****         
 831:main.c        ****         cache[0]=curPos;
 1910              		.loc 1 831 0
 1911 00ca BB1D     		add	r3, r7, #6
 1912 00cc 1B88     		ldrh	r3, [r3]
 1913 00ce DAB2     		uxtb	r2, r3
 1914 00d0 104B     		ldr	r3, .L99+4
 1915 00d2 1A70     		strb	r2, [r3]
 832:main.c        ****         CySysFlashWriteRow(CY_TEST_FLASH_ROW, cache);
 1916              		.loc 1 832 0
 1917 00d4 104A     		ldr	r2, .L99+8
 1918 00d6 0F4B     		ldr	r3, .L99+4
 1919 00d8 101C     		mov	r0, r2
 1920 00da 191C     		mov	r1, r3
 1921 00dc FFF7FEFF 		bl	CySysFlashWriteRow
 1922              	.L97:
 833:main.c        ****     }
 834:main.c        ****     
 835:main.c        ****     if (curPos > 80)
 1923              		.loc 1 835 0
 1924 00e0 BB1D     		add	r3, r7, #6
 1925 00e2 1B88     		ldrh	r3, [r3]
 1926 00e4 502B     		cmp	r3, #80
 1927 00e6 10D9     		bls	.L93
 836:main.c        ****     {
 837:main.c        ****         //UART_UartPutString("in UpdateLedsFan1 :: range > 80\n");
 838:main.c        ****         LED10_Write(1);
 1928              		.loc 1 838 0
 1929 00e8 0120     		mov	r0, #1
 1930 00ea FFF7FEFF 		bl	LED10_Write
 839:main.c        ****         Triac1_Write(1);
 1931              		.loc 1 839 0
 1932 00ee 0120     		mov	r0, #1
 1933 00f0 FFF7FEFF 		bl	Triac1_Write
 840:main.c        ****         
 841:main.c        ****         cache[0]=curPos;
 1934              		.loc 1 841 0
 1935 00f4 BB1D     		add	r3, r7, #6
 1936 00f6 1B88     		ldrh	r3, [r3]
 1937 00f8 DAB2     		uxtb	r2, r3
 1938 00fa 064B     		ldr	r3, .L99+4
 1939 00fc 1A70     		strb	r2, [r3]
 842:main.c        ****         CySysFlashWriteRow(CY_TEST_FLASH_ROW, cache);
 1940              		.loc 1 842 0
 1941 00fe 064A     		ldr	r2, .L99+8
 1942 0100 044B     		ldr	r3, .L99+4
 1943 0102 101C     		mov	r0, r2
 1944 0104 191C     		mov	r1, r3
ARM GAS  C:\Users\poornima\AppData\Local\Temp\ccVfpcDo.s 			page 51


 1945 0106 FFF7FEFF 		bl	CySysFlashWriteRow
 1946              	.L93:
 843:main.c        ****         
 844:main.c        ****     }
 845:main.c        **** }
 1947              		.loc 1 845 0
 1948 010a BD46     		mov	sp, r7
 1949 010c 02B0     		add	sp, sp, #8
 1950              		@ sp needed
 1951 010e 80BD     		pop	{r7, pc}
 1952              	.L100:
 1953              		.align	2
 1954              	.L99:
 1955 0110 54010000 		.word	.LC50
 1956 0114 00000000 		.word	cache
 1957 0118 FE030000 		.word	1022
 1958              		.cfi_endproc
 1959              	.LFE40:
 1960              		.size	UpdateLedsFan1, .-UpdateLedsFan1
 1961              		.section	.text.UpdateLedsFan2,"ax",%progbits
 1962              		.align	2
 1963              		.global	UpdateLedsFan2
 1964              		.code	16
 1965              		.thumb_func
 1966              		.type	UpdateLedsFan2, %function
 1967              	UpdateLedsFan2:
 1968              	.LFB41:
 846:main.c        **** 
 847:main.c        **** // FAN2 - updating LED
 848:main.c        **** void UpdateLedsFan2(uint16 curPos)
 849:main.c        **** {
 1969              		.loc 1 849 0
 1970              		.cfi_startproc
 1971 0000 80B5     		push	{r7, lr}
 1972              		.cfi_def_cfa_offset 8
 1973              		.cfi_offset 7, -8
 1974              		.cfi_offset 14, -4
 1975 0002 82B0     		sub	sp, sp, #8
 1976              		.cfi_def_cfa_offset 16
 1977 0004 00AF     		add	r7, sp, #0
 1978              		.cfi_def_cfa_register 7
 1979 0006 021C     		mov	r2, r0
 1980 0008 BB1D     		add	r3, r7, #6
 1981 000a 1A80     		strh	r2, [r3]
 850:main.c        ****     /* Turn of all LEDs first */
 851:main.c        ****     LED1_Write(0);
 1982              		.loc 1 851 0
 1983 000c 0020     		mov	r0, #0
 1984 000e FFF7FEFF 		bl	LED1_Write
 852:main.c        ****     LED2_Write(0);
 1985              		.loc 1 852 0
 1986 0012 0020     		mov	r0, #0
 1987 0014 FFF7FEFF 		bl	LED2_Write
 853:main.c        ****     LED3_Write(0);
 1988              		.loc 1 853 0
 1989 0018 0020     		mov	r0, #0
 1990 001a FFF7FEFF 		bl	LED3_Write
ARM GAS  C:\Users\poornima\AppData\Local\Temp\ccVfpcDo.s 			page 52


 854:main.c        ****     LED4_Write(0);
 1991              		.loc 1 854 0
 1992 001e 0020     		mov	r0, #0
 1993 0020 FFF7FEFF 		bl	LED4_Write
 855:main.c        ****     LED5_Write(0);
 1994              		.loc 1 855 0
 1995 0024 0020     		mov	r0, #0
 1996 0026 FFF7FEFF 		bl	LED5_Write
 856:main.c        ****     Triac2_Write(0);
 1997              		.loc 1 856 0
 1998 002a 0020     		mov	r0, #0
 1999 002c FFF7FEFF 		bl	Triac2_Write
 857:main.c        ****     //UART_UartPutString("in UpdateLedsFan2\n");
 858:main.c        ****        
 859:main.c        ****     if (curPos > 10)
 2000              		.loc 1 859 0
 2001 0030 BB1D     		add	r3, r7, #6
 2002 0032 1B88     		ldrh	r3, [r3]
 2003 0034 0A2B     		cmp	r3, #10
 2004 0036 10D9     		bls	.L102
 860:main.c        ****     {
 861:main.c        ****       //  UART_UartPutString("in UpdateLedsFan2 :: range >10\n");
 862:main.c        ****         LED1_Write(1);
 2005              		.loc 1 862 0
 2006 0038 0120     		mov	r0, #1
 2007 003a FFF7FEFF 		bl	LED1_Write
 863:main.c        ****         Triac2_Write(1);
 2008              		.loc 1 863 0
 2009 003e 0120     		mov	r0, #1
 2010 0040 FFF7FEFF 		bl	Triac2_Write
 864:main.c        ****         
 865:main.c        ****         cache[1]=curPos;
 2011              		.loc 1 865 0
 2012 0044 BB1D     		add	r3, r7, #6
 2013 0046 1B88     		ldrh	r3, [r3]
 2014 0048 DAB2     		uxtb	r2, r3
 2015 004a 2F4B     		ldr	r3, .L107
 2016 004c 5A70     		strb	r2, [r3, #1]
 866:main.c        ****         CySysFlashWriteRow(CY_TEST_FLASH_ROW, cache);
 2017              		.loc 1 866 0
 2018 004e 2F4A     		ldr	r2, .L107+4
 2019 0050 2D4B     		ldr	r3, .L107
 2020 0052 101C     		mov	r0, r2
 2021 0054 191C     		mov	r1, r3
 2022 0056 FFF7FEFF 		bl	CySysFlashWriteRow
 2023              	.L102:
 867:main.c        ****         
 868:main.c        ****     }
 869:main.c        ****     
 870:main.c        ****     if (curPos > 20)
 2024              		.loc 1 870 0
 2025 005a BB1D     		add	r3, r7, #6
 2026 005c 1B88     		ldrh	r3, [r3]
 2027 005e 142B     		cmp	r3, #20
 2028 0060 10D9     		bls	.L103
 871:main.c        ****     {
 872:main.c        ****       //  UART_UartPutString("in UpdateLedsFan2 :: range >20\n");
ARM GAS  C:\Users\poornima\AppData\Local\Temp\ccVfpcDo.s 			page 53


 873:main.c        ****         LED2_Write(1);
 2029              		.loc 1 873 0
 2030 0062 0120     		mov	r0, #1
 2031 0064 FFF7FEFF 		bl	LED2_Write
 874:main.c        ****         Triac2_Write(1);
 2032              		.loc 1 874 0
 2033 0068 0120     		mov	r0, #1
 2034 006a FFF7FEFF 		bl	Triac2_Write
 875:main.c        ****         
 876:main.c        ****         cache[1]=curPos;
 2035              		.loc 1 876 0
 2036 006e BB1D     		add	r3, r7, #6
 2037 0070 1B88     		ldrh	r3, [r3]
 2038 0072 DAB2     		uxtb	r2, r3
 2039 0074 244B     		ldr	r3, .L107
 2040 0076 5A70     		strb	r2, [r3, #1]
 877:main.c        ****         CySysFlashWriteRow(CY_TEST_FLASH_ROW, cache);
 2041              		.loc 1 877 0
 2042 0078 244A     		ldr	r2, .L107+4
 2043 007a 234B     		ldr	r3, .L107
 2044 007c 101C     		mov	r0, r2
 2045 007e 191C     		mov	r1, r3
 2046 0080 FFF7FEFF 		bl	CySysFlashWriteRow
 2047              	.L103:
 878:main.c        ****     }
 879:main.c        ****     
 880:main.c        ****     if (curPos > 40)
 2048              		.loc 1 880 0
 2049 0084 BB1D     		add	r3, r7, #6
 2050 0086 1B88     		ldrh	r3, [r3]
 2051 0088 282B     		cmp	r3, #40
 2052 008a 10D9     		bls	.L104
 881:main.c        ****     {
 882:main.c        ****       //  UART_UartPutString("in UpdateLedsFan2 :: range >40\n");
 883:main.c        ****         LED3_Write(1);
 2053              		.loc 1 883 0
 2054 008c 0120     		mov	r0, #1
 2055 008e FFF7FEFF 		bl	LED3_Write
 884:main.c        ****         Triac2_Write(1);
 2056              		.loc 1 884 0
 2057 0092 0120     		mov	r0, #1
 2058 0094 FFF7FEFF 		bl	Triac2_Write
 885:main.c        ****         
 886:main.c        ****         cache[1]=curPos;
 2059              		.loc 1 886 0
 2060 0098 BB1D     		add	r3, r7, #6
 2061 009a 1B88     		ldrh	r3, [r3]
 2062 009c DAB2     		uxtb	r2, r3
 2063 009e 1A4B     		ldr	r3, .L107
 2064 00a0 5A70     		strb	r2, [r3, #1]
 887:main.c        ****         CySysFlashWriteRow(CY_TEST_FLASH_ROW, cache);
 2065              		.loc 1 887 0
 2066 00a2 1A4A     		ldr	r2, .L107+4
 2067 00a4 184B     		ldr	r3, .L107
 2068 00a6 101C     		mov	r0, r2
 2069 00a8 191C     		mov	r1, r3
 2070 00aa FFF7FEFF 		bl	CySysFlashWriteRow
ARM GAS  C:\Users\poornima\AppData\Local\Temp\ccVfpcDo.s 			page 54


 2071              	.L104:
 888:main.c        ****    }
 889:main.c        ****     
 890:main.c        ****     if (curPos > 60)
 2072              		.loc 1 890 0
 2073 00ae BB1D     		add	r3, r7, #6
 2074 00b0 1B88     		ldrh	r3, [r3]
 2075 00b2 3C2B     		cmp	r3, #60
 2076 00b4 10D9     		bls	.L105
 891:main.c        ****     {
 892:main.c        ****        // UART_UartPutString("in UpdateLedsFan2 :: range > 60\n");
 893:main.c        ****         LED4_Write(1);
 2077              		.loc 1 893 0
 2078 00b6 0120     		mov	r0, #1
 2079 00b8 FFF7FEFF 		bl	LED4_Write
 894:main.c        ****         Triac2_Write(1);
 2080              		.loc 1 894 0
 2081 00bc 0120     		mov	r0, #1
 2082 00be FFF7FEFF 		bl	Triac2_Write
 895:main.c        ****         
 896:main.c        ****         cache[1]=curPos;
 2083              		.loc 1 896 0
 2084 00c2 BB1D     		add	r3, r7, #6
 2085 00c4 1B88     		ldrh	r3, [r3]
 2086 00c6 DAB2     		uxtb	r2, r3
 2087 00c8 0F4B     		ldr	r3, .L107
 2088 00ca 5A70     		strb	r2, [r3, #1]
 897:main.c        ****         CySysFlashWriteRow(CY_TEST_FLASH_ROW, cache);
 2089              		.loc 1 897 0
 2090 00cc 0F4A     		ldr	r2, .L107+4
 2091 00ce 0E4B     		ldr	r3, .L107
 2092 00d0 101C     		mov	r0, r2
 2093 00d2 191C     		mov	r1, r3
 2094 00d4 FFF7FEFF 		bl	CySysFlashWriteRow
 2095              	.L105:
 898:main.c        ****     }
 899:main.c        ****     
 900:main.c        ****     if (curPos > 80)
 2096              		.loc 1 900 0
 2097 00d8 BB1D     		add	r3, r7, #6
 2098 00da 1B88     		ldrh	r3, [r3]
 2099 00dc 502B     		cmp	r3, #80
 2100 00de 10D9     		bls	.L101
 901:main.c        ****     {
 902:main.c        ****        // UART_UartPutString("in UpdateLedsFan2 :: range > 80\n");
 903:main.c        ****         LED5_Write(1);
 2101              		.loc 1 903 0
 2102 00e0 0120     		mov	r0, #1
 2103 00e2 FFF7FEFF 		bl	LED5_Write
 904:main.c        ****         Triac2_Write(1);
 2104              		.loc 1 904 0
 2105 00e6 0120     		mov	r0, #1
 2106 00e8 FFF7FEFF 		bl	Triac2_Write
 905:main.c        ****         
 906:main.c        ****         cache[1]=curPos;
 2107              		.loc 1 906 0
 2108 00ec BB1D     		add	r3, r7, #6
ARM GAS  C:\Users\poornima\AppData\Local\Temp\ccVfpcDo.s 			page 55


 2109 00ee 1B88     		ldrh	r3, [r3]
 2110 00f0 DAB2     		uxtb	r2, r3
 2111 00f2 054B     		ldr	r3, .L107
 2112 00f4 5A70     		strb	r2, [r3, #1]
 907:main.c        ****         CySysFlashWriteRow(CY_TEST_FLASH_ROW, cache);
 2113              		.loc 1 907 0
 2114 00f6 054A     		ldr	r2, .L107+4
 2115 00f8 034B     		ldr	r3, .L107
 2116 00fa 101C     		mov	r0, r2
 2117 00fc 191C     		mov	r1, r3
 2118 00fe FFF7FEFF 		bl	CySysFlashWriteRow
 2119              	.L101:
 908:main.c        ****     }
 909:main.c        **** }
 2120              		.loc 1 909 0
 2121 0102 BD46     		mov	sp, r7
 2122 0104 02B0     		add	sp, sp, #8
 2123              		@ sp needed
 2124 0106 80BD     		pop	{r7, pc}
 2125              	.L108:
 2126              		.align	2
 2127              	.L107:
 2128 0108 00000000 		.word	cache
 2129 010c FE030000 		.word	1022
 2130              		.cfi_endproc
 2131              	.LFE41:
 2132              		.size	UpdateLedsFan2, .-UpdateLedsFan2
 2133              		.section	.rodata
 2134              		.align	2
 2135              	.LC54:
 2136 0168 696E2057 		.ascii	"in WDT ISR\012\015\000"
 2136      44542049 
 2136      53520A0D 
 2136      00
 2137 0175 000000   		.section	.text.WdtIsrHandler,"ax",%progbits
 2138              		.align	2
 2139              		.global	WdtIsrHandler
 2140              		.code	16
 2141              		.thumb_func
 2142              		.type	WdtIsrHandler, %function
 2143              	WdtIsrHandler:
 2144              	.LFB42:
 910:main.c        **** CY_ISR(WdtIsrHandler)
 911:main.c        **** { 
 2145              		.loc 1 911 0
 2146              		.cfi_startproc
 2147 0000 80B5     		push	{r7, lr}
 2148              		.cfi_def_cfa_offset 8
 2149              		.cfi_offset 7, -8
 2150              		.cfi_offset 14, -4
 2151 0002 00AF     		add	r7, sp, #0
 2152              		.cfi_def_cfa_register 7
 912:main.c        ****     UART_UartPutString("in WDT ISR\n\r");
 2153              		.loc 1 912 0
 2154 0004 054B     		ldr	r3, .L110
 2155 0006 181C     		mov	r0, r3
 2156 0008 FFF7FEFF 		bl	UART_UartPutString
ARM GAS  C:\Users\poornima\AppData\Local\Temp\ccVfpcDo.s 			page 56


 913:main.c        ****     /* Clear interrupts state */
 914:main.c        **** 	CySysWdtClearInterrupt(CY_SYS_WDT_COUNTER0_INT);
 2157              		.loc 1 914 0
 2158 000c 0420     		mov	r0, #4
 2159 000e FFF7FEFF 		bl	CySysWdtClearInterrupt
 915:main.c        ****     WdtIsr_ClearPending();
 2160              		.loc 1 915 0
 2161 0012 FFF7FEFF 		bl	WdtIsr_ClearPending
 916:main.c        **** }
 2162              		.loc 1 916 0
 2163 0016 BD46     		mov	sp, r7
 2164              		@ sp needed
 2165 0018 80BD     		pop	{r7, pc}
 2166              	.L111:
 2167 001a C046     		.align	2
 2168              	.L110:
 2169 001c 68010000 		.word	.LC54
 2170              		.cfi_endproc
 2171              	.LFE42:
 2172              		.size	WdtIsrHandler, .-WdtIsrHandler
 2173              		.text
 2174              	.Letext0:
 2175              		.file 2 "Generated_Source\\PSoC4/cytypes.h"
 2176              		.section	.debug_info,"",%progbits
 2177              	.Ldebug_info0:
 2178 0000 B6030000 		.4byte	0x3b6
 2179 0004 0400     		.2byte	0x4
 2180 0006 00000000 		.4byte	.Ldebug_abbrev0
 2181 000a 04       		.byte	0x4
 2182 000b 01       		.uleb128 0x1
 2183 000c 14010000 		.4byte	.LASF52
 2184 0010 01       		.byte	0x1
 2185 0011 70020000 		.4byte	.LASF53
 2186 0015 B6010000 		.4byte	.LASF54
 2187 0019 00000000 		.4byte	.Ldebug_ranges0+0
 2188 001d 00000000 		.4byte	0
 2189 0021 00000000 		.4byte	.Ldebug_line0
 2190 0025 02       		.uleb128 0x2
 2191 0026 01       		.byte	0x1
 2192 0027 06       		.byte	0x6
 2193 0028 A9020000 		.4byte	.LASF0
 2194 002c 02       		.uleb128 0x2
 2195 002d 01       		.byte	0x1
 2196 002e 08       		.byte	0x8
 2197 002f 6C000000 		.4byte	.LASF1
 2198 0033 02       		.uleb128 0x2
 2199 0034 02       		.byte	0x2
 2200 0035 05       		.byte	0x5
 2201 0036 0A010000 		.4byte	.LASF2
 2202 003a 02       		.uleb128 0x2
 2203 003b 02       		.byte	0x2
 2204 003c 07       		.byte	0x7
 2205 003d A9000000 		.4byte	.LASF3
 2206 0041 02       		.uleb128 0x2
 2207 0042 04       		.byte	0x4
 2208 0043 05       		.byte	0x5
 2209 0044 A0020000 		.4byte	.LASF4
ARM GAS  C:\Users\poornima\AppData\Local\Temp\ccVfpcDo.s 			page 57


 2210 0048 02       		.uleb128 0x2
 2211 0049 04       		.byte	0x4
 2212 004a 07       		.byte	0x7
 2213 004b 97000000 		.4byte	.LASF5
 2214 004f 02       		.uleb128 0x2
 2215 0050 08       		.byte	0x8
 2216 0051 05       		.byte	0x5
 2217 0052 62020000 		.4byte	.LASF6
 2218 0056 02       		.uleb128 0x2
 2219 0057 08       		.byte	0x8
 2220 0058 07       		.byte	0x7
 2221 0059 55000000 		.4byte	.LASF7
 2222 005d 03       		.uleb128 0x3
 2223 005e 04       		.byte	0x4
 2224 005f 05       		.byte	0x5
 2225 0060 696E7400 		.ascii	"int\000"
 2226 0064 02       		.uleb128 0x2
 2227 0065 04       		.byte	0x4
 2228 0066 07       		.byte	0x7
 2229 0067 F3010000 		.4byte	.LASF8
 2230 006b 04       		.uleb128 0x4
 2231 006c 9A020000 		.4byte	.LASF9
 2232 0070 02       		.byte	0x2
 2233 0071 3801     		.2byte	0x138
 2234 0073 2C000000 		.4byte	0x2c
 2235 0077 04       		.uleb128 0x4
 2236 0078 A2010000 		.4byte	.LASF10
 2237 007c 02       		.byte	0x2
 2238 007d 3901     		.2byte	0x139
 2239 007f 3A000000 		.4byte	0x3a
 2240 0083 04       		.uleb128 0x4
 2241 0084 A9010000 		.4byte	.LASF11
 2242 0088 02       		.byte	0x2
 2243 0089 3A01     		.2byte	0x13a
 2244 008b 48000000 		.4byte	0x48
 2245 008f 02       		.uleb128 0x2
 2246 0090 04       		.byte	0x4
 2247 0091 04       		.byte	0x4
 2248 0092 4F000000 		.4byte	.LASF12
 2249 0096 02       		.uleb128 0x2
 2250 0097 08       		.byte	0x8
 2251 0098 04       		.byte	0x4
 2252 0099 DC000000 		.4byte	.LASF13
 2253 009d 02       		.uleb128 0x2
 2254 009e 01       		.byte	0x1
 2255 009f 08       		.byte	0x8
 2256 00a0 77020000 		.4byte	.LASF14
 2257 00a4 02       		.uleb128 0x2
 2258 00a5 04       		.byte	0x4
 2259 00a6 07       		.byte	0x7
 2260 00a7 59020000 		.4byte	.LASF15
 2261 00ab 05       		.uleb128 0x5
 2262 00ac 40020000 		.4byte	.LASF18
 2263 00b0 01       		.byte	0x1
 2264 00b1 51       		.byte	0x51
 2265 00b2 5D000000 		.4byte	0x5d
 2266 00b6 00000000 		.4byte	.LFB36
ARM GAS  C:\Users\poornima\AppData\Local\Temp\ccVfpcDo.s 			page 58


 2267 00ba FC020000 		.4byte	.LFE36-.LFB36
 2268 00be 01       		.uleb128 0x1
 2269 00bf 9C       		.byte	0x9c
 2270 00c0 D1000000 		.4byte	0xd1
 2271 00c4 06       		.uleb128 0x6
 2272 00c5 6900     		.ascii	"i\000"
 2273 00c7 01       		.byte	0x1
 2274 00c8 52       		.byte	0x52
 2275 00c9 6B000000 		.4byte	0x6b
 2276 00cd 02       		.uleb128 0x2
 2277 00ce 91       		.byte	0x91
 2278 00cf 77       		.sleb128 -9
 2279 00d0 00       		.byte	0
 2280 00d1 07       		.uleb128 0x7
 2281 00d2 E3000000 		.4byte	.LASF23
 2282 00d6 01       		.byte	0x1
 2283 00d7 1001     		.2byte	0x110
 2284 00d9 00000000 		.4byte	.LFB37
 2285 00dd 30050000 		.4byte	.LFE37-.LFB37
 2286 00e1 01       		.uleb128 0x1
 2287 00e2 9C       		.byte	0x9c
 2288 00e3 08       		.uleb128 0x8
 2289 00e4 7A000000 		.4byte	.LASF55
 2290 00e8 01       		.byte	0x1
 2291 00e9 4702     		.2byte	0x247
 2292 00eb 6B000000 		.4byte	0x6b
 2293 00ef 00000000 		.4byte	.LFB38
 2294 00f3 62000000 		.4byte	.LFE38-.LFB38
 2295 00f7 01       		.uleb128 0x1
 2296 00f8 9C       		.byte	0x9c
 2297 00f9 2B010000 		.4byte	0x12b
 2298 00fd 09       		.uleb128 0x9
 2299 00fe 636D6400 		.ascii	"cmd\000"
 2300 0102 01       		.byte	0x1
 2301 0103 4702     		.2byte	0x247
 2302 0105 83000000 		.4byte	0x83
 2303 0109 02       		.uleb128 0x2
 2304 010a 91       		.byte	0x91
 2305 010b 6C       		.sleb128 -20
 2306 010c 0A       		.uleb128 0xa
 2307 010d 15000000 		.4byte	.LASF16
 2308 0111 01       		.byte	0x1
 2309 0112 4702     		.2byte	0x247
 2310 0114 83000000 		.4byte	0x83
 2311 0118 02       		.uleb128 0x2
 2312 0119 91       		.byte	0x91
 2313 011a 68       		.sleb128 -24
 2314 011b 0B       		.uleb128 0xb
 2315 011c 41000000 		.4byte	.LASF17
 2316 0120 01       		.byte	0x1
 2317 0121 4A02     		.2byte	0x24a
 2318 0123 6B000000 		.4byte	0x6b
 2319 0127 02       		.uleb128 0x2
 2320 0128 91       		.byte	0x91
 2321 0129 77       		.sleb128 -9
 2322 012a 00       		.byte	0
 2323 012b 0C       		.uleb128 0xc
ARM GAS  C:\Users\poornima\AppData\Local\Temp\ccVfpcDo.s 			page 59


 2324 012c F9000000 		.4byte	.LASF19
 2325 0130 01       		.byte	0x1
 2326 0131 6A02     		.2byte	0x26a
 2327 0133 00000000 		.4byte	.LFB39
 2328 0137 70020000 		.4byte	.LFE39-.LFB39
 2329 013b 01       		.uleb128 0x1
 2330 013c 9C       		.byte	0x9c
 2331 013d 60010000 		.4byte	0x160
 2332 0141 09       		.uleb128 0x9
 2333 0142 72657300 		.ascii	"res\000"
 2334 0146 01       		.byte	0x1
 2335 0147 6A02     		.2byte	0x26a
 2336 0149 77000000 		.4byte	0x77
 2337 014d 02       		.uleb128 0x2
 2338 014e 91       		.byte	0x91
 2339 014f 76       		.sleb128 -10
 2340 0150 0A       		.uleb128 0xa
 2341 0151 BC000000 		.4byte	.LASF20
 2342 0155 01       		.byte	0x1
 2343 0156 6A02     		.2byte	0x26a
 2344 0158 77000000 		.4byte	0x77
 2345 015c 02       		.uleb128 0x2
 2346 015d 91       		.byte	0x91
 2347 015e 74       		.sleb128 -12
 2348 015f 00       		.byte	0
 2349 0160 0C       		.uleb128 0xc
 2350 0161 BD020000 		.4byte	.LASF21
 2351 0165 01       		.byte	0x1
 2352 0166 0703     		.2byte	0x307
 2353 0168 00000000 		.4byte	.LFB40
 2354 016c 1C010000 		.4byte	.LFE40-.LFB40
 2355 0170 01       		.uleb128 0x1
 2356 0171 9C       		.byte	0x9c
 2357 0172 86010000 		.4byte	0x186
 2358 0176 0A       		.uleb128 0xa
 2359 0177 BC000000 		.4byte	.LASF20
 2360 017b 01       		.byte	0x1
 2361 017c 0703     		.2byte	0x307
 2362 017e 77000000 		.4byte	0x77
 2363 0182 02       		.uleb128 0x2
 2364 0183 91       		.byte	0x91
 2365 0184 76       		.sleb128 -10
 2366 0185 00       		.byte	0
 2367 0186 0C       		.uleb128 0xc
 2368 0187 00000000 		.4byte	.LASF22
 2369 018b 01       		.byte	0x1
 2370 018c 5003     		.2byte	0x350
 2371 018e 00000000 		.4byte	.LFB41
 2372 0192 10010000 		.4byte	.LFE41-.LFB41
 2373 0196 01       		.uleb128 0x1
 2374 0197 9C       		.byte	0x9c
 2375 0198 AC010000 		.4byte	0x1ac
 2376 019c 0A       		.uleb128 0xa
 2377 019d BC000000 		.4byte	.LASF20
 2378 01a1 01       		.byte	0x1
 2379 01a2 5003     		.2byte	0x350
 2380 01a4 77000000 		.4byte	0x77
ARM GAS  C:\Users\poornima\AppData\Local\Temp\ccVfpcDo.s 			page 60


 2381 01a8 02       		.uleb128 0x2
 2382 01a9 91       		.byte	0x91
 2383 01aa 76       		.sleb128 -10
 2384 01ab 00       		.byte	0
 2385 01ac 07       		.uleb128 0x7
 2386 01ad 45020000 		.4byte	.LASF24
 2387 01b1 01       		.byte	0x1
 2388 01b2 8E03     		.2byte	0x38e
 2389 01b4 00000000 		.4byte	.LFB42
 2390 01b8 20000000 		.4byte	.LFE42-.LFB42
 2391 01bc 01       		.uleb128 0x1
 2392 01bd 9C       		.byte	0x9c
 2393 01be 0D       		.uleb128 0xd
 2394 01bf 6B000000 		.4byte	0x6b
 2395 01c3 CE010000 		.4byte	0x1ce
 2396 01c7 0E       		.uleb128 0xe
 2397 01c8 A4000000 		.4byte	0xa4
 2398 01cc 7F       		.byte	0x7f
 2399 01cd 00       		.byte	0
 2400 01ce 0F       		.uleb128 0xf
 2401 01cf 0F000000 		.4byte	.LASF25
 2402 01d3 01       		.byte	0x1
 2403 01d4 33       		.byte	0x33
 2404 01d5 BE010000 		.4byte	0x1be
 2405 01d9 05       		.uleb128 0x5
 2406 01da 03       		.byte	0x3
 2407 01db 00000000 		.4byte	cache
 2408 01df 0F       		.uleb128 0xf
 2409 01e0 48000000 		.4byte	.LASF26
 2410 01e4 01       		.byte	0x1
 2411 01e5 34       		.byte	0x34
 2412 01e6 BE010000 		.4byte	0x1be
 2413 01ea 05       		.uleb128 0x5
 2414 01eb 03       		.byte	0x3
 2415 01ec 00000000 		.4byte	update
 2416 01f0 0F       		.uleb128 0xf
 2417 01f1 31000000 		.4byte	.LASF27
 2418 01f5 01       		.byte	0x1
 2419 01f6 35       		.byte	0x35
 2420 01f7 77000000 		.4byte	0x77
 2421 01fb 05       		.uleb128 0x5
 2422 01fc 03       		.byte	0x3
 2423 01fd 00000000 		.4byte	curPos1
 2424 0201 0F       		.uleb128 0xf
 2425 0202 1B000000 		.4byte	.LASF28
 2426 0206 01       		.byte	0x1
 2427 0207 35       		.byte	0x35
 2428 0208 77000000 		.4byte	0x77
 2429 020c 05       		.uleb128 0x5
 2430 020d 03       		.byte	0x3
 2431 020e 00000000 		.4byte	oldCurPos1
 2432 0212 0F       		.uleb128 0xf
 2433 0213 39000000 		.4byte	.LASF29
 2434 0217 01       		.byte	0x1
 2435 0218 35       		.byte	0x35
 2436 0219 77000000 		.4byte	0x77
 2437 021d 05       		.uleb128 0x5
ARM GAS  C:\Users\poornima\AppData\Local\Temp\ccVfpcDo.s 			page 61


 2438 021e 03       		.byte	0x3
 2439 021f 00000000 		.4byte	curPos2
 2440 0223 0F       		.uleb128 0xf
 2441 0224 26000000 		.4byte	.LASF30
 2442 0228 01       		.byte	0x1
 2443 0229 35       		.byte	0x35
 2444 022a 77000000 		.4byte	0x77
 2445 022e 05       		.uleb128 0x5
 2446 022f 03       		.byte	0x3
 2447 0230 00000000 		.4byte	oldCurPos2
 2448 0234 0F       		.uleb128 0xf
 2449 0235 B0010000 		.4byte	.LASF31
 2450 0239 01       		.byte	0x1
 2451 023a 36       		.byte	0x36
 2452 023b 83000000 		.4byte	0x83
 2453 023f 05       		.uleb128 0x5
 2454 0240 03       		.byte	0x3
 2455 0241 00000000 		.4byte	sock1
 2456 0245 0F       		.uleb128 0xf
 2457 0246 C3000000 		.4byte	.LASF32
 2458 024a 01       		.byte	0x1
 2459 024b 36       		.byte	0x36
 2460 024c 83000000 		.4byte	0x83
 2461 0250 05       		.uleb128 0x5
 2462 0251 03       		.byte	0x3
 2463 0252 00000000 		.4byte	but1
 2464 0256 0F       		.uleb128 0xf
 2465 0257 C8000000 		.4byte	.LASF33
 2466 025b 01       		.byte	0x1
 2467 025c 36       		.byte	0x36
 2468 025d 83000000 		.4byte	0x83
 2469 0261 05       		.uleb128 0x5
 2470 0262 03       		.byte	0x3
 2471 0263 00000000 		.4byte	but2
 2472 0267 0F       		.uleb128 0xf
 2473 0268 CD000000 		.4byte	.LASF34
 2474 026c 01       		.byte	0x1
 2475 026d 36       		.byte	0x36
 2476 026e 83000000 		.4byte	0x83
 2477 0272 05       		.uleb128 0x5
 2478 0273 03       		.byte	0x3
 2479 0274 00000000 		.4byte	but3
 2480 0278 0F       		.uleb128 0xf
 2481 0279 D2000000 		.4byte	.LASF35
 2482 027d 01       		.byte	0x1
 2483 027e 36       		.byte	0x36
 2484 027f 83000000 		.4byte	0x83
 2485 0283 05       		.uleb128 0x5
 2486 0284 03       		.byte	0x3
 2487 0285 00000000 		.4byte	but4
 2488 0289 0F       		.uleb128 0xf
 2489 028a D7000000 		.4byte	.LASF36
 2490 028e 01       		.byte	0x1
 2491 028f 36       		.byte	0x36
 2492 0290 83000000 		.4byte	0x83
 2493 0294 05       		.uleb128 0x5
 2494 0295 03       		.byte	0x3
ARM GAS  C:\Users\poornima\AppData\Local\Temp\ccVfpcDo.s 			page 62


 2495 0296 00000000 		.4byte	but5
 2496 029a 0F       		.uleb128 0xf
 2497 029b 28020000 		.4byte	.LASF37
 2498 029f 01       		.byte	0x1
 2499 02a0 36       		.byte	0x36
 2500 02a1 83000000 		.4byte	0x83
 2501 02a5 05       		.uleb128 0x5
 2502 02a6 03       		.byte	0x3
 2503 02a7 00000000 		.4byte	oldSock1
 2504 02ab 0F       		.uleb128 0xf
 2505 02ac 00020000 		.4byte	.LASF38
 2506 02b0 01       		.byte	0x1
 2507 02b1 36       		.byte	0x36
 2508 02b2 83000000 		.4byte	0x83
 2509 02b6 05       		.uleb128 0x5
 2510 02b7 03       		.byte	0x3
 2511 02b8 00000000 		.4byte	oldBut1
 2512 02bc 0F       		.uleb128 0xf
 2513 02bd 08020000 		.4byte	.LASF39
 2514 02c1 01       		.byte	0x1
 2515 02c2 36       		.byte	0x36
 2516 02c3 83000000 		.4byte	0x83
 2517 02c7 05       		.uleb128 0x5
 2518 02c8 03       		.byte	0x3
 2519 02c9 00000000 		.4byte	oldBut2
 2520 02cd 0F       		.uleb128 0xf
 2521 02ce 10020000 		.4byte	.LASF40
 2522 02d2 01       		.byte	0x1
 2523 02d3 36       		.byte	0x36
 2524 02d4 83000000 		.4byte	0x83
 2525 02d8 05       		.uleb128 0x5
 2526 02d9 03       		.byte	0x3
 2527 02da 00000000 		.4byte	oldBut3
 2528 02de 0F       		.uleb128 0xf
 2529 02df 18020000 		.4byte	.LASF41
 2530 02e3 01       		.byte	0x1
 2531 02e4 36       		.byte	0x36
 2532 02e5 83000000 		.4byte	0x83
 2533 02e9 05       		.uleb128 0x5
 2534 02ea 03       		.byte	0x3
 2535 02eb 00000000 		.4byte	oldBut4
 2536 02ef 0F       		.uleb128 0xf
 2537 02f0 20020000 		.4byte	.LASF42
 2538 02f4 01       		.byte	0x1
 2539 02f5 36       		.byte	0x36
 2540 02f6 83000000 		.4byte	0x83
 2541 02fa 05       		.uleb128 0x5
 2542 02fb 03       		.byte	0x3
 2543 02fc 00000000 		.4byte	oldBut5
 2544 0300 0F       		.uleb128 0xf
 2545 0301 7C020000 		.4byte	.LASF43
 2546 0305 01       		.byte	0x1
 2547 0306 37       		.byte	0x37
 2548 0307 6B000000 		.4byte	0x6b
 2549 030b 05       		.uleb128 0x5
 2550 030c 03       		.byte	0x3
 2551 030d 00000000 		.4byte	temp1
ARM GAS  C:\Users\poornima\AppData\Local\Temp\ccVfpcDo.s 			page 63


 2552 0311 0F       		.uleb128 0xf
 2553 0312 53020000 		.4byte	.LASF44
 2554 0316 01       		.byte	0x1
 2555 0317 37       		.byte	0x37
 2556 0318 6B000000 		.4byte	0x6b
 2557 031c 05       		.uleb128 0x5
 2558 031d 03       		.byte	0x3
 2559 031e 00000000 		.4byte	temp2
 2560 0322 0F       		.uleb128 0xf
 2561 0323 82020000 		.4byte	.LASF45
 2562 0327 01       		.byte	0x1
 2563 0328 37       		.byte	0x37
 2564 0329 6B000000 		.4byte	0x6b
 2565 032d 05       		.uleb128 0x5
 2566 032e 03       		.byte	0x3
 2567 032f 00000000 		.4byte	temp3
 2568 0333 0F       		.uleb128 0xf
 2569 0334 88020000 		.4byte	.LASF46
 2570 0338 01       		.byte	0x1
 2571 0339 37       		.byte	0x37
 2572 033a 6B000000 		.4byte	0x6b
 2573 033e 05       		.uleb128 0x5
 2574 033f 03       		.byte	0x3
 2575 0340 00000000 		.4byte	temp4
 2576 0344 0F       		.uleb128 0xf
 2577 0345 8E020000 		.4byte	.LASF47
 2578 0349 01       		.byte	0x1
 2579 034a 37       		.byte	0x37
 2580 034b 6B000000 		.4byte	0x6b
 2581 034f 05       		.uleb128 0x5
 2582 0350 03       		.byte	0x3
 2583 0351 00000000 		.4byte	temp5
 2584 0355 0F       		.uleb128 0xf
 2585 0356 94020000 		.4byte	.LASF48
 2586 035a 01       		.byte	0x1
 2587 035b 37       		.byte	0x37
 2588 035c 6B000000 		.4byte	0x6b
 2589 0360 05       		.uleb128 0x5
 2590 0361 03       		.byte	0x3
 2591 0362 00000000 		.4byte	temp6
 2592 0366 0D       		.uleb128 0xd
 2593 0367 6B000000 		.4byte	0x6b
 2594 036b 76030000 		.4byte	0x376
 2595 036f 0E       		.uleb128 0xe
 2596 0370 A4000000 		.4byte	0xa4
 2597 0374 01       		.byte	0x1
 2598 0375 00       		.byte	0
 2599 0376 0F       		.uleb128 0xf
 2600 0377 89000000 		.4byte	.LASF49
 2601 037b 01       		.byte	0x1
 2602 037c 3B       		.byte	0x3b
 2603 037d 66030000 		.4byte	0x366
 2604 0381 05       		.uleb128 0x5
 2605 0382 03       		.byte	0x3
 2606 0383 00000000 		.4byte	i2cReadBuffer
 2607 0387 0D       		.uleb128 0xd
 2608 0388 6B000000 		.4byte	0x6b
ARM GAS  C:\Users\poornima\AppData\Local\Temp\ccVfpcDo.s 			page 64


 2609 038c 97030000 		.4byte	0x397
 2610 0390 0E       		.uleb128 0xe
 2611 0391 A4000000 		.4byte	0xa4
 2612 0395 03       		.byte	0x3
 2613 0396 00       		.byte	0
 2614 0397 0F       		.uleb128 0xf
 2615 0398 31020000 		.4byte	.LASF50
 2616 039c 01       		.byte	0x1
 2617 039d 3C       		.byte	0x3c
 2618 039e 87030000 		.4byte	0x387
 2619 03a2 05       		.uleb128 0x5
 2620 03a3 03       		.byte	0x3
 2621 03a4 00000000 		.4byte	i2cWriteBuffer
 2622 03a8 0F       		.uleb128 0xf
 2623 03a9 B5020000 		.4byte	.LASF51
 2624 03ad 01       		.byte	0x1
 2625 03ae 3E       		.byte	0x3e
 2626 03af 66030000 		.4byte	0x366
 2627 03b3 05       		.uleb128 0x5
 2628 03b4 03       		.byte	0x3
 2629 03b5 00000000 		.4byte	compare
 2630 03b9 00       		.byte	0
 2631              		.section	.debug_abbrev,"",%progbits
 2632              	.Ldebug_abbrev0:
 2633 0000 01       		.uleb128 0x1
 2634 0001 11       		.uleb128 0x11
 2635 0002 01       		.byte	0x1
 2636 0003 25       		.uleb128 0x25
 2637 0004 0E       		.uleb128 0xe
 2638 0005 13       		.uleb128 0x13
 2639 0006 0B       		.uleb128 0xb
 2640 0007 03       		.uleb128 0x3
 2641 0008 0E       		.uleb128 0xe
 2642 0009 1B       		.uleb128 0x1b
 2643 000a 0E       		.uleb128 0xe
 2644 000b 55       		.uleb128 0x55
 2645 000c 17       		.uleb128 0x17
 2646 000d 11       		.uleb128 0x11
 2647 000e 01       		.uleb128 0x1
 2648 000f 10       		.uleb128 0x10
 2649 0010 17       		.uleb128 0x17
 2650 0011 00       		.byte	0
 2651 0012 00       		.byte	0
 2652 0013 02       		.uleb128 0x2
 2653 0014 24       		.uleb128 0x24
 2654 0015 00       		.byte	0
 2655 0016 0B       		.uleb128 0xb
 2656 0017 0B       		.uleb128 0xb
 2657 0018 3E       		.uleb128 0x3e
 2658 0019 0B       		.uleb128 0xb
 2659 001a 03       		.uleb128 0x3
 2660 001b 0E       		.uleb128 0xe
 2661 001c 00       		.byte	0
 2662 001d 00       		.byte	0
 2663 001e 03       		.uleb128 0x3
 2664 001f 24       		.uleb128 0x24
 2665 0020 00       		.byte	0
ARM GAS  C:\Users\poornima\AppData\Local\Temp\ccVfpcDo.s 			page 65


 2666 0021 0B       		.uleb128 0xb
 2667 0022 0B       		.uleb128 0xb
 2668 0023 3E       		.uleb128 0x3e
 2669 0024 0B       		.uleb128 0xb
 2670 0025 03       		.uleb128 0x3
 2671 0026 08       		.uleb128 0x8
 2672 0027 00       		.byte	0
 2673 0028 00       		.byte	0
 2674 0029 04       		.uleb128 0x4
 2675 002a 16       		.uleb128 0x16
 2676 002b 00       		.byte	0
 2677 002c 03       		.uleb128 0x3
 2678 002d 0E       		.uleb128 0xe
 2679 002e 3A       		.uleb128 0x3a
 2680 002f 0B       		.uleb128 0xb
 2681 0030 3B       		.uleb128 0x3b
 2682 0031 05       		.uleb128 0x5
 2683 0032 49       		.uleb128 0x49
 2684 0033 13       		.uleb128 0x13
 2685 0034 00       		.byte	0
 2686 0035 00       		.byte	0
 2687 0036 05       		.uleb128 0x5
 2688 0037 2E       		.uleb128 0x2e
 2689 0038 01       		.byte	0x1
 2690 0039 3F       		.uleb128 0x3f
 2691 003a 19       		.uleb128 0x19
 2692 003b 03       		.uleb128 0x3
 2693 003c 0E       		.uleb128 0xe
 2694 003d 3A       		.uleb128 0x3a
 2695 003e 0B       		.uleb128 0xb
 2696 003f 3B       		.uleb128 0x3b
 2697 0040 0B       		.uleb128 0xb
 2698 0041 49       		.uleb128 0x49
 2699 0042 13       		.uleb128 0x13
 2700 0043 11       		.uleb128 0x11
 2701 0044 01       		.uleb128 0x1
 2702 0045 12       		.uleb128 0x12
 2703 0046 06       		.uleb128 0x6
 2704 0047 40       		.uleb128 0x40
 2705 0048 18       		.uleb128 0x18
 2706 0049 9642     		.uleb128 0x2116
 2707 004b 19       		.uleb128 0x19
 2708 004c 01       		.uleb128 0x1
 2709 004d 13       		.uleb128 0x13
 2710 004e 00       		.byte	0
 2711 004f 00       		.byte	0
 2712 0050 06       		.uleb128 0x6
 2713 0051 34       		.uleb128 0x34
 2714 0052 00       		.byte	0
 2715 0053 03       		.uleb128 0x3
 2716 0054 08       		.uleb128 0x8
 2717 0055 3A       		.uleb128 0x3a
 2718 0056 0B       		.uleb128 0xb
 2719 0057 3B       		.uleb128 0x3b
 2720 0058 0B       		.uleb128 0xb
 2721 0059 49       		.uleb128 0x49
 2722 005a 13       		.uleb128 0x13
ARM GAS  C:\Users\poornima\AppData\Local\Temp\ccVfpcDo.s 			page 66


 2723 005b 02       		.uleb128 0x2
 2724 005c 18       		.uleb128 0x18
 2725 005d 00       		.byte	0
 2726 005e 00       		.byte	0
 2727 005f 07       		.uleb128 0x7
 2728 0060 2E       		.uleb128 0x2e
 2729 0061 00       		.byte	0
 2730 0062 3F       		.uleb128 0x3f
 2731 0063 19       		.uleb128 0x19
 2732 0064 03       		.uleb128 0x3
 2733 0065 0E       		.uleb128 0xe
 2734 0066 3A       		.uleb128 0x3a
 2735 0067 0B       		.uleb128 0xb
 2736 0068 3B       		.uleb128 0x3b
 2737 0069 05       		.uleb128 0x5
 2738 006a 27       		.uleb128 0x27
 2739 006b 19       		.uleb128 0x19
 2740 006c 11       		.uleb128 0x11
 2741 006d 01       		.uleb128 0x1
 2742 006e 12       		.uleb128 0x12
 2743 006f 06       		.uleb128 0x6
 2744 0070 40       		.uleb128 0x40
 2745 0071 18       		.uleb128 0x18
 2746 0072 9642     		.uleb128 0x2116
 2747 0074 19       		.uleb128 0x19
 2748 0075 00       		.byte	0
 2749 0076 00       		.byte	0
 2750 0077 08       		.uleb128 0x8
 2751 0078 2E       		.uleb128 0x2e
 2752 0079 01       		.byte	0x1
 2753 007a 3F       		.uleb128 0x3f
 2754 007b 19       		.uleb128 0x19
 2755 007c 03       		.uleb128 0x3
 2756 007d 0E       		.uleb128 0xe
 2757 007e 3A       		.uleb128 0x3a
 2758 007f 0B       		.uleb128 0xb
 2759 0080 3B       		.uleb128 0x3b
 2760 0081 05       		.uleb128 0x5
 2761 0082 27       		.uleb128 0x27
 2762 0083 19       		.uleb128 0x19
 2763 0084 49       		.uleb128 0x49
 2764 0085 13       		.uleb128 0x13
 2765 0086 11       		.uleb128 0x11
 2766 0087 01       		.uleb128 0x1
 2767 0088 12       		.uleb128 0x12
 2768 0089 06       		.uleb128 0x6
 2769 008a 40       		.uleb128 0x40
 2770 008b 18       		.uleb128 0x18
 2771 008c 9642     		.uleb128 0x2116
 2772 008e 19       		.uleb128 0x19
 2773 008f 01       		.uleb128 0x1
 2774 0090 13       		.uleb128 0x13
 2775 0091 00       		.byte	0
 2776 0092 00       		.byte	0
 2777 0093 09       		.uleb128 0x9
 2778 0094 05       		.uleb128 0x5
 2779 0095 00       		.byte	0
ARM GAS  C:\Users\poornima\AppData\Local\Temp\ccVfpcDo.s 			page 67


 2780 0096 03       		.uleb128 0x3
 2781 0097 08       		.uleb128 0x8
 2782 0098 3A       		.uleb128 0x3a
 2783 0099 0B       		.uleb128 0xb
 2784 009a 3B       		.uleb128 0x3b
 2785 009b 05       		.uleb128 0x5
 2786 009c 49       		.uleb128 0x49
 2787 009d 13       		.uleb128 0x13
 2788 009e 02       		.uleb128 0x2
 2789 009f 18       		.uleb128 0x18
 2790 00a0 00       		.byte	0
 2791 00a1 00       		.byte	0
 2792 00a2 0A       		.uleb128 0xa
 2793 00a3 05       		.uleb128 0x5
 2794 00a4 00       		.byte	0
 2795 00a5 03       		.uleb128 0x3
 2796 00a6 0E       		.uleb128 0xe
 2797 00a7 3A       		.uleb128 0x3a
 2798 00a8 0B       		.uleb128 0xb
 2799 00a9 3B       		.uleb128 0x3b
 2800 00aa 05       		.uleb128 0x5
 2801 00ab 49       		.uleb128 0x49
 2802 00ac 13       		.uleb128 0x13
 2803 00ad 02       		.uleb128 0x2
 2804 00ae 18       		.uleb128 0x18
 2805 00af 00       		.byte	0
 2806 00b0 00       		.byte	0
 2807 00b1 0B       		.uleb128 0xb
 2808 00b2 34       		.uleb128 0x34
 2809 00b3 00       		.byte	0
 2810 00b4 03       		.uleb128 0x3
 2811 00b5 0E       		.uleb128 0xe
 2812 00b6 3A       		.uleb128 0x3a
 2813 00b7 0B       		.uleb128 0xb
 2814 00b8 3B       		.uleb128 0x3b
 2815 00b9 05       		.uleb128 0x5
 2816 00ba 49       		.uleb128 0x49
 2817 00bb 13       		.uleb128 0x13
 2818 00bc 02       		.uleb128 0x2
 2819 00bd 18       		.uleb128 0x18
 2820 00be 00       		.byte	0
 2821 00bf 00       		.byte	0
 2822 00c0 0C       		.uleb128 0xc
 2823 00c1 2E       		.uleb128 0x2e
 2824 00c2 01       		.byte	0x1
 2825 00c3 3F       		.uleb128 0x3f
 2826 00c4 19       		.uleb128 0x19
 2827 00c5 03       		.uleb128 0x3
 2828 00c6 0E       		.uleb128 0xe
 2829 00c7 3A       		.uleb128 0x3a
 2830 00c8 0B       		.uleb128 0xb
 2831 00c9 3B       		.uleb128 0x3b
 2832 00ca 05       		.uleb128 0x5
 2833 00cb 27       		.uleb128 0x27
 2834 00cc 19       		.uleb128 0x19
 2835 00cd 11       		.uleb128 0x11
 2836 00ce 01       		.uleb128 0x1
ARM GAS  C:\Users\poornima\AppData\Local\Temp\ccVfpcDo.s 			page 68


 2837 00cf 12       		.uleb128 0x12
 2838 00d0 06       		.uleb128 0x6
 2839 00d1 40       		.uleb128 0x40
 2840 00d2 18       		.uleb128 0x18
 2841 00d3 9642     		.uleb128 0x2116
 2842 00d5 19       		.uleb128 0x19
 2843 00d6 01       		.uleb128 0x1
 2844 00d7 13       		.uleb128 0x13
 2845 00d8 00       		.byte	0
 2846 00d9 00       		.byte	0
 2847 00da 0D       		.uleb128 0xd
 2848 00db 01       		.uleb128 0x1
 2849 00dc 01       		.byte	0x1
 2850 00dd 49       		.uleb128 0x49
 2851 00de 13       		.uleb128 0x13
 2852 00df 01       		.uleb128 0x1
 2853 00e0 13       		.uleb128 0x13
 2854 00e1 00       		.byte	0
 2855 00e2 00       		.byte	0
 2856 00e3 0E       		.uleb128 0xe
 2857 00e4 21       		.uleb128 0x21
 2858 00e5 00       		.byte	0
 2859 00e6 49       		.uleb128 0x49
 2860 00e7 13       		.uleb128 0x13
 2861 00e8 2F       		.uleb128 0x2f
 2862 00e9 0B       		.uleb128 0xb
 2863 00ea 00       		.byte	0
 2864 00eb 00       		.byte	0
 2865 00ec 0F       		.uleb128 0xf
 2866 00ed 34       		.uleb128 0x34
 2867 00ee 00       		.byte	0
 2868 00ef 03       		.uleb128 0x3
 2869 00f0 0E       		.uleb128 0xe
 2870 00f1 3A       		.uleb128 0x3a
 2871 00f2 0B       		.uleb128 0xb
 2872 00f3 3B       		.uleb128 0x3b
 2873 00f4 0B       		.uleb128 0xb
 2874 00f5 49       		.uleb128 0x49
 2875 00f6 13       		.uleb128 0x13
 2876 00f7 3F       		.uleb128 0x3f
 2877 00f8 19       		.uleb128 0x19
 2878 00f9 02       		.uleb128 0x2
 2879 00fa 18       		.uleb128 0x18
 2880 00fb 00       		.byte	0
 2881 00fc 00       		.byte	0
 2882 00fd 00       		.byte	0
 2883              		.section	.debug_aranges,"",%progbits
 2884 0000 4C000000 		.4byte	0x4c
 2885 0004 0200     		.2byte	0x2
 2886 0006 00000000 		.4byte	.Ldebug_info0
 2887 000a 04       		.byte	0x4
 2888 000b 00       		.byte	0
 2889 000c 0000     		.2byte	0
 2890 000e 0000     		.2byte	0
 2891 0010 00000000 		.4byte	.LFB36
 2892 0014 FC020000 		.4byte	.LFE36-.LFB36
 2893 0018 00000000 		.4byte	.LFB37
ARM GAS  C:\Users\poornima\AppData\Local\Temp\ccVfpcDo.s 			page 69


 2894 001c 30050000 		.4byte	.LFE37-.LFB37
 2895 0020 00000000 		.4byte	.LFB38
 2896 0024 62000000 		.4byte	.LFE38-.LFB38
 2897 0028 00000000 		.4byte	.LFB39
 2898 002c 70020000 		.4byte	.LFE39-.LFB39
 2899 0030 00000000 		.4byte	.LFB40
 2900 0034 1C010000 		.4byte	.LFE40-.LFB40
 2901 0038 00000000 		.4byte	.LFB41
 2902 003c 10010000 		.4byte	.LFE41-.LFB41
 2903 0040 00000000 		.4byte	.LFB42
 2904 0044 20000000 		.4byte	.LFE42-.LFB42
 2905 0048 00000000 		.4byte	0
 2906 004c 00000000 		.4byte	0
 2907              		.section	.debug_ranges,"",%progbits
 2908              	.Ldebug_ranges0:
 2909 0000 00000000 		.4byte	.LFB36
 2910 0004 FC020000 		.4byte	.LFE36
 2911 0008 00000000 		.4byte	.LFB37
 2912 000c 30050000 		.4byte	.LFE37
 2913 0010 00000000 		.4byte	.LFB38
 2914 0014 62000000 		.4byte	.LFE38
 2915 0018 00000000 		.4byte	.LFB39
 2916 001c 70020000 		.4byte	.LFE39
 2917 0020 00000000 		.4byte	.LFB40
 2918 0024 1C010000 		.4byte	.LFE40
 2919 0028 00000000 		.4byte	.LFB41
 2920 002c 10010000 		.4byte	.LFE41
 2921 0030 00000000 		.4byte	.LFB42
 2922 0034 20000000 		.4byte	.LFE42
 2923 0038 00000000 		.4byte	0
 2924 003c 00000000 		.4byte	0
 2925              		.section	.debug_line,"",%progbits
 2926              	.Ldebug_line0:
 2927 0000 B4020000 		.section	.debug_str,"MS",%progbits,1
 2927      02004100 
 2927      00000201 
 2927      FB0E0D00 
 2927      01010101 
 2928              	.LASF22:
 2929 0000 55706461 		.ascii	"UpdateLedsFan2\000"
 2929      74654C65 
 2929      64734661 
 2929      6E3200
 2930              	.LASF25:
 2931 000f 63616368 		.ascii	"cache\000"
 2931      6500
 2932              	.LASF16:
 2933 0015 76616C75 		.ascii	"value\000"
 2933      6500
 2934              	.LASF28:
 2935 001b 6F6C6443 		.ascii	"oldCurPos1\000"
 2935      7572506F 
 2935      733100
 2936              	.LASF30:
 2937 0026 6F6C6443 		.ascii	"oldCurPos2\000"
 2937      7572506F 
 2937      733200
ARM GAS  C:\Users\poornima\AppData\Local\Temp\ccVfpcDo.s 			page 70


 2938              	.LASF27:
 2939 0031 63757250 		.ascii	"curPos1\000"
 2939      6F733100 
 2940              	.LASF29:
 2941 0039 63757250 		.ascii	"curPos2\000"
 2941      6F733200 
 2942              	.LASF17:
 2943 0041 73746174 		.ascii	"status\000"
 2943      757300
 2944              	.LASF26:
 2945 0048 75706461 		.ascii	"update\000"
 2945      746500
 2946              	.LASF12:
 2947 004f 666C6F61 		.ascii	"float\000"
 2947      7400
 2948              	.LASF7:
 2949 0055 6C6F6E67 		.ascii	"long long unsigned int\000"
 2949      206C6F6E 
 2949      6720756E 
 2949      7369676E 
 2949      65642069 
 2950              	.LASF1:
 2951 006c 756E7369 		.ascii	"unsigned char\000"
 2951      676E6564 
 2951      20636861 
 2951      7200
 2952              	.LASF55:
 2953 007a 45786563 		.ascii	"ExecuteCommand\000"
 2953      75746543 
 2953      6F6D6D61 
 2953      6E6400
 2954              	.LASF49:
 2955 0089 69326352 		.ascii	"i2cReadBuffer\000"
 2955      65616442 
 2955      75666665 
 2955      7200
 2956              	.LASF5:
 2957 0097 6C6F6E67 		.ascii	"long unsigned int\000"
 2957      20756E73 
 2957      69676E65 
 2957      6420696E 
 2957      7400
 2958              	.LASF3:
 2959 00a9 73686F72 		.ascii	"short unsigned int\000"
 2959      7420756E 
 2959      7369676E 
 2959      65642069 
 2959      6E7400
 2960              	.LASF20:
 2961 00bc 63757250 		.ascii	"curPos\000"
 2961      6F7300
 2962              	.LASF32:
 2963 00c3 62757431 		.ascii	"but1\000"
 2963      00
 2964              	.LASF33:
 2965 00c8 62757432 		.ascii	"but2\000"
 2965      00
ARM GAS  C:\Users\poornima\AppData\Local\Temp\ccVfpcDo.s 			page 71


 2966              	.LASF34:
 2967 00cd 62757433 		.ascii	"but3\000"
 2967      00
 2968              	.LASF35:
 2969 00d2 62757434 		.ascii	"but4\000"
 2969      00
 2970              	.LASF36:
 2971 00d7 62757435 		.ascii	"but5\000"
 2971      00
 2972              	.LASF13:
 2973 00dc 646F7562 		.ascii	"double\000"
 2973      6C6500
 2974              	.LASF23:
 2975 00e3 43617053 		.ascii	"CapSense_DisplayState\000"
 2975      656E7365 
 2975      5F446973 
 2975      706C6179 
 2975      53746174 
 2976              	.LASF19:
 2977 00f9 55706461 		.ascii	"UpdateSwitchLeds\000"
 2977      74655377 
 2977      69746368 
 2977      4C656473 
 2977      00
 2978              	.LASF2:
 2979 010a 73686F72 		.ascii	"short int\000"
 2979      7420696E 
 2979      7400
 2980              	.LASF52:
 2981 0114 474E5520 		.ascii	"GNU C 4.9.3 20150303 (release) [ARM/embedded-4_9-br"
 2981      4320342E 
 2981      392E3320 
 2981      32303135 
 2981      30333033 
 2982 0147 616E6368 		.ascii	"anch revision 221220] -mcpu=cortex-m0 -mthumb -g -O"
 2982      20726576 
 2982      6973696F 
 2982      6E203232 
 2982      31323230 
 2983 017a 30202D66 		.ascii	"0 -ffunction-sections -ffat-lto-objects\000"
 2983      66756E63 
 2983      74696F6E 
 2983      2D736563 
 2983      74696F6E 
 2984              	.LASF10:
 2985 01a2 75696E74 		.ascii	"uint16\000"
 2985      313600
 2986              	.LASF11:
 2987 01a9 75696E74 		.ascii	"uint32\000"
 2987      333200
 2988              	.LASF31:
 2989 01b0 736F636B 		.ascii	"sock1\000"
 2989      3100
 2990              	.LASF54:
 2991 01b6 433A5C55 		.ascii	"C:\\Users\\poornima\\Documents\\GitHub\\thingTouch\\"
 2991      73657273 
 2991      5C706F6F 
ARM GAS  C:\Users\poornima\AppData\Local\Temp\ccVfpcDo.s 			page 72


 2991      726E696D 
 2991      615C446F 
 2992 01e4 32463553 		.ascii	"2F5S1SOC.cydsn\000"
 2992      31534F43 
 2992      2E637964 
 2992      736E00
 2993              	.LASF8:
 2994 01f3 756E7369 		.ascii	"unsigned int\000"
 2994      676E6564 
 2994      20696E74 
 2994      00
 2995              	.LASF38:
 2996 0200 6F6C6442 		.ascii	"oldBut1\000"
 2996      75743100 
 2997              	.LASF39:
 2998 0208 6F6C6442 		.ascii	"oldBut2\000"
 2998      75743200 
 2999              	.LASF40:
 3000 0210 6F6C6442 		.ascii	"oldBut3\000"
 3000      75743300 
 3001              	.LASF41:
 3002 0218 6F6C6442 		.ascii	"oldBut4\000"
 3002      75743400 
 3003              	.LASF42:
 3004 0220 6F6C6442 		.ascii	"oldBut5\000"
 3004      75743500 
 3005              	.LASF37:
 3006 0228 6F6C6453 		.ascii	"oldSock1\000"
 3006      6F636B31 
 3006      00
 3007              	.LASF50:
 3008 0231 69326357 		.ascii	"i2cWriteBuffer\000"
 3008      72697465 
 3008      42756666 
 3008      657200
 3009              	.LASF18:
 3010 0240 6D61696E 		.ascii	"main\000"
 3010      00
 3011              	.LASF24:
 3012 0245 57647449 		.ascii	"WdtIsrHandler\000"
 3012      73724861 
 3012      6E646C65 
 3012      7200
 3013              	.LASF44:
 3014 0253 74656D70 		.ascii	"temp2\000"
 3014      3200
 3015              	.LASF15:
 3016 0259 73697A65 		.ascii	"sizetype\000"
 3016      74797065 
 3016      00
 3017              	.LASF6:
 3018 0262 6C6F6E67 		.ascii	"long long int\000"
 3018      206C6F6E 
 3018      6720696E 
 3018      7400
 3019              	.LASF53:
 3020 0270 6D61696E 		.ascii	"main.c\000"
ARM GAS  C:\Users\poornima\AppData\Local\Temp\ccVfpcDo.s 			page 73


 3020      2E6300
 3021              	.LASF14:
 3022 0277 63686172 		.ascii	"char\000"
 3022      00
 3023              	.LASF43:
 3024 027c 74656D70 		.ascii	"temp1\000"
 3024      3100
 3025              	.LASF45:
 3026 0282 74656D70 		.ascii	"temp3\000"
 3026      3300
 3027              	.LASF46:
 3028 0288 74656D70 		.ascii	"temp4\000"
 3028      3400
 3029              	.LASF47:
 3030 028e 74656D70 		.ascii	"temp5\000"
 3030      3500
 3031              	.LASF48:
 3032 0294 74656D70 		.ascii	"temp6\000"
 3032      3600
 3033              	.LASF9:
 3034 029a 75696E74 		.ascii	"uint8\000"
 3034      3800
 3035              	.LASF4:
 3036 02a0 6C6F6E67 		.ascii	"long int\000"
 3036      20696E74 
 3036      00
 3037              	.LASF0:
 3038 02a9 7369676E 		.ascii	"signed char\000"
 3038      65642063 
 3038      68617200 
 3039              	.LASF51:
 3040 02b5 636F6D70 		.ascii	"compare\000"
 3040      61726500 
 3041              	.LASF21:
 3042 02bd 55706461 		.ascii	"UpdateLedsFan1\000"
 3042      74654C65 
 3042      64734661 
 3042      6E3100
 3043              		.ident	"GCC: (GNU Tools for ARM Embedded Processors) 4.9.3 20150303 (release) [ARM/embedded-4_9-br
