ARM GAS  C:\Users\lovelesh\AppData\Local\Temp\ccqnhcik.s 			page 1


   1              		.cpu cortex-m0
   2              		.fpu softvfp
   3              		.eabi_attribute 20, 1
   4              		.eabi_attribute 21, 1
   5              		.eabi_attribute 23, 3
   6              		.eabi_attribute 24, 1
   7              		.eabi_attribute 25, 1
   8              		.eabi_attribute 26, 1
   9              		.eabi_attribute 30, 6
  10              		.eabi_attribute 34, 0
  11              		.eabi_attribute 18, 4
  12              		.code	16
  13              		.file	"CapSense_CSD_SMS.c"
  14              		.text
  15              	.Ltext0:
  16              		.cfi_sections	.debug_frame
  17              		.global	CapSense_CSD_prescalerTable
  18              		.section	.rodata
  19              		.align	2
  20              		.type	CapSense_CSD_prescalerTable, %object
  21              		.size	CapSense_CSD_prescalerTable, 16
  22              	CapSense_CSD_prescalerTable:
  23 0000 01       		.byte	1
  24 0001 01       		.byte	1
  25 0002 01       		.byte	1
  26 0003 02       		.byte	2
  27 0004 02       		.byte	2
  28 0005 02       		.byte	2
  29 0006 02       		.byte	2
  30 0007 04       		.byte	4
  31 0008 04       		.byte	4
  32 0009 04       		.byte	4
  33 000a 04       		.byte	4
  34 000b 04       		.byte	4
  35 000c 04       		.byte	4
  36 000d 04       		.byte	4
  37 000e 04       		.byte	4
  38 000f 04       		.byte	4
  39              		.comm	CapSense_CSD_noiseEnvelopeTbl,5,4
  40              		.comm	CapSense_CSD_runningDifferenceTbl,5,4
  41              		.comm	CapSense_CSD_signRegisterTbl,5,4
  42              		.comm	CapSense_CSD_sampleMinTbl,10,4
  43              		.comm	CapSense_CSD_sampleMaxTbl,10,4
  44              		.comm	CapSense_CSD_previousSampleTbl,10,4
  45              		.comm	CapSense_CSD_kValueTbl,5,4
  46              		.global	CapSense_CSD_sensorSensitivity
  47              		.data
  48              		.align	2
  49              		.type	CapSense_CSD_sensorSensitivity, %object
  50              		.size	CapSense_CSD_sensorSensitivity, 5
  51              	CapSense_CSD_sensorSensitivity:
  52 0000 04       		.byte	4
  53 0001 04       		.byte	4
  54 0002 04       		.byte	4
  55 0003 04       		.byte	4
  56 0004 04       		.byte	4
  57              		.comm	CapSense_CSD_config,12,4
ARM GAS  C:\Users\lovelesh\AppData\Local\Temp\ccqnhcik.s 			page 2


  58              		.global	CapSense_CSD_configPointers
  59 0005 000000   		.section	.rodata
  60              		.align	2
  61              		.type	CapSense_CSD_configPointers, %object
  62              		.size	CapSense_CSD_configPointers, 92
  63              	CapSense_CSD_configPointers:
  64 0010 00000000 		.word	CapSense_CSD_modulationIDAC
  65 0014 00000000 		.word	CapSense_CSD_compensationIDAC
  66 0018 00000000 		.word	CapSense_CSD_sensorSensitivity
  67 001c 00000000 		.word	CapSense_CSD_senseClkDividerVal
  68 0020 00000000 		.word	CapSense_CSD_sampleClkDividerVal
  69 0024 00000000 		.word	CapSense_CSD_widgetNumber
  70 0028 00000000 		.word	CapSense_CSD_widgetResolution
  71 002c 00000000 		.word	CapSense_CSD_noiseEnvelopeTbl
  72 0030 00000000 		.word	CapSense_CSD_runningDifferenceTbl
  73 0034 00000000 		.word	CapSense_CSD_signRegisterTbl
  74 0038 00000000 		.word	CapSense_CSD_sampleMinTbl
  75 003c 00000000 		.word	CapSense_CSD_sampleMaxTbl
  76 0040 00000000 		.word	CapSense_CSD_previousSampleTbl
  77 0044 00000000 		.word	CapSense_CSD_kValueTbl
  78 0048 00000000 		.word	CapSense_CSD_scanSpeedTbl
  79 004c 00000000 		.word	CapSense_CSD_prescalerTable
  80 0050 00000000 		.word	CapSense_CSD_rawDataIndex
  81 0054 00000000 		.word	CapSense_CSD_numberOfSensors
  82 0058 00000000 		.word	CapSense_CSD_GetSensorRaw
  83 005c 00000000 		.word	CapSense_CSD_PreScan
  84 0060 00000000 		.word	CapSense_CSD_ReadSensorRaw
  85 0064 00000000 		.word	CapSense_CSD_GetBitValue
  86 0068 00000000 		.word	CapSense_CSD_SetBitValue
  87              		.section	.text.CapSense_CSD_AutoTune,"ax",%progbits
  88              		.align	2
  89              		.global	CapSense_CSD_AutoTune
  90              		.code	16
  91              		.thumb_func
  92              		.type	CapSense_CSD_AutoTune, %function
  93              	CapSense_CSD_AutoTune:
  94              	.LFB34:
  95              		.file 1 ".\\Generated_Source\\PSoC4\\CapSense_CSD_SMS.c"
   1:.\Generated_Source\PSoC4/CapSense_CSD_SMS.c **** /*******************************************************************************
   2:.\Generated_Source\PSoC4/CapSense_CSD_SMS.c **** * File Name: CapSense_CSD_SMS.c
   3:.\Generated_Source\PSoC4/CapSense_CSD_SMS.c **** * Version 2.40
   4:.\Generated_Source\PSoC4/CapSense_CSD_SMS.c **** *
   5:.\Generated_Source\PSoC4/CapSense_CSD_SMS.c **** * Description:
   6:.\Generated_Source\PSoC4/CapSense_CSD_SMS.c **** *  This file provides the source code of wrapper between CapSense CSD component
   7:.\Generated_Source\PSoC4/CapSense_CSD_SMS.c **** *  and Auto Tuning library.
   8:.\Generated_Source\PSoC4/CapSense_CSD_SMS.c **** *
   9:.\Generated_Source\PSoC4/CapSense_CSD_SMS.c **** * Note:
  10:.\Generated_Source\PSoC4/CapSense_CSD_SMS.c **** *
  11:.\Generated_Source\PSoC4/CapSense_CSD_SMS.c **** ********************************************************************************
  12:.\Generated_Source\PSoC4/CapSense_CSD_SMS.c **** * Copyright 2013-2015, Cypress Semiconductor Corporation.  All rights reserved.
  13:.\Generated_Source\PSoC4/CapSense_CSD_SMS.c **** * You may use this file only in accordance with the license, terms, conditions,
  14:.\Generated_Source\PSoC4/CapSense_CSD_SMS.c **** * disclaimers, and limitations in the end user license agreement accompanying
  15:.\Generated_Source\PSoC4/CapSense_CSD_SMS.c **** * the software package with which this file was provided.
  16:.\Generated_Source\PSoC4/CapSense_CSD_SMS.c **** *******************************************************************************/
  17:.\Generated_Source\PSoC4/CapSense_CSD_SMS.c **** 
  18:.\Generated_Source\PSoC4/CapSense_CSD_SMS.c **** #include "CapSense_CSD_SMS.h"
  19:.\Generated_Source\PSoC4/CapSense_CSD_SMS.c **** #include "CapSense_CSD_PVT.h"
ARM GAS  C:\Users\lovelesh\AppData\Local\Temp\ccqnhcik.s 			page 3


  20:.\Generated_Source\PSoC4/CapSense_CSD_SMS.c **** 
  21:.\Generated_Source\PSoC4/CapSense_CSD_SMS.c **** #include "cytypes.h"
  22:.\Generated_Source\PSoC4/CapSense_CSD_SMS.c **** 
  23:.\Generated_Source\PSoC4/CapSense_CSD_SMS.c **** #if (CapSense_CSD_TUNING_METHOD == CapSense_CSD__TUNING_AUTO)
  24:.\Generated_Source\PSoC4/CapSense_CSD_SMS.c **** 
  25:.\Generated_Source\PSoC4/CapSense_CSD_SMS.c **** 
  26:.\Generated_Source\PSoC4/CapSense_CSD_SMS.c **** /*  Real Charge Divider values */
  27:.\Generated_Source\PSoC4/CapSense_CSD_SMS.c **** #if ((0u != CapSense_CSD_IS_M0S8PERI_BLOCK) && (0u == CY_PSOC4_4000))
  28:.\Generated_Source\PSoC4/CapSense_CSD_SMS.c ****     /*  Dividers are not chained */
  29:.\Generated_Source\PSoC4/CapSense_CSD_SMS.c ****     #if (CYDEV_BCLK__HFCLK__MHZ > 24u)
  30:.\Generated_Source\PSoC4/CapSense_CSD_SMS.c ****         const uint8 CapSense_CSD_prescalerTable[CapSense_CSD_PRESCALERS_TBL_SIZE] = {
  31:.\Generated_Source\PSoC4/CapSense_CSD_SMS.c ****             4u,     4u,     4u,    8u,    8u,    8u,    8u,    16u,    16u,    16u,    16u,    16u,
  32:.\Generated_Source\PSoC4/CapSense_CSD_SMS.c ****         };
  33:.\Generated_Source\PSoC4/CapSense_CSD_SMS.c ****     #elif (CYDEV_BCLK__HFCLK__MHZ >12u)
  34:.\Generated_Source\PSoC4/CapSense_CSD_SMS.c ****         const uint8 CapSense_CSD_prescalerTable[CapSense_CSD_PRESCALERS_TBL_SIZE] = {
  35:.\Generated_Source\PSoC4/CapSense_CSD_SMS.c ****             2u,     2u,     2u,    4u,    4u,    4u,    4u,    8u,    8u,    8u,    8u,    8u,    8
  36:.\Generated_Source\PSoC4/CapSense_CSD_SMS.c ****         };
  37:.\Generated_Source\PSoC4/CapSense_CSD_SMS.c ****     #else   /* (CYDEV_BCLK__HFCLK__MHZ > 12u) */
  38:.\Generated_Source\PSoC4/CapSense_CSD_SMS.c ****         const uint8 CapSense_CSD_prescalerTable[CapSense_CSD_PRESCALERS_TBL_SIZE] = {
  39:.\Generated_Source\PSoC4/CapSense_CSD_SMS.c ****             1u,     1u,     1u,    2u,    2u,    2u,    2u,    4u,    4u,    4u,    4u,    4u,    4
  40:.\Generated_Source\PSoC4/CapSense_CSD_SMS.c ****         };
  41:.\Generated_Source\PSoC4/CapSense_CSD_SMS.c ****     #endif /* (CYDEV_BCLK__HFCLK__MHZ > 24u) */
  42:.\Generated_Source\PSoC4/CapSense_CSD_SMS.c **** 
  43:.\Generated_Source\PSoC4/CapSense_CSD_SMS.c **** #elif (0u != CapSense_CSD_IS_M0S8PERI_BLOCK)
  44:.\Generated_Source\PSoC4/CapSense_CSD_SMS.c ****     /*  Dividers are not chained (PSoC 4000) */
  45:.\Generated_Source\PSoC4/CapSense_CSD_SMS.c ****     #if (CYDEV_BCLK__HFCLK__MHZ >= 12u)
  46:.\Generated_Source\PSoC4/CapSense_CSD_SMS.c ****         const uint8 CapSense_CSD_prescalerTable[CapSense_CSD_PRESCALERS_TBL_SIZE] = {
  47:.\Generated_Source\PSoC4/CapSense_CSD_SMS.c ****             1u,     1u,     1u,    2u,    2u,    2u,    2u,    4u,    4u,    4u,    4u,    4u,    4
  48:.\Generated_Source\PSoC4/CapSense_CSD_SMS.c ****         };
  49:.\Generated_Source\PSoC4/CapSense_CSD_SMS.c **** 
  50:.\Generated_Source\PSoC4/CapSense_CSD_SMS.c ****     #elif (CYDEV_BCLK__HFCLK__MHZ >= 6u)
  51:.\Generated_Source\PSoC4/CapSense_CSD_SMS.c ****         const uint8 CapSense_CSD_prescalerTable[CapSense_CSD_PRESCALERS_TBL_SIZE] = {
  52:.\Generated_Source\PSoC4/CapSense_CSD_SMS.c ****             1u,     1u,     1u,    1u,    1u,    1u,    1u,    2u,    2u,    2u,    2u,    2u,    2
  53:.\Generated_Source\PSoC4/CapSense_CSD_SMS.c ****         };
  54:.\Generated_Source\PSoC4/CapSense_CSD_SMS.c ****     #else
  55:.\Generated_Source\PSoC4/CapSense_CSD_SMS.c ****         const uint8 CapSense_CSD_prescalerTable[CapSense_CSD_PRESCALERS_TBL_SIZE] = {
  56:.\Generated_Source\PSoC4/CapSense_CSD_SMS.c ****             1u,     1u,     1u,    1u,    1u,    1u,    1u,    1u,    1u,    1u,    1u,    1u,    1
  57:.\Generated_Source\PSoC4/CapSense_CSD_SMS.c ****         };
  58:.\Generated_Source\PSoC4/CapSense_CSD_SMS.c ****     #endif /* (CYDEV_BCLK__HFCLK__MHZ > 12u) */
  59:.\Generated_Source\PSoC4/CapSense_CSD_SMS.c **** 
  60:.\Generated_Source\PSoC4/CapSense_CSD_SMS.c **** #else
  61:.\Generated_Source\PSoC4/CapSense_CSD_SMS.c ****     /*  Dividers are chained (PSoC 4100, PSoC 4200) */
  62:.\Generated_Source\PSoC4/CapSense_CSD_SMS.c ****     #if (CYDEV_BCLK__HFCLK__MHZ > 24u)
  63:.\Generated_Source\PSoC4/CapSense_CSD_SMS.c ****         const uint8 CapSense_CSD_prescalerTable[CapSense_CSD_PRESCALERS_TBL_SIZE] = {
  64:.\Generated_Source\PSoC4/CapSense_CSD_SMS.c ****             2u,     2u,     2u,    4u,    4u,    4u,    4u,    8u,    8u,    8u,    8u,    8u,    8
  65:.\Generated_Source\PSoC4/CapSense_CSD_SMS.c ****         };
  66:.\Generated_Source\PSoC4/CapSense_CSD_SMS.c **** 
  67:.\Generated_Source\PSoC4/CapSense_CSD_SMS.c ****     #elif (CYDEV_BCLK__HFCLK__MHZ >12u)
  68:.\Generated_Source\PSoC4/CapSense_CSD_SMS.c ****         const uint8 CapSense_CSD_prescalerTable[CapSense_CSD_PRESCALERS_TBL_SIZE] = {
  69:.\Generated_Source\PSoC4/CapSense_CSD_SMS.c ****             1u,     1u,     1u,    2u,    2u,    2u,    2u,    4u,    4u,    4u,    4u,    4u,    4
  70:.\Generated_Source\PSoC4/CapSense_CSD_SMS.c ****         };
  71:.\Generated_Source\PSoC4/CapSense_CSD_SMS.c ****     #else   /* (CYDEV_BCLK__HFCLK__MHZ > 12u) */
  72:.\Generated_Source\PSoC4/CapSense_CSD_SMS.c ****         const uint8 CapSense_CSD_prescalerTable[CapSense_CSD_PRESCALERS_TBL_SIZE] = {
  73:.\Generated_Source\PSoC4/CapSense_CSD_SMS.c ****             1u,     1u,     1u,    1u,    1u,    1u,    1u,    2u,    2u,    2u,    2u,    2u,    2
  74:.\Generated_Source\PSoC4/CapSense_CSD_SMS.c ****         };
  75:.\Generated_Source\PSoC4/CapSense_CSD_SMS.c ****     #endif /* (CYDEV_BCLK__HFCLK__MHZ > 24u) */
  76:.\Generated_Source\PSoC4/CapSense_CSD_SMS.c **** #endif /* ((0u != CapSense_CSD_IS_M0S8PERI_BLOCK) && (0u == CY_PSOC4_4000)) */
ARM GAS  C:\Users\lovelesh\AppData\Local\Temp\ccqnhcik.s 			page 4


  77:.\Generated_Source\PSoC4/CapSense_CSD_SMS.c **** 
  78:.\Generated_Source\PSoC4/CapSense_CSD_SMS.c **** 
  79:.\Generated_Source\PSoC4/CapSense_CSD_SMS.c **** uint8 CapSense_CSD_noiseEnvelopeTbl[CapSense_CSD_TOTAL_SENSOR_COUNT];
  80:.\Generated_Source\PSoC4/CapSense_CSD_SMS.c **** uint8 CapSense_CSD_runningDifferenceTbl[CapSense_CSD_TOTAL_SENSOR_COUNT];
  81:.\Generated_Source\PSoC4/CapSense_CSD_SMS.c **** uint8 CapSense_CSD_signRegisterTbl[CapSense_CSD_TOTAL_SENSOR_COUNT];
  82:.\Generated_Source\PSoC4/CapSense_CSD_SMS.c **** uint16 CapSense_CSD_sampleMinTbl[CapSense_CSD_TOTAL_SENSOR_COUNT];
  83:.\Generated_Source\PSoC4/CapSense_CSD_SMS.c **** uint16 CapSense_CSD_sampleMaxTbl[CapSense_CSD_TOTAL_SENSOR_COUNT];
  84:.\Generated_Source\PSoC4/CapSense_CSD_SMS.c **** uint16 CapSense_CSD_previousSampleTbl[CapSense_CSD_TOTAL_SENSOR_COUNT];
  85:.\Generated_Source\PSoC4/CapSense_CSD_SMS.c **** uint8 CapSense_CSD_kValueTbl[CapSense_CSD_TOTAL_SENSOR_COUNT];
  86:.\Generated_Source\PSoC4/CapSense_CSD_SMS.c **** 
  87:.\Generated_Source\PSoC4/CapSense_CSD_SMS.c **** uint8 CapSense_CSD_sensorSensitivity[] = {
  88:.\Generated_Source\PSoC4/CapSense_CSD_SMS.c ****     4u, 4u, 4u, 4u, 4u, 
  89:.\Generated_Source\PSoC4/CapSense_CSD_SMS.c **** };
  90:.\Generated_Source\PSoC4/CapSense_CSD_SMS.c **** 
  91:.\Generated_Source\PSoC4/CapSense_CSD_SMS.c **** CapSense_CSD_CONFIG_TYPE_P4_v2_40 CapSense_CSD_config;
  92:.\Generated_Source\PSoC4/CapSense_CSD_SMS.c **** CapSense_CSD_CONFIG_TYPE_POINTERS_P4_v2_40 const CapSense_CSD_configPointers = {
  93:.\Generated_Source\PSoC4/CapSense_CSD_SMS.c ****     CapSense_CSD_modulationIDAC,
  94:.\Generated_Source\PSoC4/CapSense_CSD_SMS.c ****     CapSense_CSD_compensationIDAC,
  95:.\Generated_Source\PSoC4/CapSense_CSD_SMS.c ****     CapSense_CSD_sensorSensitivity,
  96:.\Generated_Source\PSoC4/CapSense_CSD_SMS.c ****     CapSense_CSD_senseClkDividerVal,
  97:.\Generated_Source\PSoC4/CapSense_CSD_SMS.c ****     CapSense_CSD_sampleClkDividerVal,
  98:.\Generated_Source\PSoC4/CapSense_CSD_SMS.c ****     CapSense_CSD_widgetNumber,
  99:.\Generated_Source\PSoC4/CapSense_CSD_SMS.c ****     CapSense_CSD_widgetResolution,
 100:.\Generated_Source\PSoC4/CapSense_CSD_SMS.c ****     CapSense_CSD_noiseEnvelopeTbl,
 101:.\Generated_Source\PSoC4/CapSense_CSD_SMS.c ****     CapSense_CSD_runningDifferenceTbl,
 102:.\Generated_Source\PSoC4/CapSense_CSD_SMS.c ****     CapSense_CSD_signRegisterTbl,
 103:.\Generated_Source\PSoC4/CapSense_CSD_SMS.c ****     CapSense_CSD_sampleMinTbl,
 104:.\Generated_Source\PSoC4/CapSense_CSD_SMS.c ****     CapSense_CSD_sampleMaxTbl,
 105:.\Generated_Source\PSoC4/CapSense_CSD_SMS.c ****     CapSense_CSD_previousSampleTbl,
 106:.\Generated_Source\PSoC4/CapSense_CSD_SMS.c ****     CapSense_CSD_kValueTbl,
 107:.\Generated_Source\PSoC4/CapSense_CSD_SMS.c ****     CapSense_CSD_scanSpeedTbl,
 108:.\Generated_Source\PSoC4/CapSense_CSD_SMS.c ****     CapSense_CSD_prescalerTable,
 109:.\Generated_Source\PSoC4/CapSense_CSD_SMS.c ****     (const uint8  *)CapSense_CSD_rawDataIndex,
 110:.\Generated_Source\PSoC4/CapSense_CSD_SMS.c ****     (const uint8  *)CapSense_CSD_numberOfSensors,
 111:.\Generated_Source\PSoC4/CapSense_CSD_SMS.c ****     &CapSense_CSD_GetSensorRaw,
 112:.\Generated_Source\PSoC4/CapSense_CSD_SMS.c ****     &CapSense_CSD_PreScan,
 113:.\Generated_Source\PSoC4/CapSense_CSD_SMS.c ****     &CapSense_CSD_ReadSensorRaw,
 114:.\Generated_Source\PSoC4/CapSense_CSD_SMS.c ****     &CapSense_CSD_GetBitValue,
 115:.\Generated_Source\PSoC4/CapSense_CSD_SMS.c ****     &CapSense_CSD_SetBitValue
 116:.\Generated_Source\PSoC4/CapSense_CSD_SMS.c **** };
 117:.\Generated_Source\PSoC4/CapSense_CSD_SMS.c **** 
 118:.\Generated_Source\PSoC4/CapSense_CSD_SMS.c **** 
 119:.\Generated_Source\PSoC4/CapSense_CSD_SMS.c **** /*******************************************************************************
 120:.\Generated_Source\PSoC4/CapSense_CSD_SMS.c **** * Function Name: CapSense_CSD_AutoTune
 121:.\Generated_Source\PSoC4/CapSense_CSD_SMS.c **** ********************************************************************************
 122:.\Generated_Source\PSoC4/CapSense_CSD_SMS.c **** *
 123:.\Generated_Source\PSoC4/CapSense_CSD_SMS.c **** * Summary:
 124:.\Generated_Source\PSoC4/CapSense_CSD_SMS.c **** *  Provides the tuning procedure for all sensors.
 125:.\Generated_Source\PSoC4/CapSense_CSD_SMS.c **** *
 126:.\Generated_Source\PSoC4/CapSense_CSD_SMS.c **** * Parameters:
 127:.\Generated_Source\PSoC4/CapSense_CSD_SMS.c **** *  None
 128:.\Generated_Source\PSoC4/CapSense_CSD_SMS.c **** *
 129:.\Generated_Source\PSoC4/CapSense_CSD_SMS.c **** * Return:
 130:.\Generated_Source\PSoC4/CapSense_CSD_SMS.c **** *  None
 131:.\Generated_Source\PSoC4/CapSense_CSD_SMS.c **** *
 132:.\Generated_Source\PSoC4/CapSense_CSD_SMS.c **** * Global Variables:
 133:.\Generated_Source\PSoC4/CapSense_CSD_SMS.c **** *   CapSense_CSD_config: the structure which contains configuration parameters
ARM GAS  C:\Users\lovelesh\AppData\Local\Temp\ccqnhcik.s 			page 5


 134:.\Generated_Source\PSoC4/CapSense_CSD_SMS.c **** *   CapSense_CSD_senseClkDividerVal[]: used to store the Analog Switch
 135:.\Generated_Source\PSoC4/CapSense_CSD_SMS.c **** *   dividers for each sensor.
 136:.\Generated_Source\PSoC4/CapSense_CSD_SMS.c **** *   CapSense_CSD_senseClkDividerVal[]: used to store the
 137:.\Generated_Source\PSoC4/CapSense_CSD_SMS.c **** *    Analog Switch divider for all sensors.
 138:.\Generated_Source\PSoC4/CapSense_CSD_SMS.c **** *   CapSense_CSD_prescalersTuningDone - used to notify the Tuner GUI that
 139:.\Generated_Source\PSoC4/CapSense_CSD_SMS.c **** *   the pre-scalers tuning  is done.
 140:.\Generated_Source\PSoC4/CapSense_CSD_SMS.c **** *
 141:.\Generated_Source\PSoC4/CapSense_CSD_SMS.c **** * Side Effects:
 142:.\Generated_Source\PSoC4/CapSense_CSD_SMS.c **** *  None
 143:.\Generated_Source\PSoC4/CapSense_CSD_SMS.c **** *
 144:.\Generated_Source\PSoC4/CapSense_CSD_SMS.c **** *******************************************************************************/
 145:.\Generated_Source\PSoC4/CapSense_CSD_SMS.c **** void CapSense_CSD_AutoTune(void)
 146:.\Generated_Source\PSoC4/CapSense_CSD_SMS.c **** {
  96              		.loc 1 146 0
  97              		.cfi_startproc
  98 0000 80B5     		push	{r7, lr}
  99              		.cfi_def_cfa_offset 8
 100              		.cfi_offset 7, -8
 101              		.cfi_offset 14, -4
 102 0002 82B0     		sub	sp, sp, #8
 103              		.cfi_def_cfa_offset 16
 104 0004 00AF     		add	r7, sp, #0
 105              		.cfi_def_cfa_register 7
 147:.\Generated_Source\PSoC4/CapSense_CSD_SMS.c ****     uint32 curSensor;
 148:.\Generated_Source\PSoC4/CapSense_CSD_SMS.c ****     uint32 widget;
 149:.\Generated_Source\PSoC4/CapSense_CSD_SMS.c **** 
 150:.\Generated_Source\PSoC4/CapSense_CSD_SMS.c ****     CapSense_CSD_config.totalScanslotsNum = CapSense_CSD_TOTAL_SCANSLOT_COUNT;
 106              		.loc 1 150 0
 107 0006 374B     		ldr	r3, .L8
 108 0008 0522     		mov	r2, #5
 109 000a 1A70     		strb	r2, [r3]
 151:.\Generated_Source\PSoC4/CapSense_CSD_SMS.c ****     CapSense_CSD_config.totalWidgetsNum = CapSense_CSD_END_OF_WIDGETS_INDEX;
 110              		.loc 1 151 0
 111 000c 354B     		ldr	r3, .L8
 112 000e 0122     		mov	r2, #1
 113 0010 5A70     		strb	r2, [r3, #1]
 152:.\Generated_Source\PSoC4/CapSense_CSD_SMS.c ****     CapSense_CSD_config.totalSensorsNum = CapSense_CSD_TOTAL_SENSOR_COUNT;
 114              		.loc 1 152 0
 115 0012 344B     		ldr	r3, .L8
 116 0014 0522     		mov	r2, #5
 117 0016 9A70     		strb	r2, [r3, #2]
 153:.\Generated_Source\PSoC4/CapSense_CSD_SMS.c **** 
 154:.\Generated_Source\PSoC4/CapSense_CSD_SMS.c ****     CapSense_CSD_config.hfclkFreq_MHz = CYDEV_BCLK__HFCLK__MHZ;
 118              		.loc 1 154 0
 119 0018 324B     		ldr	r3, .L8
 120 001a 1822     		mov	r2, #24
 121 001c DA80     		strh	r2, [r3, #6]
 155:.\Generated_Source\PSoC4/CapSense_CSD_SMS.c ****     CapSense_CSD_config.sensetivitySeed = CapSense_CSD_SENSETIVITY_FACTOR;
 122              		.loc 1 155 0
 123 001e 314B     		ldr	r3, .L8
 124 0020 314A     		ldr	r2, .L8+4
 125 0022 9A80     		strh	r2, [r3, #4]
 156:.\Generated_Source\PSoC4/CapSense_CSD_SMS.c **** 
 157:.\Generated_Source\PSoC4/CapSense_CSD_SMS.c ****     CapSense_CSD_config.pointers = &CapSense_CSD_configPointers;
 126              		.loc 1 157 0
 127 0024 2F4B     		ldr	r3, .L8
 128 0026 314A     		ldr	r2, .L8+8
ARM GAS  C:\Users\lovelesh\AppData\Local\Temp\ccqnhcik.s 			page 6


 129 0028 9A60     		str	r2, [r3, #8]
 158:.\Generated_Source\PSoC4/CapSense_CSD_SMS.c **** 
 159:.\Generated_Source\PSoC4/CapSense_CSD_SMS.c ****     CapSense_CSD_SetAnalogSwitchesSrcDirect();
 130              		.loc 1 159 0
 131 002a FFF7FEFF 		bl	CapSense_CSD_SetAnalogSwitchesSrcDirect
 160:.\Generated_Source\PSoC4/CapSense_CSD_SMS.c **** 
 161:.\Generated_Source\PSoC4/CapSense_CSD_SMS.c ****     for(widget = 0u; widget < CapSense_CSD_config.totalWidgetsNum; widget++)
 132              		.loc 1 161 0
 133 002e 0023     		mov	r3, #0
 134 0030 3B60     		str	r3, [r7]
 135 0032 07E0     		b	.L2
 136              	.L3:
 162:.\Generated_Source\PSoC4/CapSense_CSD_SMS.c ****     {
 163:.\Generated_Source\PSoC4/CapSense_CSD_SMS.c ****         CapSense_CSD_widgetResolution[widget] = CapSense_CSD_CALIBRATION_RESOLUTION;
 137              		.loc 1 163 0 discriminator 3
 138 0034 2E4B     		ldr	r3, .L8+12
 139 0036 3A68     		ldr	r2, [r7]
 140 0038 9200     		lsl	r2, r2, #2
 141 003a 2E49     		ldr	r1, .L8+16
 142 003c D150     		str	r1, [r2, r3]
 161:.\Generated_Source\PSoC4/CapSense_CSD_SMS.c ****     {
 143              		.loc 1 161 0 discriminator 3
 144 003e 3B68     		ldr	r3, [r7]
 145 0040 0133     		add	r3, r3, #1
 146 0042 3B60     		str	r3, [r7]
 147              	.L2:
 161:.\Generated_Source\PSoC4/CapSense_CSD_SMS.c ****     {
 148              		.loc 1 161 0 is_stmt 0 discriminator 1
 149 0044 274B     		ldr	r3, .L8
 150 0046 5B78     		ldrb	r3, [r3, #1]
 151 0048 1A1E     		sub	r2, r3, #0
 152 004a 3B68     		ldr	r3, [r7]
 153 004c 9A42     		cmp	r2, r3
 154 004e F1D8     		bhi	.L3
 164:.\Generated_Source\PSoC4/CapSense_CSD_SMS.c ****     }
 165:.\Generated_Source\PSoC4/CapSense_CSD_SMS.c **** 
 166:.\Generated_Source\PSoC4/CapSense_CSD_SMS.c **** 
 167:.\Generated_Source\PSoC4/CapSense_CSD_SMS.c ****     for(curSensor = 0u; curSensor < CapSense_CSD_TOTAL_SCANSLOT_COUNT; curSensor++)
 155              		.loc 1 167 0 is_stmt 1
 156 0050 0023     		mov	r3, #0
 157 0052 7B60     		str	r3, [r7, #4]
 158 0054 0CE0     		b	.L4
 159              	.L5:
 168:.\Generated_Source\PSoC4/CapSense_CSD_SMS.c ****     {
 169:.\Generated_Source\PSoC4/CapSense_CSD_SMS.c ****         CapSense_CSD_senseClkDividerVal[curSensor] = CapSense_CSD_CALIBRATION_ASD;
 160              		.loc 1 169 0 discriminator 3
 161 0056 284A     		ldr	r2, .L8+20
 162 0058 7B68     		ldr	r3, [r7, #4]
 163 005a D318     		add	r3, r2, r3
 164 005c 0422     		mov	r2, #4
 165 005e 1A70     		strb	r2, [r3]
 170:.\Generated_Source\PSoC4/CapSense_CSD_SMS.c ****         CapSense_CSD_sampleClkDividerVal[curSensor] = CapSense_CSD_CALIBRATION_MD;
 166              		.loc 1 170 0 discriminator 3
 167 0060 264A     		ldr	r2, .L8+24
 168 0062 7B68     		ldr	r3, [r7, #4]
 169 0064 D318     		add	r3, r2, r3
 170 0066 0222     		mov	r2, #2
ARM GAS  C:\Users\lovelesh\AppData\Local\Temp\ccqnhcik.s 			page 7


 171 0068 1A70     		strb	r2, [r3]
 167:.\Generated_Source\PSoC4/CapSense_CSD_SMS.c ****     {
 172              		.loc 1 167 0 discriminator 3
 173 006a 7B68     		ldr	r3, [r7, #4]
 174 006c 0133     		add	r3, r3, #1
 175 006e 7B60     		str	r3, [r7, #4]
 176              	.L4:
 167:.\Generated_Source\PSoC4/CapSense_CSD_SMS.c ****     {
 177              		.loc 1 167 0 is_stmt 0 discriminator 1
 178 0070 7B68     		ldr	r3, [r7, #4]
 179 0072 042B     		cmp	r3, #4
 180 0074 EFD9     		bls	.L5
 171:.\Generated_Source\PSoC4/CapSense_CSD_SMS.c ****     }
 172:.\Generated_Source\PSoC4/CapSense_CSD_SMS.c **** 
 173:.\Generated_Source\PSoC4/CapSense_CSD_SMS.c ****     CapSense_CSD_DisableBaselineIDAC();
 181              		.loc 1 173 0 is_stmt 1
 182 0076 FFF7FEFF 		bl	CapSense_CSD_DisableBaselineIDAC
 174:.\Generated_Source\PSoC4/CapSense_CSD_SMS.c **** 
 175:.\Generated_Source\PSoC4/CapSense_CSD_SMS.c ****     CalibrateSensors_P4_v2_40(&CapSense_CSD_config, CapSense_CSD_CAL_RAW_COUNT);
 183              		.loc 1 175 0
 184 007a 1A4B     		ldr	r3, .L8
 185 007c 204A     		ldr	r2, .L8+28
 186 007e 181C     		mov	r0, r3
 187 0080 111C     		mov	r1, r2
 188 0082 FFF7FEFF 		bl	CalibrateSensors_P4_v2_40
 176:.\Generated_Source\PSoC4/CapSense_CSD_SMS.c **** 
 177:.\Generated_Source\PSoC4/CapSense_CSD_SMS.c ****     #if(0u != CapSense_CSD_TOTAL_CENTROIDS_COUNT)
 178:.\Generated_Source\PSoC4/CapSense_CSD_SMS.c ****         CapSense_CSD_NormalizeWidgets(CapSense_CSD_END_OF_WIDGETS_INDEX, CapSense_CSD_modulationIDA
 189              		.loc 1 178 0
 190 0086 1F4B     		ldr	r3, .L8+32
 191 0088 0120     		mov	r0, #1
 192 008a 191C     		mov	r1, r3
 193 008c FFF7FEFF 		bl	CapSense_CSD_NormalizeWidgets
 179:.\Generated_Source\PSoC4/CapSense_CSD_SMS.c ****     #endif /* (0u != CapSense_CSD_TOTAL_CENTROIDS_COUNT)  */
 180:.\Generated_Source\PSoC4/CapSense_CSD_SMS.c **** 
 181:.\Generated_Source\PSoC4/CapSense_CSD_SMS.c ****     TunePrescalers_P4_v2_40(&CapSense_CSD_config);
 194              		.loc 1 181 0
 195 0090 144B     		ldr	r3, .L8
 196 0092 181C     		mov	r0, r3
 197 0094 FFF7FEFF 		bl	TunePrescalers_P4_v2_40
 182:.\Generated_Source\PSoC4/CapSense_CSD_SMS.c **** 
 183:.\Generated_Source\PSoC4/CapSense_CSD_SMS.c ****     #if(CapSense_CSD_PRS_OPTIONS != CapSense_CSD__PRS_NONE)
 184:.\Generated_Source\PSoC4/CapSense_CSD_SMS.c ****         CapSense_CSD_prescalersTuningDone = 1u;
 198              		.loc 1 184 0
 199 0098 1B4B     		ldr	r3, .L8+36
 200 009a 0122     		mov	r2, #1
 201 009c 1A70     		strb	r2, [r3]
 185:.\Generated_Source\PSoC4/CapSense_CSD_SMS.c ****     #endif /* (CapSense_CSD_PRS_OPTIONS == CapSense_CSD__PRS_NONE) */
 186:.\Generated_Source\PSoC4/CapSense_CSD_SMS.c **** 
 187:.\Generated_Source\PSoC4/CapSense_CSD_SMS.c ****     CalibrateSensors_P4_v2_40(&CapSense_CSD_config, CapSense_CSD_CAL_RAW_COUNT);
 202              		.loc 1 187 0
 203 009e 114B     		ldr	r3, .L8
 204 00a0 174A     		ldr	r2, .L8+28
 205 00a2 181C     		mov	r0, r3
 206 00a4 111C     		mov	r1, r2
 207 00a6 FFF7FEFF 		bl	CalibrateSensors_P4_v2_40
 188:.\Generated_Source\PSoC4/CapSense_CSD_SMS.c ****     #if(0u != CapSense_CSD_TOTAL_CENTROIDS_COUNT)
ARM GAS  C:\Users\lovelesh\AppData\Local\Temp\ccqnhcik.s 			page 8


 189:.\Generated_Source\PSoC4/CapSense_CSD_SMS.c ****         CapSense_CSD_NormalizeWidgets(CapSense_CSD_END_OF_WIDGETS_INDEX, CapSense_CSD_modulationIDA
 208              		.loc 1 189 0
 209 00aa 164B     		ldr	r3, .L8+32
 210 00ac 0120     		mov	r0, #1
 211 00ae 191C     		mov	r1, r3
 212 00b0 FFF7FEFF 		bl	CapSense_CSD_NormalizeWidgets
 190:.\Generated_Source\PSoC4/CapSense_CSD_SMS.c ****     #endif /* (0u != CapSense_CSD_TOTAL_CENTROIDS_COUNT)  */
 191:.\Generated_Source\PSoC4/CapSense_CSD_SMS.c ****     TuneSensitivity_P4_v2_40(&CapSense_CSD_config);
 213              		.loc 1 191 0
 214 00b4 0B4B     		ldr	r3, .L8
 215 00b6 181C     		mov	r0, r3
 216 00b8 FFF7FEFF 		bl	TuneSensitivity_P4_v2_40
 192:.\Generated_Source\PSoC4/CapSense_CSD_SMS.c **** 
 193:.\Generated_Source\PSoC4/CapSense_CSD_SMS.c ****     CapSense_CSD_EnableBaselineIDAC(&CapSense_CSD_config);
 217              		.loc 1 193 0
 218 00bc 094B     		ldr	r3, .L8
 219 00be 181C     		mov	r0, r3
 220 00c0 FFF7FEFF 		bl	CapSense_CSD_EnableBaselineIDAC
 194:.\Generated_Source\PSoC4/CapSense_CSD_SMS.c **** 
 195:.\Generated_Source\PSoC4/CapSense_CSD_SMS.c ****     for(curSensor = 0u; curSensor < CapSense_CSD_TOTAL_SCANSLOT_COUNT; curSensor++)
 221              		.loc 1 195 0
 222 00c4 0023     		mov	r3, #0
 223 00c6 7B60     		str	r3, [r7, #4]
 224 00c8 06E0     		b	.L6
 225              	.L7:
 196:.\Generated_Source\PSoC4/CapSense_CSD_SMS.c ****     {
 197:.\Generated_Source\PSoC4/CapSense_CSD_SMS.c ****         CapSense_CSD_UpdateThresholds(curSensor);
 226              		.loc 1 197 0 discriminator 3
 227 00ca 7B68     		ldr	r3, [r7, #4]
 228 00cc 181C     		mov	r0, r3
 229 00ce FFF7FEFF 		bl	CapSense_CSD_UpdateThresholds
 195:.\Generated_Source\PSoC4/CapSense_CSD_SMS.c ****     {
 230              		.loc 1 195 0 discriminator 3
 231 00d2 7B68     		ldr	r3, [r7, #4]
 232 00d4 0133     		add	r3, r3, #1
 233 00d6 7B60     		str	r3, [r7, #4]
 234              	.L6:
 195:.\Generated_Source\PSoC4/CapSense_CSD_SMS.c ****     {
 235              		.loc 1 195 0 is_stmt 0 discriminator 1
 236 00d8 7B68     		ldr	r3, [r7, #4]
 237 00da 042B     		cmp	r3, #4
 238 00dc F5D9     		bls	.L7
 198:.\Generated_Source\PSoC4/CapSense_CSD_SMS.c ****     }
 199:.\Generated_Source\PSoC4/CapSense_CSD_SMS.c **** }
 239              		.loc 1 199 0 is_stmt 1
 240 00de BD46     		mov	sp, r7
 241 00e0 02B0     		add	sp, sp, #8
 242              		@ sp needed
 243 00e2 80BD     		pop	{r7, pc}
 244              	.L9:
 245              		.align	2
 246              	.L8:
 247 00e4 00000000 		.word	CapSense_CSD_config
 248 00e8 66020000 		.word	614
 249 00ec 00000000 		.word	CapSense_CSD_configPointers
 250 00f0 00000000 		.word	CapSense_CSD_widgetResolution
 251 00f4 0000FF0F 		.word	268369920
ARM GAS  C:\Users\lovelesh\AppData\Local\Temp\ccqnhcik.s 			page 9


 252 00f8 00000000 		.word	CapSense_CSD_senseClkDividerVal
 253 00fc 00000000 		.word	CapSense_CSD_sampleClkDividerVal
 254 0100 9A0D0000 		.word	3482
 255 0104 00000000 		.word	CapSense_CSD_modulationIDAC
 256 0108 00000000 		.word	CapSense_CSD_prescalersTuningDone
 257              		.cfi_endproc
 258              	.LFE34:
 259              		.size	CapSense_CSD_AutoTune, .-CapSense_CSD_AutoTune
 260              		.section	.text.CapSense_CSD_UpdateThresholds,"ax",%progbits
 261              		.align	2
 262              		.global	CapSense_CSD_UpdateThresholds
 263              		.code	16
 264              		.thumb_func
 265              		.type	CapSense_CSD_UpdateThresholds, %function
 266              	CapSense_CSD_UpdateThresholds:
 267              	.LFB35:
 200:.\Generated_Source\PSoC4/CapSense_CSD_SMS.c **** 
 201:.\Generated_Source\PSoC4/CapSense_CSD_SMS.c **** 
 202:.\Generated_Source\PSoC4/CapSense_CSD_SMS.c **** /*******************************************************************************
 203:.\Generated_Source\PSoC4/CapSense_CSD_SMS.c **** * Function Name: CapSense_CSD_UpdateThresholds
 204:.\Generated_Source\PSoC4/CapSense_CSD_SMS.c **** ********************************************************************************
 205:.\Generated_Source\PSoC4/CapSense_CSD_SMS.c **** *
 206:.\Generated_Source\PSoC4/CapSense_CSD_SMS.c **** * Summary:
 207:.\Generated_Source\PSoC4/CapSense_CSD_SMS.c **** *  The API updates the Finger Threshold, Hysteresis, Noise Threshold, and
 208:.\Generated_Source\PSoC4/CapSense_CSD_SMS.c **** *  Negative Noise Threshold in the AutoTuning (Smartsense) Mode.
 209:.\Generated_Source\PSoC4/CapSense_CSD_SMS.c **** *
 210:.\Generated_Source\PSoC4/CapSense_CSD_SMS.c **** * Parameters:
 211:.\Generated_Source\PSoC4/CapSense_CSD_SMS.c **** *  sensor: sensor number.
 212:.\Generated_Source\PSoC4/CapSense_CSD_SMS.c **** *
 213:.\Generated_Source\PSoC4/CapSense_CSD_SMS.c **** * Return:
 214:.\Generated_Source\PSoC4/CapSense_CSD_SMS.c **** *  None
 215:.\Generated_Source\PSoC4/CapSense_CSD_SMS.c **** *
 216:.\Generated_Source\PSoC4/CapSense_CSD_SMS.c **** * Global Variables:
 217:.\Generated_Source\PSoC4/CapSense_CSD_SMS.c **** *  CapSense_CSD_widgetNumber[] - contains widget Number for given sensor.
 218:.\Generated_Source\PSoC4/CapSense_CSD_SMS.c **** *  0 through 7 (sensor 0 is bit 0, sensor 1 is bit 1).
 219:.\Generated_Source\PSoC4/CapSense_CSD_SMS.c **** *  For other sensors the array element equals to 255.
 220:.\Generated_Source\PSoC4/CapSense_CSD_SMS.c **** *  CapSense_CSD_numberOfSensors[widget] - Number of sensors in the widget.
 221:.\Generated_Source\PSoC4/CapSense_CSD_SMS.c **** *   CapSense_CSD_fingerThreshold[] - contains the level of signal for each sensor
 222:.\Generated_Source\PSoC4/CapSense_CSD_SMS.c **** *   that determines if a finger present on the sensor.
 223:.\Generated_Source\PSoC4/CapSense_CSD_SMS.c **** *   CapSense_CSD_negativeNoiseThreshold[] - negative Noise Threshold
 224:.\Generated_Source\PSoC4/CapSense_CSD_SMS.c **** *   CapSense_CSD_hysteresis[] - the array with hysteresis values.
 225:.\Generated_Source\PSoC4/CapSense_CSD_SMS.c **** *
 226:.\Generated_Source\PSoC4/CapSense_CSD_SMS.c **** * Side Effects:
 227:.\Generated_Source\PSoC4/CapSense_CSD_SMS.c **** *  None
 228:.\Generated_Source\PSoC4/CapSense_CSD_SMS.c **** *
 229:.\Generated_Source\PSoC4/CapSense_CSD_SMS.c **** *******************************************************************************/
 230:.\Generated_Source\PSoC4/CapSense_CSD_SMS.c **** void CapSense_CSD_UpdateThresholds(uint32 sensor)
 231:.\Generated_Source\PSoC4/CapSense_CSD_SMS.c **** {
 268              		.loc 1 231 0
 269              		.cfi_startproc
 270 0000 90B5     		push	{r4, r7, lr}
 271              		.cfi_def_cfa_offset 12
 272              		.cfi_offset 4, -12
 273              		.cfi_offset 7, -8
 274              		.cfi_offset 14, -4
 275 0002 87B0     		sub	sp, sp, #28
 276              		.cfi_def_cfa_offset 40
ARM GAS  C:\Users\lovelesh\AppData\Local\Temp\ccqnhcik.s 			page 10


 277 0004 02AF     		add	r7, sp, #8
 278              		.cfi_def_cfa 7, 32
 279 0006 7860     		str	r0, [r7, #4]
 232:.\Generated_Source\PSoC4/CapSense_CSD_SMS.c ****     uint8 fingerThreshold;
 233:.\Generated_Source\PSoC4/CapSense_CSD_SMS.c ****     uint32 widget;
 234:.\Generated_Source\PSoC4/CapSense_CSD_SMS.c **** 
 235:.\Generated_Source\PSoC4/CapSense_CSD_SMS.c ****     widget = CapSense_CSD_widgetNumber[sensor];
 280              		.loc 1 235 0
 281 0008 334A     		ldr	r2, .L16
 282 000a 7B68     		ldr	r3, [r7, #4]
 283 000c D318     		add	r3, r2, r3
 284 000e 1B78     		ldrb	r3, [r3]
 285 0010 FB60     		str	r3, [r7, #12]
 236:.\Generated_Source\PSoC4/CapSense_CSD_SMS.c **** 
 237:.\Generated_Source\PSoC4/CapSense_CSD_SMS.c ****     #if(0u != CapSense_CSD_FLEXIBLE_THRESHOLDS_EN)
 238:.\Generated_Source\PSoC4/CapSense_CSD_SMS.c ****         fingerThreshold = CapSense_CSD_fingerThreshold[widget];
 239:.\Generated_Source\PSoC4/CapSense_CSD_SMS.c ****         /* Update Threshold manually (flexible) */
 240:.\Generated_Source\PSoC4/CapSense_CSD_SMS.c ****         CapSense_CSD_noiseThreshold[widget] = (uint8)(fingerThreshold >> 1u);
 241:.\Generated_Source\PSoC4/CapSense_CSD_SMS.c ****         CapSense_CSD_negativeNoiseThreshold[widget] = (uint8)(fingerThreshold >> 1u);
 242:.\Generated_Source\PSoC4/CapSense_CSD_SMS.c ****         CapSense_CSD_hysteresis[widget] = (uint8)(fingerThreshold >> 3u);
 243:.\Generated_Source\PSoC4/CapSense_CSD_SMS.c ****     #else
 244:.\Generated_Source\PSoC4/CapSense_CSD_SMS.c ****         /* Calculate Finger Threshold and Noise Threshold with Smartsense (automatic) */
 245:.\Generated_Source\PSoC4/CapSense_CSD_SMS.c ****         CalculateThresholds_P4_v2_40(&CapSense_CSD_config, (uint8)sensor, (uint8)widget, CapSense_C
 286              		.loc 1 245 0
 287 0012 7B68     		ldr	r3, [r7, #4]
 288 0014 D9B2     		uxtb	r1, r3
 289 0016 FB68     		ldr	r3, [r7, #12]
 290 0018 DAB2     		uxtb	r2, r3
 291 001a 3048     		ldr	r0, .L16+4
 292 001c 304C     		ldr	r4, .L16+8
 293 001e 314B     		ldr	r3, .L16+12
 294 0020 0093     		str	r3, [sp]
 295 0022 231C     		mov	r3, r4
 296 0024 FFF7FEFF 		bl	CalculateThresholds_P4_v2_40
 246:.\Generated_Source\PSoC4/CapSense_CSD_SMS.c **** 
 247:.\Generated_Source\PSoC4/CapSense_CSD_SMS.c ****         fingerThreshold = CapSense_CSD_fingerThreshold[widget];
 297              		.loc 1 247 0
 298 0028 0B23     		mov	r3, #11
 299 002a FB18     		add	r3, r7, r3
 300 002c 2C49     		ldr	r1, .L16+8
 301 002e FA68     		ldr	r2, [r7, #12]
 302 0030 8A18     		add	r2, r1, r2
 303 0032 1278     		ldrb	r2, [r2]
 304 0034 1A70     		strb	r2, [r3]
 248:.\Generated_Source\PSoC4/CapSense_CSD_SMS.c **** 
 249:.\Generated_Source\PSoC4/CapSense_CSD_SMS.c ****         /* Update Threshold based on calculated with Smartsense (automatic) */
 250:.\Generated_Source\PSoC4/CapSense_CSD_SMS.c ****         CapSense_CSD_negativeNoiseThreshold[widget] = CapSense_CSD_noiseThreshold[widget];
 305              		.loc 1 250 0
 306 0036 2B4A     		ldr	r2, .L16+12
 307 0038 FB68     		ldr	r3, [r7, #12]
 308 003a D318     		add	r3, r2, r3
 309 003c 1978     		ldrb	r1, [r3]
 310 003e 2A4A     		ldr	r2, .L16+16
 311 0040 FB68     		ldr	r3, [r7, #12]
 312 0042 D318     		add	r3, r2, r3
 313 0044 0A1C     		add	r2, r1, #0
 314 0046 1A70     		strb	r2, [r3]
ARM GAS  C:\Users\lovelesh\AppData\Local\Temp\ccqnhcik.s 			page 11


 251:.\Generated_Source\PSoC4/CapSense_CSD_SMS.c **** 
 252:.\Generated_Source\PSoC4/CapSense_CSD_SMS.c ****         if(fingerThreshold < CapSense_CSD_THRESHOLD_1)
 315              		.loc 1 252 0
 316 0048 0B23     		mov	r3, #11
 317 004a FB18     		add	r3, r7, r3
 318 004c 1B78     		ldrb	r3, [r3]
 319 004e DB2B     		cmp	r3, #219
 320 0050 0AD8     		bhi	.L11
 253:.\Generated_Source\PSoC4/CapSense_CSD_SMS.c ****         {
 254:.\Generated_Source\PSoC4/CapSense_CSD_SMS.c ****             CapSense_CSD_hysteresis[widget] = (uint8)(fingerThreshold >> 3u);
 321              		.loc 1 254 0
 322 0052 0B23     		mov	r3, #11
 323 0054 FB18     		add	r3, r7, r3
 324 0056 1B78     		ldrb	r3, [r3]
 325 0058 DB08     		lsr	r3, r3, #3
 326 005a D9B2     		uxtb	r1, r3
 327 005c 234A     		ldr	r2, .L16+20
 328 005e FB68     		ldr	r3, [r7, #12]
 329 0060 D318     		add	r3, r2, r3
 330 0062 0A1C     		add	r2, r1, #0
 331 0064 1A70     		strb	r2, [r3]
 332 0066 34E0     		b	.L10
 333              	.L11:
 255:.\Generated_Source\PSoC4/CapSense_CSD_SMS.c ****         }
 256:.\Generated_Source\PSoC4/CapSense_CSD_SMS.c ****         else if(fingerThreshold <  CapSense_CSD_THRESHOLD_2)
 334              		.loc 1 256 0
 335 0068 0B23     		mov	r3, #11
 336 006a FB18     		add	r3, r7, r3
 337 006c 1B78     		ldrb	r3, [r3]
 338 006e EC2B     		cmp	r3, #236
 339 0070 0AD8     		bhi	.L13
 257:.\Generated_Source\PSoC4/CapSense_CSD_SMS.c ****         {
 258:.\Generated_Source\PSoC4/CapSense_CSD_SMS.c ****             CapSense_CSD_hysteresis[widget] = (uint8)(fingerThreshold >> 4u);
 340              		.loc 1 258 0
 341 0072 0B23     		mov	r3, #11
 342 0074 FB18     		add	r3, r7, r3
 343 0076 1B78     		ldrb	r3, [r3]
 344 0078 1B09     		lsr	r3, r3, #4
 345 007a D9B2     		uxtb	r1, r3
 346 007c 1B4A     		ldr	r2, .L16+20
 347 007e FB68     		ldr	r3, [r7, #12]
 348 0080 D318     		add	r3, r2, r3
 349 0082 0A1C     		add	r2, r1, #0
 350 0084 1A70     		strb	r2, [r3]
 351 0086 24E0     		b	.L10
 352              	.L13:
 259:.\Generated_Source\PSoC4/CapSense_CSD_SMS.c ****         }
 260:.\Generated_Source\PSoC4/CapSense_CSD_SMS.c ****         else if(fingerThreshold <  CapSense_CSD_THRESHOLD_3)
 353              		.loc 1 260 0
 354 0088 0B23     		mov	r3, #11
 355 008a FB18     		add	r3, r7, r3
 356 008c 1B78     		ldrb	r3, [r3]
 357 008e F42B     		cmp	r3, #244
 358 0090 0AD8     		bhi	.L14
 261:.\Generated_Source\PSoC4/CapSense_CSD_SMS.c ****         {
 262:.\Generated_Source\PSoC4/CapSense_CSD_SMS.c ****             CapSense_CSD_hysteresis[widget] = (uint8)(fingerThreshold >> 5u);
 359              		.loc 1 262 0
ARM GAS  C:\Users\lovelesh\AppData\Local\Temp\ccqnhcik.s 			page 12


 360 0092 0B23     		mov	r3, #11
 361 0094 FB18     		add	r3, r7, r3
 362 0096 1B78     		ldrb	r3, [r3]
 363 0098 5B09     		lsr	r3, r3, #5
 364 009a D9B2     		uxtb	r1, r3
 365 009c 134A     		ldr	r2, .L16+20
 366 009e FB68     		ldr	r3, [r7, #12]
 367 00a0 D318     		add	r3, r2, r3
 368 00a2 0A1C     		add	r2, r1, #0
 369 00a4 1A70     		strb	r2, [r3]
 370 00a6 14E0     		b	.L10
 371              	.L14:
 263:.\Generated_Source\PSoC4/CapSense_CSD_SMS.c ****         }
 264:.\Generated_Source\PSoC4/CapSense_CSD_SMS.c ****         else if(fingerThreshold <  CapSense_CSD_THRESHOLD_4)
 372              		.loc 1 264 0
 373 00a8 0B23     		mov	r3, #11
 374 00aa FB18     		add	r3, r7, r3
 375 00ac 1B78     		ldrb	r3, [r3]
 376 00ae F92B     		cmp	r3, #249
 377 00b0 0AD8     		bhi	.L15
 265:.\Generated_Source\PSoC4/CapSense_CSD_SMS.c ****         {
 266:.\Generated_Source\PSoC4/CapSense_CSD_SMS.c ****             CapSense_CSD_hysteresis[widget] = (uint8)(fingerThreshold >> 6u);
 378              		.loc 1 266 0
 379 00b2 0B23     		mov	r3, #11
 380 00b4 FB18     		add	r3, r7, r3
 381 00b6 1B78     		ldrb	r3, [r3]
 382 00b8 9B09     		lsr	r3, r3, #6
 383 00ba D9B2     		uxtb	r1, r3
 384 00bc 0B4A     		ldr	r2, .L16+20
 385 00be FB68     		ldr	r3, [r7, #12]
 386 00c0 D318     		add	r3, r2, r3
 387 00c2 0A1C     		add	r2, r1, #0
 388 00c4 1A70     		strb	r2, [r3]
 389 00c6 04E0     		b	.L10
 390              	.L15:
 267:.\Generated_Source\PSoC4/CapSense_CSD_SMS.c ****         }
 268:.\Generated_Source\PSoC4/CapSense_CSD_SMS.c ****         else
 269:.\Generated_Source\PSoC4/CapSense_CSD_SMS.c ****         {
 270:.\Generated_Source\PSoC4/CapSense_CSD_SMS.c ****             CapSense_CSD_hysteresis[widget] = 0u;
 391              		.loc 1 270 0
 392 00c8 084A     		ldr	r2, .L16+20
 393 00ca FB68     		ldr	r3, [r7, #12]
 394 00cc D318     		add	r3, r2, r3
 395 00ce 0022     		mov	r2, #0
 396 00d0 1A70     		strb	r2, [r3]
 397              	.L10:
 271:.\Generated_Source\PSoC4/CapSense_CSD_SMS.c ****         }
 272:.\Generated_Source\PSoC4/CapSense_CSD_SMS.c ****     #endif /* (0u != CapSense_CSD_FLEXIBLE_THRESHOLDS_EN)  */
 273:.\Generated_Source\PSoC4/CapSense_CSD_SMS.c **** }
 398              		.loc 1 273 0
 399 00d2 BD46     		mov	sp, r7
 400 00d4 05B0     		add	sp, sp, #20
 401              		@ sp needed
 402 00d6 90BD     		pop	{r4, r7, pc}
 403              	.L17:
 404              		.align	2
 405              	.L16:
ARM GAS  C:\Users\lovelesh\AppData\Local\Temp\ccqnhcik.s 			page 13


 406 00d8 00000000 		.word	CapSense_CSD_widgetNumber
 407 00dc 00000000 		.word	CapSense_CSD_config
 408 00e0 00000000 		.word	CapSense_CSD_fingerThreshold
 409 00e4 00000000 		.word	CapSense_CSD_noiseThreshold
 410 00e8 00000000 		.word	CapSense_CSD_negativeNoiseThreshold
 411 00ec 00000000 		.word	CapSense_CSD_hysteresis
 412              		.cfi_endproc
 413              	.LFE35:
 414              		.size	CapSense_CSD_UpdateThresholds, .-CapSense_CSD_UpdateThresholds
 415              		.section	.text.CapSense_CSD_SetAnalogSwitchesSrcDirect,"ax",%progbits
 416              		.align	2
 417              		.global	CapSense_CSD_SetAnalogSwitchesSrcDirect
 418              		.code	16
 419              		.thumb_func
 420              		.type	CapSense_CSD_SetAnalogSwitchesSrcDirect, %function
 421              	CapSense_CSD_SetAnalogSwitchesSrcDirect:
 422              	.LFB36:
 274:.\Generated_Source\PSoC4/CapSense_CSD_SMS.c **** 
 275:.\Generated_Source\PSoC4/CapSense_CSD_SMS.c **** /*******************************************************************************
 276:.\Generated_Source\PSoC4/CapSense_CSD_SMS.c **** * Function Name: CapSense_CSD_SetAnalogSwitchesSrcDirect
 277:.\Generated_Source\PSoC4/CapSense_CSD_SMS.c **** ********************************************************************************
 278:.\Generated_Source\PSoC4/CapSense_CSD_SMS.c **** *
 279:.\Generated_Source\PSoC4/CapSense_CSD_SMS.c **** * Summary:
 280:.\Generated_Source\PSoC4/CapSense_CSD_SMS.c **** *  This API switches the charge clock source to prescaler.
 281:.\Generated_Source\PSoC4/CapSense_CSD_SMS.c **** *
 282:.\Generated_Source\PSoC4/CapSense_CSD_SMS.c **** * Parameters:
 283:.\Generated_Source\PSoC4/CapSense_CSD_SMS.c **** *  None
 284:.\Generated_Source\PSoC4/CapSense_CSD_SMS.c **** *
 285:.\Generated_Source\PSoC4/CapSense_CSD_SMS.c **** * Return:
 286:.\Generated_Source\PSoC4/CapSense_CSD_SMS.c **** *  None
 287:.\Generated_Source\PSoC4/CapSense_CSD_SMS.c **** *
 288:.\Generated_Source\PSoC4/CapSense_CSD_SMS.c **** * Global Variables:
 289:.\Generated_Source\PSoC4/CapSense_CSD_SMS.c **** *  None
 290:.\Generated_Source\PSoC4/CapSense_CSD_SMS.c **** *
 291:.\Generated_Source\PSoC4/CapSense_CSD_SMS.c **** * Side Effects:
 292:.\Generated_Source\PSoC4/CapSense_CSD_SMS.c **** *  None
 293:.\Generated_Source\PSoC4/CapSense_CSD_SMS.c **** *
 294:.\Generated_Source\PSoC4/CapSense_CSD_SMS.c **** *******************************************************************************/
 295:.\Generated_Source\PSoC4/CapSense_CSD_SMS.c **** void CapSense_CSD_SetAnalogSwitchesSrcDirect(void)
 296:.\Generated_Source\PSoC4/CapSense_CSD_SMS.c **** {
 423              		.loc 1 296 0
 424              		.cfi_startproc
 425 0000 80B5     		push	{r7, lr}
 426              		.cfi_def_cfa_offset 8
 427              		.cfi_offset 7, -8
 428              		.cfi_offset 14, -4
 429 0002 00AF     		add	r7, sp, #0
 430              		.cfi_def_cfa_register 7
 297:.\Generated_Source\PSoC4/CapSense_CSD_SMS.c ****     CapSense_CSD_CSD_CFG_REG &= ~(CapSense_CSD_CSD_CFG_PRS_SELECT);
 431              		.loc 1 297 0
 432 0004 034B     		ldr	r3, .L19
 433 0006 034A     		ldr	r2, .L19
 434 0008 1268     		ldr	r2, [r2]
 435 000a 4021     		mov	r1, #64
 436 000c 8A43     		bic	r2, r1
 437 000e 1A60     		str	r2, [r3]
 298:.\Generated_Source\PSoC4/CapSense_CSD_SMS.c **** }
ARM GAS  C:\Users\lovelesh\AppData\Local\Temp\ccqnhcik.s 			page 14


 438              		.loc 1 298 0
 439 0010 BD46     		mov	sp, r7
 440              		@ sp needed
 441 0012 80BD     		pop	{r7, pc}
 442              	.L20:
 443              		.align	2
 444              	.L19:
 445 0014 04000840 		.word	1074266116
 446              		.cfi_endproc
 447              	.LFE36:
 448              		.size	CapSense_CSD_SetAnalogSwitchesSrcDirect, .-CapSense_CSD_SetAnalogSwitchesSrcDirect
 449              		.section	.text.CapSense_CSD_DisableBaselineIDAC,"ax",%progbits
 450              		.align	2
 451              		.global	CapSense_CSD_DisableBaselineIDAC
 452              		.code	16
 453              		.thumb_func
 454              		.type	CapSense_CSD_DisableBaselineIDAC, %function
 455              	CapSense_CSD_DisableBaselineIDAC:
 456              	.LFB37:
 299:.\Generated_Source\PSoC4/CapSense_CSD_SMS.c **** 
 300:.\Generated_Source\PSoC4/CapSense_CSD_SMS.c **** 
 301:.\Generated_Source\PSoC4/CapSense_CSD_SMS.c **** /*******************************************************************************
 302:.\Generated_Source\PSoC4/CapSense_CSD_SMS.c **** * Function Name: CapSense_CSD_DisableBaselineIDAC
 303:.\Generated_Source\PSoC4/CapSense_CSD_SMS.c **** ********************************************************************************
 304:.\Generated_Source\PSoC4/CapSense_CSD_SMS.c **** *
 305:.\Generated_Source\PSoC4/CapSense_CSD_SMS.c **** * Summary:
 306:.\Generated_Source\PSoC4/CapSense_CSD_SMS.c **** *  The API disables the Compensation IDAC.
 307:.\Generated_Source\PSoC4/CapSense_CSD_SMS.c **** *
 308:.\Generated_Source\PSoC4/CapSense_CSD_SMS.c **** * Parameters:
 309:.\Generated_Source\PSoC4/CapSense_CSD_SMS.c **** *  None
 310:.\Generated_Source\PSoC4/CapSense_CSD_SMS.c **** *
 311:.\Generated_Source\PSoC4/CapSense_CSD_SMS.c **** * Return:
 312:.\Generated_Source\PSoC4/CapSense_CSD_SMS.c **** *  None
 313:.\Generated_Source\PSoC4/CapSense_CSD_SMS.c **** *
 314:.\Generated_Source\PSoC4/CapSense_CSD_SMS.c **** * Global Variables:
 315:.\Generated_Source\PSoC4/CapSense_CSD_SMS.c **** *  None
 316:.\Generated_Source\PSoC4/CapSense_CSD_SMS.c **** *
 317:.\Generated_Source\PSoC4/CapSense_CSD_SMS.c **** * Side Effects:
 318:.\Generated_Source\PSoC4/CapSense_CSD_SMS.c **** *  None
 319:.\Generated_Source\PSoC4/CapSense_CSD_SMS.c **** *
 320:.\Generated_Source\PSoC4/CapSense_CSD_SMS.c **** *******************************************************************************/
 321:.\Generated_Source\PSoC4/CapSense_CSD_SMS.c **** void CapSense_CSD_DisableBaselineIDAC(void)
 322:.\Generated_Source\PSoC4/CapSense_CSD_SMS.c **** {
 457              		.loc 1 322 0
 458              		.cfi_startproc
 459 0000 80B5     		push	{r7, lr}
 460              		.cfi_def_cfa_offset 8
 461              		.cfi_offset 7, -8
 462              		.cfi_offset 14, -4
 463 0002 82B0     		sub	sp, sp, #8
 464              		.cfi_def_cfa_offset 16
 465 0004 00AF     		add	r7, sp, #0
 466              		.cfi_def_cfa_register 7
 323:.\Generated_Source\PSoC4/CapSense_CSD_SMS.c ****     uint32 newRegValue;
 324:.\Generated_Source\PSoC4/CapSense_CSD_SMS.c **** 
 325:.\Generated_Source\PSoC4/CapSense_CSD_SMS.c ****     newRegValue = CapSense_CSD_CSD_IDAC_REG;
 467              		.loc 1 325 0
ARM GAS  C:\Users\lovelesh\AppData\Local\Temp\ccqnhcik.s 			page 15


 468 0006 094B     		ldr	r3, .L22
 469 0008 1B68     		ldr	r3, [r3]
 470 000a 7B60     		str	r3, [r7, #4]
 326:.\Generated_Source\PSoC4/CapSense_CSD_SMS.c **** 
 327:.\Generated_Source\PSoC4/CapSense_CSD_SMS.c ****     newRegValue &= ~(CapSense_CSD_CSD_IDAC1_MODE_MASK | CapSense_CSD_CSD_IDAC2_MODE_MASK);
 471              		.loc 1 327 0
 472 000c 7B68     		ldr	r3, [r7, #4]
 473 000e 084A     		ldr	r2, .L22+4
 474 0010 1340     		and	r3, r2
 475 0012 7B60     		str	r3, [r7, #4]
 328:.\Generated_Source\PSoC4/CapSense_CSD_SMS.c ****     newRegValue |= CapSense_CSD_CSD_IDAC1_MODE_VARIABLE;
 476              		.loc 1 328 0
 477 0014 7B68     		ldr	r3, [r7, #4]
 478 0016 8022     		mov	r2, #128
 479 0018 9200     		lsl	r2, r2, #2
 480 001a 1343     		orr	r3, r2
 481 001c 7B60     		str	r3, [r7, #4]
 329:.\Generated_Source\PSoC4/CapSense_CSD_SMS.c **** 
 330:.\Generated_Source\PSoC4/CapSense_CSD_SMS.c ****     CapSense_CSD_CSD_IDAC_REG = newRegValue;
 482              		.loc 1 330 0
 483 001e 034B     		ldr	r3, .L22
 484 0020 7A68     		ldr	r2, [r7, #4]
 485 0022 1A60     		str	r2, [r3]
 331:.\Generated_Source\PSoC4/CapSense_CSD_SMS.c **** }
 486              		.loc 1 331 0
 487 0024 BD46     		mov	sp, r7
 488 0026 02B0     		add	sp, sp, #8
 489              		@ sp needed
 490 0028 80BD     		pop	{r7, pc}
 491              	.L23:
 492 002a C046     		.align	2
 493              	.L22:
 494 002c 08000840 		.word	1074266120
 495 0030 FFFCFFFC 		.word	-50332417
 496              		.cfi_endproc
 497              	.LFE37:
 498              		.size	CapSense_CSD_DisableBaselineIDAC, .-CapSense_CSD_DisableBaselineIDAC
 499              		.section	.text.CapSense_CSD_EnableBaselineIDAC,"ax",%progbits
 500              		.align	2
 501              		.global	CapSense_CSD_EnableBaselineIDAC
 502              		.code	16
 503              		.thumb_func
 504              		.type	CapSense_CSD_EnableBaselineIDAC, %function
 505              	CapSense_CSD_EnableBaselineIDAC:
 506              	.LFB38:
 332:.\Generated_Source\PSoC4/CapSense_CSD_SMS.c **** 
 333:.\Generated_Source\PSoC4/CapSense_CSD_SMS.c **** 
 334:.\Generated_Source\PSoC4/CapSense_CSD_SMS.c **** /*******************************************************************************
 335:.\Generated_Source\PSoC4/CapSense_CSD_SMS.c **** * Function Name: CapSense_CSD_EnableBaselineIDAC
 336:.\Generated_Source\PSoC4/CapSense_CSD_SMS.c **** ********************************************************************************
 337:.\Generated_Source\PSoC4/CapSense_CSD_SMS.c **** *
 338:.\Generated_Source\PSoC4/CapSense_CSD_SMS.c **** * Summary:
 339:.\Generated_Source\PSoC4/CapSense_CSD_SMS.c **** *  The API enables the Compensation IDAC.
 340:.\Generated_Source\PSoC4/CapSense_CSD_SMS.c **** *
 341:.\Generated_Source\PSoC4/CapSense_CSD_SMS.c **** * Parameters:
 342:.\Generated_Source\PSoC4/CapSense_CSD_SMS.c **** *  None
 343:.\Generated_Source\PSoC4/CapSense_CSD_SMS.c **** *
ARM GAS  C:\Users\lovelesh\AppData\Local\Temp\ccqnhcik.s 			page 16


 344:.\Generated_Source\PSoC4/CapSense_CSD_SMS.c **** * Return:
 345:.\Generated_Source\PSoC4/CapSense_CSD_SMS.c **** *  None
 346:.\Generated_Source\PSoC4/CapSense_CSD_SMS.c **** *
 347:.\Generated_Source\PSoC4/CapSense_CSD_SMS.c **** * Global Variables:
 348:.\Generated_Source\PSoC4/CapSense_CSD_SMS.c **** *  CapSense_CSD_compensationIDAC[] - used to store a 7-bit idac value for all the sensors.
 349:.\Generated_Source\PSoC4/CapSense_CSD_SMS.c **** *
 350:.\Generated_Source\PSoC4/CapSense_CSD_SMS.c **** * Side Effects:
 351:.\Generated_Source\PSoC4/CapSense_CSD_SMS.c **** *  None
 352:.\Generated_Source\PSoC4/CapSense_CSD_SMS.c **** *
 353:.\Generated_Source\PSoC4/CapSense_CSD_SMS.c **** *******************************************************************************/
 354:.\Generated_Source\PSoC4/CapSense_CSD_SMS.c **** void  CapSense_CSD_EnableBaselineIDAC(const CapSense_CSD_CONFIG_TYPE_P4_v2_40 *config)
 355:.\Generated_Source\PSoC4/CapSense_CSD_SMS.c **** {
 507              		.loc 1 355 0
 508              		.cfi_startproc
 509 0000 80B5     		push	{r7, lr}
 510              		.cfi_def_cfa_offset 8
 511              		.cfi_offset 7, -8
 512              		.cfi_offset 14, -4
 513 0002 84B0     		sub	sp, sp, #16
 514              		.cfi_def_cfa_offset 24
 515 0004 00AF     		add	r7, sp, #0
 516              		.cfi_def_cfa_register 7
 517 0006 7860     		str	r0, [r7, #4]
 356:.\Generated_Source\PSoC4/CapSense_CSD_SMS.c ****     uint32 curSensor;
 357:.\Generated_Source\PSoC4/CapSense_CSD_SMS.c ****     uint32 newRegValue;
 358:.\Generated_Source\PSoC4/CapSense_CSD_SMS.c **** 
 359:.\Generated_Source\PSoC4/CapSense_CSD_SMS.c ****     for(curSensor = 0u; curSensor < config->totalScanslotsNum; curSensor++)
 518              		.loc 1 359 0
 519 0008 0023     		mov	r3, #0
 520 000a FB60     		str	r3, [r7, #12]
 521 000c 19E0     		b	.L25
 522              	.L26:
 360:.\Generated_Source\PSoC4/CapSense_CSD_SMS.c ****     {
 361:.\Generated_Source\PSoC4/CapSense_CSD_SMS.c ****         CapSense_CSD_compensationIDAC[curSensor] = CapSense_CSD_modulationIDAC[curSensor] / 2u;
 523              		.loc 1 361 0 discriminator 3
 524 000e 1B4A     		ldr	r2, .L27
 525 0010 FB68     		ldr	r3, [r7, #12]
 526 0012 D318     		add	r3, r2, r3
 527 0014 1B78     		ldrb	r3, [r3]
 528 0016 5B08     		lsr	r3, r3, #1
 529 0018 D9B2     		uxtb	r1, r3
 530 001a 194A     		ldr	r2, .L27+4
 531 001c FB68     		ldr	r3, [r7, #12]
 532 001e D318     		add	r3, r2, r3
 533 0020 0A1C     		add	r2, r1, #0
 534 0022 1A70     		strb	r2, [r3]
 362:.\Generated_Source\PSoC4/CapSense_CSD_SMS.c ****         CapSense_CSD_modulationIDAC[curSensor] = (CapSense_CSD_modulationIDAC[curSensor] + 1u) / 2u
 535              		.loc 1 362 0 discriminator 3
 536 0024 154A     		ldr	r2, .L27
 537 0026 FB68     		ldr	r3, [r7, #12]
 538 0028 D318     		add	r3, r2, r3
 539 002a 1B78     		ldrb	r3, [r3]
 540 002c 0133     		add	r3, r3, #1
 541 002e 5B08     		lsr	r3, r3, #1
 542 0030 D9B2     		uxtb	r1, r3
 543 0032 124A     		ldr	r2, .L27
 544 0034 FB68     		ldr	r3, [r7, #12]
ARM GAS  C:\Users\lovelesh\AppData\Local\Temp\ccqnhcik.s 			page 17


 545 0036 D318     		add	r3, r2, r3
 546 0038 0A1C     		add	r2, r1, #0
 547 003a 1A70     		strb	r2, [r3]
 359:.\Generated_Source\PSoC4/CapSense_CSD_SMS.c ****     {
 548              		.loc 1 359 0 discriminator 3
 549 003c FB68     		ldr	r3, [r7, #12]
 550 003e 0133     		add	r3, r3, #1
 551 0040 FB60     		str	r3, [r7, #12]
 552              	.L25:
 359:.\Generated_Source\PSoC4/CapSense_CSD_SMS.c ****     {
 553              		.loc 1 359 0 is_stmt 0 discriminator 1
 554 0042 7B68     		ldr	r3, [r7, #4]
 555 0044 1B78     		ldrb	r3, [r3]
 556 0046 1A1E     		sub	r2, r3, #0
 557 0048 FB68     		ldr	r3, [r7, #12]
 558 004a 9A42     		cmp	r2, r3
 559 004c DFD8     		bhi	.L26
 363:.\Generated_Source\PSoC4/CapSense_CSD_SMS.c ****     }
 364:.\Generated_Source\PSoC4/CapSense_CSD_SMS.c **** 
 365:.\Generated_Source\PSoC4/CapSense_CSD_SMS.c ****     CyIntDisable(CapSense_CSD_ISR_NUMBER);
 560              		.loc 1 365 0 is_stmt 1
 561 004e 0F20     		mov	r0, #15
 562 0050 FFF7FEFF 		bl	CyIntDisable
 366:.\Generated_Source\PSoC4/CapSense_CSD_SMS.c **** 
 367:.\Generated_Source\PSoC4/CapSense_CSD_SMS.c ****     newRegValue = CapSense_CSD_CSD_IDAC_REG;
 563              		.loc 1 367 0
 564 0054 0B4B     		ldr	r3, .L27+8
 565 0056 1B68     		ldr	r3, [r3]
 566 0058 BB60     		str	r3, [r7, #8]
 368:.\Generated_Source\PSoC4/CapSense_CSD_SMS.c ****     newRegValue &= ~(CapSense_CSD_CSD_IDAC1_MODE_MASK | CapSense_CSD_CSD_IDAC2_MODE_MASK);
 567              		.loc 1 368 0
 568 005a BB68     		ldr	r3, [r7, #8]
 569 005c 0A4A     		ldr	r2, .L27+12
 570 005e 1340     		and	r3, r2
 571 0060 BB60     		str	r3, [r7, #8]
 369:.\Generated_Source\PSoC4/CapSense_CSD_SMS.c ****     newRegValue |= (CapSense_CSD_CSD_IDAC1_MODE_VARIABLE | CapSense_CSD_CSD_IDAC2_MODE_FIXED);
 572              		.loc 1 369 0
 573 0062 BB68     		ldr	r3, [r7, #8]
 574 0064 094A     		ldr	r2, .L27+16
 575 0066 1343     		orr	r3, r2
 576 0068 BB60     		str	r3, [r7, #8]
 370:.\Generated_Source\PSoC4/CapSense_CSD_SMS.c ****     CapSense_CSD_CSD_IDAC_REG = newRegValue;
 577              		.loc 1 370 0
 578 006a 064B     		ldr	r3, .L27+8
 579 006c BA68     		ldr	r2, [r7, #8]
 580 006e 1A60     		str	r2, [r3]
 371:.\Generated_Source\PSoC4/CapSense_CSD_SMS.c **** 
 372:.\Generated_Source\PSoC4/CapSense_CSD_SMS.c ****     CyIntEnable(CapSense_CSD_ISR_NUMBER);
 581              		.loc 1 372 0
 582 0070 0F20     		mov	r0, #15
 583 0072 FFF7FEFF 		bl	CyIntEnable
 373:.\Generated_Source\PSoC4/CapSense_CSD_SMS.c **** }
 584              		.loc 1 373 0
 585 0076 BD46     		mov	sp, r7
 586 0078 04B0     		add	sp, sp, #16
 587              		@ sp needed
 588 007a 80BD     		pop	{r7, pc}
ARM GAS  C:\Users\lovelesh\AppData\Local\Temp\ccqnhcik.s 			page 18


 589              	.L28:
 590              		.align	2
 591              	.L27:
 592 007c 00000000 		.word	CapSense_CSD_modulationIDAC
 593 0080 00000000 		.word	CapSense_CSD_compensationIDAC
 594 0084 08000840 		.word	1074266120
 595 0088 FFFCFFFC 		.word	-50332417
 596 008c 00020001 		.word	16777728
 597              		.cfi_endproc
 598              	.LFE38:
 599              		.size	CapSense_CSD_EnableBaselineIDAC, .-CapSense_CSD_EnableBaselineIDAC
 600              		.section	.text.CapSense_CSD_SetSensitivity,"ax",%progbits
 601              		.align	2
 602              		.global	CapSense_CSD_SetSensitivity
 603              		.code	16
 604              		.thumb_func
 605              		.type	CapSense_CSD_SetSensitivity, %function
 606              	CapSense_CSD_SetSensitivity:
 607              	.LFB39:
 374:.\Generated_Source\PSoC4/CapSense_CSD_SMS.c **** 
 375:.\Generated_Source\PSoC4/CapSense_CSD_SMS.c **** 
 376:.\Generated_Source\PSoC4/CapSense_CSD_SMS.c **** /*******************************************************************************
 377:.\Generated_Source\PSoC4/CapSense_CSD_SMS.c **** * Function Name: CapSense_CSD_SetSensitivity
 378:.\Generated_Source\PSoC4/CapSense_CSD_SMS.c **** ********************************************************************************
 379:.\Generated_Source\PSoC4/CapSense_CSD_SMS.c **** *
 380:.\Generated_Source\PSoC4/CapSense_CSD_SMS.c **** * Summary:
 381:.\Generated_Source\PSoC4/CapSense_CSD_SMS.c **** *  This API sets the sensitivity value for the sensor. The sensitivity
 382:.\Generated_Source\PSoC4/CapSense_CSD_SMS.c **** *  value is used during the auto-tuning algorithm executed as part of the CapSense_Start API.
 383:.\Generated_Source\PSoC4/CapSense_CSD_SMS.c **** *  This API is called by the application layer prior to calling the CapSense_Start API.
 384:.\Generated_Source\PSoC4/CapSense_CSD_SMS.c **** *  Calling this API after execution of CapSense_Start API has no effect.
 385:.\Generated_Source\PSoC4/CapSense_CSD_SMS.c **** *
 386:.\Generated_Source\PSoC4/CapSense_CSD_SMS.c **** * Parameters:
 387:.\Generated_Source\PSoC4/CapSense_CSD_SMS.c **** *  sensor  Sensor index
 388:.\Generated_Source\PSoC4/CapSense_CSD_SMS.c **** *  data    Sensitivity of the sensor. Possible values are below
 389:.\Generated_Source\PSoC4/CapSense_CSD_SMS.c **** *  1 - 0.1pf sensitivity
 390:.\Generated_Source\PSoC4/CapSense_CSD_SMS.c **** *  2 - 0.2pf sensitivity
 391:.\Generated_Source\PSoC4/CapSense_CSD_SMS.c **** *  3 - 0.3pf sensitivity
 392:.\Generated_Source\PSoC4/CapSense_CSD_SMS.c **** *  4 - 0.4pf sensitivity
 393:.\Generated_Source\PSoC4/CapSense_CSD_SMS.c **** *  5 - 0.5pf sensitivity
 394:.\Generated_Source\PSoC4/CapSense_CSD_SMS.c **** *  6 - 0.6pf sensitivity
 395:.\Generated_Source\PSoC4/CapSense_CSD_SMS.c **** *  7 - 0.7pf sensitivity
 396:.\Generated_Source\PSoC4/CapSense_CSD_SMS.c **** *  8 - 0.8pf sensitivity
 397:.\Generated_Source\PSoC4/CapSense_CSD_SMS.c **** *  9 - 0.9pf sensitivity
 398:.\Generated_Source\PSoC4/CapSense_CSD_SMS.c **** *  10 - 1.0pf sensitivity
 399:.\Generated_Source\PSoC4/CapSense_CSD_SMS.c **** *  All other values, set sensitivity to 1.0pf
 400:.\Generated_Source\PSoC4/CapSense_CSD_SMS.c **** *
 401:.\Generated_Source\PSoC4/CapSense_CSD_SMS.c **** *  Return Value:
 402:.\Generated_Source\PSoC4/CapSense_CSD_SMS.c **** *   None
 403:.\Generated_Source\PSoC4/CapSense_CSD_SMS.c **** *
 404:.\Generated_Source\PSoC4/CapSense_CSD_SMS.c **** * Global Variables:
 405:.\Generated_Source\PSoC4/CapSense_CSD_SMS.c **** * CapSense_CSD_sensorSensitivity[] - This 8-bits array contains Sensitivity in the LSB nibble
 406:.\Generated_Source\PSoC4/CapSense_CSD_SMS.c **** *                                and Noise Reset Counter value in the MSB nibble.
 407:.\Generated_Source\PSoC4/CapSense_CSD_SMS.c **** *
 408:.\Generated_Source\PSoC4/CapSense_CSD_SMS.c **** * Side Effects:
 409:.\Generated_Source\PSoC4/CapSense_CSD_SMS.c **** *  None
 410:.\Generated_Source\PSoC4/CapSense_CSD_SMS.c **** *
 411:.\Generated_Source\PSoC4/CapSense_CSD_SMS.c **** *******************************************************************************/
ARM GAS  C:\Users\lovelesh\AppData\Local\Temp\ccqnhcik.s 			page 19


 412:.\Generated_Source\PSoC4/CapSense_CSD_SMS.c **** void CapSense_CSD_SetSensitivity(uint32 sensor, uint32 value)
 413:.\Generated_Source\PSoC4/CapSense_CSD_SMS.c **** {
 608              		.loc 1 413 0
 609              		.cfi_startproc
 610 0000 80B5     		push	{r7, lr}
 611              		.cfi_def_cfa_offset 8
 612              		.cfi_offset 7, -8
 613              		.cfi_offset 14, -4
 614 0002 82B0     		sub	sp, sp, #8
 615              		.cfi_def_cfa_offset 16
 616 0004 00AF     		add	r7, sp, #0
 617              		.cfi_def_cfa_register 7
 618 0006 7860     		str	r0, [r7, #4]
 619 0008 3960     		str	r1, [r7]
 414:.\Generated_Source\PSoC4/CapSense_CSD_SMS.c ****     if(value > 10u)
 620              		.loc 1 414 0
 621 000a 3B68     		ldr	r3, [r7]
 622 000c 0A2B     		cmp	r3, #10
 623 000e 01D9     		bls	.L30
 415:.\Generated_Source\PSoC4/CapSense_CSD_SMS.c ****     {
 416:.\Generated_Source\PSoC4/CapSense_CSD_SMS.c ****         value = 10u;
 624              		.loc 1 416 0
 625 0010 0A23     		mov	r3, #10
 626 0012 3B60     		str	r3, [r7]
 627              	.L30:
 417:.\Generated_Source\PSoC4/CapSense_CSD_SMS.c ****     }
 418:.\Generated_Source\PSoC4/CapSense_CSD_SMS.c **** 
 419:.\Generated_Source\PSoC4/CapSense_CSD_SMS.c ****     /* Clear SensorSensitivity value in LSB nibble */
 420:.\Generated_Source\PSoC4/CapSense_CSD_SMS.c ****     CapSense_CSD_sensorSensitivity[sensor] &= (uint8)~CapSense_CSD_SENSITIVITY_MASK;
 628              		.loc 1 420 0
 629 0014 0D4A     		ldr	r2, .L31
 630 0016 7B68     		ldr	r3, [r7, #4]
 631 0018 D318     		add	r3, r2, r3
 632 001a 1B78     		ldrb	r3, [r3]
 633 001c 0F22     		mov	r2, #15
 634 001e 9343     		bic	r3, r2
 635 0020 D9B2     		uxtb	r1, r3
 636 0022 0A4A     		ldr	r2, .L31
 637 0024 7B68     		ldr	r3, [r7, #4]
 638 0026 D318     		add	r3, r2, r3
 639 0028 0A1C     		add	r2, r1, #0
 640 002a 1A70     		strb	r2, [r3]
 421:.\Generated_Source\PSoC4/CapSense_CSD_SMS.c ****     /* Set SensorSensitivity value in LSB nibble */
 422:.\Generated_Source\PSoC4/CapSense_CSD_SMS.c ****     CapSense_CSD_sensorSensitivity[sensor] |= (uint8)value;
 641              		.loc 1 422 0
 642 002c 074A     		ldr	r2, .L31
 643 002e 7B68     		ldr	r3, [r7, #4]
 644 0030 D318     		add	r3, r2, r3
 645 0032 1A78     		ldrb	r2, [r3]
 646 0034 3B68     		ldr	r3, [r7]
 647 0036 DBB2     		uxtb	r3, r3
 648 0038 1343     		orr	r3, r2
 649 003a D9B2     		uxtb	r1, r3
 650 003c 034A     		ldr	r2, .L31
 651 003e 7B68     		ldr	r3, [r7, #4]
 652 0040 D318     		add	r3, r2, r3
 653 0042 0A1C     		add	r2, r1, #0
ARM GAS  C:\Users\lovelesh\AppData\Local\Temp\ccqnhcik.s 			page 20


 654 0044 1A70     		strb	r2, [r3]
 423:.\Generated_Source\PSoC4/CapSense_CSD_SMS.c **** }
 655              		.loc 1 423 0
 656 0046 BD46     		mov	sp, r7
 657 0048 02B0     		add	sp, sp, #8
 658              		@ sp needed
 659 004a 80BD     		pop	{r7, pc}
 660              	.L32:
 661              		.align	2
 662              	.L31:
 663 004c 00000000 		.word	CapSense_CSD_sensorSensitivity
 664              		.cfi_endproc
 665              	.LFE39:
 666              		.size	CapSense_CSD_SetSensitivity, .-CapSense_CSD_SetSensitivity
 667              		.section	.text.CapSense_CSD_GetSensitivityCoefficient,"ax",%progbits
 668              		.align	2
 669              		.global	CapSense_CSD_GetSensitivityCoefficient
 670              		.code	16
 671              		.thumb_func
 672              		.type	CapSense_CSD_GetSensitivityCoefficient, %function
 673              	CapSense_CSD_GetSensitivityCoefficient:
 674              	.LFB40:
 424:.\Generated_Source\PSoC4/CapSense_CSD_SMS.c **** 
 425:.\Generated_Source\PSoC4/CapSense_CSD_SMS.c **** 
 426:.\Generated_Source\PSoC4/CapSense_CSD_SMS.c **** /*******************************************************************************
 427:.\Generated_Source\PSoC4/CapSense_CSD_SMS.c **** * Function Name: CapSense_CSD_GetSensitivityCoefficient
 428:.\Generated_Source\PSoC4/CapSense_CSD_SMS.c **** ********************************************************************************
 429:.\Generated_Source\PSoC4/CapSense_CSD_SMS.c **** *
 430:.\Generated_Source\PSoC4/CapSense_CSD_SMS.c **** * Summary:
 431:.\Generated_Source\PSoC4/CapSense_CSD_SMS.c **** *  This API returns the K coefficient for the appropriate sensor.
 432:.\Generated_Source\PSoC4/CapSense_CSD_SMS.c **** *
 433:.\Generated_Source\PSoC4/CapSense_CSD_SMS.c **** * Parameters:
 434:.\Generated_Source\PSoC4/CapSense_CSD_SMS.c **** *  sensor:  Sensor index
 435:.\Generated_Source\PSoC4/CapSense_CSD_SMS.c **** *
 436:.\Generated_Source\PSoC4/CapSense_CSD_SMS.c **** *  Return Value:
 437:.\Generated_Source\PSoC4/CapSense_CSD_SMS.c **** *   K - value for the appropriate sensor.
 438:.\Generated_Source\PSoC4/CapSense_CSD_SMS.c **** *
 439:.\Generated_Source\PSoC4/CapSense_CSD_SMS.c **** * Global Variables:
 440:.\Generated_Source\PSoC4/CapSense_CSD_SMS.c **** *  CapSense_CSD_kValueTbl[] - This 8-bits array contains the K value for each sensor.
 441:.\Generated_Source\PSoC4/CapSense_CSD_SMS.c **** *
 442:.\Generated_Source\PSoC4/CapSense_CSD_SMS.c **** * Side Effects:
 443:.\Generated_Source\PSoC4/CapSense_CSD_SMS.c **** *  None
 444:.\Generated_Source\PSoC4/CapSense_CSD_SMS.c **** *
 445:.\Generated_Source\PSoC4/CapSense_CSD_SMS.c **** *******************************************************************************/
 446:.\Generated_Source\PSoC4/CapSense_CSD_SMS.c **** uint8 CapSense_CSD_GetSensitivityCoefficient(uint32 sensor)
 447:.\Generated_Source\PSoC4/CapSense_CSD_SMS.c **** {
 675              		.loc 1 447 0
 676              		.cfi_startproc
 677 0000 80B5     		push	{r7, lr}
 678              		.cfi_def_cfa_offset 8
 679              		.cfi_offset 7, -8
 680              		.cfi_offset 14, -4
 681 0002 82B0     		sub	sp, sp, #8
 682              		.cfi_def_cfa_offset 16
 683 0004 00AF     		add	r7, sp, #0
 684              		.cfi_def_cfa_register 7
 685 0006 7860     		str	r0, [r7, #4]
ARM GAS  C:\Users\lovelesh\AppData\Local\Temp\ccqnhcik.s 			page 21


 448:.\Generated_Source\PSoC4/CapSense_CSD_SMS.c ****     return (CapSense_CSD_kValueTbl[sensor]);
 686              		.loc 1 448 0
 687 0008 034A     		ldr	r2, .L35
 688 000a 7B68     		ldr	r3, [r7, #4]
 689 000c D318     		add	r3, r2, r3
 690 000e 1B78     		ldrb	r3, [r3]
 449:.\Generated_Source\PSoC4/CapSense_CSD_SMS.c **** }
 691              		.loc 1 449 0
 692 0010 181C     		mov	r0, r3
 693 0012 BD46     		mov	sp, r7
 694 0014 02B0     		add	sp, sp, #8
 695              		@ sp needed
 696 0016 80BD     		pop	{r7, pc}
 697              	.L36:
 698              		.align	2
 699              	.L35:
 700 0018 00000000 		.word	CapSense_CSD_kValueTbl
 701              		.cfi_endproc
 702              	.LFE40:
 703              		.size	CapSense_CSD_GetSensitivityCoefficient, .-CapSense_CSD_GetSensitivityCoefficient
 704              		.section	.text.CapSense_CSD_GetNoiseEnvelope,"ax",%progbits
 705              		.align	2
 706              		.global	CapSense_CSD_GetNoiseEnvelope
 707              		.code	16
 708              		.thumb_func
 709              		.type	CapSense_CSD_GetNoiseEnvelope, %function
 710              	CapSense_CSD_GetNoiseEnvelope:
 711              	.LFB41:
 450:.\Generated_Source\PSoC4/CapSense_CSD_SMS.c **** 
 451:.\Generated_Source\PSoC4/CapSense_CSD_SMS.c **** 
 452:.\Generated_Source\PSoC4/CapSense_CSD_SMS.c **** /*******************************************************************************
 453:.\Generated_Source\PSoC4/CapSense_CSD_SMS.c **** * Function Name: CapSense_CSD_GetNoiseEnvelope
 454:.\Generated_Source\PSoC4/CapSense_CSD_SMS.c **** ********************************************************************************
 455:.\Generated_Source\PSoC4/CapSense_CSD_SMS.c **** *
 456:.\Generated_Source\PSoC4/CapSense_CSD_SMS.c **** * Summary:
 457:.\Generated_Source\PSoC4/CapSense_CSD_SMS.c **** *  This function returns the noise value of a
 458:.\Generated_Source\PSoC4/CapSense_CSD_SMS.c **** *  component.
 459:.\Generated_Source\PSoC4/CapSense_CSD_SMS.c **** *
 460:.\Generated_Source\PSoC4/CapSense_CSD_SMS.c **** * Parameters:
 461:.\Generated_Source\PSoC4/CapSense_CSD_SMS.c **** *  sensor - Sensor number.
 462:.\Generated_Source\PSoC4/CapSense_CSD_SMS.c **** *
 463:.\Generated_Source\PSoC4/CapSense_CSD_SMS.c **** * Return:
 464:.\Generated_Source\PSoC4/CapSense_CSD_SMS.c **** *  The noise envelope value of the sensor
 465:.\Generated_Source\PSoC4/CapSense_CSD_SMS.c **** *  indicated by argument.
 466:.\Generated_Source\PSoC4/CapSense_CSD_SMS.c **** *
 467:.\Generated_Source\PSoC4/CapSense_CSD_SMS.c **** * Global Variables:
 468:.\Generated_Source\PSoC4/CapSense_CSD_SMS.c **** *  CapSense_CSD_noiseEnvelopeTbl[] - array with Noise Envelope.
 469:.\Generated_Source\PSoC4/CapSense_CSD_SMS.c **** *
 470:.\Generated_Source\PSoC4/CapSense_CSD_SMS.c **** * Side Effects:
 471:.\Generated_Source\PSoC4/CapSense_CSD_SMS.c **** *  None
 472:.\Generated_Source\PSoC4/CapSense_CSD_SMS.c **** *
 473:.\Generated_Source\PSoC4/CapSense_CSD_SMS.c **** *******************************************************************************/
 474:.\Generated_Source\PSoC4/CapSense_CSD_SMS.c **** uint16 CapSense_CSD_GetNoiseEnvelope(uint32 sensor)
 475:.\Generated_Source\PSoC4/CapSense_CSD_SMS.c **** {
 712              		.loc 1 475 0
 713              		.cfi_startproc
 714 0000 80B5     		push	{r7, lr}
ARM GAS  C:\Users\lovelesh\AppData\Local\Temp\ccqnhcik.s 			page 22


 715              		.cfi_def_cfa_offset 8
 716              		.cfi_offset 7, -8
 717              		.cfi_offset 14, -4
 718 0002 82B0     		sub	sp, sp, #8
 719              		.cfi_def_cfa_offset 16
 720 0004 00AF     		add	r7, sp, #0
 721              		.cfi_def_cfa_register 7
 722 0006 7860     		str	r0, [r7, #4]
 476:.\Generated_Source\PSoC4/CapSense_CSD_SMS.c ****     return((uint16)((uint16)CapSense_CSD_noiseEnvelopeTbl[sensor] << 1u) + 1u);
 723              		.loc 1 476 0
 724 0008 064A     		ldr	r2, .L39
 725 000a 7B68     		ldr	r3, [r7, #4]
 726 000c D318     		add	r3, r2, r3
 727 000e 1B78     		ldrb	r3, [r3]
 728 0010 9BB2     		uxth	r3, r3
 729 0012 DB18     		add	r3, r3, r3
 730 0014 9BB2     		uxth	r3, r3
 731 0016 0133     		add	r3, r3, #1
 732 0018 9BB2     		uxth	r3, r3
 477:.\Generated_Source\PSoC4/CapSense_CSD_SMS.c **** }
 733              		.loc 1 477 0
 734 001a 181C     		mov	r0, r3
 735 001c BD46     		mov	sp, r7
 736 001e 02B0     		add	sp, sp, #8
 737              		@ sp needed
 738 0020 80BD     		pop	{r7, pc}
 739              	.L40:
 740 0022 C046     		.align	2
 741              	.L39:
 742 0024 00000000 		.word	CapSense_CSD_noiseEnvelopeTbl
 743              		.cfi_endproc
 744              	.LFE41:
 745              		.size	CapSense_CSD_GetNoiseEnvelope, .-CapSense_CSD_GetNoiseEnvelope
 746              		.global	__aeabi_uidiv
 747              		.section	.text.CapSense_CSD_GetNormalizedDiffCountData,"ax",%progbits
 748              		.align	2
 749              		.global	CapSense_CSD_GetNormalizedDiffCountData
 750              		.code	16
 751              		.thumb_func
 752              		.type	CapSense_CSD_GetNormalizedDiffCountData, %function
 753              	CapSense_CSD_GetNormalizedDiffCountData:
 754              	.LFB42:
 478:.\Generated_Source\PSoC4/CapSense_CSD_SMS.c **** 
 479:.\Generated_Source\PSoC4/CapSense_CSD_SMS.c **** 
 480:.\Generated_Source\PSoC4/CapSense_CSD_SMS.c **** /*******************************************************************************
 481:.\Generated_Source\PSoC4/CapSense_CSD_SMS.c **** * Function Name: CapSense_CSD_GetNormalizedDiffCountData
 482:.\Generated_Source\PSoC4/CapSense_CSD_SMS.c **** ********************************************************************************
 483:.\Generated_Source\PSoC4/CapSense_CSD_SMS.c **** *
 484:.\Generated_Source\PSoC4/CapSense_CSD_SMS.c **** * Summary:
 485:.\Generated_Source\PSoC4/CapSense_CSD_SMS.c **** *  This API returns normalized difference count data.
 486:.\Generated_Source\PSoC4/CapSense_CSD_SMS.c **** *
 487:.\Generated_Source\PSoC4/CapSense_CSD_SMS.c **** * Parameters:
 488:.\Generated_Source\PSoC4/CapSense_CSD_SMS.c **** *  sensor:  Sensor number.
 489:.\Generated_Source\PSoC4/CapSense_CSD_SMS.c **** *
 490:.\Generated_Source\PSoC4/CapSense_CSD_SMS.c **** * Return:
 491:.\Generated_Source\PSoC4/CapSense_CSD_SMS.c **** *  This API returns a normalized count value of the sensor indicated by the
 492:.\Generated_Source\PSoC4/CapSense_CSD_SMS.c **** *  argument.
ARM GAS  C:\Users\lovelesh\AppData\Local\Temp\ccqnhcik.s 			page 23


 493:.\Generated_Source\PSoC4/CapSense_CSD_SMS.c **** *
 494:.\Generated_Source\PSoC4/CapSense_CSD_SMS.c **** * Global Variables:
 495:.\Generated_Source\PSoC4/CapSense_CSD_SMS.c **** *  CapSense_CSD_sensorSignal[] - array with difference counts for sensors
 496:.\Generated_Source\PSoC4/CapSense_CSD_SMS.c **** *
 497:.\Generated_Source\PSoC4/CapSense_CSD_SMS.c **** * Side Effects:
 498:.\Generated_Source\PSoC4/CapSense_CSD_SMS.c **** *  None
 499:.\Generated_Source\PSoC4/CapSense_CSD_SMS.c **** *
 500:.\Generated_Source\PSoC4/CapSense_CSD_SMS.c **** *******************************************************************************/
 501:.\Generated_Source\PSoC4/CapSense_CSD_SMS.c **** uint16 CapSense_CSD_GetNormalizedDiffCountData(uint32 sensor)
 502:.\Generated_Source\PSoC4/CapSense_CSD_SMS.c **** {
 755              		.loc 1 502 0
 756              		.cfi_startproc
 757 0000 80B5     		push	{r7, lr}
 758              		.cfi_def_cfa_offset 8
 759              		.cfi_offset 7, -8
 760              		.cfi_offset 14, -4
 761 0002 82B0     		sub	sp, sp, #8
 762              		.cfi_def_cfa_offset 16
 763 0004 00AF     		add	r7, sp, #0
 764              		.cfi_def_cfa_register 7
 765 0006 7860     		str	r0, [r7, #4]
 503:.\Generated_Source\PSoC4/CapSense_CSD_SMS.c ****     return (uint16)(((uint32)CapSense_CSD_sensorSignal[sensor] << 7u) / CapSense_CSD_kValueTbl[sens
 766              		.loc 1 503 0
 767 0008 094A     		ldr	r2, .L43
 768 000a 7B68     		ldr	r3, [r7, #4]
 769 000c D318     		add	r3, r2, r3
 770 000e 1B78     		ldrb	r3, [r3]
 771 0010 D901     		lsl	r1, r3, #7
 772 0012 084A     		ldr	r2, .L43+4
 773 0014 7B68     		ldr	r3, [r7, #4]
 774 0016 D318     		add	r3, r2, r3
 775 0018 1B78     		ldrb	r3, [r3]
 776 001a 081C     		mov	r0, r1
 777 001c 191C     		mov	r1, r3
 778 001e FFF7FEFF 		bl	__aeabi_uidiv
 779 0022 031C     		mov	r3, r0
 780 0024 9BB2     		uxth	r3, r3
 504:.\Generated_Source\PSoC4/CapSense_CSD_SMS.c **** }
 781              		.loc 1 504 0
 782 0026 181C     		mov	r0, r3
 783 0028 BD46     		mov	sp, r7
 784 002a 02B0     		add	sp, sp, #8
 785              		@ sp needed
 786 002c 80BD     		pop	{r7, pc}
 787              	.L44:
 788 002e C046     		.align	2
 789              	.L43:
 790 0030 00000000 		.word	CapSense_CSD_sensorSignal
 791 0034 00000000 		.word	CapSense_CSD_kValueTbl
 792              		.cfi_endproc
 793              	.LFE42:
 794              		.size	CapSense_CSD_GetNormalizedDiffCountData, .-CapSense_CSD_GetNormalizedDiffCountData
 795              		.text
 796              	.Letext0:
 797              		.file 2 ".\\Generated_Source\\PSoC4\\cytypes.h"
 798              		.file 3 ".\\Generated_Source\\PSoC4\\CapSense_CSD_PVT.h"
 799              		.file 4 ".\\Generated_Source\\PSoC4\\CapSense_CSD.h"
ARM GAS  C:\Users\lovelesh\AppData\Local\Temp\ccqnhcik.s 			page 24


 800              		.file 5 ".\\Generated_Source\\PSoC4\\CapSense_CSD_CSHL.h"