ARM GAS  C:\Users\lovelesh\AppData\Local\Temp\ccK8zTJk.s 			page 1


   1              		.cpu cortex-m0
   2              		.fpu softvfp
   3              		.eabi_attribute 20, 1
   4              		.eabi_attribute 21, 1
   5              		.eabi_attribute 23, 3
   6              		.eabi_attribute 24, 1
   7              		.eabi_attribute 25, 1
   8              		.eabi_attribute 26, 1
   9              		.eabi_attribute 30, 6
  10              		.eabi_attribute 34, 0
  11              		.eabi_attribute 18, 4
  12              		.code	16
  13              		.file	"CapSense.c"
  14              		.text
  15              	.Ltext0:
  16              		.cfi_sections	.debug_frame
  17              		.global	CapSense_lowLevelTuningDone
  18              		.bss
  19              		.type	CapSense_lowLevelTuningDone, %object
  20              		.size	CapSense_lowLevelTuningDone, 1
  21              	CapSense_lowLevelTuningDone:
  22 0000 00       		.space	1
  23              		.comm	CapSense_scanSpeedTbl,1,4
  24              		.global	CapSense_prescalersTuningDone
  25              		.type	CapSense_prescalersTuningDone, %object
  26              		.size	CapSense_prescalersTuningDone, 1
  27              	CapSense_prescalersTuningDone:
  28 0001 00       		.space	1
  29              		.global	CapSense_csdStatusVar
  30              		.type	CapSense_csdStatusVar, %object
  31              		.size	CapSense_csdStatusVar, 1
  32              	CapSense_csdStatusVar:
  33 0002 00       		.space	1
  34              		.global	CapSense_sensorIndex
  35              		.type	CapSense_sensorIndex, %object
  36              		.size	CapSense_sensorIndex, 1
  37              	CapSense_sensorIndex:
  38 0003 00       		.space	1
  39              		.global	CapSense_sensorRaw
  40              		.align	2
  41              		.type	CapSense_sensorRaw, %object
  42              		.size	CapSense_sensorRaw, 16
  43              	CapSense_sensorRaw:
  44 0004 00000000 		.space	16
  44      00000000 
  44      00000000 
  44      00000000 
  45              		.comm	CapSense_csdTrim1,1,1
  46              		.comm	CapSense_unscannedSnsDriveMode,8,4
  47              		.comm	CapSense_sensorEnableMaskBackup,1,4
  48              		.global	CapSense_sensorEnableMask
  49              		.data
  50              		.align	2
  51              		.type	CapSense_sensorEnableMask, %object
  52              		.size	CapSense_sensorEnableMask, 1
  53              	CapSense_sensorEnableMask:
  54 0000 7F       		.byte	127
ARM GAS  C:\Users\lovelesh\AppData\Local\Temp\ccK8zTJk.s 			page 2


  55              		.global	CapSense_pcTable
  56 0001 000000   		.align	2
  57              		.type	CapSense_pcTable, %object
  58              		.size	CapSense_pcTable, 32
  59              	CapSense_pcTable:
  60 0004 08010440 		.word	1074004232
  61 0008 08010440 		.word	1074004232
  62 000c 08010440 		.word	1074004232
  63 0010 08010440 		.word	1074004232
  64 0014 08010440 		.word	1074004232
  65 0018 08000440 		.word	1074003976
  66 001c 08000440 		.word	1074003976
  67 0020 00000000 		.word	0
  68              		.global	CapSense_portTable
  69              		.section	.rodata
  70              		.align	2
  71              		.type	CapSense_portTable, %object
  72              		.size	CapSense_portTable, 8
  73              	CapSense_portTable:
  74 0000 01       		.byte	1
  75 0001 01       		.byte	1
  76 0002 01       		.byte	1
  77 0003 01       		.byte	1
  78 0004 01       		.byte	1
  79 0005 00       		.byte	0
  80 0006 00       		.byte	0
  81 0007 80       		.byte	-128
  82              		.global	CapSense_indexTable
  83              		.align	2
  84              		.type	CapSense_indexTable, %object
  85              		.size	CapSense_indexTable, 5
  86              	CapSense_indexTable:
  87 0008 00       		.byte	0
  88 0009 01       		.byte	1
  89 000a 02       		.byte	2
  90 000b 03       		.byte	3
  91 000c 04       		.byte	4
  92              		.global	CapSense_maskTable
  93 000d 000000   		.align	2
  94              		.type	CapSense_maskTable, %object
  95              		.size	CapSense_maskTable, 32
  96              	CapSense_maskTable:
  97 0010 02000000 		.word	2
  98 0014 04000000 		.word	4
  99 0018 08000000 		.word	8
 100 001c 10000000 		.word	16
 101 0020 20000000 		.word	32
 102 0024 01000000 		.word	1
 103 0028 02000000 		.word	2
 104 002c 05000000 		.word	5
 105              		.global	CapSense_pinShiftTbl
 106              		.align	2
 107              		.type	CapSense_pinShiftTbl, %object
 108              		.size	CapSense_pinShiftTbl, 8
 109              	CapSense_pinShiftTbl:
 110 0030 01       		.byte	1
 111 0031 02       		.byte	2
ARM GAS  C:\Users\lovelesh\AppData\Local\Temp\ccK8zTJk.s 			page 3


 112 0032 03       		.byte	3
 113 0033 04       		.byte	4
 114 0034 05       		.byte	5
 115 0035 00       		.byte	0
 116 0036 01       		.byte	1
 117 0037 00       		.byte	0
 118              		.comm	CapSense_modulationIDAC,8,4
 119              		.comm	CapSense_compensationIDAC,8,4
 120              		.global	CapSense_widgetResolution
 121              		.data
 122              		.align	2
 123              		.type	CapSense_widgetResolution, %object
 124              		.size	CapSense_widgetResolution, 16
 125              	CapSense_widgetResolution:
 126 0024 0000FF0F 		.word	268369920
 127 0028 0000FF0F 		.word	268369920
 128 002c 0000FF0F 		.word	268369920
 129 0030 0000FF0F 		.word	268369920
 130              		.comm	CapSense_senseClkDividerVal,8,4
 131              		.comm	CapSense_sampleClkDividerVal,8,4
 132              		.global	CapSense_widgetNumber
 133              		.section	.rodata
 134              		.align	2
 135              		.type	CapSense_widgetNumber, %object
 136              		.size	CapSense_widgetNumber, 8
 137              	CapSense_widgetNumber:
 138 0038 00       		.byte	0
 139 0039 00       		.byte	0
 140 003a 00       		.byte	0
 141 003b 00       		.byte	0
 142 003c 00       		.byte	0
 143 003d 01       		.byte	1
 144 003e 02       		.byte	2
 145 003f 03       		.byte	3
 146              		.global	CapSense_prtSelTbl
 147              		.align	2
 148              		.type	CapSense_prtSelTbl, %object
 149              		.size	CapSense_prtSelTbl, 20
 150              	CapSense_prtSelTbl:
 151 0040 00000140 		.word	1073807360
 152 0044 04000140 		.word	1073807364
 153 0048 08000140 		.word	1073807368
 154 004c 0C000140 		.word	1073807372
 155 0050 10000140 		.word	1073807376
 156              		.global	CapSense_prtCfgTbl
 157              		.align	2
 158              		.type	CapSense_prtCfgTbl, %object
 159              		.size	CapSense_prtCfgTbl, 20
 160              	CapSense_prtCfgTbl:
 161 0054 08000440 		.word	1074003976
 162 0058 08010440 		.word	1074004232
 163 005c 08020440 		.word	1074004488
 164 0060 08030440 		.word	1074004744
 165 0064 08040440 		.word	1074005000
 166              		.global	CapSense_prtDRTbl
 167              		.align	2
 168              		.type	CapSense_prtDRTbl, %object
ARM GAS  C:\Users\lovelesh\AppData\Local\Temp\ccK8zTJk.s 			page 4


 169              		.size	CapSense_prtDRTbl, 20
 170              	CapSense_prtDRTbl:
 171 0068 00000440 		.word	1074003968
 172 006c 00010440 		.word	1074004224
 173 0070 00020440 		.word	1074004480
 174 0074 00030440 		.word	1074004736
 175 0078 00040440 		.word	1074004992
 176              		.section	.text.CapSense_Init,"ax",%progbits
 177              		.align	2
 178              		.global	CapSense_Init
 179              		.code	16
 180              		.thumb_func
 181              		.type	CapSense_Init, %function
 182              	CapSense_Init:
 183              	.LFB34:
 184              		.file 1 ".\\Generated_Source\\PSoC4\\CapSense.c"
   1:.\Generated_Source\PSoC4/CapSense.c **** /*******************************************************************************
   2:.\Generated_Source\PSoC4/CapSense.c **** * File Name: CapSense.c
   3:.\Generated_Source\PSoC4/CapSense.c **** * Version 2.40
   4:.\Generated_Source\PSoC4/CapSense.c **** *
   5:.\Generated_Source\PSoC4/CapSense.c **** * Description:
   6:.\Generated_Source\PSoC4/CapSense.c **** *  This file provides the source code for scanning APIs for the CapSense CSD
   7:.\Generated_Source\PSoC4/CapSense.c **** *  component.
   8:.\Generated_Source\PSoC4/CapSense.c **** *
   9:.\Generated_Source\PSoC4/CapSense.c **** * Note:
  10:.\Generated_Source\PSoC4/CapSense.c **** *
  11:.\Generated_Source\PSoC4/CapSense.c **** ********************************************************************************
  12:.\Generated_Source\PSoC4/CapSense.c **** * Copyright 2013-2015, Cypress Semiconductor Corporation.  All rights reserved.
  13:.\Generated_Source\PSoC4/CapSense.c **** * You may use this file only in accordance with the license, terms, conditions,
  14:.\Generated_Source\PSoC4/CapSense.c **** * disclaimers, and limitations in the end user license agreement accompanying
  15:.\Generated_Source\PSoC4/CapSense.c **** * the software package with which this file was provided.
  16:.\Generated_Source\PSoC4/CapSense.c **** *******************************************************************************/
  17:.\Generated_Source\PSoC4/CapSense.c **** 
  18:.\Generated_Source\PSoC4/CapSense.c **** #include "CapSense.h"
  19:.\Generated_Source\PSoC4/CapSense.c **** #include "CapSense_PVT.h"
  20:.\Generated_Source\PSoC4/CapSense.c **** #include "cypins.h"
  21:.\Generated_Source\PSoC4/CapSense.c **** #include "cyapicallbacks.h"
  22:.\Generated_Source\PSoC4/CapSense.c **** 
  23:.\Generated_Source\PSoC4/CapSense.c **** #if(0u != CapSense_CSHL_API_GENERATE)
  24:.\Generated_Source\PSoC4/CapSense.c ****     #include "CapSense_CSHL.h"
  25:.\Generated_Source\PSoC4/CapSense.c **** #endif /* (0u != CapSense_CSHL_API_GENERATE) */
  26:.\Generated_Source\PSoC4/CapSense.c **** 
  27:.\Generated_Source\PSoC4/CapSense.c **** /* This definition is intended to prevent unexpected linker error.
  28:.\Generated_Source\PSoC4/CapSense.c ****    For more details please see the IAR Technical Note 49981 */
  29:.\Generated_Source\PSoC4/CapSense.c **** #if defined(__ICCARM__)
  30:.\Generated_Source\PSoC4/CapSense.c ****     extern void CapSense_EnableSensor(uint32 sensor);
  31:.\Generated_Source\PSoC4/CapSense.c ****     extern void CapSense_DisableSensor(uint32 sensor);
  32:.\Generated_Source\PSoC4/CapSense.c **** #endif /* (__ICCARM__) */
  33:.\Generated_Source\PSoC4/CapSense.c **** 
  34:.\Generated_Source\PSoC4/CapSense.c **** /* SmartSense functions */
  35:.\Generated_Source\PSoC4/CapSense.c **** #if (CapSense_TUNING_METHOD == CapSense__TUNING_AUTO)
  36:.\Generated_Source\PSoC4/CapSense.c ****     uint8 CapSense_lowLevelTuningDone = 0u;
  37:.\Generated_Source\PSoC4/CapSense.c ****     uint8 CapSense_scanSpeedTbl[((CapSense_TOTAL_SENSOR_COUNT - 1u) / 8u) + 1u];
  38:.\Generated_Source\PSoC4/CapSense.c **** #endif /* (CapSense_TUNING_METHOD == CapSense__TUNING_AUTO) */
  39:.\Generated_Source\PSoC4/CapSense.c **** 
  40:.\Generated_Source\PSoC4/CapSense.c **** #if(CapSense_PRS_OPTIONS != CapSense__PRS_NONE)
  41:.\Generated_Source\PSoC4/CapSense.c ****     uint8 CapSense_prescalersTuningDone = 0u;
ARM GAS  C:\Users\lovelesh\AppData\Local\Temp\ccK8zTJk.s 			page 5


  42:.\Generated_Source\PSoC4/CapSense.c **** #endif /* (CapSense_PRS_OPTIONS == CapSense__PRS_NONE) */
  43:.\Generated_Source\PSoC4/CapSense.c **** 
  44:.\Generated_Source\PSoC4/CapSense.c **** /* Global software variables */
  45:.\Generated_Source\PSoC4/CapSense.c **** volatile uint8 CapSense_csdStatusVar = 0u;   /* CapSense CSD status, variable */
  46:.\Generated_Source\PSoC4/CapSense.c **** volatile uint8 CapSense_sensorIndex = 0u;    /* Index of scannig sensor */
  47:.\Generated_Source\PSoC4/CapSense.c **** 
  48:.\Generated_Source\PSoC4/CapSense.c **** /* Global array of Raw Counts */
  49:.\Generated_Source\PSoC4/CapSense.c **** uint16 CapSense_sensorRaw[CapSense_TOTAL_SENSOR_COUNT] = {0u};
  50:.\Generated_Source\PSoC4/CapSense.c **** 
  51:.\Generated_Source\PSoC4/CapSense.c **** /* Backup variables for trim registers*/
  52:.\Generated_Source\PSoC4/CapSense.c **** #if (CapSense_IDAC1_POLARITY == CapSense__IDAC_SINK)
  53:.\Generated_Source\PSoC4/CapSense.c ****     uint8 CapSense_csdTrim2;
  54:.\Generated_Source\PSoC4/CapSense.c **** #else
  55:.\Generated_Source\PSoC4/CapSense.c ****     uint8 CapSense_csdTrim1;
  56:.\Generated_Source\PSoC4/CapSense.c **** #endif /* (CapSense_IDAC1_POLARITY == CapSense__IDAC_SINK) */
  57:.\Generated_Source\PSoC4/CapSense.c **** 
  58:.\Generated_Source\PSoC4/CapSense.c **** /* Global array of un-scanned sensors state */
  59:.\Generated_Source\PSoC4/CapSense.c **** uint8 CapSense_unscannedSnsDriveMode[CapSense_PORT_PIN_CONFIG_TBL_ZISE];
  60:.\Generated_Source\PSoC4/CapSense.c **** 
  61:.\Generated_Source\PSoC4/CapSense.c **** /* Backup array for CapSense_sensorEnableMask */
  62:.\Generated_Source\PSoC4/CapSense.c **** uint8 CapSense_sensorEnableMaskBackup[(((CapSense_TOTAL_SENSOR_COUNT - 1u) / 8u) + 1u)];
  63:.\Generated_Source\PSoC4/CapSense.c **** 
  64:.\Generated_Source\PSoC4/CapSense.c **** /* Configured constants and arrays by Customizer */
  65:.\Generated_Source\PSoC4/CapSense.c **** uint8 CapSense_sensorEnableMask[(((CapSense_TOTAL_SENSOR_COUNT - 1u) / 8u) + 1u)] = {
  66:.\Generated_Source\PSoC4/CapSense.c **** 0x7Fu, };
  67:.\Generated_Source\PSoC4/CapSense.c **** 
  68:.\Generated_Source\PSoC4/CapSense.c **** reg32 * CapSense_pcTable[] = {
  69:.\Generated_Source\PSoC4/CapSense.c ****     (reg32 *)CapSense_Sns__LinearSlider0_e0__LS__PC, 
  70:.\Generated_Source\PSoC4/CapSense.c ****     (reg32 *)CapSense_Sns__LinearSlider0_e1__LS__PC, 
  71:.\Generated_Source\PSoC4/CapSense.c ****     (reg32 *)CapSense_Sns__LinearSlider0_e2__LS__PC, 
  72:.\Generated_Source\PSoC4/CapSense.c ****     (reg32 *)CapSense_Sns__LinearSlider0_e3__LS__PC, 
  73:.\Generated_Source\PSoC4/CapSense.c ****     (reg32 *)CapSense_Sns__LinearSlider0_e4__LS__PC, 
  74:.\Generated_Source\PSoC4/CapSense.c ****     (reg32 *)CapSense_Sns__Button0__BTN__PC, 
  75:.\Generated_Source\PSoC4/CapSense.c ****     (reg32 *)CapSense_Sns__Button1__BTN__PC, 
  76:.\Generated_Source\PSoC4/CapSense.c ****     0u, 
  77:.\Generated_Source\PSoC4/CapSense.c **** };
  78:.\Generated_Source\PSoC4/CapSense.c **** 
  79:.\Generated_Source\PSoC4/CapSense.c **** const uint8 CapSense_portTable[] = {
  80:.\Generated_Source\PSoC4/CapSense.c ****     CapSense_Sns__LinearSlider0_e0__LS__PORT, 
  81:.\Generated_Source\PSoC4/CapSense.c ****     CapSense_Sns__LinearSlider0_e1__LS__PORT, 
  82:.\Generated_Source\PSoC4/CapSense.c ****     CapSense_Sns__LinearSlider0_e2__LS__PORT, 
  83:.\Generated_Source\PSoC4/CapSense.c ****     CapSense_Sns__LinearSlider0_e3__LS__PORT, 
  84:.\Generated_Source\PSoC4/CapSense.c ****     CapSense_Sns__LinearSlider0_e4__LS__PORT, 
  85:.\Generated_Source\PSoC4/CapSense.c ****     CapSense_Sns__Button0__BTN__PORT, 
  86:.\Generated_Source\PSoC4/CapSense.c ****     CapSense_Sns__Button1__BTN__PORT, 
  87:.\Generated_Source\PSoC4/CapSense.c ****     0u | 0x80u, /* ProximitySensor0__PROX */
  88:.\Generated_Source\PSoC4/CapSense.c **** };
  89:.\Generated_Source\PSoC4/CapSense.c **** 
  90:.\Generated_Source\PSoC4/CapSense.c **** const uint8 CYCODE CapSense_indexTable[CapSense_INDEX_TABLE_SIZE] = {
  91:.\Generated_Source\PSoC4/CapSense.c ****     0u, 1u, 2u, 3u, 4u,  /*ProximitySensor0__PROX*/
  92:.\Generated_Source\PSoC4/CapSense.c **** };
  93:.\Generated_Source\PSoC4/CapSense.c **** 
  94:.\Generated_Source\PSoC4/CapSense.c **** const uint32 CapSense_maskTable[] = {
  95:.\Generated_Source\PSoC4/CapSense.c ****     CapSense_Sns__LinearSlider0_e0__LS__MASK, 
  96:.\Generated_Source\PSoC4/CapSense.c ****     CapSense_Sns__LinearSlider0_e1__LS__MASK, 
  97:.\Generated_Source\PSoC4/CapSense.c ****     CapSense_Sns__LinearSlider0_e2__LS__MASK, 
  98:.\Generated_Source\PSoC4/CapSense.c ****     CapSense_Sns__LinearSlider0_e3__LS__MASK, 
ARM GAS  C:\Users\lovelesh\AppData\Local\Temp\ccK8zTJk.s 			page 6


  99:.\Generated_Source\PSoC4/CapSense.c ****     CapSense_Sns__LinearSlider0_e4__LS__MASK, 
 100:.\Generated_Source\PSoC4/CapSense.c ****     CapSense_Sns__Button0__BTN__MASK, 
 101:.\Generated_Source\PSoC4/CapSense.c ****     CapSense_Sns__Button1__BTN__MASK, 
 102:.\Generated_Source\PSoC4/CapSense.c ****     5u, /*ProximitySensor0__PROX*/
 103:.\Generated_Source\PSoC4/CapSense.c **** };
 104:.\Generated_Source\PSoC4/CapSense.c **** 
 105:.\Generated_Source\PSoC4/CapSense.c **** const uint8 CapSense_pinShiftTbl[] = {
 106:.\Generated_Source\PSoC4/CapSense.c ****     (uint8) CapSense_Sns__LinearSlider0_e0__LS__SHIFT, 
 107:.\Generated_Source\PSoC4/CapSense.c ****     (uint8) CapSense_Sns__LinearSlider0_e1__LS__SHIFT, 
 108:.\Generated_Source\PSoC4/CapSense.c ****     (uint8) CapSense_Sns__LinearSlider0_e2__LS__SHIFT, 
 109:.\Generated_Source\PSoC4/CapSense.c ****     (uint8) CapSense_Sns__LinearSlider0_e3__LS__SHIFT, 
 110:.\Generated_Source\PSoC4/CapSense.c ****     (uint8) CapSense_Sns__LinearSlider0_e4__LS__SHIFT, 
 111:.\Generated_Source\PSoC4/CapSense.c ****     (uint8) CapSense_Sns__Button0__BTN__SHIFT, 
 112:.\Generated_Source\PSoC4/CapSense.c ****     (uint8) CapSense_Sns__Button1__BTN__SHIFT, 
 113:.\Generated_Source\PSoC4/CapSense.c ****     0u,
 114:.\Generated_Source\PSoC4/CapSense.c **** };
 115:.\Generated_Source\PSoC4/CapSense.c **** 
 116:.\Generated_Source\PSoC4/CapSense.c **** uint8 CapSense_modulationIDAC[CapSense_TOTAL_SENSOR_COUNT];
 117:.\Generated_Source\PSoC4/CapSense.c **** uint8 CapSense_compensationIDAC[CapSense_TOTAL_SENSOR_COUNT];
 118:.\Generated_Source\PSoC4/CapSense.c **** 
 119:.\Generated_Source\PSoC4/CapSense.c **** uint32 CapSense_widgetResolution[CapSense_RESOLUTIONS_TBL_SIZE] = {
 120:.\Generated_Source\PSoC4/CapSense.c ****     CapSense_RESOLUTION_12_BITS,
 121:.\Generated_Source\PSoC4/CapSense.c ****     CapSense_RESOLUTION_12_BITS,
 122:.\Generated_Source\PSoC4/CapSense.c ****     CapSense_RESOLUTION_12_BITS,
 123:.\Generated_Source\PSoC4/CapSense.c ****     CapSense_RESOLUTION_12_BITS,
 124:.\Generated_Source\PSoC4/CapSense.c **** };
 125:.\Generated_Source\PSoC4/CapSense.c **** 
 126:.\Generated_Source\PSoC4/CapSense.c **** uint8 CapSense_senseClkDividerVal[CapSense_TOTAL_SCANSLOT_COUNT];
 127:.\Generated_Source\PSoC4/CapSense.c **** uint8 CapSense_sampleClkDividerVal[CapSense_TOTAL_SCANSLOT_COUNT];
 128:.\Generated_Source\PSoC4/CapSense.c **** 
 129:.\Generated_Source\PSoC4/CapSense.c **** const uint8 CapSense_widgetNumber[CapSense_TOTAL_SENSOR_COUNT] = {
 130:.\Generated_Source\PSoC4/CapSense.c ****     0u, 0u, 0u, 0u, 0u, /* LinearSlider0__LS */
 131:.\Generated_Source\PSoC4/CapSense.c ****     1u, /* Button0__BTN */
 132:.\Generated_Source\PSoC4/CapSense.c ****     2u, /* Button1__BTN */
 133:.\Generated_Source\PSoC4/CapSense.c ****     3u, /* ProximitySensor0__PROX */
 134:.\Generated_Source\PSoC4/CapSense.c **** };
 135:.\Generated_Source\PSoC4/CapSense.c **** 
 136:.\Generated_Source\PSoC4/CapSense.c **** reg32* const CapSense_prtSelTbl[CapSense_CFG_REG_TBL_SIZE] = {
 137:.\Generated_Source\PSoC4/CapSense.c ****     ((reg32 *) CYREG_HSIOM_PORT_SEL0),
 138:.\Generated_Source\PSoC4/CapSense.c ****     ((reg32 *) CYREG_HSIOM_PORT_SEL1),
 139:.\Generated_Source\PSoC4/CapSense.c ****     ((reg32 *) CYREG_HSIOM_PORT_SEL2),
 140:.\Generated_Source\PSoC4/CapSense.c ****     ((reg32 *) CYREG_HSIOM_PORT_SEL3),
 141:.\Generated_Source\PSoC4/CapSense.c ****     ((reg32 *) CYREG_HSIOM_PORT_SEL4),
 142:.\Generated_Source\PSoC4/CapSense.c **** };
 143:.\Generated_Source\PSoC4/CapSense.c **** 
 144:.\Generated_Source\PSoC4/CapSense.c **** reg32* const CapSense_prtCfgTbl[CapSense_CFG_REG_TBL_SIZE] = {
 145:.\Generated_Source\PSoC4/CapSense.c ****     ((reg32 *) CYREG_PRT0_PC),
 146:.\Generated_Source\PSoC4/CapSense.c ****     ((reg32 *) CYREG_PRT1_PC),
 147:.\Generated_Source\PSoC4/CapSense.c ****     ((reg32 *) CYREG_PRT2_PC),
 148:.\Generated_Source\PSoC4/CapSense.c ****     ((reg32 *) CYREG_PRT3_PC),
 149:.\Generated_Source\PSoC4/CapSense.c ****     ((reg32 *) CYREG_PRT4_PC),
 150:.\Generated_Source\PSoC4/CapSense.c **** };
 151:.\Generated_Source\PSoC4/CapSense.c **** 
 152:.\Generated_Source\PSoC4/CapSense.c **** reg32* const CapSense_prtDRTbl[CapSense_CFG_REG_TBL_SIZE] = {
 153:.\Generated_Source\PSoC4/CapSense.c ****     ((reg32 *) CYREG_PRT0_DR),
 154:.\Generated_Source\PSoC4/CapSense.c ****     ((reg32 *) CYREG_PRT1_DR),
 155:.\Generated_Source\PSoC4/CapSense.c ****     ((reg32 *) CYREG_PRT2_DR),
ARM GAS  C:\Users\lovelesh\AppData\Local\Temp\ccK8zTJk.s 			page 7


 156:.\Generated_Source\PSoC4/CapSense.c ****     ((reg32 *) CYREG_PRT3_DR),
 157:.\Generated_Source\PSoC4/CapSense.c ****     ((reg32 *) CYREG_PRT4_DR),
 158:.\Generated_Source\PSoC4/CapSense.c **** };
 159:.\Generated_Source\PSoC4/CapSense.c **** 
 160:.\Generated_Source\PSoC4/CapSense.c **** 
 161:.\Generated_Source\PSoC4/CapSense.c **** 
 162:.\Generated_Source\PSoC4/CapSense.c **** /*******************************************************************************
 163:.\Generated_Source\PSoC4/CapSense.c **** * Function Name: CapSense_Init
 164:.\Generated_Source\PSoC4/CapSense.c **** ********************************************************************************
 165:.\Generated_Source\PSoC4/CapSense.c **** *
 166:.\Generated_Source\PSoC4/CapSense.c **** * Summary:
 167:.\Generated_Source\PSoC4/CapSense.c **** *  API initializes default CapSense configuration provided by the customizer that defines
 168:.\Generated_Source\PSoC4/CapSense.c **** *  the mode of component operations and resets all the sensors to an inactive state.
 169:.\Generated_Source\PSoC4/CapSense.c **** *
 170:.\Generated_Source\PSoC4/CapSense.c **** * Parameters:
 171:.\Generated_Source\PSoC4/CapSense.c **** *  None
 172:.\Generated_Source\PSoC4/CapSense.c **** *
 173:.\Generated_Source\PSoC4/CapSense.c **** * Return:
 174:.\Generated_Source\PSoC4/CapSense.c **** *  None
 175:.\Generated_Source\PSoC4/CapSense.c **** *
 176:.\Generated_Source\PSoC4/CapSense.c **** * Global Variables:
 177:.\Generated_Source\PSoC4/CapSense.c **** *  CapSense_immunityIndex - defines immunity level.
 178:.\Generated_Source\PSoC4/CapSense.c **** *
 179:.\Generated_Source\PSoC4/CapSense.c **** * Side Effects:
 180:.\Generated_Source\PSoC4/CapSense.c **** *  None
 181:.\Generated_Source\PSoC4/CapSense.c **** *
 182:.\Generated_Source\PSoC4/CapSense.c **** *******************************************************************************/
 183:.\Generated_Source\PSoC4/CapSense.c **** void CapSense_Init(void)
 184:.\Generated_Source\PSoC4/CapSense.c **** {
 185              		.loc 1 184 0
 186              		.cfi_startproc
 187 0000 80B5     		push	{r7, lr}
 188              		.cfi_def_cfa_offset 8
 189              		.cfi_offset 7, -8
 190              		.cfi_offset 14, -4
 191 0002 82B0     		sub	sp, sp, #8
 192              		.cfi_def_cfa_offset 16
 193 0004 00AF     		add	r7, sp, #0
 194              		.cfi_def_cfa_register 7
 185:.\Generated_Source\PSoC4/CapSense.c ****     uint32 curSensor;
 186:.\Generated_Source\PSoC4/CapSense.c **** 
 187:.\Generated_Source\PSoC4/CapSense.c ****     #if(CapSense_IS_SHIELD_ENABLE)
 188:.\Generated_Source\PSoC4/CapSense.c **** 
 189:.\Generated_Source\PSoC4/CapSense.c ****         #if((CapSense_CSH_TANK_PREGARGE_OPTION == CapSense__CAPPRIOBUF) || (0u != CapSense_CSH_TANK
 190:.\Generated_Source\PSoC4/CapSense.c ****             uint32 newRegValue;
 191:.\Generated_Source\PSoC4/CapSense.c **** 
 192:.\Generated_Source\PSoC4/CapSense.c ****             newRegValue = CapSense_CTANK_CONNECTION_REG;
 193:.\Generated_Source\PSoC4/CapSense.c ****             newRegValue &= ~(CapSense_CSD_CTANK_CONNECTION_MASK);
 194:.\Generated_Source\PSoC4/CapSense.c ****             newRegValue |= CapSense_CSD_CTANK_TO_AMUXBUS_B;
 195:.\Generated_Source\PSoC4/CapSense.c ****             CapSense_CTANK_CONNECTION_REG = newRegValue;
 196:.\Generated_Source\PSoC4/CapSense.c **** 
 197:.\Generated_Source\PSoC4/CapSense.c ****             #if(CapSense_CSH_TANK_PREGARGE_OPTION == CapSense__CAPPRIOBUF)
 198:.\Generated_Source\PSoC4/CapSense.c ****                 newRegValue = CapSense_CTANK_PORT_PC_REG;
 199:.\Generated_Source\PSoC4/CapSense.c ****                 newRegValue &= ~(CapSense_CSD_CTANK_PC_MASK);
 200:.\Generated_Source\PSoC4/CapSense.c ****                 newRegValue |= CapSense_CTANK_PC_STRONG_MODE;
 201:.\Generated_Source\PSoC4/CapSense.c ****                 CapSense_CTANK_PORT_PC_REG = newRegValue;
 202:.\Generated_Source\PSoC4/CapSense.c **** 
ARM GAS  C:\Users\lovelesh\AppData\Local\Temp\ccK8zTJk.s 			page 8


 203:.\Generated_Source\PSoC4/CapSense.c ****                 newRegValue = CapSense_CTANK_PORT_DR_REG;
 204:.\Generated_Source\PSoC4/CapSense.c ****                 newRegValue &= ~(CapSense_CTANK_DR_MASK);
 205:.\Generated_Source\PSoC4/CapSense.c ****                 newRegValue |= CapSense_CTANK_DR_CONFIG;
 206:.\Generated_Source\PSoC4/CapSense.c ****                 CapSense_CTANK_PORT_DR_REG = newRegValue;
 207:.\Generated_Source\PSoC4/CapSense.c ****             #endif /* (CapSense_CSH_TANK_PREGARGE_OPTION == CapSense__CAPPRIOBUF) */
 208:.\Generated_Source\PSoC4/CapSense.c **** 
 209:.\Generated_Source\PSoC4/CapSense.c ****         #endif /* ((CapSense_CSH_TANK_PREGARGE_OPTION == CapSense__CAPPRIOBUF) || (CapSense_CSH_TAN
 210:.\Generated_Source\PSoC4/CapSense.c **** 
 211:.\Generated_Source\PSoC4/CapSense.c ****         CapSense_EnableShieldElectrode((uint32)CapSense_SHIELD_PIN_NUMBER, (uint32)CapSense_SHIELD_
 212:.\Generated_Source\PSoC4/CapSense.c **** 
 213:.\Generated_Source\PSoC4/CapSense.c ****     #endif /* (CapSense_IS_SHIELD_ENABLE) */
 214:.\Generated_Source\PSoC4/CapSense.c **** 
 215:.\Generated_Source\PSoC4/CapSense.c ****     for(curSensor = 0u; curSensor < CapSense_TOTAL_SENSOR_COUNT; curSensor++)
 195              		.loc 1 215 0
 196 0006 0023     		mov	r3, #0
 197 0008 7B60     		str	r3, [r7, #4]
 198 000a 07E0     		b	.L2
 199              	.L3:
 216:.\Generated_Source\PSoC4/CapSense.c ****     {
 217:.\Generated_Source\PSoC4/CapSense.c ****         CapSense_SetUnscannedSensorState(curSensor, CapSense_CONNECT_INACTIVE_SNS);
 200              		.loc 1 217 0 discriminator 3
 201 000c 7B68     		ldr	r3, [r7, #4]
 202 000e 181C     		mov	r0, r3
 203 0010 0021     		mov	r1, #0
 204 0012 FFF7FEFF 		bl	CapSense_SetUnscannedSensorState
 215:.\Generated_Source\PSoC4/CapSense.c ****     {
 205              		.loc 1 215 0 discriminator 3
 206 0016 7B68     		ldr	r3, [r7, #4]
 207 0018 0133     		add	r3, r3, #1
 208 001a 7B60     		str	r3, [r7, #4]
 209              	.L2:
 215:.\Generated_Source\PSoC4/CapSense.c ****     {
 210              		.loc 1 215 0 is_stmt 0 discriminator 1
 211 001c 7B68     		ldr	r3, [r7, #4]
 212 001e 072B     		cmp	r3, #7
 213 0020 F4D9     		bls	.L3
 218:.\Generated_Source\PSoC4/CapSense.c ****     }
 219:.\Generated_Source\PSoC4/CapSense.c **** 
 220:.\Generated_Source\PSoC4/CapSense.c ****     CapSense_CsdHwBlockInit();
 214              		.loc 1 220 0 is_stmt 1
 215 0022 FFF7FEFF 		bl	CapSense_CsdHwBlockInit
 221:.\Generated_Source\PSoC4/CapSense.c ****     CapSense_SetShieldDelay(CapSense_SHIELD_DELAY );
 216              		.loc 1 221 0
 217 0026 0020     		mov	r0, #0
 218 0028 FFF7FEFF 		bl	CapSense_SetShieldDelay
 222:.\Generated_Source\PSoC4/CapSense.c **** 
 223:.\Generated_Source\PSoC4/CapSense.c ****     /* Clear all sensors */
 224:.\Generated_Source\PSoC4/CapSense.c ****     CapSense_ClearSensors();
 219              		.loc 1 224 0
 220 002c FFF7FEFF 		bl	CapSense_ClearSensors
 225:.\Generated_Source\PSoC4/CapSense.c **** }
 221              		.loc 1 225 0
 222 0030 BD46     		mov	sp, r7
 223 0032 02B0     		add	sp, sp, #8
 224              		@ sp needed
 225 0034 80BD     		pop	{r7, pc}
 226              		.cfi_endproc
ARM GAS  C:\Users\lovelesh\AppData\Local\Temp\ccK8zTJk.s 			page 9


 227              	.LFE34:
 228              		.size	CapSense_Init, .-CapSense_Init
 229 0036 C046     		.section	.text.CapSense_CsdHwBlockInit,"ax",%progbits
 230              		.align	2
 231              		.global	CapSense_CsdHwBlockInit
 232              		.code	16
 233              		.thumb_func
 234              		.type	CapSense_CsdHwBlockInit, %function
 235              	CapSense_CsdHwBlockInit:
 236              	.LFB35:
 226:.\Generated_Source\PSoC4/CapSense.c **** 
 227:.\Generated_Source\PSoC4/CapSense.c **** /*******************************************************************************
 228:.\Generated_Source\PSoC4/CapSense.c **** * Function Name: CapSense_CsdHwBlockInit
 229:.\Generated_Source\PSoC4/CapSense.c **** ********************************************************************************
 230:.\Generated_Source\PSoC4/CapSense.c **** *
 231:.\Generated_Source\PSoC4/CapSense.c **** * Summary:
 232:.\Generated_Source\PSoC4/CapSense.c **** *  Initialises the hardware parameters of the CSD block
 233:.\Generated_Source\PSoC4/CapSense.c **** *
 234:.\Generated_Source\PSoC4/CapSense.c **** * Parameters:
 235:.\Generated_Source\PSoC4/CapSense.c **** *  None
 236:.\Generated_Source\PSoC4/CapSense.c **** *
 237:.\Generated_Source\PSoC4/CapSense.c **** * Return:
 238:.\Generated_Source\PSoC4/CapSense.c **** *  None
 239:.\Generated_Source\PSoC4/CapSense.c **** *
 240:.\Generated_Source\PSoC4/CapSense.c **** * Global Variables:
 241:.\Generated_Source\PSoC4/CapSense.c **** *  CapSense_csdTrim1 - Contains IDAC trim register value for Sourcing Mode.
 242:.\Generated_Source\PSoC4/CapSense.c **** *  CapSense_csdTrim2 - Contains IDAC trim register value for Sinking Mode.
 243:.\Generated_Source\PSoC4/CapSense.c **** *
 244:.\Generated_Source\PSoC4/CapSense.c **** * Side Effects:
 245:.\Generated_Source\PSoC4/CapSense.c **** *  None
 246:.\Generated_Source\PSoC4/CapSense.c **** *
 247:.\Generated_Source\PSoC4/CapSense.c **** *******************************************************************************/
 248:.\Generated_Source\PSoC4/CapSense.c **** void CapSense_CsdHwBlockInit(void)
 249:.\Generated_Source\PSoC4/CapSense.c **** {
 237              		.loc 1 249 0
 238              		.cfi_startproc
 239 0000 80B5     		push	{r7, lr}
 240              		.cfi_def_cfa_offset 8
 241              		.cfi_offset 7, -8
 242              		.cfi_offset 14, -4
 243 0002 82B0     		sub	sp, sp, #8
 244              		.cfi_def_cfa_offset 16
 245 0004 00AF     		add	r7, sp, #0
 246              		.cfi_def_cfa_register 7
 250:.\Generated_Source\PSoC4/CapSense.c ****     uint32 newRegValue;
 251:.\Generated_Source\PSoC4/CapSense.c **** 
 252:.\Generated_Source\PSoC4/CapSense.c ****         /* Set trim registers for CSD Mode */
 253:.\Generated_Source\PSoC4/CapSense.c ****     #if (CapSense_IDAC1_POLARITY == CapSense__IDAC_SINK)
 254:.\Generated_Source\PSoC4/CapSense.c ****         /* iDAC1 Sinking Mode */
 255:.\Generated_Source\PSoC4/CapSense.c ****         CapSense_csdTrim2 = (uint8)CapSense_CSD_TRIM2_REG;
 256:.\Generated_Source\PSoC4/CapSense.c ****         newRegValue = CapSense_csdTrim2;
 257:.\Generated_Source\PSoC4/CapSense.c ****         newRegValue &= CapSense_CSD_IDAC1_TRIM_MASK;
 258:.\Generated_Source\PSoC4/CapSense.c ****         newRegValue |= (uint32)((uint32)CapSense_SFLASH_CSD_TRIM2_REG & (uint32)CapSense_CSFLASH_TR
 259:.\Generated_Source\PSoC4/CapSense.c **** 
 260:.\Generated_Source\PSoC4/CapSense.c ****         #if (CapSense_IDAC_CNT == 2u)
 261:.\Generated_Source\PSoC4/CapSense.c ****             /* iDAC2 Sinking Mode */
 262:.\Generated_Source\PSoC4/CapSense.c ****             newRegValue &= CapSense_CSD_IDAC2_TRIM_MASK;
ARM GAS  C:\Users\lovelesh\AppData\Local\Temp\ccK8zTJk.s 			page 10


 263:.\Generated_Source\PSoC4/CapSense.c ****             newRegValue |= (uint32)((uint32)CapSense_SFLASH_CSD_TRIM2_REG & (uint32)CapSense_CSFLAS
 264:.\Generated_Source\PSoC4/CapSense.c ****         #endif /* (CapSense_IDAC_CNT == 2u) */
 265:.\Generated_Source\PSoC4/CapSense.c ****         CapSense_CSD_TRIM2_REG = newRegValue;
 266:.\Generated_Source\PSoC4/CapSense.c ****     #else
 267:.\Generated_Source\PSoC4/CapSense.c ****         /* iDAC1 Sourcing Mode */
 268:.\Generated_Source\PSoC4/CapSense.c ****         CapSense_csdTrim1 = (uint8)CapSense_CSD_TRIM1_REG;
 247              		.loc 1 268 0
 248 0006 244B     		ldr	r3, .L5
 249 0008 1B68     		ldr	r3, [r3]
 250 000a DAB2     		uxtb	r2, r3
 251 000c 234B     		ldr	r3, .L5+4
 252 000e 1A70     		strb	r2, [r3]
 269:.\Generated_Source\PSoC4/CapSense.c ****         newRegValue = CapSense_csdTrim1;
 253              		.loc 1 269 0
 254 0010 224B     		ldr	r3, .L5+4
 255 0012 1B78     		ldrb	r3, [r3]
 256 0014 7B60     		str	r3, [r7, #4]
 270:.\Generated_Source\PSoC4/CapSense.c ****         newRegValue &= CapSense_CSD_IDAC1_TRIM_MASK;
 257              		.loc 1 270 0
 258 0016 7B68     		ldr	r3, [r7, #4]
 259 0018 0F22     		mov	r2, #15
 260 001a 9343     		bic	r3, r2
 261 001c 7B60     		str	r3, [r7, #4]
 271:.\Generated_Source\PSoC4/CapSense.c ****         newRegValue |= (uint32)((uint32)CapSense_SFLASH_CSD_TRIM1_REG & (uint32)CapSense_CSFLASH_TR
 262              		.loc 1 271 0
 263 001e 204B     		ldr	r3, .L5+8
 264 0020 1B78     		ldrb	r3, [r3]
 265 0022 DBB2     		uxtb	r3, r3
 266 0024 1A1C     		mov	r2, r3
 267 0026 0F23     		mov	r3, #15
 268 0028 1340     		and	r3, r2
 269 002a 7A68     		ldr	r2, [r7, #4]
 270 002c 1343     		orr	r3, r2
 271 002e 7B60     		str	r3, [r7, #4]
 272:.\Generated_Source\PSoC4/CapSense.c ****         #if (CapSense_IDAC_CNT == 2u)
 273:.\Generated_Source\PSoC4/CapSense.c ****              /* iDAC2 Sourcing Mode */
 274:.\Generated_Source\PSoC4/CapSense.c ****             newRegValue &= CapSense_CSD_IDAC2_TRIM_MASK;
 272              		.loc 1 274 0
 273 0030 7B68     		ldr	r3, [r7, #4]
 274 0032 F022     		mov	r2, #240
 275 0034 9343     		bic	r3, r2
 276 0036 7B60     		str	r3, [r7, #4]
 275:.\Generated_Source\PSoC4/CapSense.c ****             newRegValue |= (uint32)((uint32)CapSense_SFLASH_CSD_TRIM1_REG & (uint32)CapSense_CSFLAS
 277              		.loc 1 275 0
 278 0038 194B     		ldr	r3, .L5+8
 279 003a 1B78     		ldrb	r3, [r3]
 280 003c DBB2     		uxtb	r3, r3
 281 003e 1A1C     		mov	r2, r3
 282 0040 F023     		mov	r3, #240
 283 0042 1340     		and	r3, r2
 284 0044 7A68     		ldr	r2, [r7, #4]
 285 0046 1343     		orr	r3, r2
 286 0048 7B60     		str	r3, [r7, #4]
 276:.\Generated_Source\PSoC4/CapSense.c ****         #endif
 277:.\Generated_Source\PSoC4/CapSense.c ****         CapSense_CSD_TRIM1_REG = newRegValue;
 287              		.loc 1 277 0
 288 004a 134B     		ldr	r3, .L5
ARM GAS  C:\Users\lovelesh\AppData\Local\Temp\ccK8zTJk.s 			page 11


 289 004c 7A68     		ldr	r2, [r7, #4]
 290 004e 1A60     		str	r2, [r3]
 278:.\Generated_Source\PSoC4/CapSense.c ****     #endif /* (CapSense_IDAC1_POLARITY == CapSense__IDAC_SINK) */
 279:.\Generated_Source\PSoC4/CapSense.c **** 
 280:.\Generated_Source\PSoC4/CapSense.c ****     /* Configure CSD and IDAC */
 281:.\Generated_Source\PSoC4/CapSense.c ****     #if (CapSense_IDAC_CNT > 1u)
 282:.\Generated_Source\PSoC4/CapSense.c ****         CapSense_CSD_IDAC_REG = CapSense_DEFAULT_CSD_IDAC_CONFIG;
 291              		.loc 1 282 0
 292 0050 144B     		ldr	r3, .L5+12
 293 0052 154A     		ldr	r2, .L5+16
 294 0054 1A60     		str	r2, [r3]
 283:.\Generated_Source\PSoC4/CapSense.c ****         CapSense_CSD_CFG_REG = CapSense_DEFAULT_CSD_CONFIG;
 295              		.loc 1 283 0
 296 0056 154B     		ldr	r3, .L5+20
 297 0058 154A     		ldr	r2, .L5+24
 298 005a 1A60     		str	r2, [r3]
 284:.\Generated_Source\PSoC4/CapSense.c ****     #else
 285:.\Generated_Source\PSoC4/CapSense.c ****         CapSense_CSD_IDAC_REG &= ~(CapSense_CSD_IDAC1_MODE_MASK  | CapSense_CSD_IDAC1_DATA_MASK);
 286:.\Generated_Source\PSoC4/CapSense.c ****         CapSense_CSD_IDAC_REG |= CapSense_DEFAULT_CSD_IDAC_CONFIG;
 287:.\Generated_Source\PSoC4/CapSense.c **** 
 288:.\Generated_Source\PSoC4/CapSense.c ****         CapSense_CSD_CFG_REG &= ~(CapSense_CSD_CONFIG_MASK);
 289:.\Generated_Source\PSoC4/CapSense.c ****         CapSense_CSD_CFG_REG |= (CapSense_DEFAULT_CSD_CONFIG);
 290:.\Generated_Source\PSoC4/CapSense.c ****     #endif /* (CapSense_IDAC_CNT > 1u) */
 291:.\Generated_Source\PSoC4/CapSense.c **** 
 292:.\Generated_Source\PSoC4/CapSense.c **** 
 293:.\Generated_Source\PSoC4/CapSense.c ****     /* Connect Cmod to AMUX bus */
 294:.\Generated_Source\PSoC4/CapSense.c ****     newRegValue = CapSense_CMOD_CONNECTION_REG;
 299              		.loc 1 294 0
 300 005c 154B     		ldr	r3, .L5+28
 301 005e 1B68     		ldr	r3, [r3]
 302 0060 7B60     		str	r3, [r7, #4]
 295:.\Generated_Source\PSoC4/CapSense.c ****     newRegValue &= ~(CapSense_CSD_CMOD_CONNECTION_MASK);
 303              		.loc 1 295 0
 304 0062 7B68     		ldr	r3, [r7, #4]
 305 0064 144A     		ldr	r2, .L5+32
 306 0066 1340     		and	r3, r2
 307 0068 7B60     		str	r3, [r7, #4]
 296:.\Generated_Source\PSoC4/CapSense.c ****     newRegValue |= CapSense_CSD_CMOD_TO_AMUXBUS_A;
 308              		.loc 1 296 0
 309 006a 7B68     		ldr	r3, [r7, #4]
 310 006c C022     		mov	r2, #192
 311 006e D200     		lsl	r2, r2, #3
 312 0070 1343     		orr	r3, r2
 313 0072 7B60     		str	r3, [r7, #4]
 297:.\Generated_Source\PSoC4/CapSense.c ****     CapSense_CMOD_CONNECTION_REG = newRegValue;
 314              		.loc 1 297 0
 315 0074 0F4B     		ldr	r3, .L5+28
 316 0076 7A68     		ldr	r2, [r7, #4]
 317 0078 1A60     		str	r2, [r3]
 298:.\Generated_Source\PSoC4/CapSense.c **** 
 299:.\Generated_Source\PSoC4/CapSense.c ****     /* Configure Dead Band PWM if it is enabled */
 300:.\Generated_Source\PSoC4/CapSense.c ****     #if(CapSense_CSD_4B_PWM_MODE != CapSense__PWM_OFF)
 301:.\Generated_Source\PSoC4/CapSense.c ****         CapSense_CSD_4B_PWM_REG = CapSense_DEFAULT_CSD_4B_PWM_CONFIG;
 302:.\Generated_Source\PSoC4/CapSense.c ****     #endif /* (CapSense_CSD_4B_PWM_MODE != CapSense__PWM_OFF) */
 303:.\Generated_Source\PSoC4/CapSense.c **** 
 304:.\Generated_Source\PSoC4/CapSense.c ****     /* Setup ISR */
 305:.\Generated_Source\PSoC4/CapSense.c ****     CyIntDisable(CapSense_ISR_NUMBER);
ARM GAS  C:\Users\lovelesh\AppData\Local\Temp\ccK8zTJk.s 			page 12


 318              		.loc 1 305 0
 319 007a 0F20     		mov	r0, #15
 320 007c FFF7FEFF 		bl	CyIntDisable
 306:.\Generated_Source\PSoC4/CapSense.c ****     #if !defined(CY_EXTERNAL_INTERRUPT_CONFIG)
 307:.\Generated_Source\PSoC4/CapSense.c ****         (void)CyIntSetVector(CapSense_ISR_NUMBER, &CapSense_ISR);
 321              		.loc 1 307 0
 322 0080 0E4B     		ldr	r3, .L5+36
 323 0082 0F20     		mov	r0, #15
 324 0084 191C     		mov	r1, r3
 325 0086 FFF7FEFF 		bl	CyIntSetVector
 308:.\Generated_Source\PSoC4/CapSense.c ****         CyIntSetPriority(CapSense_ISR_NUMBER, CapSense_ISR_PRIORITY);
 326              		.loc 1 308 0
 327 008a 0F20     		mov	r0, #15
 328 008c 0321     		mov	r1, #3
 329 008e FFF7FEFF 		bl	CyIntSetPriority
 309:.\Generated_Source\PSoC4/CapSense.c ****     #endif /* (CY_EXTERNAL_INTERRUPT_CONFIG) */
 310:.\Generated_Source\PSoC4/CapSense.c **** }
 330              		.loc 1 310 0
 331 0092 BD46     		mov	sp, r7
 332 0094 02B0     		add	sp, sp, #8
 333              		@ sp needed
 334 0096 80BD     		pop	{r7, pc}
 335              	.L6:
 336              		.align	2
 337              	.L5:
 338 0098 00FF0840 		.word	1074331392
 339 009c 00000000 		.word	CapSense_csdTrim1
 340 00a0 62F1FF0F 		.word	268431714
 341 00a4 08000840 		.word	1074266120
 342 00a8 00020001 		.word	16777728
 343 00ac 04000840 		.word	1074266116
 344 00b0 C008A001 		.word	27265216
 345 00b4 10000140 		.word	1073807376
 346 00b8 FFF0FFFF 		.word	-3841
 347 00bc 00000000 		.word	CapSense_ISR
 348              		.cfi_endproc
 349              	.LFE35:
 350              		.size	CapSense_CsdHwBlockInit, .-CapSense_CsdHwBlockInit
 351              		.section	.text.CapSense_Enable,"ax",%progbits
 352              		.align	2
 353              		.global	CapSense_Enable
 354              		.code	16
 355              		.thumb_func
 356              		.type	CapSense_Enable, %function
 357              	CapSense_Enable:
 358              	.LFB36:
 311:.\Generated_Source\PSoC4/CapSense.c **** 
 312:.\Generated_Source\PSoC4/CapSense.c **** 
 313:.\Generated_Source\PSoC4/CapSense.c **** /*******************************************************************************
 314:.\Generated_Source\PSoC4/CapSense.c **** * Function Name: CapSense_Enable
 315:.\Generated_Source\PSoC4/CapSense.c **** ********************************************************************************
 316:.\Generated_Source\PSoC4/CapSense.c **** *
 317:.\Generated_Source\PSoC4/CapSense.c **** * Summary:
 318:.\Generated_Source\PSoC4/CapSense.c **** *  Enables the CSD block and related resources to an active mode.
 319:.\Generated_Source\PSoC4/CapSense.c **** *
 320:.\Generated_Source\PSoC4/CapSense.c **** * Parameters:
 321:.\Generated_Source\PSoC4/CapSense.c **** *  None
ARM GAS  C:\Users\lovelesh\AppData\Local\Temp\ccK8zTJk.s 			page 13


 322:.\Generated_Source\PSoC4/CapSense.c **** *
 323:.\Generated_Source\PSoC4/CapSense.c **** * Return:
 324:.\Generated_Source\PSoC4/CapSense.c **** *  None
 325:.\Generated_Source\PSoC4/CapSense.c **** *
 326:.\Generated_Source\PSoC4/CapSense.c **** * Global Variables:
 327:.\Generated_Source\PSoC4/CapSense.c **** *  None.
 328:.\Generated_Source\PSoC4/CapSense.c **** *
 329:.\Generated_Source\PSoC4/CapSense.c **** * Side Effects:
 330:.\Generated_Source\PSoC4/CapSense.c **** *  None
 331:.\Generated_Source\PSoC4/CapSense.c **** *
 332:.\Generated_Source\PSoC4/CapSense.c **** *******************************************************************************/
 333:.\Generated_Source\PSoC4/CapSense.c **** void CapSense_Enable(void)
 334:.\Generated_Source\PSoC4/CapSense.c **** {
 359              		.loc 1 334 0
 360              		.cfi_startproc
 361 0000 80B5     		push	{r7, lr}
 362              		.cfi_def_cfa_offset 8
 363              		.cfi_offset 7, -8
 364              		.cfi_offset 14, -4
 365 0002 82B0     		sub	sp, sp, #8
 366              		.cfi_def_cfa_offset 16
 367 0004 00AF     		add	r7, sp, #0
 368              		.cfi_def_cfa_register 7
 335:.\Generated_Source\PSoC4/CapSense.c ****     uint32 newRegValue;
 336:.\Generated_Source\PSoC4/CapSense.c **** 
 337:.\Generated_Source\PSoC4/CapSense.c ****     /* Enable Clocks */
 338:.\Generated_Source\PSoC4/CapSense.c ****     CapSense_SenseClk_Stop();
 369              		.loc 1 338 0
 370 0006 FFF7FEFF 		bl	CapSense_SenseClk_Stop
 339:.\Generated_Source\PSoC4/CapSense.c ****     CapSense_SampleClk_Stop();
 371              		.loc 1 339 0
 372 000a FFF7FEFF 		bl	CapSense_SampleClk_Stop
 340:.\Generated_Source\PSoC4/CapSense.c **** 
 341:.\Generated_Source\PSoC4/CapSense.c ****     CapSense_SampleClk_SetDividerValue((uint16)CapSense_INITIAL_CLK_DIVIDER);
 373              		.loc 1 341 0
 374 000e 0020     		mov	r0, #0
 375 0010 0021     		mov	r1, #0
 376 0012 FFF7FEFF 		bl	CapSense_SampleClk_SetFractionalDividerRegister
 342:.\Generated_Source\PSoC4/CapSense.c ****     CapSense_SenseClk_SetDividerValue((uint16)CapSense_INITIAL_CLK_DIVIDER);
 377              		.loc 1 342 0
 378 0016 0020     		mov	r0, #0
 379 0018 0021     		mov	r1, #0
 380 001a FFF7FEFF 		bl	CapSense_SenseClk_SetFractionalDividerRegister
 343:.\Generated_Source\PSoC4/CapSense.c **** 
 344:.\Generated_Source\PSoC4/CapSense.c ****     #if (0u == CapSense_IS_M0S8PERI_BLOCK)
 345:.\Generated_Source\PSoC4/CapSense.c ****         CapSense_SenseClk_Start();
 381              		.loc 1 345 0
 382 001e FFF7FEFF 		bl	CapSense_SenseClk_Start
 346:.\Generated_Source\PSoC4/CapSense.c ****         CapSense_SampleClk_Start();
 383              		.loc 1 346 0
 384 0022 FFF7FEFF 		bl	CapSense_SampleClk_Start
 347:.\Generated_Source\PSoC4/CapSense.c ****     #else
 348:.\Generated_Source\PSoC4/CapSense.c ****         CapSense_SampleClk_Start();
 349:.\Generated_Source\PSoC4/CapSense.c ****         CapSense_SenseClk_StartEx(CapSense_SampleClk__DIV_ID);
 350:.\Generated_Source\PSoC4/CapSense.c ****     #endif /* (0u == CapSense_IS_M0S8PERI_BLOCK) */
 351:.\Generated_Source\PSoC4/CapSense.c **** 
 352:.\Generated_Source\PSoC4/CapSense.c ****     /* Enable the CSD block */
ARM GAS  C:\Users\lovelesh\AppData\Local\Temp\ccK8zTJk.s 			page 14


 353:.\Generated_Source\PSoC4/CapSense.c ****     newRegValue = CapSense_CSD_CFG_REG;
 385              		.loc 1 353 0
 386 0026 084B     		ldr	r3, .L8
 387 0028 1B68     		ldr	r3, [r3]
 388 002a 7B60     		str	r3, [r7, #4]
 354:.\Generated_Source\PSoC4/CapSense.c ****     newRegValue |= (CapSense_CSD_CFG_ENABLE | CapSense_CSD_CFG_SENSE_COMP_EN
 389              		.loc 1 354 0
 390 002c 7B68     		ldr	r3, [r7, #4]
 391 002e 074A     		ldr	r2, .L8+4
 392 0030 1343     		orr	r3, r2
 393 0032 7B60     		str	r3, [r7, #4]
 355:.\Generated_Source\PSoC4/CapSense.c ****                                                    | CapSense_CSD_CFG_SENSE_EN);
 356:.\Generated_Source\PSoC4/CapSense.c ****     CapSense_CSD_CFG_REG = newRegValue;
 394              		.loc 1 356 0
 395 0034 044B     		ldr	r3, .L8
 396 0036 7A68     		ldr	r2, [r7, #4]
 397 0038 1A60     		str	r2, [r3]
 357:.\Generated_Source\PSoC4/CapSense.c **** 
 358:.\Generated_Source\PSoC4/CapSense.c ****     /* Enable interrupt */
 359:.\Generated_Source\PSoC4/CapSense.c ****     CyIntEnable(CapSense_ISR_NUMBER);
 398              		.loc 1 359 0
 399 003a 0F20     		mov	r0, #15
 400 003c FFF7FEFF 		bl	CyIntEnable
 360:.\Generated_Source\PSoC4/CapSense.c **** }
 401              		.loc 1 360 0
 402 0040 BD46     		mov	sp, r7
 403 0042 02B0     		add	sp, sp, #8
 404              		@ sp needed
 405 0044 80BD     		pop	{r7, pc}
 406              	.L9:
 407 0046 C046     		.align	2
 408              	.L8:
 409 0048 04000840 		.word	1074266116
 410 004c 00100880 		.word	-2146955264
 411              		.cfi_endproc
 412              	.LFE36:
 413              		.size	CapSense_Enable, .-CapSense_Enable
 414              		.section	.text.CapSense_Start,"ax",%progbits
 415              		.align	2
 416              		.global	CapSense_Start
 417              		.code	16
 418              		.thumb_func
 419              		.type	CapSense_Start, %function
 420              	CapSense_Start:
 421              	.LFB37:
 361:.\Generated_Source\PSoC4/CapSense.c **** 
 362:.\Generated_Source\PSoC4/CapSense.c **** 
 363:.\Generated_Source\PSoC4/CapSense.c **** /*******************************************************************************
 364:.\Generated_Source\PSoC4/CapSense.c **** * Function Name: CapSense_Start
 365:.\Generated_Source\PSoC4/CapSense.c **** ********************************************************************************
 366:.\Generated_Source\PSoC4/CapSense.c **** *
 367:.\Generated_Source\PSoC4/CapSense.c **** * Summary:
 368:.\Generated_Source\PSoC4/CapSense.c **** *  This is the preferred method to begin the component operation. CapSense_Start()
 369:.\Generated_Source\PSoC4/CapSense.c **** *  calls the CapSense_Init() function, and then calls the CapSense_Enable()
 370:.\Generated_Source\PSoC4/CapSense.c **** *  function. Initializes the registers and starts the CSD method of the CapSense
 371:.\Generated_Source\PSoC4/CapSense.c **** *  component. Resets all the sensors to an inactive state. Enables interrupts for
 372:.\Generated_Source\PSoC4/CapSense.c **** *  sensors scanning. When the SmartSense tuning mode is selected, the tuning procedure
ARM GAS  C:\Users\lovelesh\AppData\Local\Temp\ccK8zTJk.s 			page 15


 373:.\Generated_Source\PSoC4/CapSense.c **** *  is applied for all the sensors. The CapSense_Start() routine must be called before
 374:.\Generated_Source\PSoC4/CapSense.c **** *  any other API routines.
 375:.\Generated_Source\PSoC4/CapSense.c **** *
 376:.\Generated_Source\PSoC4/CapSense.c **** * Parameters:
 377:.\Generated_Source\PSoC4/CapSense.c **** *  None
 378:.\Generated_Source\PSoC4/CapSense.c **** *
 379:.\Generated_Source\PSoC4/CapSense.c **** * Return:
 380:.\Generated_Source\PSoC4/CapSense.c **** *  None
 381:.\Generated_Source\PSoC4/CapSense.c **** *
 382:.\Generated_Source\PSoC4/CapSense.c **** * Global Variables:
 383:.\Generated_Source\PSoC4/CapSense.c **** *   CapSense_initVar - used to check the initial configuration,
 384:.\Generated_Source\PSoC4/CapSense.c **** *   modified on the first function call.
 385:.\Generated_Source\PSoC4/CapSense.c **** *  CapSense_lowLevelTuningDone - Used to notify the Tuner GUI that
 386:.\Generated_Source\PSoC4/CapSense.c **** *   tuning of the scanning parameters is done.
 387:.\Generated_Source\PSoC4/CapSense.c **** *
 388:.\Generated_Source\PSoC4/CapSense.c **** * Side Effects:
 389:.\Generated_Source\PSoC4/CapSense.c **** *  None
 390:.\Generated_Source\PSoC4/CapSense.c **** *
 391:.\Generated_Source\PSoC4/CapSense.c **** *******************************************************************************/
 392:.\Generated_Source\PSoC4/CapSense.c **** void CapSense_Start(void)
 393:.\Generated_Source\PSoC4/CapSense.c **** {
 422              		.loc 1 393 0
 423              		.cfi_startproc
 424 0000 80B5     		push	{r7, lr}
 425              		.cfi_def_cfa_offset 8
 426              		.cfi_offset 7, -8
 427              		.cfi_offset 14, -4
 428 0002 00AF     		add	r7, sp, #0
 429              		.cfi_def_cfa_register 7
 394:.\Generated_Source\PSoC4/CapSense.c **** 
 395:.\Generated_Source\PSoC4/CapSense.c ****     static uint8 CapSense_initVar = 0u;
 396:.\Generated_Source\PSoC4/CapSense.c **** 
 397:.\Generated_Source\PSoC4/CapSense.c ****     #if((0u != CapSense_AUTOCALIBRATION_ENABLE) && (CapSense_TUNING_METHOD != CapSense__TUNING_AUTO
 398:.\Generated_Source\PSoC4/CapSense.c ****         uint32 curSensor;
 399:.\Generated_Source\PSoC4/CapSense.c ****         uint32 rawLevel;
 400:.\Generated_Source\PSoC4/CapSense.c ****         uint32 widget;
 401:.\Generated_Source\PSoC4/CapSense.c ****     #endif /* ((0u != CapSense_AUTOCALIBRATION_ENABLE) && (CapSense_TUNING_METHOD != CapSense__TUNI
 402:.\Generated_Source\PSoC4/CapSense.c **** 
 403:.\Generated_Source\PSoC4/CapSense.c ****     if (CapSense_initVar == 0u)
 430              		.loc 1 403 0
 431 0004 0C4B     		ldr	r3, .L12
 432 0006 1B78     		ldrb	r3, [r3]
 433 0008 002B     		cmp	r3, #0
 434 000a 04D1     		bne	.L11
 404:.\Generated_Source\PSoC4/CapSense.c ****     {
 405:.\Generated_Source\PSoC4/CapSense.c ****         CapSense_Init();
 435              		.loc 1 405 0
 436 000c FFF7FEFF 		bl	CapSense_Init
 406:.\Generated_Source\PSoC4/CapSense.c ****         CapSense_initVar = 1u;
 437              		.loc 1 406 0
 438 0010 094B     		ldr	r3, .L12
 439 0012 0122     		mov	r2, #1
 440 0014 1A70     		strb	r2, [r3]
 441              	.L11:
 407:.\Generated_Source\PSoC4/CapSense.c ****     }
 408:.\Generated_Source\PSoC4/CapSense.c ****     CapSense_Enable();
 442              		.loc 1 408 0
ARM GAS  C:\Users\lovelesh\AppData\Local\Temp\ccK8zTJk.s 			page 16


 443 0016 FFF7FEFF 		bl	CapSense_Enable
 409:.\Generated_Source\PSoC4/CapSense.c **** 
 410:.\Generated_Source\PSoC4/CapSense.c ****     /* AutoTunning start */
 411:.\Generated_Source\PSoC4/CapSense.c ****     #if(CapSense_TUNING_METHOD == CapSense__TUNING_AUTO)
 412:.\Generated_Source\PSoC4/CapSense.c ****         #if(0u != CapSense_CSHL_API_GENERATE)
 413:.\Generated_Source\PSoC4/CapSense.c ****             CapSense_AutoTune();
 444              		.loc 1 413 0
 445 001a FFF7FEFF 		bl	CapSense_AutoTune
 414:.\Generated_Source\PSoC4/CapSense.c ****             CapSense_lowLevelTuningDone = 1u;
 446              		.loc 1 414 0
 447 001e 074B     		ldr	r3, .L12+4
 448 0020 0122     		mov	r2, #1
 449 0022 1A70     		strb	r2, [r3]
 415:.\Generated_Source\PSoC4/CapSense.c ****         #endif /* (0u != CapSense_CSHL_API_GENERATE) */
 416:.\Generated_Source\PSoC4/CapSense.c ****     #else
 417:.\Generated_Source\PSoC4/CapSense.c ****         #if(0u != CapSense_AUTOCALIBRATION_ENABLE)
 418:.\Generated_Source\PSoC4/CapSense.c **** 
 419:.\Generated_Source\PSoC4/CapSense.c ****             #if(CapSense_IDAC_CNT > 1u)
 420:.\Generated_Source\PSoC4/CapSense.c ****                 CapSense_CSD_IDAC_REG &= ~(CapSense_CSD_IDAC2_MODE_MASK);
 421:.\Generated_Source\PSoC4/CapSense.c ****             #endif /* (CapSense_IDAC_CNT > 1u) */
 422:.\Generated_Source\PSoC4/CapSense.c **** 
 423:.\Generated_Source\PSoC4/CapSense.c ****             for(curSensor = 0u; curSensor < CapSense_TOTAL_SCANSLOT_COUNT; curSensor++)
 424:.\Generated_Source\PSoC4/CapSense.c ****             {
 425:.\Generated_Source\PSoC4/CapSense.c ****                 widget = CapSense_widgetNumber[curSensor];
 426:.\Generated_Source\PSoC4/CapSense.c ****                 rawLevel = CapSense_widgetResolution[widget] >> CapSense_RESOLUTION_OFFSET;
 427:.\Generated_Source\PSoC4/CapSense.c **** 
 428:.\Generated_Source\PSoC4/CapSense.c ****                 /* Calibration level should be equal to 85% from scanning resolution */
 429:.\Generated_Source\PSoC4/CapSense.c ****                 rawLevel = (rawLevel * 85u) / 100u;
 430:.\Generated_Source\PSoC4/CapSense.c **** 
 431:.\Generated_Source\PSoC4/CapSense.c ****                 CapSense_CalibrateSensor(curSensor, rawLevel, CapSense_modulationIDAC);
 432:.\Generated_Source\PSoC4/CapSense.c ****             }
 433:.\Generated_Source\PSoC4/CapSense.c **** 
 434:.\Generated_Source\PSoC4/CapSense.c ****             #if(0u != CapSense_TOTAL_CENTROIDS_COUNT)
 435:.\Generated_Source\PSoC4/CapSense.c ****                 CapSense_NormalizeWidgets(CapSense_END_OF_WIDGETS_INDEX, CapSense_modulationIDAC);
 436:.\Generated_Source\PSoC4/CapSense.c ****             #endif /* (0u != CapSense_TOTAL_CENTROIDS_COUNT)  */
 437:.\Generated_Source\PSoC4/CapSense.c **** 
 438:.\Generated_Source\PSoC4/CapSense.c ****             #if(CapSense_IDAC_CNT > 1u)
 439:.\Generated_Source\PSoC4/CapSense.c ****                 for(curSensor = 0u; curSensor < CapSense_TOTAL_SCANSLOT_COUNT; curSensor++)
 440:.\Generated_Source\PSoC4/CapSense.c ****                 {
 441:.\Generated_Source\PSoC4/CapSense.c ****                     CapSense_compensationIDAC[curSensor] = CapSense_modulationIDAC[curSensor] / 2u;
 442:.\Generated_Source\PSoC4/CapSense.c ****                     CapSense_modulationIDAC[curSensor] = (CapSense_modulationIDAC[curSensor] + 1u) 
 443:.\Generated_Source\PSoC4/CapSense.c ****                 }
 444:.\Generated_Source\PSoC4/CapSense.c ****                 CapSense_CSD_IDAC_REG |= CapSense_CSD_IDAC2_MODE_FIXED;
 445:.\Generated_Source\PSoC4/CapSense.c ****             #endif /* (CapSense_IDAC_CNT > 1u) */
 446:.\Generated_Source\PSoC4/CapSense.c **** 
 447:.\Generated_Source\PSoC4/CapSense.c ****         #endif /* (0u != CapSense_AUTOCALIBRATION_ENABLE) */
 448:.\Generated_Source\PSoC4/CapSense.c **** 
 449:.\Generated_Source\PSoC4/CapSense.c ****     #endif /* ((CapSense_TUNING_METHOD == CapSense__TUNING_AUTO) */
 450:.\Generated_Source\PSoC4/CapSense.c **** 
 451:.\Generated_Source\PSoC4/CapSense.c ****     /* Initialize Advanced Centroid */
 452:.\Generated_Source\PSoC4/CapSense.c ****     #if(CapSense_TOTAL_TRACKPAD_GESTURES_COUNT > 0u)
 453:.\Generated_Source\PSoC4/CapSense.c ****         CapSense_AdvancedCentroidInit();
 454:.\Generated_Source\PSoC4/CapSense.c ****     #endif /* (CapSense_TOTAL_TRACKPAD_GESTURES_COUNT > 0u) */
 455:.\Generated_Source\PSoC4/CapSense.c **** 
 456:.\Generated_Source\PSoC4/CapSense.c ****     /* Connect sense comparator input to AMUXA */
 457:.\Generated_Source\PSoC4/CapSense.c ****     CapSense_CSD_CFG_REG |= CapSense_CSD_CFG_SENSE_INSEL;
 450              		.loc 1 457 0
ARM GAS  C:\Users\lovelesh\AppData\Local\Temp\ccK8zTJk.s 			page 17


 451 0024 064B     		ldr	r3, .L12+8
 452 0026 064A     		ldr	r2, .L12+8
 453 0028 1268     		ldr	r2, [r2]
 454 002a 8021     		mov	r1, #128
 455 002c C903     		lsl	r1, r1, #15
 456 002e 0A43     		orr	r2, r1
 457 0030 1A60     		str	r2, [r3]
 458:.\Generated_Source\PSoC4/CapSense.c **** }
 458              		.loc 1 458 0
 459 0032 BD46     		mov	sp, r7
 460              		@ sp needed
 461 0034 80BD     		pop	{r7, pc}
 462              	.L13:
 463 0036 C046     		.align	2
 464              	.L12:
 465 0038 14000000 		.word	CapSense_initVar.5273
 466 003c 00000000 		.word	CapSense_lowLevelTuningDone
 467 0040 04000840 		.word	1074266116
 468              		.cfi_endproc
 469              	.LFE37:
 470              		.size	CapSense_Start, .-CapSense_Start
 471              		.section	.text.CapSense_Stop,"ax",%progbits
 472              		.align	2
 473              		.global	CapSense_Stop
 474              		.code	16
 475              		.thumb_func
 476              		.type	CapSense_Stop, %function
 477              	CapSense_Stop:
 478              	.LFB38:
 459:.\Generated_Source\PSoC4/CapSense.c **** 
 460:.\Generated_Source\PSoC4/CapSense.c **** 
 461:.\Generated_Source\PSoC4/CapSense.c **** /*******************************************************************************
 462:.\Generated_Source\PSoC4/CapSense.c **** * Function Name: CapSense_Stop
 463:.\Generated_Source\PSoC4/CapSense.c **** ********************************************************************************
 464:.\Generated_Source\PSoC4/CapSense.c **** *
 465:.\Generated_Source\PSoC4/CapSense.c **** * Summary:
 466:.\Generated_Source\PSoC4/CapSense.c **** *  Stops the sensor scanning, disables component interrupts, and resets all the
 467:.\Generated_Source\PSoC4/CapSense.c **** *  sensors to an inactive state. Disables the Active mode power template bits for
 468:.\Generated_Source\PSoC4/CapSense.c **** *  the subcomponents used within CapSense.
 469:.\Generated_Source\PSoC4/CapSense.c **** *
 470:.\Generated_Source\PSoC4/CapSense.c **** * Parameters:
 471:.\Generated_Source\PSoC4/CapSense.c **** *  None
 472:.\Generated_Source\PSoC4/CapSense.c **** *
 473:.\Generated_Source\PSoC4/CapSense.c **** * Return:
 474:.\Generated_Source\PSoC4/CapSense.c **** *  None
 475:.\Generated_Source\PSoC4/CapSense.c **** *
 476:.\Generated_Source\PSoC4/CapSense.c **** * Global Variables:
 477:.\Generated_Source\PSoC4/CapSense.c **** *  CapSense_csdTrim1 - Contains the IDAC trim register value for the Sourcing Mode.
 478:.\Generated_Source\PSoC4/CapSense.c **** *  CapSense_csdTrim2 - Contains the IDAC trim register value for vSinking Mode.
 479:.\Generated_Source\PSoC4/CapSense.c **** *
 480:.\Generated_Source\PSoC4/CapSense.c **** * Side Effects:
 481:.\Generated_Source\PSoC4/CapSense.c **** *  This function should be called after scans are completed.
 482:.\Generated_Source\PSoC4/CapSense.c **** *
 483:.\Generated_Source\PSoC4/CapSense.c **** *******************************************************************************/
 484:.\Generated_Source\PSoC4/CapSense.c **** void CapSense_Stop(void)
 485:.\Generated_Source\PSoC4/CapSense.c **** {
 479              		.loc 1 485 0
ARM GAS  C:\Users\lovelesh\AppData\Local\Temp\ccK8zTJk.s 			page 18


 480              		.cfi_startproc
 481 0000 80B5     		push	{r7, lr}
 482              		.cfi_def_cfa_offset 8
 483              		.cfi_offset 7, -8
 484              		.cfi_offset 14, -4
 485 0002 00AF     		add	r7, sp, #0
 486              		.cfi_def_cfa_register 7
 486:.\Generated_Source\PSoC4/CapSense.c ****     /* Disable interrupt */
 487:.\Generated_Source\PSoC4/CapSense.c ****     CyIntDisable(CapSense_ISR_NUMBER);
 487              		.loc 1 487 0
 488 0004 0F20     		mov	r0, #15
 489 0006 FFF7FEFF 		bl	CyIntDisable
 488:.\Generated_Source\PSoC4/CapSense.c **** 
 489:.\Generated_Source\PSoC4/CapSense.c ****     CapSense_CSD_CFG_REG &= ~(CapSense_CSD_CFG_SENSE_COMP_EN | CapSense_CSD_CFG_SENSE_EN);
 490              		.loc 1 489 0
 491 000a 094B     		ldr	r3, .L15
 492 000c 084A     		ldr	r2, .L15
 493 000e 1268     		ldr	r2, [r2]
 494 0010 0849     		ldr	r1, .L15+4
 495 0012 0A40     		and	r2, r1
 496 0014 1A60     		str	r2, [r3]
 490:.\Generated_Source\PSoC4/CapSense.c **** 
 491:.\Generated_Source\PSoC4/CapSense.c ****     #if(CapSense_IDAC_CNT == 2u)
 492:.\Generated_Source\PSoC4/CapSense.c ****         CapSense_CSD_CFG_REG &= ~(CapSense_CSD_CFG_ENABLE);
 497              		.loc 1 492 0
 498 0016 064B     		ldr	r3, .L15
 499 0018 054A     		ldr	r2, .L15
 500 001a 1268     		ldr	r2, [r2]
 501 001c 5200     		lsl	r2, r2, #1
 502 001e 5208     		lsr	r2, r2, #1
 503 0020 1A60     		str	r2, [r3]
 493:.\Generated_Source\PSoC4/CapSense.c ****     #endif /* (CapSense_IDAC_CNT == 2u) */
 494:.\Generated_Source\PSoC4/CapSense.c **** 
 495:.\Generated_Source\PSoC4/CapSense.c ****     /* Disable the Clocks */
 496:.\Generated_Source\PSoC4/CapSense.c ****     CapSense_SenseClk_Stop();
 504              		.loc 1 496 0
 505 0022 FFF7FEFF 		bl	CapSense_SenseClk_Stop
 497:.\Generated_Source\PSoC4/CapSense.c ****     CapSense_SampleClk_Stop();
 506              		.loc 1 497 0
 507 0026 FFF7FEFF 		bl	CapSense_SampleClk_Stop
 498:.\Generated_Source\PSoC4/CapSense.c **** }
 508              		.loc 1 498 0
 509 002a BD46     		mov	sp, r7
 510              		@ sp needed
 511 002c 80BD     		pop	{r7, pc}
 512              	.L16:
 513 002e C046     		.align	2
 514              	.L15:
 515 0030 04000840 		.word	1074266116
 516 0034 FFEFF7FF 		.word	-528385
 517              		.cfi_endproc
 518              	.LFE38:
 519              		.size	CapSense_Stop, .-CapSense_Stop
 520              		.section	.text.CapSense_FindNextSensor,"ax",%progbits
 521              		.align	2
 522              		.global	CapSense_FindNextSensor
 523              		.code	16
ARM GAS  C:\Users\lovelesh\AppData\Local\Temp\ccK8zTJk.s 			page 19


 524              		.thumb_func
 525              		.type	CapSense_FindNextSensor, %function
 526              	CapSense_FindNextSensor:
 527              	.LFB39:
 499:.\Generated_Source\PSoC4/CapSense.c **** 
 500:.\Generated_Source\PSoC4/CapSense.c **** 
 501:.\Generated_Source\PSoC4/CapSense.c **** /*******************************************************************************
 502:.\Generated_Source\PSoC4/CapSense.c **** * Function Name: CapSense_FindNextSensor
 503:.\Generated_Source\PSoC4/CapSense.c **** ********************************************************************************
 504:.\Generated_Source\PSoC4/CapSense.c **** *
 505:.\Generated_Source\PSoC4/CapSense.c **** * Summary:
 506:.\Generated_Source\PSoC4/CapSense.c **** *  Finds the next sensor to scan.
 507:.\Generated_Source\PSoC4/CapSense.c **** *
 508:.\Generated_Source\PSoC4/CapSense.c **** * Parameters:
 509:.\Generated_Source\PSoC4/CapSense.c **** *  snsIndex:  Current index of sensor.
 510:.\Generated_Source\PSoC4/CapSense.c **** *
 511:.\Generated_Source\PSoC4/CapSense.c **** * Return:
 512:.\Generated_Source\PSoC4/CapSense.c **** *  Returns the next sensor index to scan.
 513:.\Generated_Source\PSoC4/CapSense.c **** *
 514:.\Generated_Source\PSoC4/CapSense.c **** * Global Variables:
 515:.\Generated_Source\PSoC4/CapSense.c **** *  CapSense_sensorEnableMask[] - used to store bit masks of the enabled sensors.
 516:.\Generated_Source\PSoC4/CapSense.c **** *
 517:.\Generated_Source\PSoC4/CapSense.c **** * Side Effects:
 518:.\Generated_Source\PSoC4/CapSense.c **** *  This function affects the  current scanning and should not
 519:.\Generated_Source\PSoC4/CapSense.c **** *  be used outside the component.
 520:.\Generated_Source\PSoC4/CapSense.c **** *
 521:.\Generated_Source\PSoC4/CapSense.c **** *******************************************************************************/
 522:.\Generated_Source\PSoC4/CapSense.c **** uint8 CapSense_FindNextSensor(uint8 snsIndex)
 523:.\Generated_Source\PSoC4/CapSense.c **** {
 528              		.loc 1 523 0
 529              		.cfi_startproc
 530 0000 80B5     		push	{r7, lr}
 531              		.cfi_def_cfa_offset 8
 532              		.cfi_offset 7, -8
 533              		.cfi_offset 14, -4
 534 0002 84B0     		sub	sp, sp, #16
 535              		.cfi_def_cfa_offset 24
 536 0004 00AF     		add	r7, sp, #0
 537              		.cfi_def_cfa_register 7
 538 0006 021C     		mov	r2, r0
 539 0008 FB1D     		add	r3, r7, #7
 540 000a 1A70     		strb	r2, [r3]
 541              	.L20:
 524:.\Generated_Source\PSoC4/CapSense.c ****     uint32 enableFlag;
 525:.\Generated_Source\PSoC4/CapSense.c **** 
 526:.\Generated_Source\PSoC4/CapSense.c ****     /* Check if sensor enabled */
 527:.\Generated_Source\PSoC4/CapSense.c ****     do
 528:.\Generated_Source\PSoC4/CapSense.c ****     {
 529:.\Generated_Source\PSoC4/CapSense.c ****         /* Proceed with next sensor */
 530:.\Generated_Source\PSoC4/CapSense.c ****         snsIndex++;
 542              		.loc 1 530 0
 543 000c FB1D     		add	r3, r7, #7
 544 000e 1A78     		ldrb	r2, [r3]
 545 0010 FB1D     		add	r3, r7, #7
 546 0012 0132     		add	r2, r2, #1
 547 0014 1A70     		strb	r2, [r3]
 531:.\Generated_Source\PSoC4/CapSense.c ****         if(snsIndex == CapSense_TOTAL_SENSOR_COUNT)
ARM GAS  C:\Users\lovelesh\AppData\Local\Temp\ccK8zTJk.s 			page 20


 548              		.loc 1 531 0
 549 0016 FB1D     		add	r3, r7, #7
 550 0018 1B78     		ldrb	r3, [r3]
 551 001a 082B     		cmp	r3, #8
 552 001c 00D1     		bne	.L18
 532:.\Generated_Source\PSoC4/CapSense.c ****         {
 533:.\Generated_Source\PSoC4/CapSense.c ****             break;
 553              		.loc 1 533 0
 554 001e 0BE0     		b	.L19
 555              	.L18:
 534:.\Generated_Source\PSoC4/CapSense.c ****         }
 535:.\Generated_Source\PSoC4/CapSense.c ****         enableFlag = CapSense_GetBitValue(CapSense_sensorEnableMask, (uint32)snsIndex);
 556              		.loc 1 535 0
 557 0020 FB1D     		add	r3, r7, #7
 558 0022 1B78     		ldrb	r3, [r3]
 559 0024 074A     		ldr	r2, .L22
 560 0026 101C     		mov	r0, r2
 561 0028 191C     		mov	r1, r3
 562 002a FFF7FEFF 		bl	CapSense_GetBitValue
 563 002e 031C     		mov	r3, r0
 564 0030 FB60     		str	r3, [r7, #12]
 536:.\Generated_Source\PSoC4/CapSense.c ****     }
 537:.\Generated_Source\PSoC4/CapSense.c ****     while(enableFlag == 0u);
 565              		.loc 1 537 0
 566 0032 FB68     		ldr	r3, [r7, #12]
 567 0034 002B     		cmp	r3, #0
 568 0036 E9D0     		beq	.L20
 569              	.L19:
 538:.\Generated_Source\PSoC4/CapSense.c **** 
 539:.\Generated_Source\PSoC4/CapSense.c ****     return ((uint8)snsIndex);
 570              		.loc 1 539 0
 571 0038 FB1D     		add	r3, r7, #7
 572 003a 1B78     		ldrb	r3, [r3]
 540:.\Generated_Source\PSoC4/CapSense.c **** }
 573              		.loc 1 540 0
 574 003c 181C     		mov	r0, r3
 575 003e BD46     		mov	sp, r7
 576 0040 04B0     		add	sp, sp, #16
 577              		@ sp needed
 578 0042 80BD     		pop	{r7, pc}
 579              	.L23:
 580              		.align	2
 581              	.L22:
 582 0044 00000000 		.word	CapSense_sensorEnableMask
 583              		.cfi_endproc
 584              	.LFE39:
 585              		.size	CapSense_FindNextSensor, .-CapSense_FindNextSensor
 586              		.section	.text.CapSense_ScanSensor,"ax",%progbits
 587              		.align	2
 588              		.global	CapSense_ScanSensor
 589              		.code	16
 590              		.thumb_func
 591              		.type	CapSense_ScanSensor, %function
 592              	CapSense_ScanSensor:
 593              	.LFB40:
 541:.\Generated_Source\PSoC4/CapSense.c **** 
 542:.\Generated_Source\PSoC4/CapSense.c **** 
ARM GAS  C:\Users\lovelesh\AppData\Local\Temp\ccK8zTJk.s 			page 21


 543:.\Generated_Source\PSoC4/CapSense.c **** /*******************************************************************************
 544:.\Generated_Source\PSoC4/CapSense.c **** * Function Name: CapSense_ScanSensor
 545:.\Generated_Source\PSoC4/CapSense.c **** ********************************************************************************
 546:.\Generated_Source\PSoC4/CapSense.c **** *
 547:.\Generated_Source\PSoC4/CapSense.c **** * Summary:
 548:.\Generated_Source\PSoC4/CapSense.c **** *  Sets the scan settings and starts scanning a sensor. After scanning is complete,
 549:.\Generated_Source\PSoC4/CapSense.c **** *  the ISR copies the measured sensor raw data to the global raw sensor array.
 550:.\Generated_Source\PSoC4/CapSense.c **** *  Use of the ISR ensures this function is non-blocking.
 551:.\Generated_Source\PSoC4/CapSense.c **** *  Each sensor has a unique number within the sensor array.
 552:.\Generated_Source\PSoC4/CapSense.c **** *  This number is assigned by the CapSense customizer in sequence.
 553:.\Generated_Source\PSoC4/CapSense.c **** *
 554:.\Generated_Source\PSoC4/CapSense.c **** * Parameters:
 555:.\Generated_Source\PSoC4/CapSense.c **** *  sensor:  Sensor number.
 556:.\Generated_Source\PSoC4/CapSense.c **** *
 557:.\Generated_Source\PSoC4/CapSense.c **** * Return:
 558:.\Generated_Source\PSoC4/CapSense.c **** *  None
 559:.\Generated_Source\PSoC4/CapSense.c **** *
 560:.\Generated_Source\PSoC4/CapSense.c **** * Global Variables:
 561:.\Generated_Source\PSoC4/CapSense.c **** *  CapSense_csdStatusVar - used to provide the status and mode of the scanning process.
 562:.\Generated_Source\PSoC4/CapSense.c **** *  Sets the busy status(scan in progress) and mode of scan as single scan.
 563:.\Generated_Source\PSoC4/CapSense.c **** *  CapSense_sensorIndex - used to store a sensor scanning sensor number.
 564:.\Generated_Source\PSoC4/CapSense.c **** *  Sets to the provided sensor argument.
 565:.\Generated_Source\PSoC4/CapSense.c **** *
 566:.\Generated_Source\PSoC4/CapSense.c **** * Side Effects:
 567:.\Generated_Source\PSoC4/CapSense.c **** *  None
 568:.\Generated_Source\PSoC4/CapSense.c **** *
 569:.\Generated_Source\PSoC4/CapSense.c **** *******************************************************************************/
 570:.\Generated_Source\PSoC4/CapSense.c **** void CapSense_ScanSensor(uint32 sensor)
 571:.\Generated_Source\PSoC4/CapSense.c **** {
 594              		.loc 1 571 0
 595              		.cfi_startproc
 596 0000 80B5     		push	{r7, lr}
 597              		.cfi_def_cfa_offset 8
 598              		.cfi_offset 7, -8
 599              		.cfi_offset 14, -4
 600 0002 82B0     		sub	sp, sp, #8
 601              		.cfi_def_cfa_offset 16
 602 0004 00AF     		add	r7, sp, #0
 603              		.cfi_def_cfa_register 7
 604 0006 7860     		str	r0, [r7, #4]
 572:.\Generated_Source\PSoC4/CapSense.c ****     /* Clears status/control variable and set sensorIndex */
 573:.\Generated_Source\PSoC4/CapSense.c ****     CapSense_csdStatusVar = 0u;
 605              		.loc 1 573 0
 606 0008 084B     		ldr	r3, .L25
 607 000a 0022     		mov	r2, #0
 608 000c 1A70     		strb	r2, [r3]
 574:.\Generated_Source\PSoC4/CapSense.c ****     CapSense_sensorIndex = (uint8)sensor;
 609              		.loc 1 574 0
 610 000e 7B68     		ldr	r3, [r7, #4]
 611 0010 DAB2     		uxtb	r2, r3
 612 0012 074B     		ldr	r3, .L25+4
 613 0014 1A70     		strb	r2, [r3]
 575:.\Generated_Source\PSoC4/CapSense.c **** 
 576:.\Generated_Source\PSoC4/CapSense.c ****     /* Start of sensor scan */
 577:.\Generated_Source\PSoC4/CapSense.c ****     CapSense_csdStatusVar = (CapSense_SW_STS_BUSY | CapSense_SW_CTRL_SINGLE_SCAN);
 614              		.loc 1 577 0
 615 0016 054B     		ldr	r3, .L25
ARM GAS  C:\Users\lovelesh\AppData\Local\Temp\ccK8zTJk.s 			page 22


 616 0018 8122     		mov	r2, #129
 617 001a 1A70     		strb	r2, [r3]
 578:.\Generated_Source\PSoC4/CapSense.c ****     CapSense_PreScan(sensor);
 618              		.loc 1 578 0
 619 001c 7B68     		ldr	r3, [r7, #4]
 620 001e 181C     		mov	r0, r3
 621 0020 FFF7FEFF 		bl	CapSense_PreScan
 579:.\Generated_Source\PSoC4/CapSense.c **** }
 622              		.loc 1 579 0
 623 0024 BD46     		mov	sp, r7
 624 0026 02B0     		add	sp, sp, #8
 625              		@ sp needed
 626 0028 80BD     		pop	{r7, pc}
 627              	.L26:
 628 002a C046     		.align	2
 629              	.L25:
 630 002c 00000000 		.word	CapSense_csdStatusVar
 631 0030 00000000 		.word	CapSense_sensorIndex
 632              		.cfi_endproc
 633              	.LFE40:
 634              		.size	CapSense_ScanSensor, .-CapSense_ScanSensor
 635              		.section	.text.CapSense_ScanWidget,"ax",%progbits
 636              		.align	2
 637              		.global	CapSense_ScanWidget
 638              		.code	16
 639              		.thumb_func
 640              		.type	CapSense_ScanWidget, %function
 641              	CapSense_ScanWidget:
 642              	.LFB41:
 580:.\Generated_Source\PSoC4/CapSense.c **** 
 581:.\Generated_Source\PSoC4/CapSense.c **** 
 582:.\Generated_Source\PSoC4/CapSense.c **** #if(0u != CapSense_CSHL_API_GENERATE)
 583:.\Generated_Source\PSoC4/CapSense.c **** /*******************************************************************************
 584:.\Generated_Source\PSoC4/CapSense.c **** * Function Name: CapSense_ScanWidget
 585:.\Generated_Source\PSoC4/CapSense.c **** ********************************************************************************
 586:.\Generated_Source\PSoC4/CapSense.c **** *
 587:.\Generated_Source\PSoC4/CapSense.c **** * Summary:
 588:.\Generated_Source\PSoC4/CapSense.c **** *  Sets the scan settings and starts scanning a widget.
 589:.\Generated_Source\PSoC4/CapSense.c **** *
 590:.\Generated_Source\PSoC4/CapSense.c **** * Parameters:
 591:.\Generated_Source\PSoC4/CapSense.c **** *  uint32 widget: Widget number.
 592:.\Generated_Source\PSoC4/CapSense.c **** *
 593:.\Generated_Source\PSoC4/CapSense.c **** * Return:
 594:.\Generated_Source\PSoC4/CapSense.c **** *  None
 595:.\Generated_Source\PSoC4/CapSense.c **** *
 596:.\Generated_Source\PSoC4/CapSense.c **** * Global Variables:
 597:.\Generated_Source\PSoC4/CapSense.c **** *  CapSense_csdStatusVar - used to provide the status and mode of the scanning process.
 598:.\Generated_Source\PSoC4/CapSense.c **** *  Sets the busy status(scan in progress) and clears the single scan mode.
 599:.\Generated_Source\PSoC4/CapSense.c **** *  CapSense_sensorIndex - used to store a sensor scanning sensor number.
 600:.\Generated_Source\PSoC4/CapSense.c **** *  Sets to 0xFF and provided to function CapSense_FindNextSensor or
 601:.\Generated_Source\PSoC4/CapSense.c **** *  CapSense_sensorEnableMask[] - used to store bit masks of the enabled sensors.
 602:.\Generated_Source\PSoC4/CapSense.c **** *  CapSense_sensorEnableMaskBackup[] - used to backup bit masks of the enabled
 603:.\Generated_Source\PSoC4/CapSense.c **** *   sensors.
 604:.\Generated_Source\PSoC4/CapSense.c **** *
 605:.\Generated_Source\PSoC4/CapSense.c **** * Side Effects:
 606:.\Generated_Source\PSoC4/CapSense.c **** *  None
 607:.\Generated_Source\PSoC4/CapSense.c **** *
ARM GAS  C:\Users\lovelesh\AppData\Local\Temp\ccK8zTJk.s 			page 23


 608:.\Generated_Source\PSoC4/CapSense.c **** *******************************************************************************/
 609:.\Generated_Source\PSoC4/CapSense.c **** void CapSense_ScanWidget(uint32 widget)
 610:.\Generated_Source\PSoC4/CapSense.c **** {
 643              		.loc 1 610 0
 644              		.cfi_startproc
 645 0000 80B5     		push	{r7, lr}
 646              		.cfi_def_cfa_offset 8
 647              		.cfi_offset 7, -8
 648              		.cfi_offset 14, -4
 649 0002 86B0     		sub	sp, sp, #24
 650              		.cfi_def_cfa_offset 32
 651 0004 00AF     		add	r7, sp, #0
 652              		.cfi_def_cfa_register 7
 653 0006 7860     		str	r0, [r7, #4]
 611:.\Generated_Source\PSoC4/CapSense.c ****     uint32 sensorsPerWidget;
 612:.\Generated_Source\PSoC4/CapSense.c ****     uint32 lastSensor;
 613:.\Generated_Source\PSoC4/CapSense.c ****     uint32 snsIndex;
 614:.\Generated_Source\PSoC4/CapSense.c **** 
 615:.\Generated_Source\PSoC4/CapSense.c ****     /* Get first sensor in widget */
 616:.\Generated_Source\PSoC4/CapSense.c ****     CapSense_sensorIndex = CapSense_rawDataIndex[widget];
 654              		.loc 1 616 0
 655 0008 2F4A     		ldr	r2, .L36
 656 000a 7B68     		ldr	r3, [r7, #4]
 657 000c D318     		add	r3, r2, r3
 658 000e 1A78     		ldrb	r2, [r3]
 659 0010 2E4B     		ldr	r3, .L36+4
 660 0012 1A70     		strb	r2, [r3]
 617:.\Generated_Source\PSoC4/CapSense.c **** 
 618:.\Generated_Source\PSoC4/CapSense.c ****     /* Get number of sensors in widget */
 619:.\Generated_Source\PSoC4/CapSense.c ****     sensorsPerWidget = CapSense_numberOfSensors[widget];
 661              		.loc 1 619 0
 662 0014 2E4A     		ldr	r2, .L36+8
 663 0016 7B68     		ldr	r3, [r7, #4]
 664 0018 D318     		add	r3, r2, r3
 665 001a 1B78     		ldrb	r3, [r3]
 666 001c 7B61     		str	r3, [r7, #20]
 620:.\Generated_Source\PSoC4/CapSense.c **** 
 621:.\Generated_Source\PSoC4/CapSense.c ****     /* Check if generic Sensor */
 622:.\Generated_Source\PSoC4/CapSense.c ****     if(sensorsPerWidget == 0u)
 667              		.loc 1 622 0
 668 001e 7B69     		ldr	r3, [r7, #20]
 669 0020 002B     		cmp	r3, #0
 670 0022 01D1     		bne	.L28
 623:.\Generated_Source\PSoC4/CapSense.c ****     {
 624:.\Generated_Source\PSoC4/CapSense.c ****         sensorsPerWidget = 1u;
 671              		.loc 1 624 0
 672 0024 0123     		mov	r3, #1
 673 0026 7B61     		str	r3, [r7, #20]
 674              	.L28:
 625:.\Generated_Source\PSoC4/CapSense.c ****     }
 626:.\Generated_Source\PSoC4/CapSense.c **** 
 627:.\Generated_Source\PSoC4/CapSense.c ****     /* Get last sensor in widget */
 628:.\Generated_Source\PSoC4/CapSense.c ****     lastSensor = (CapSense_rawDataIndex[widget] + sensorsPerWidget) - 1u;
 675              		.loc 1 628 0
 676 0028 274A     		ldr	r2, .L36
 677 002a 7B68     		ldr	r3, [r7, #4]
 678 002c D318     		add	r3, r2, r3
ARM GAS  C:\Users\lovelesh\AppData\Local\Temp\ccK8zTJk.s 			page 24


 679 002e 1B78     		ldrb	r3, [r3]
 680 0030 1A1C     		mov	r2, r3
 681 0032 7B69     		ldr	r3, [r7, #20]
 682 0034 D318     		add	r3, r2, r3
 683 0036 013B     		sub	r3, r3, #1
 684 0038 FB60     		str	r3, [r7, #12]
 629:.\Generated_Source\PSoC4/CapSense.c **** 
 630:.\Generated_Source\PSoC4/CapSense.c ****     /* Backup sensorEnableMask array */
 631:.\Generated_Source\PSoC4/CapSense.c ****     for(snsIndex = 0u; snsIndex < CapSense_TOTAL_SENSOR_MASK; snsIndex++)
 685              		.loc 1 631 0
 686 003a 0023     		mov	r3, #0
 687 003c 3B61     		str	r3, [r7, #16]
 688 003e 0BE0     		b	.L29
 689              	.L30:
 632:.\Generated_Source\PSoC4/CapSense.c ****     {
 633:.\Generated_Source\PSoC4/CapSense.c ****         /* Backup sensorEnableMask array */
 634:.\Generated_Source\PSoC4/CapSense.c ****         CapSense_sensorEnableMaskBackup[snsIndex] = CapSense_sensorEnableMask[snsIndex];
 690              		.loc 1 634 0 discriminator 3
 691 0040 244A     		ldr	r2, .L36+12
 692 0042 3B69     		ldr	r3, [r7, #16]
 693 0044 D318     		add	r3, r2, r3
 694 0046 1978     		ldrb	r1, [r3]
 695 0048 234A     		ldr	r2, .L36+16
 696 004a 3B69     		ldr	r3, [r7, #16]
 697 004c D318     		add	r3, r2, r3
 698 004e 0A1C     		add	r2, r1, #0
 699 0050 1A70     		strb	r2, [r3]
 631:.\Generated_Source\PSoC4/CapSense.c ****     {
 700              		.loc 1 631 0 discriminator 3
 701 0052 3B69     		ldr	r3, [r7, #16]
 702 0054 0133     		add	r3, r3, #1
 703 0056 3B61     		str	r3, [r7, #16]
 704              	.L29:
 631:.\Generated_Source\PSoC4/CapSense.c ****     {
 705              		.loc 1 631 0 is_stmt 0 discriminator 1
 706 0058 3B69     		ldr	r3, [r7, #16]
 707 005a 002B     		cmp	r3, #0
 708 005c F0D0     		beq	.L30
 635:.\Generated_Source\PSoC4/CapSense.c ****     }
 636:.\Generated_Source\PSoC4/CapSense.c **** 
 637:.\Generated_Source\PSoC4/CapSense.c ****     /* Update sensorEnableMask to scan the sensors that belong to widget */
 638:.\Generated_Source\PSoC4/CapSense.c ****     for(snsIndex = 0u; snsIndex < CapSense_TOTAL_SENSOR_COUNT; snsIndex++)
 709              		.loc 1 638 0 is_stmt 1
 710 005e 0023     		mov	r3, #0
 711 0060 3B61     		str	r3, [r7, #16]
 712 0062 1CE0     		b	.L31
 713              	.L34:
 639:.\Generated_Source\PSoC4/CapSense.c ****     {
 640:.\Generated_Source\PSoC4/CapSense.c ****         /* Update sensorEnableMask array bits to scan the widget only */
 641:.\Generated_Source\PSoC4/CapSense.c ****         if((snsIndex >= CapSense_sensorIndex) && (snsIndex <= lastSensor))
 714              		.loc 1 641 0
 715 0064 194B     		ldr	r3, .L36+4
 716 0066 1B78     		ldrb	r3, [r3]
 717 0068 DBB2     		uxtb	r3, r3
 718 006a 1A1E     		sub	r2, r3, #0
 719 006c 3B69     		ldr	r3, [r7, #16]
 720 006e 9A42     		cmp	r2, r3
ARM GAS  C:\Users\lovelesh\AppData\Local\Temp\ccK8zTJk.s 			page 25


 721 0070 0BD8     		bhi	.L32
 722              		.loc 1 641 0 is_stmt 0 discriminator 1
 723 0072 3A69     		ldr	r2, [r7, #16]
 724 0074 FB68     		ldr	r3, [r7, #12]
 725 0076 9A42     		cmp	r2, r3
 726 0078 07D8     		bhi	.L32
 642:.\Generated_Source\PSoC4/CapSense.c ****         {
 643:.\Generated_Source\PSoC4/CapSense.c ****             /* Set sensor bit to scan */
 644:.\Generated_Source\PSoC4/CapSense.c ****             CapSense_SetBitValue(CapSense_sensorEnableMask, snsIndex, 1u);
 727              		.loc 1 644 0 is_stmt 1
 728 007a 164A     		ldr	r2, .L36+12
 729 007c 3B69     		ldr	r3, [r7, #16]
 730 007e 101C     		mov	r0, r2
 731 0080 191C     		mov	r1, r3
 732 0082 0122     		mov	r2, #1
 733 0084 FFF7FEFF 		bl	CapSense_SetBitValue
 734 0088 06E0     		b	.L33
 735              	.L32:
 645:.\Generated_Source\PSoC4/CapSense.c ****         }
 646:.\Generated_Source\PSoC4/CapSense.c ****         else
 647:.\Generated_Source\PSoC4/CapSense.c ****         {
 648:.\Generated_Source\PSoC4/CapSense.c ****             /* Reset sensor bit to do not scan */
 649:.\Generated_Source\PSoC4/CapSense.c ****             CapSense_SetBitValue(CapSense_sensorEnableMask, snsIndex, 0u);
 736              		.loc 1 649 0
 737 008a 124A     		ldr	r2, .L36+12
 738 008c 3B69     		ldr	r3, [r7, #16]
 739 008e 101C     		mov	r0, r2
 740 0090 191C     		mov	r1, r3
 741 0092 0022     		mov	r2, #0
 742 0094 FFF7FEFF 		bl	CapSense_SetBitValue
 743              	.L33:
 638:.\Generated_Source\PSoC4/CapSense.c ****     {
 744              		.loc 1 638 0 discriminator 2
 745 0098 3B69     		ldr	r3, [r7, #16]
 746 009a 0133     		add	r3, r3, #1
 747 009c 3B61     		str	r3, [r7, #16]
 748              	.L31:
 638:.\Generated_Source\PSoC4/CapSense.c ****     {
 749              		.loc 1 638 0 is_stmt 0 discriminator 1
 750 009e 3B69     		ldr	r3, [r7, #16]
 751 00a0 072B     		cmp	r3, #7
 752 00a2 DFD9     		bls	.L34
 650:.\Generated_Source\PSoC4/CapSense.c ****         }
 651:.\Generated_Source\PSoC4/CapSense.c ****     }
 652:.\Generated_Source\PSoC4/CapSense.c **** 
 653:.\Generated_Source\PSoC4/CapSense.c ****     /* Check end of scan condition */
 654:.\Generated_Source\PSoC4/CapSense.c ****     if(CapSense_sensorIndex < CapSense_TOTAL_SENSOR_COUNT)
 753              		.loc 1 654 0 is_stmt 1
 754 00a4 094B     		ldr	r3, .L36+4
 755 00a6 1B78     		ldrb	r3, [r3]
 756 00a8 DBB2     		uxtb	r3, r3
 757 00aa 072B     		cmp	r3, #7
 758 00ac 08D8     		bhi	.L27
 655:.\Generated_Source\PSoC4/CapSense.c ****     {
 656:.\Generated_Source\PSoC4/CapSense.c ****         /* Set widget busy bit in status/control variable*/
 657:.\Generated_Source\PSoC4/CapSense.c ****         CapSense_csdStatusVar = (CapSense_SW_STS_BUSY | CapSense_SW_CTRL_WIDGET_SCAN);
 759              		.loc 1 657 0
ARM GAS  C:\Users\lovelesh\AppData\Local\Temp\ccK8zTJk.s 			page 26


 760 00ae 0B4B     		ldr	r3, .L36+20
 761 00b0 4122     		mov	r2, #65
 762 00b2 1A70     		strb	r2, [r3]
 658:.\Generated_Source\PSoC4/CapSense.c ****         /* Scan first sensor of widget*/
 659:.\Generated_Source\PSoC4/CapSense.c ****         CapSense_PreScan((uint32)CapSense_sensorIndex);
 763              		.loc 1 659 0
 764 00b4 054B     		ldr	r3, .L36+4
 765 00b6 1B78     		ldrb	r3, [r3]
 766 00b8 DBB2     		uxtb	r3, r3
 767 00ba 181C     		mov	r0, r3
 768 00bc FFF7FEFF 		bl	CapSense_PreScan
 769              	.L27:
 660:.\Generated_Source\PSoC4/CapSense.c ****     }
 661:.\Generated_Source\PSoC4/CapSense.c **** }
 770              		.loc 1 661 0
 771 00c0 BD46     		mov	sp, r7
 772 00c2 06B0     		add	sp, sp, #24
 773              		@ sp needed
 774 00c4 80BD     		pop	{r7, pc}
 775              	.L37:
 776 00c6 C046     		.align	2
 777              	.L36:
 778 00c8 00000000 		.word	CapSense_rawDataIndex
 779 00cc 00000000 		.word	CapSense_sensorIndex
 780 00d0 00000000 		.word	CapSense_numberOfSensors
 781 00d4 00000000 		.word	CapSense_sensorEnableMask
 782 00d8 00000000 		.word	CapSense_sensorEnableMaskBackup
 783 00dc 00000000 		.word	CapSense_csdStatusVar
 784              		.cfi_endproc
 785              	.LFE41:
 786              		.size	CapSense_ScanWidget, .-CapSense_ScanWidget
 787              		.section	.text.CapSense_ScanEnabledWidgets,"ax",%progbits
 788              		.align	2
 789              		.global	CapSense_ScanEnabledWidgets
 790              		.code	16
 791              		.thumb_func
 792              		.type	CapSense_ScanEnabledWidgets, %function
 793              	CapSense_ScanEnabledWidgets:
 794              	.LFB42:
 662:.\Generated_Source\PSoC4/CapSense.c **** #endif /* (0u != CapSense_CSHL_API_GENERATE) */
 663:.\Generated_Source\PSoC4/CapSense.c **** 
 664:.\Generated_Source\PSoC4/CapSense.c **** 
 665:.\Generated_Source\PSoC4/CapSense.c **** /*******************************************************************************
 666:.\Generated_Source\PSoC4/CapSense.c **** * Function Name: CapSense_ScanEnableWidgets
 667:.\Generated_Source\PSoC4/CapSense.c **** ********************************************************************************
 668:.\Generated_Source\PSoC4/CapSense.c **** *
 669:.\Generated_Source\PSoC4/CapSense.c **** * Summary:
 670:.\Generated_Source\PSoC4/CapSense.c **** *  This is the preferred method to scan all of the enabled widgets.
 671:.\Generated_Source\PSoC4/CapSense.c **** *  The API starts scanning a sensor within the enabled widgets.
 672:.\Generated_Source\PSoC4/CapSense.c **** *  The ISR continues scanning the sensors until all the enabled widgets are scanned.
 673:.\Generated_Source\PSoC4/CapSense.c **** *  Use of the ISR ensures this function is non-blocking.
 674:.\Generated_Source\PSoC4/CapSense.c **** *  All the widgets are enabled by default except proximity widgets.
 675:.\Generated_Source\PSoC4/CapSense.c **** *  The proximity widgets must be manually enabled as their long scan time
 676:.\Generated_Source\PSoC4/CapSense.c **** *  is incompatible with a fast response required of other widget types.
 677:.\Generated_Source\PSoC4/CapSense.c **** *
 678:.\Generated_Source\PSoC4/CapSense.c **** * Parameters:
 679:.\Generated_Source\PSoC4/CapSense.c **** *  None
ARM GAS  C:\Users\lovelesh\AppData\Local\Temp\ccK8zTJk.s 			page 27


 680:.\Generated_Source\PSoC4/CapSense.c **** *
 681:.\Generated_Source\PSoC4/CapSense.c **** * Return:
 682:.\Generated_Source\PSoC4/CapSense.c **** *  None
 683:.\Generated_Source\PSoC4/CapSense.c **** *
 684:.\Generated_Source\PSoC4/CapSense.c **** * Global Variables:
 685:.\Generated_Source\PSoC4/CapSense.c **** *  CapSense_csdStatusVar - used to provide the status and mode of the scanning process.
 686:.\Generated_Source\PSoC4/CapSense.c **** *  Sets the busy status(scan in progress) and clears the single scan mode.
 687:.\Generated_Source\PSoC4/CapSense.c **** *  CapSense_sensorIndex - used to store a sensor scanning sensor number.
 688:.\Generated_Source\PSoC4/CapSense.c **** *  Sets to 0xFF and provided to function CapSense_FindNextSensor or
 689:.\Generated_Source\PSoC4/CapSense.c **** *
 690:.\Generated_Source\PSoC4/CapSense.c **** * Side Effects:
 691:.\Generated_Source\PSoC4/CapSense.c **** *  None
 692:.\Generated_Source\PSoC4/CapSense.c **** *
 693:.\Generated_Source\PSoC4/CapSense.c **** *******************************************************************************/
 694:.\Generated_Source\PSoC4/CapSense.c **** void CapSense_ScanEnabledWidgets(void)
 695:.\Generated_Source\PSoC4/CapSense.c **** {
 795              		.loc 1 695 0
 796              		.cfi_startproc
 797 0000 80B5     		push	{r7, lr}
 798              		.cfi_def_cfa_offset 8
 799              		.cfi_offset 7, -8
 800              		.cfi_offset 14, -4
 801 0002 00AF     		add	r7, sp, #0
 802              		.cfi_def_cfa_register 7
 696:.\Generated_Source\PSoC4/CapSense.c ****     /* Clears status/control variable and set sensorIndex */
 697:.\Generated_Source\PSoC4/CapSense.c ****     CapSense_csdStatusVar = 0u;
 803              		.loc 1 697 0
 804 0004 124B     		ldr	r3, .L40
 805 0006 0022     		mov	r2, #0
 806 0008 1A70     		strb	r2, [r3]
 698:.\Generated_Source\PSoC4/CapSense.c ****     CapSense_sensorIndex = 0xFFu;
 807              		.loc 1 698 0
 808 000a 124B     		ldr	r3, .L40+4
 809 000c FF22     		mov	r2, #255
 810 000e 1A70     		strb	r2, [r3]
 699:.\Generated_Source\PSoC4/CapSense.c **** 
 700:.\Generated_Source\PSoC4/CapSense.c ****     /* Find next sensor */
 701:.\Generated_Source\PSoC4/CapSense.c ****     CapSense_sensorIndex = (uint8)CapSense_FindNextSensor(CapSense_sensorIndex);
 811              		.loc 1 701 0
 812 0010 104B     		ldr	r3, .L40+4
 813 0012 1B78     		ldrb	r3, [r3]
 814 0014 DBB2     		uxtb	r3, r3
 815 0016 181C     		mov	r0, r3
 816 0018 FFF7FEFF 		bl	CapSense_FindNextSensor
 817 001c 031C     		mov	r3, r0
 818 001e 1A1C     		mov	r2, r3
 819 0020 0C4B     		ldr	r3, .L40+4
 820 0022 1A70     		strb	r2, [r3]
 702:.\Generated_Source\PSoC4/CapSense.c **** 
 703:.\Generated_Source\PSoC4/CapSense.c ****     /* Check end of scan condition */
 704:.\Generated_Source\PSoC4/CapSense.c ****     if(CapSense_sensorIndex < CapSense_TOTAL_SENSOR_COUNT)
 821              		.loc 1 704 0
 822 0024 0B4B     		ldr	r3, .L40+4
 823 0026 1B78     		ldrb	r3, [r3]
 824 0028 DBB2     		uxtb	r3, r3
 825 002a 072B     		cmp	r3, #7
 826 002c 0DD8     		bhi	.L38
ARM GAS  C:\Users\lovelesh\AppData\Local\Temp\ccK8zTJk.s 			page 28


 705:.\Generated_Source\PSoC4/CapSense.c ****     {
 706:.\Generated_Source\PSoC4/CapSense.c ****         CapSense_csdStatusVar |= CapSense_SW_STS_BUSY;
 827              		.loc 1 706 0
 828 002e 084B     		ldr	r3, .L40
 829 0030 1B78     		ldrb	r3, [r3]
 830 0032 DBB2     		uxtb	r3, r3
 831 0034 0122     		mov	r2, #1
 832 0036 1343     		orr	r3, r2
 833 0038 DAB2     		uxtb	r2, r3
 834 003a 054B     		ldr	r3, .L40
 835 003c 1A70     		strb	r2, [r3]
 707:.\Generated_Source\PSoC4/CapSense.c ****         CapSense_PreScan((uint32)CapSense_sensorIndex);
 836              		.loc 1 707 0
 837 003e 054B     		ldr	r3, .L40+4
 838 0040 1B78     		ldrb	r3, [r3]
 839 0042 DBB2     		uxtb	r3, r3
 840 0044 181C     		mov	r0, r3
 841 0046 FFF7FEFF 		bl	CapSense_PreScan
 842              	.L38:
 708:.\Generated_Source\PSoC4/CapSense.c ****     }
 709:.\Generated_Source\PSoC4/CapSense.c **** }
 843              		.loc 1 709 0
 844 004a BD46     		mov	sp, r7
 845              		@ sp needed
 846 004c 80BD     		pop	{r7, pc}
 847              	.L41:
 848 004e C046     		.align	2
 849              	.L40:
 850 0050 00000000 		.word	CapSense_csdStatusVar
 851 0054 00000000 		.word	CapSense_sensorIndex
 852              		.cfi_endproc
 853              	.LFE42:
 854              		.size	CapSense_ScanEnabledWidgets, .-CapSense_ScanEnabledWidgets
 855              		.section	.text.CapSense_IsBusy,"ax",%progbits
 856              		.align	2
 857              		.global	CapSense_IsBusy
 858              		.code	16
 859              		.thumb_func
 860              		.type	CapSense_IsBusy, %function
 861              	CapSense_IsBusy:
 862              	.LFB43:
 710:.\Generated_Source\PSoC4/CapSense.c **** 
 711:.\Generated_Source\PSoC4/CapSense.c **** 
 712:.\Generated_Source\PSoC4/CapSense.c **** /*******************************************************************************
 713:.\Generated_Source\PSoC4/CapSense.c **** * Function Name: CapSense_IsBusy
 714:.\Generated_Source\PSoC4/CapSense.c **** ********************************************************************************
 715:.\Generated_Source\PSoC4/CapSense.c **** *
 716:.\Generated_Source\PSoC4/CapSense.c **** * Summary:
 717:.\Generated_Source\PSoC4/CapSense.c **** *  Returns the state of the CapSense component. 1 means that scanning in
 718:.\Generated_Source\PSoC4/CapSense.c **** *  progress and 0 means that scanning is complete.
 719:.\Generated_Source\PSoC4/CapSense.c **** *
 720:.\Generated_Source\PSoC4/CapSense.c **** * Parameters:
 721:.\Generated_Source\PSoC4/CapSense.c **** *  None
 722:.\Generated_Source\PSoC4/CapSense.c **** *
 723:.\Generated_Source\PSoC4/CapSense.c **** * Return:
 724:.\Generated_Source\PSoC4/CapSense.c **** *  Returns the state of scanning. 1 - scanning in progress, 0 - scanning
 725:.\Generated_Source\PSoC4/CapSense.c **** *  completed.
ARM GAS  C:\Users\lovelesh\AppData\Local\Temp\ccK8zTJk.s 			page 29


 726:.\Generated_Source\PSoC4/CapSense.c **** *
 727:.\Generated_Source\PSoC4/CapSense.c **** * Global Variables:
 728:.\Generated_Source\PSoC4/CapSense.c **** *  CapSense_csdStatusVar - used to provide the status and mode of the scanning process.
 729:.\Generated_Source\PSoC4/CapSense.c **** *  Checks the busy status.
 730:.\Generated_Source\PSoC4/CapSense.c **** *
 731:.\Generated_Source\PSoC4/CapSense.c **** * Side Effects:
 732:.\Generated_Source\PSoC4/CapSense.c **** *  None
 733:.\Generated_Source\PSoC4/CapSense.c **** *
 734:.\Generated_Source\PSoC4/CapSense.c **** *******************************************************************************/
 735:.\Generated_Source\PSoC4/CapSense.c **** uint32 CapSense_IsBusy(void)
 736:.\Generated_Source\PSoC4/CapSense.c **** {
 863              		.loc 1 736 0
 864              		.cfi_startproc
 865 0000 80B5     		push	{r7, lr}
 866              		.cfi_def_cfa_offset 8
 867              		.cfi_offset 7, -8
 868              		.cfi_offset 14, -4
 869 0002 00AF     		add	r7, sp, #0
 870              		.cfi_def_cfa_register 7
 737:.\Generated_Source\PSoC4/CapSense.c ****     return ((uint32)((0u != (CapSense_csdStatusVar & CapSense_SW_STS_BUSY)) ? 1u : 0u));
 871              		.loc 1 737 0
 872 0004 044B     		ldr	r3, .L44
 873 0006 1B78     		ldrb	r3, [r3]
 874 0008 DBB2     		uxtb	r3, r3
 875 000a 1A1C     		mov	r2, r3
 876 000c 0123     		mov	r3, #1
 877 000e 1340     		and	r3, r2
 738:.\Generated_Source\PSoC4/CapSense.c **** }
 878              		.loc 1 738 0
 879 0010 181C     		mov	r0, r3
 880 0012 BD46     		mov	sp, r7
 881              		@ sp needed
 882 0014 80BD     		pop	{r7, pc}
 883              	.L45:
 884 0016 C046     		.align	2
 885              	.L44:
 886 0018 00000000 		.word	CapSense_csdStatusVar
 887              		.cfi_endproc
 888              	.LFE43:
 889              		.size	CapSense_IsBusy, .-CapSense_IsBusy
 890              		.section	.text.CapSense_ReadSensorRaw,"ax",%progbits
 891              		.align	2
 892              		.global	CapSense_ReadSensorRaw
 893              		.code	16
 894              		.thumb_func
 895              		.type	CapSense_ReadSensorRaw, %function
 896              	CapSense_ReadSensorRaw:
 897              	.LFB44:
 739:.\Generated_Source\PSoC4/CapSense.c **** 
 740:.\Generated_Source\PSoC4/CapSense.c **** 
 741:.\Generated_Source\PSoC4/CapSense.c **** /*******************************************************************************
 742:.\Generated_Source\PSoC4/CapSense.c **** * Function Name: CapSense_ReadSensorRaw
 743:.\Generated_Source\PSoC4/CapSense.c **** ********************************************************************************
 744:.\Generated_Source\PSoC4/CapSense.c **** *
 745:.\Generated_Source\PSoC4/CapSense.c **** * Summary:
 746:.\Generated_Source\PSoC4/CapSense.c **** *  Returns sensor raw data from the global CapSense_sensorRaw[ ] array.
 747:.\Generated_Source\PSoC4/CapSense.c **** *  Each scan sensor has a unique number within the sensor array.
ARM GAS  C:\Users\lovelesh\AppData\Local\Temp\ccK8zTJk.s 			page 30


 748:.\Generated_Source\PSoC4/CapSense.c **** *  This number is assigned by the CapSense customizer in sequence.
 749:.\Generated_Source\PSoC4/CapSense.c **** *  Raw data can be used to perform calculations outside of the CapSense
 750:.\Generated_Source\PSoC4/CapSense.c **** *  provided framework.
 751:.\Generated_Source\PSoC4/CapSense.c **** *
 752:.\Generated_Source\PSoC4/CapSense.c **** * Parameters:
 753:.\Generated_Source\PSoC4/CapSense.c **** *  sensor:  Sensor number.
 754:.\Generated_Source\PSoC4/CapSense.c **** *
 755:.\Generated_Source\PSoC4/CapSense.c **** * Return:
 756:.\Generated_Source\PSoC4/CapSense.c **** *  Returns the current raw data value for a defined sensor number.
 757:.\Generated_Source\PSoC4/CapSense.c **** *
 758:.\Generated_Source\PSoC4/CapSense.c **** * Global Variables:
 759:.\Generated_Source\PSoC4/CapSense.c **** *  CapSense_sensorRaw[] - used to store sensors raw data.
 760:.\Generated_Source\PSoC4/CapSense.c **** *
 761:.\Generated_Source\PSoC4/CapSense.c **** * Side Effects:
 762:.\Generated_Source\PSoC4/CapSense.c **** *  None
 763:.\Generated_Source\PSoC4/CapSense.c **** *
 764:.\Generated_Source\PSoC4/CapSense.c **** *******************************************************************************/
 765:.\Generated_Source\PSoC4/CapSense.c **** uint16 CapSense_ReadSensorRaw(uint32 sensor)
 766:.\Generated_Source\PSoC4/CapSense.c **** {
 898              		.loc 1 766 0
 899              		.cfi_startproc
 900 0000 80B5     		push	{r7, lr}
 901              		.cfi_def_cfa_offset 8
 902              		.cfi_offset 7, -8
 903              		.cfi_offset 14, -4
 904 0002 82B0     		sub	sp, sp, #8
 905              		.cfi_def_cfa_offset 16
 906 0004 00AF     		add	r7, sp, #0
 907              		.cfi_def_cfa_register 7
 908 0006 7860     		str	r0, [r7, #4]
 767:.\Generated_Source\PSoC4/CapSense.c ****     return CapSense_sensorRaw[sensor];
 909              		.loc 1 767 0
 910 0008 034B     		ldr	r3, .L48
 911 000a 7A68     		ldr	r2, [r7, #4]
 912 000c 5200     		lsl	r2, r2, #1
 913 000e D35A     		ldrh	r3, [r2, r3]
 768:.\Generated_Source\PSoC4/CapSense.c **** }
 914              		.loc 1 768 0
 915 0010 181C     		mov	r0, r3
 916 0012 BD46     		mov	sp, r7
 917 0014 02B0     		add	sp, sp, #8
 918              		@ sp needed
 919 0016 80BD     		pop	{r7, pc}
 920              	.L49:
 921              		.align	2
 922              	.L48:
 923 0018 00000000 		.word	CapSense_sensorRaw
 924              		.cfi_endproc
 925              	.LFE44:
 926              		.size	CapSense_ReadSensorRaw, .-CapSense_ReadSensorRaw
 927              		.section	.text.CapSense_WriteSensorRaw,"ax",%progbits
 928              		.align	2
 929              		.global	CapSense_WriteSensorRaw
 930              		.code	16
 931              		.thumb_func
 932              		.type	CapSense_WriteSensorRaw, %function
 933              	CapSense_WriteSensorRaw:
ARM GAS  C:\Users\lovelesh\AppData\Local\Temp\ccK8zTJk.s 			page 31


 934              	.LFB45:
 769:.\Generated_Source\PSoC4/CapSense.c **** 
 770:.\Generated_Source\PSoC4/CapSense.c **** 
 771:.\Generated_Source\PSoC4/CapSense.c **** /*******************************************************************************
 772:.\Generated_Source\PSoC4/CapSense.c **** * Function Name: CapSense_WriteSensorRaw
 773:.\Generated_Source\PSoC4/CapSense.c **** ********************************************************************************
 774:.\Generated_Source\PSoC4/CapSense.c **** *
 775:.\Generated_Source\PSoC4/CapSense.c **** * Summary:
 776:.\Generated_Source\PSoC4/CapSense.c **** *  This API writes the raw count value passed as an argument to the sensor Raw count array.
 777:.\Generated_Source\PSoC4/CapSense.c **** *
 778:.\Generated_Source\PSoC4/CapSense.c **** * Parameters:
 779:.\Generated_Source\PSoC4/CapSense.c **** *  sensor:  Sensor number.
 780:.\Generated_Source\PSoC4/CapSense.c **** *  value: Raw count value.
 781:.\Generated_Source\PSoC4/CapSense.c **** *
 782:.\Generated_Source\PSoC4/CapSense.c **** * Global Variables:
 783:.\Generated_Source\PSoC4/CapSense.c **** *  CapSense_sensorRaw[] - used to store sensors raw data.
 784:.\Generated_Source\PSoC4/CapSense.c **** *
 785:.\Generated_Source\PSoC4/CapSense.c **** * Return:
 786:.\Generated_Source\PSoC4/CapSense.c **** *  None
 787:.\Generated_Source\PSoC4/CapSense.c **** *
 788:.\Generated_Source\PSoC4/CapSense.c **** * Side Effects:
 789:.\Generated_Source\PSoC4/CapSense.c **** *  None
 790:.\Generated_Source\PSoC4/CapSense.c **** *
 791:.\Generated_Source\PSoC4/CapSense.c **** *******************************************************************************/
 792:.\Generated_Source\PSoC4/CapSense.c **** void CapSense_WriteSensorRaw(uint32 sensor, uint16 value)
 793:.\Generated_Source\PSoC4/CapSense.c **** {
 935              		.loc 1 793 0
 936              		.cfi_startproc
 937 0000 80B5     		push	{r7, lr}
 938              		.cfi_def_cfa_offset 8
 939              		.cfi_offset 7, -8
 940              		.cfi_offset 14, -4
 941 0002 82B0     		sub	sp, sp, #8
 942              		.cfi_def_cfa_offset 16
 943 0004 00AF     		add	r7, sp, #0
 944              		.cfi_def_cfa_register 7
 945 0006 7860     		str	r0, [r7, #4]
 946 0008 0A1C     		mov	r2, r1
 947 000a BB1C     		add	r3, r7, #2
 948 000c 1A80     		strh	r2, [r3]
 794:.\Generated_Source\PSoC4/CapSense.c ****     CapSense_sensorRaw[sensor] = value;
 949              		.loc 1 794 0
 950 000e 044B     		ldr	r3, .L51
 951 0010 7A68     		ldr	r2, [r7, #4]
 952 0012 5200     		lsl	r2, r2, #1
 953 0014 B91C     		add	r1, r7, #2
 954 0016 0988     		ldrh	r1, [r1]
 955 0018 D152     		strh	r1, [r2, r3]
 795:.\Generated_Source\PSoC4/CapSense.c **** }
 956              		.loc 1 795 0
 957 001a BD46     		mov	sp, r7
 958 001c 02B0     		add	sp, sp, #8
 959              		@ sp needed
 960 001e 80BD     		pop	{r7, pc}
 961              	.L52:
 962              		.align	2
 963              	.L51:
ARM GAS  C:\Users\lovelesh\AppData\Local\Temp\ccK8zTJk.s 			page 32


 964 0020 00000000 		.word	CapSense_sensorRaw
 965              		.cfi_endproc
 966              	.LFE45:
 967              		.size	CapSense_WriteSensorRaw, .-CapSense_WriteSensorRaw
 968              		.section	.text.CapSense_SetScanResolution,"ax",%progbits
 969              		.align	2
 970              		.global	CapSense_SetScanResolution
 971              		.code	16
 972              		.thumb_func
 973              		.type	CapSense_SetScanResolution, %function
 974              	CapSense_SetScanResolution:
 975              	.LFB46:
 796:.\Generated_Source\PSoC4/CapSense.c **** 
 797:.\Generated_Source\PSoC4/CapSense.c **** 
 798:.\Generated_Source\PSoC4/CapSense.c **** #if (CapSense_TUNING_METHOD != CapSense__TUNING_NONE)
 799:.\Generated_Source\PSoC4/CapSense.c ****     /*******************************************************************************
 800:.\Generated_Source\PSoC4/CapSense.c ****     * Function Name: CapSense_SetScanResolution
 801:.\Generated_Source\PSoC4/CapSense.c ****     ********************************************************************************
 802:.\Generated_Source\PSoC4/CapSense.c ****     *
 803:.\Generated_Source\PSoC4/CapSense.c ****     * Summary:
 804:.\Generated_Source\PSoC4/CapSense.c ****     *  Sets a value of the sensor scan resolution for a widget.
 805:.\Generated_Source\PSoC4/CapSense.c ****     *  The MIN resolution can be set 8-bit. The MAX Resolution can be set 16 bit.
 806:.\Generated_Source\PSoC4/CapSense.c ****     *  This function is not available for the tuning mode "None".
 807:.\Generated_Source\PSoC4/CapSense.c ****     *
 808:.\Generated_Source\PSoC4/CapSense.c ****     * Parameters:
 809:.\Generated_Source\PSoC4/CapSense.c ****     *  widget:     Widget index.
 810:.\Generated_Source\PSoC4/CapSense.c ****     *  resolution: Represents the resolution value. The following defines which are available in th
 811:.\Generated_Source\PSoC4/CapSense.c ****     *              CapSense.h file should be used:
 812:.\Generated_Source\PSoC4/CapSense.c ****     *              CapSense_RESOLUTION_6_BITS
 813:.\Generated_Source\PSoC4/CapSense.c ****     *              CapSense_RESOLUTION_7_BITS
 814:.\Generated_Source\PSoC4/CapSense.c ****     *              CapSense_RESOLUTION_8_BITS
 815:.\Generated_Source\PSoC4/CapSense.c ****     *              CapSense_RESOLUTION_9_BITS
 816:.\Generated_Source\PSoC4/CapSense.c ****     *              CapSense_RESOLUTION_10_BITS
 817:.\Generated_Source\PSoC4/CapSense.c ****     *              CapSense_RESOLUTION_11_BITS
 818:.\Generated_Source\PSoC4/CapSense.c ****     *              CapSense_RESOLUTION_12_BITS
 819:.\Generated_Source\PSoC4/CapSense.c ****     *              CapSense_RESOLUTION_13_BITS
 820:.\Generated_Source\PSoC4/CapSense.c ****     *              CapSense_RESOLUTION_14_BITS
 821:.\Generated_Source\PSoC4/CapSense.c ****     *              CapSense_RESOLUTION_15_BITS
 822:.\Generated_Source\PSoC4/CapSense.c ****     *              CapSense_RESOLUTION_16_BITS
 823:.\Generated_Source\PSoC4/CapSense.c ****     *
 824:.\Generated_Source\PSoC4/CapSense.c ****     * Return:
 825:.\Generated_Source\PSoC4/CapSense.c ****     *  None
 826:.\Generated_Source\PSoC4/CapSense.c ****     *
 827:.\Generated_Source\PSoC4/CapSense.c ****     * Global Variables:
 828:.\Generated_Source\PSoC4/CapSense.c ****     *  CapSense_widgetResolution[] - used to store scan resolution of each widget.
 829:.\Generated_Source\PSoC4/CapSense.c ****     *
 830:.\Generated_Source\PSoC4/CapSense.c ****     * Side Effects:
 831:.\Generated_Source\PSoC4/CapSense.c ****     *  None
 832:.\Generated_Source\PSoC4/CapSense.c ****     *
 833:.\Generated_Source\PSoC4/CapSense.c ****     *******************************************************************************/
 834:.\Generated_Source\PSoC4/CapSense.c ****     void CapSense_SetScanResolution(uint32 widget, uint32 resolution)
 835:.\Generated_Source\PSoC4/CapSense.c ****     {
 976              		.loc 1 835 0
 977              		.cfi_startproc
 978 0000 80B5     		push	{r7, lr}
 979              		.cfi_def_cfa_offset 8
 980              		.cfi_offset 7, -8
ARM GAS  C:\Users\lovelesh\AppData\Local\Temp\ccK8zTJk.s 			page 33


 981              		.cfi_offset 14, -4
 982 0002 82B0     		sub	sp, sp, #8
 983              		.cfi_def_cfa_offset 16
 984 0004 00AF     		add	r7, sp, #0
 985              		.cfi_def_cfa_register 7
 986 0006 7860     		str	r0, [r7, #4]
 987 0008 3960     		str	r1, [r7]
 836:.\Generated_Source\PSoC4/CapSense.c ****         CapSense_widgetResolution[widget] = resolution;
 988              		.loc 1 836 0
 989 000a 044B     		ldr	r3, .L54
 990 000c 7A68     		ldr	r2, [r7, #4]
 991 000e 9200     		lsl	r2, r2, #2
 992 0010 3968     		ldr	r1, [r7]
 993 0012 D150     		str	r1, [r2, r3]
 837:.\Generated_Source\PSoC4/CapSense.c ****     }
 994              		.loc 1 837 0
 995 0014 BD46     		mov	sp, r7
 996 0016 02B0     		add	sp, sp, #8
 997              		@ sp needed
 998 0018 80BD     		pop	{r7, pc}
 999              	.L55:
 1000 001a C046     		.align	2
 1001              	.L54:
 1002 001c 00000000 		.word	CapSense_widgetResolution
 1003              		.cfi_endproc
 1004              	.LFE46:
 1005              		.size	CapSense_SetScanResolution, .-CapSense_SetScanResolution
 1006              		.section	.text.CapSense_GetScanResolution,"ax",%progbits
 1007              		.align	2
 1008              		.global	CapSense_GetScanResolution
 1009              		.code	16
 1010              		.thumb_func
 1011              		.type	CapSense_GetScanResolution, %function
 1012              	CapSense_GetScanResolution:
 1013              	.LFB47:
 838:.\Generated_Source\PSoC4/CapSense.c **** #endif /* (CapSense_TUNING_METHOD != CapSense__TUNING_NONE) */
 839:.\Generated_Source\PSoC4/CapSense.c **** 
 840:.\Generated_Source\PSoC4/CapSense.c **** 
 841:.\Generated_Source\PSoC4/CapSense.c **** /*******************************************************************************
 842:.\Generated_Source\PSoC4/CapSense.c **** * Function Name: CapSense_GetScanResolution
 843:.\Generated_Source\PSoC4/CapSense.c **** ********************************************************************************
 844:.\Generated_Source\PSoC4/CapSense.c **** *
 845:.\Generated_Source\PSoC4/CapSense.c **** * Summary:
 846:.\Generated_Source\PSoC4/CapSense.c **** *  Returns the resolution value for the appropriate sensor.
 847:.\Generated_Source\PSoC4/CapSense.c **** *  This function is not available for tuning mode "None".
 848:.\Generated_Source\PSoC4/CapSense.c **** *
 849:.\Generated_Source\PSoC4/CapSense.c **** * Parameters:
 850:.\Generated_Source\PSoC4/CapSense.c **** *  widget:     Widget index.
 851:.\Generated_Source\PSoC4/CapSense.c **** *
 852:.\Generated_Source\PSoC4/CapSense.c **** * Return:
 853:.\Generated_Source\PSoC4/CapSense.c **** *  resolution: Returns the resolution value for the appropriate sensor.
 854:.\Generated_Source\PSoC4/CapSense.c **** *              The resolution values are defined in the CapSense.h file
 855:.\Generated_Source\PSoC4/CapSense.c **** *              The defines are encountered below:
 856:.\Generated_Source\PSoC4/CapSense.c **** *              CapSense_RESOLUTION_6_BITS
 857:.\Generated_Source\PSoC4/CapSense.c **** *              CapSense_RESOLUTION_7_BITS
 858:.\Generated_Source\PSoC4/CapSense.c **** *              CapSense_RESOLUTION_8_BITS
 859:.\Generated_Source\PSoC4/CapSense.c **** *              CapSense_RESOLUTION_9_BITS
ARM GAS  C:\Users\lovelesh\AppData\Local\Temp\ccK8zTJk.s 			page 34


 860:.\Generated_Source\PSoC4/CapSense.c **** *              CapSense_RESOLUTION_10_BITS
 861:.\Generated_Source\PSoC4/CapSense.c **** *              CapSense_RESOLUTION_11_BITS
 862:.\Generated_Source\PSoC4/CapSense.c **** *              CapSense_RESOLUTION_12_BITS
 863:.\Generated_Source\PSoC4/CapSense.c **** *              CapSense_RESOLUTION_13_BITS
 864:.\Generated_Source\PSoC4/CapSense.c **** *              CapSense_RESOLUTION_14_BITS
 865:.\Generated_Source\PSoC4/CapSense.c **** *              CapSense_RESOLUTION_15_BITS
 866:.\Generated_Source\PSoC4/CapSense.c **** *              CapSense_RESOLUTION_16_BITS
 867:.\Generated_Source\PSoC4/CapSense.c **** *
 868:.\Generated_Source\PSoC4/CapSense.c **** * Global Variables:
 869:.\Generated_Source\PSoC4/CapSense.c **** *  CapSense_widgetResolution[] - used to store scan resolution of every widget.
 870:.\Generated_Source\PSoC4/CapSense.c **** *
 871:.\Generated_Source\PSoC4/CapSense.c **** * Side Effects:
 872:.\Generated_Source\PSoC4/CapSense.c **** *  None
 873:.\Generated_Source\PSoC4/CapSense.c **** *
 874:.\Generated_Source\PSoC4/CapSense.c **** *******************************************************************************/
 875:.\Generated_Source\PSoC4/CapSense.c **** uint32 CapSense_GetScanResolution(uint32 widget)
 876:.\Generated_Source\PSoC4/CapSense.c **** {
 1014              		.loc 1 876 0
 1015              		.cfi_startproc
 1016 0000 80B5     		push	{r7, lr}
 1017              		.cfi_def_cfa_offset 8
 1018              		.cfi_offset 7, -8
 1019              		.cfi_offset 14, -4
 1020 0002 82B0     		sub	sp, sp, #8
 1021              		.cfi_def_cfa_offset 16
 1022 0004 00AF     		add	r7, sp, #0
 1023              		.cfi_def_cfa_register 7
 1024 0006 7860     		str	r0, [r7, #4]
 877:.\Generated_Source\PSoC4/CapSense.c ****     return(CapSense_widgetResolution[widget]);
 1025              		.loc 1 877 0
 1026 0008 034B     		ldr	r3, .L58
 1027 000a 7A68     		ldr	r2, [r7, #4]
 1028 000c 9200     		lsl	r2, r2, #2
 1029 000e D358     		ldr	r3, [r2, r3]
 878:.\Generated_Source\PSoC4/CapSense.c **** }
 1030              		.loc 1 878 0
 1031 0010 181C     		mov	r0, r3
 1032 0012 BD46     		mov	sp, r7
 1033 0014 02B0     		add	sp, sp, #8
 1034              		@ sp needed
 1035 0016 80BD     		pop	{r7, pc}
 1036              	.L59:
 1037              		.align	2
 1038              	.L58:
 1039 0018 00000000 		.word	CapSense_widgetResolution
 1040              		.cfi_endproc
 1041              	.LFE47:
 1042              		.size	CapSense_GetScanResolution, .-CapSense_GetScanResolution
 1043              		.section	.text.CapSense_ClearSensors,"ax",%progbits
 1044              		.align	2
 1045              		.global	CapSense_ClearSensors
 1046              		.code	16
 1047              		.thumb_func
 1048              		.type	CapSense_ClearSensors, %function
 1049              	CapSense_ClearSensors:
 1050              	.LFB48:
 879:.\Generated_Source\PSoC4/CapSense.c **** 
ARM GAS  C:\Users\lovelesh\AppData\Local\Temp\ccK8zTJk.s 			page 35


 880:.\Generated_Source\PSoC4/CapSense.c **** 
 881:.\Generated_Source\PSoC4/CapSense.c **** /*******************************************************************************
 882:.\Generated_Source\PSoC4/CapSense.c **** * Function Name: CapSense_ClearSensors
 883:.\Generated_Source\PSoC4/CapSense.c **** ********************************************************************************
 884:.\Generated_Source\PSoC4/CapSense.c **** *
 885:.\Generated_Source\PSoC4/CapSense.c **** * Summary:
 886:.\Generated_Source\PSoC4/CapSense.c **** *  Resets all the sensors to the non-sampling state by sequentially disconnecting
 887:.\Generated_Source\PSoC4/CapSense.c **** *  all the sensors from Analog MUX Bus and putting them to an inactive state.
 888:.\Generated_Source\PSoC4/CapSense.c **** *
 889:.\Generated_Source\PSoC4/CapSense.c **** * Parameters:
 890:.\Generated_Source\PSoC4/CapSense.c **** *  None
 891:.\Generated_Source\PSoC4/CapSense.c **** *
 892:.\Generated_Source\PSoC4/CapSense.c **** * Return:
 893:.\Generated_Source\PSoC4/CapSense.c **** *  None
 894:.\Generated_Source\PSoC4/CapSense.c **** *
 895:.\Generated_Source\PSoC4/CapSense.c **** * Global Variables:
 896:.\Generated_Source\PSoC4/CapSense.c **** *  None
 897:.\Generated_Source\PSoC4/CapSense.c **** *
 898:.\Generated_Source\PSoC4/CapSense.c **** * Side Effects:
 899:.\Generated_Source\PSoC4/CapSense.c **** *  None
 900:.\Generated_Source\PSoC4/CapSense.c **** *
 901:.\Generated_Source\PSoC4/CapSense.c **** *******************************************************************************/
 902:.\Generated_Source\PSoC4/CapSense.c **** void CapSense_ClearSensors(void)
 903:.\Generated_Source\PSoC4/CapSense.c **** {
 1051              		.loc 1 903 0
 1052              		.cfi_startproc
 1053 0000 80B5     		push	{r7, lr}
 1054              		.cfi_def_cfa_offset 8
 1055              		.cfi_offset 7, -8
 1056              		.cfi_offset 14, -4
 1057 0002 82B0     		sub	sp, sp, #8
 1058              		.cfi_def_cfa_offset 16
 1059 0004 00AF     		add	r7, sp, #0
 1060              		.cfi_def_cfa_register 7
 904:.\Generated_Source\PSoC4/CapSense.c ****     uint32 snsIndex;
 905:.\Generated_Source\PSoC4/CapSense.c **** 
 906:.\Generated_Source\PSoC4/CapSense.c ****     for (snsIndex = 0u; snsIndex < CapSense_TOTAL_SENSOR_COUNT; snsIndex++)
 1061              		.loc 1 906 0
 1062 0006 0023     		mov	r3, #0
 1063 0008 7B60     		str	r3, [r7, #4]
 1064 000a 06E0     		b	.L61
 1065              	.L62:
 907:.\Generated_Source\PSoC4/CapSense.c ****     {
 908:.\Generated_Source\PSoC4/CapSense.c ****         CapSense_DisableScanSlot(snsIndex);
 1066              		.loc 1 908 0 discriminator 3
 1067 000c 7B68     		ldr	r3, [r7, #4]
 1068 000e 181C     		mov	r0, r3
 1069 0010 FFF7FEFF 		bl	CapSense_DisableScanSlot
 906:.\Generated_Source\PSoC4/CapSense.c ****     {
 1070              		.loc 1 906 0 discriminator 3
 1071 0014 7B68     		ldr	r3, [r7, #4]
 1072 0016 0133     		add	r3, r3, #1
 1073 0018 7B60     		str	r3, [r7, #4]
 1074              	.L61:
 906:.\Generated_Source\PSoC4/CapSense.c ****     {
 1075              		.loc 1 906 0 is_stmt 0 discriminator 1
 1076 001a 7B68     		ldr	r3, [r7, #4]
ARM GAS  C:\Users\lovelesh\AppData\Local\Temp\ccK8zTJk.s 			page 36


 1077 001c 072B     		cmp	r3, #7
 1078 001e F5D9     		bls	.L62
 909:.\Generated_Source\PSoC4/CapSense.c ****     }
 910:.\Generated_Source\PSoC4/CapSense.c **** }
 1079              		.loc 1 910 0 is_stmt 1
 1080 0020 BD46     		mov	sp, r7
 1081 0022 02B0     		add	sp, sp, #8
 1082              		@ sp needed
 1083 0024 80BD     		pop	{r7, pc}
 1084              		.cfi_endproc
 1085              	.LFE48:
 1086              		.size	CapSense_ClearSensors, .-CapSense_ClearSensors
 1087 0026 C046     		.section	.text.CapSense_EnableScanSlot,"ax",%progbits
 1088              		.align	2
 1089              		.global	CapSense_EnableScanSlot
 1090              		.code	16
 1091              		.thumb_func
 1092              		.type	CapSense_EnableScanSlot, %function
 1093              	CapSense_EnableScanSlot:
 1094              	.LFB49:
 911:.\Generated_Source\PSoC4/CapSense.c **** 
 912:.\Generated_Source\PSoC4/CapSense.c **** 
 913:.\Generated_Source\PSoC4/CapSense.c **** #if (CapSense_IS_COMPLEX_SCANSLOTS)
 914:.\Generated_Source\PSoC4/CapSense.c ****     /*******************************************************************************
 915:.\Generated_Source\PSoC4/CapSense.c ****     * Function Name: CapSense_EnableScanSlot
 916:.\Generated_Source\PSoC4/CapSense.c ****     ********************************************************************************
 917:.\Generated_Source\PSoC4/CapSense.c ****     *
 918:.\Generated_Source\PSoC4/CapSense.c ****     * Summary:
 919:.\Generated_Source\PSoC4/CapSense.c ****     *  Configures the selected slot to measure during the next measurement
 920:.\Generated_Source\PSoC4/CapSense.c ****     *  cycle. The corresponding pin/pins are set to Analog High-Z mode and
 921:.\Generated_Source\PSoC4/CapSense.c ****     *  connected to the Analog Mux Bus. This also enables the comparator function.
 922:.\Generated_Source\PSoC4/CapSense.c ****     *
 923:.\Generated_Source\PSoC4/CapSense.c ****     * Parameters:
 924:.\Generated_Source\PSoC4/CapSense.c ****     *  slot:  Slot number.
 925:.\Generated_Source\PSoC4/CapSense.c ****     *
 926:.\Generated_Source\PSoC4/CapSense.c ****     * Return:
 927:.\Generated_Source\PSoC4/CapSense.c ****     *  None
 928:.\Generated_Source\PSoC4/CapSense.c ****     *
 929:.\Generated_Source\PSoC4/CapSense.c ****     * Global Constants:
 930:.\Generated_Source\PSoC4/CapSense.c ****     *  CapSense_portTable[]  - used to store the port number that pin
 931:.\Generated_Source\PSoC4/CapSense.c ****     *  belongs to for each sensor.
 932:.\Generated_Source\PSoC4/CapSense.c ****     *  CapSense_maskTable[]  - used to store the pin within the port for
 933:.\Generated_Source\PSoC4/CapSense.c ****     *  each sensor.
 934:.\Generated_Source\PSoC4/CapSense.c ****     *  CapSense_indexTable[] - used to store indexes of complex sensors.
 935:.\Generated_Source\PSoC4/CapSense.c ****     *  The offset and position in this array are stored in a port and mask table for
 936:.\Generated_Source\PSoC4/CapSense.c ****     *  complex sensors.
 937:.\Generated_Source\PSoC4/CapSense.c ****     *  Bit 7 (msb) is used to define the sensor type: single or complex.
 938:.\Generated_Source\PSoC4/CapSense.c ****     *
 939:.\Generated_Source\PSoC4/CapSense.c ****     * Side Effects:
 940:.\Generated_Source\PSoC4/CapSense.c ****     *  None
 941:.\Generated_Source\PSoC4/CapSense.c ****     *
 942:.\Generated_Source\PSoC4/CapSense.c ****     *******************************************************************************/
 943:.\Generated_Source\PSoC4/CapSense.c ****     void CapSense_EnableScanSlot(uint32 slot)
 944:.\Generated_Source\PSoC4/CapSense.c ****     {
 1095              		.loc 1 944 0
 1096              		.cfi_startproc
 1097 0000 80B5     		push	{r7, lr}
ARM GAS  C:\Users\lovelesh\AppData\Local\Temp\ccK8zTJk.s 			page 37


 1098              		.cfi_def_cfa_offset 8
 1099              		.cfi_offset 7, -8
 1100              		.cfi_offset 14, -4
 1101 0002 86B0     		sub	sp, sp, #24
 1102              		.cfi_def_cfa_offset 32
 1103 0004 00AF     		add	r7, sp, #0
 1104              		.cfi_def_cfa_register 7
 1105 0006 7860     		str	r0, [r7, #4]
 945:.\Generated_Source\PSoC4/CapSense.c ****         uint8 j;
 946:.\Generated_Source\PSoC4/CapSense.c ****         uint8 snsNumber;
 947:.\Generated_Source\PSoC4/CapSense.c ****         const uint8 *index;
 948:.\Generated_Source\PSoC4/CapSense.c ****         /* Read sensor type: single or complex */
 949:.\Generated_Source\PSoC4/CapSense.c ****         uint8 snsType = CapSense_portTable[slot];
 1106              		.loc 1 949 0
 1107 0008 1623     		mov	r3, #22
 1108 000a FB18     		add	r3, r7, r3
 1109 000c 2249     		ldr	r1, .L68
 1110 000e 7A68     		ldr	r2, [r7, #4]
 1111 0010 8A18     		add	r2, r1, r2
 1112 0012 1278     		ldrb	r2, [r2]
 1113 0014 1A70     		strb	r2, [r3]
 950:.\Generated_Source\PSoC4/CapSense.c **** 
 951:.\Generated_Source\PSoC4/CapSense.c ****         /* Check if sensor is complex */
 952:.\Generated_Source\PSoC4/CapSense.c ****         if ((snsType & CapSense_COMPLEX_SS_FLAG) == 0u)
 1114              		.loc 1 952 0
 1115 0016 1623     		mov	r3, #22
 1116 0018 FB18     		add	r3, r7, r3
 1117 001a 1B78     		ldrb	r3, [r3]
 1118 001c 5BB2     		sxtb	r3, r3
 1119 001e 002B     		cmp	r3, #0
 1120 0020 04DB     		blt	.L64
 953:.\Generated_Source\PSoC4/CapSense.c ****         {
 954:.\Generated_Source\PSoC4/CapSense.c ****             /* Enable sensor (single) */
 955:.\Generated_Source\PSoC4/CapSense.c ****             CapSense_EnableSensor(slot);
 1121              		.loc 1 955 0
 1122 0022 7B68     		ldr	r3, [r7, #4]
 1123 0024 181C     		mov	r0, r3
 1124 0026 FFF7FEFF 		bl	CapSense_EnableSensor
 1125 002a 31E0     		b	.L63
 1126              	.L64:
 956:.\Generated_Source\PSoC4/CapSense.c ****         }
 957:.\Generated_Source\PSoC4/CapSense.c ****         else
 958:.\Generated_Source\PSoC4/CapSense.c ****         {
 959:.\Generated_Source\PSoC4/CapSense.c ****             /* Enable complex sensor */
 960:.\Generated_Source\PSoC4/CapSense.c ****             snsType &= ~CapSense_COMPLEX_SS_FLAG;
 1127              		.loc 1 960 0
 1128 002c 1623     		mov	r3, #22
 1129 002e FB18     		add	r3, r7, r3
 1130 0030 1622     		mov	r2, #22
 1131 0032 BA18     		add	r2, r7, r2
 1132 0034 1278     		ldrb	r2, [r2]
 1133 0036 7F21     		mov	r1, #127
 1134 0038 0A40     		and	r2, r1
 1135 003a 1A70     		strb	r2, [r3]
 961:.\Generated_Source\PSoC4/CapSense.c ****             index = &CapSense_indexTable[snsType];
 1136              		.loc 1 961 0
 1137 003c 1623     		mov	r3, #22
ARM GAS  C:\Users\lovelesh\AppData\Local\Temp\ccK8zTJk.s 			page 38


 1138 003e FB18     		add	r3, r7, r3
 1139 0040 1A78     		ldrb	r2, [r3]
 1140 0042 164B     		ldr	r3, .L68+4
 1141 0044 D318     		add	r3, r2, r3
 1142 0046 3B61     		str	r3, [r7, #16]
 962:.\Generated_Source\PSoC4/CapSense.c ****             snsNumber = CapSense_maskTable[slot];
 1143              		.loc 1 962 0
 1144 0048 154B     		ldr	r3, .L68+8
 1145 004a 7A68     		ldr	r2, [r7, #4]
 1146 004c 9200     		lsl	r2, r2, #2
 1147 004e D258     		ldr	r2, [r2, r3]
 1148 0050 0F23     		mov	r3, #15
 1149 0052 FB18     		add	r3, r7, r3
 1150 0054 1A70     		strb	r2, [r3]
 963:.\Generated_Source\PSoC4/CapSense.c **** 
 964:.\Generated_Source\PSoC4/CapSense.c ****             for (j = 0u; j < snsNumber; j++)
 1151              		.loc 1 964 0
 1152 0056 1723     		mov	r3, #23
 1153 0058 FB18     		add	r3, r7, r3
 1154 005a 0022     		mov	r2, #0
 1155 005c 1A70     		strb	r2, [r3]
 1156 005e 0FE0     		b	.L66
 1157              	.L67:
 965:.\Generated_Source\PSoC4/CapSense.c ****             {
 966:.\Generated_Source\PSoC4/CapSense.c ****                 CapSense_EnableSensor(index[j]);
 1158              		.loc 1 966 0 discriminator 3
 1159 0060 1723     		mov	r3, #23
 1160 0062 FB18     		add	r3, r7, r3
 1161 0064 1B78     		ldrb	r3, [r3]
 1162 0066 3A69     		ldr	r2, [r7, #16]
 1163 0068 D318     		add	r3, r2, r3
 1164 006a 1B78     		ldrb	r3, [r3]
 1165 006c 181C     		mov	r0, r3
 1166 006e FFF7FEFF 		bl	CapSense_EnableSensor
 964:.\Generated_Source\PSoC4/CapSense.c ****             {
 1167              		.loc 1 964 0 discriminator 3
 1168 0072 1723     		mov	r3, #23
 1169 0074 FB18     		add	r3, r7, r3
 1170 0076 1A78     		ldrb	r2, [r3]
 1171 0078 1723     		mov	r3, #23
 1172 007a FB18     		add	r3, r7, r3
 1173 007c 0132     		add	r2, r2, #1
 1174 007e 1A70     		strb	r2, [r3]
 1175              	.L66:
 964:.\Generated_Source\PSoC4/CapSense.c ****             {
 1176              		.loc 1 964 0 is_stmt 0 discriminator 1
 1177 0080 1723     		mov	r3, #23
 1178 0082 FA18     		add	r2, r7, r3
 1179 0084 0F23     		mov	r3, #15
 1180 0086 FB18     		add	r3, r7, r3
 1181 0088 1278     		ldrb	r2, [r2]
 1182 008a 1B78     		ldrb	r3, [r3]
 1183 008c 9A42     		cmp	r2, r3
 1184 008e E7D3     		bcc	.L67
 1185              	.L63:
 967:.\Generated_Source\PSoC4/CapSense.c ****             }
 968:.\Generated_Source\PSoC4/CapSense.c ****         }
ARM GAS  C:\Users\lovelesh\AppData\Local\Temp\ccK8zTJk.s 			page 39


 969:.\Generated_Source\PSoC4/CapSense.c ****     }
 1186              		.loc 1 969 0 is_stmt 1
 1187 0090 BD46     		mov	sp, r7
 1188 0092 06B0     		add	sp, sp, #24
 1189              		@ sp needed
 1190 0094 80BD     		pop	{r7, pc}
 1191              	.L69:
 1192 0096 C046     		.align	2
 1193              	.L68:
 1194 0098 00000000 		.word	CapSense_portTable
 1195 009c 00000000 		.word	CapSense_indexTable
 1196 00a0 00000000 		.word	CapSense_maskTable
 1197              		.cfi_endproc
 1198              	.LFE49:
 1199              		.size	CapSense_EnableScanSlot, .-CapSense_EnableScanSlot
 1200              		.section	.text.CapSense_DisableScanSlot,"ax",%progbits
 1201              		.align	2
 1202              		.global	CapSense_DisableScanSlot
 1203              		.code	16
 1204              		.thumb_func
 1205              		.type	CapSense_DisableScanSlot, %function
 1206              	CapSense_DisableScanSlot:
 1207              	.LFB50:
 970:.\Generated_Source\PSoC4/CapSense.c **** 
 971:.\Generated_Source\PSoC4/CapSense.c **** 
 972:.\Generated_Source\PSoC4/CapSense.c ****     /*******************************************************************************
 973:.\Generated_Source\PSoC4/CapSense.c ****     * Function Name: CapSense_DisableScanSlot
 974:.\Generated_Source\PSoC4/CapSense.c ****     ********************************************************************************
 975:.\Generated_Source\PSoC4/CapSense.c ****     *
 976:.\Generated_Source\PSoC4/CapSense.c ****     * Summary:
 977:.\Generated_Source\PSoC4/CapSense.c ****     *  Disables the selected slot. The corresponding pin/pins is/are disconnected
 978:.\Generated_Source\PSoC4/CapSense.c ****     *  from the Analog Mux Bus and connected to GND, High_Z or Shield electrode.
 979:.\Generated_Source\PSoC4/CapSense.c ****     *
 980:.\Generated_Source\PSoC4/CapSense.c ****     * Parameters:
 981:.\Generated_Source\PSoC4/CapSense.c ****     *  slot:  Slot number.
 982:.\Generated_Source\PSoC4/CapSense.c ****     *
 983:.\Generated_Source\PSoC4/CapSense.c ****     * Return:
 984:.\Generated_Source\PSoC4/CapSense.c ****     *  None
 985:.\Generated_Source\PSoC4/CapSense.c ****     *
 986:.\Generated_Source\PSoC4/CapSense.c ****     * Global Variables:
 987:.\Generated_Source\PSoC4/CapSense.c ****     *  CapSense_portTable[]  - used to store the port number that pin
 988:.\Generated_Source\PSoC4/CapSense.c ****     *  belongs to for each sensor.
 989:.\Generated_Source\PSoC4/CapSense.c ****     *  CapSense_maskTable[]  - used to store the pin within the port for
 990:.\Generated_Source\PSoC4/CapSense.c ****     *  each sensor.
 991:.\Generated_Source\PSoC4/CapSense.c ****     *  CapSense_indexTable[] - used to store indexes of complex sensors.
 992:.\Generated_Source\PSoC4/CapSense.c ****     *  The offset and position in this array are stored in a port and mask table for
 993:.\Generated_Source\PSoC4/CapSense.c ****     *  complex sensors.
 994:.\Generated_Source\PSoC4/CapSense.c ****     *  7bit(msb) is used to define the sensor type: single or complex.
 995:.\Generated_Source\PSoC4/CapSense.c ****     *
 996:.\Generated_Source\PSoC4/CapSense.c ****     * Side Effects:
 997:.\Generated_Source\PSoC4/CapSense.c ****     *  None
 998:.\Generated_Source\PSoC4/CapSense.c ****     *
 999:.\Generated_Source\PSoC4/CapSense.c ****     *******************************************************************************/
1000:.\Generated_Source\PSoC4/CapSense.c ****     void CapSense_DisableScanSlot(uint32 slot)
1001:.\Generated_Source\PSoC4/CapSense.c ****     {
 1208              		.loc 1 1001 0
 1209              		.cfi_startproc
ARM GAS  C:\Users\lovelesh\AppData\Local\Temp\ccK8zTJk.s 			page 40


 1210 0000 80B5     		push	{r7, lr}
 1211              		.cfi_def_cfa_offset 8
 1212              		.cfi_offset 7, -8
 1213              		.cfi_offset 14, -4
 1214 0002 86B0     		sub	sp, sp, #24
 1215              		.cfi_def_cfa_offset 32
 1216 0004 00AF     		add	r7, sp, #0
 1217              		.cfi_def_cfa_register 7
 1218 0006 7860     		str	r0, [r7, #4]
1002:.\Generated_Source\PSoC4/CapSense.c ****         uint8 j;
1003:.\Generated_Source\PSoC4/CapSense.c ****         uint8 snsNumber;
1004:.\Generated_Source\PSoC4/CapSense.c ****         const uint8 *index;
1005:.\Generated_Source\PSoC4/CapSense.c **** 
1006:.\Generated_Source\PSoC4/CapSense.c ****         /* Read sensor type: single or complex */
1007:.\Generated_Source\PSoC4/CapSense.c ****         uint8 snsType = CapSense_portTable[slot];
 1219              		.loc 1 1007 0
 1220 0008 1623     		mov	r3, #22
 1221 000a FB18     		add	r3, r7, r3
 1222 000c 2249     		ldr	r1, .L75
 1223 000e 7A68     		ldr	r2, [r7, #4]
 1224 0010 8A18     		add	r2, r1, r2
 1225 0012 1278     		ldrb	r2, [r2]
 1226 0014 1A70     		strb	r2, [r3]
1008:.\Generated_Source\PSoC4/CapSense.c **** 
1009:.\Generated_Source\PSoC4/CapSense.c ****         /* Check if sensor is complex */
1010:.\Generated_Source\PSoC4/CapSense.c ****         if ((snsType & CapSense_COMPLEX_SS_FLAG) == 0u)
 1227              		.loc 1 1010 0
 1228 0016 1623     		mov	r3, #22
 1229 0018 FB18     		add	r3, r7, r3
 1230 001a 1B78     		ldrb	r3, [r3]
 1231 001c 5BB2     		sxtb	r3, r3
 1232 001e 002B     		cmp	r3, #0
 1233 0020 04DB     		blt	.L71
1011:.\Generated_Source\PSoC4/CapSense.c ****         {
1012:.\Generated_Source\PSoC4/CapSense.c ****             /* Disable sensor (single) */
1013:.\Generated_Source\PSoC4/CapSense.c ****             CapSense_DisableSensor(slot);
 1234              		.loc 1 1013 0
 1235 0022 7B68     		ldr	r3, [r7, #4]
 1236 0024 181C     		mov	r0, r3
 1237 0026 FFF7FEFF 		bl	CapSense_DisableSensor
 1238 002a 31E0     		b	.L70
 1239              	.L71:
1014:.\Generated_Source\PSoC4/CapSense.c ****         }
1015:.\Generated_Source\PSoC4/CapSense.c ****         else
1016:.\Generated_Source\PSoC4/CapSense.c ****         {
1017:.\Generated_Source\PSoC4/CapSense.c ****             /* Disable complex sensor */
1018:.\Generated_Source\PSoC4/CapSense.c ****             snsType &= ~CapSense_COMPLEX_SS_FLAG;
 1240              		.loc 1 1018 0
 1241 002c 1623     		mov	r3, #22
 1242 002e FB18     		add	r3, r7, r3
 1243 0030 1622     		mov	r2, #22
 1244 0032 BA18     		add	r2, r7, r2
 1245 0034 1278     		ldrb	r2, [r2]
 1246 0036 7F21     		mov	r1, #127
 1247 0038 0A40     		and	r2, r1
 1248 003a 1A70     		strb	r2, [r3]
1019:.\Generated_Source\PSoC4/CapSense.c ****             index = &CapSense_indexTable[snsType];
ARM GAS  C:\Users\lovelesh\AppData\Local\Temp\ccK8zTJk.s 			page 41


 1249              		.loc 1 1019 0
 1250 003c 1623     		mov	r3, #22
 1251 003e FB18     		add	r3, r7, r3
 1252 0040 1A78     		ldrb	r2, [r3]
 1253 0042 164B     		ldr	r3, .L75+4
 1254 0044 D318     		add	r3, r2, r3
 1255 0046 3B61     		str	r3, [r7, #16]
1020:.\Generated_Source\PSoC4/CapSense.c ****             snsNumber = CapSense_maskTable[slot];
 1256              		.loc 1 1020 0
 1257 0048 154B     		ldr	r3, .L75+8
 1258 004a 7A68     		ldr	r2, [r7, #4]
 1259 004c 9200     		lsl	r2, r2, #2
 1260 004e D258     		ldr	r2, [r2, r3]
 1261 0050 0F23     		mov	r3, #15
 1262 0052 FB18     		add	r3, r7, r3
 1263 0054 1A70     		strb	r2, [r3]
1021:.\Generated_Source\PSoC4/CapSense.c **** 
1022:.\Generated_Source\PSoC4/CapSense.c ****             for (j=0; j < snsNumber; j++)
 1264              		.loc 1 1022 0
 1265 0056 1723     		mov	r3, #23
 1266 0058 FB18     		add	r3, r7, r3
 1267 005a 0022     		mov	r2, #0
 1268 005c 1A70     		strb	r2, [r3]
 1269 005e 0FE0     		b	.L73
 1270              	.L74:
1023:.\Generated_Source\PSoC4/CapSense.c ****             {
1024:.\Generated_Source\PSoC4/CapSense.c ****                 CapSense_DisableSensor(index[j]);
 1271              		.loc 1 1024 0 discriminator 3
 1272 0060 1723     		mov	r3, #23
 1273 0062 FB18     		add	r3, r7, r3
 1274 0064 1B78     		ldrb	r3, [r3]
 1275 0066 3A69     		ldr	r2, [r7, #16]
 1276 0068 D318     		add	r3, r2, r3
 1277 006a 1B78     		ldrb	r3, [r3]
 1278 006c 181C     		mov	r0, r3
 1279 006e FFF7FEFF 		bl	CapSense_DisableSensor
1022:.\Generated_Source\PSoC4/CapSense.c ****             {
 1280              		.loc 1 1022 0 discriminator 3
 1281 0072 1723     		mov	r3, #23
 1282 0074 FB18     		add	r3, r7, r3
 1283 0076 1A78     		ldrb	r2, [r3]
 1284 0078 1723     		mov	r3, #23
 1285 007a FB18     		add	r3, r7, r3
 1286 007c 0132     		add	r2, r2, #1
 1287 007e 1A70     		strb	r2, [r3]
 1288              	.L73:
1022:.\Generated_Source\PSoC4/CapSense.c ****             {
 1289              		.loc 1 1022 0 is_stmt 0 discriminator 1
 1290 0080 1723     		mov	r3, #23
 1291 0082 FA18     		add	r2, r7, r3
 1292 0084 0F23     		mov	r3, #15
 1293 0086 FB18     		add	r3, r7, r3
 1294 0088 1278     		ldrb	r2, [r2]
 1295 008a 1B78     		ldrb	r3, [r3]
 1296 008c 9A42     		cmp	r2, r3
 1297 008e E7D3     		bcc	.L74
 1298              	.L70:
ARM GAS  C:\Users\lovelesh\AppData\Local\Temp\ccK8zTJk.s 			page 42


1025:.\Generated_Source\PSoC4/CapSense.c ****             }
1026:.\Generated_Source\PSoC4/CapSense.c ****         }
1027:.\Generated_Source\PSoC4/CapSense.c ****     }
 1299              		.loc 1 1027 0 is_stmt 1
 1300 0090 BD46     		mov	sp, r7
 1301 0092 06B0     		add	sp, sp, #24
 1302              		@ sp needed
 1303 0094 80BD     		pop	{r7, pc}
 1304              	.L76:
 1305 0096 C046     		.align	2
 1306              	.L75:
 1307 0098 00000000 		.word	CapSense_portTable
 1308 009c 00000000 		.word	CapSense_indexTable
 1309 00a0 00000000 		.word	CapSense_maskTable
 1310              		.cfi_endproc
 1311              	.LFE50:
 1312              		.size	CapSense_DisableScanSlot, .-CapSense_DisableScanSlot
 1313              		.section	.text.CapSense_EnableSensor,"ax",%progbits
 1314              		.align	2
 1315              		.global	CapSense_EnableSensor
 1316              		.code	16
 1317              		.thumb_func
 1318              		.type	CapSense_EnableSensor, %function
 1319              	CapSense_EnableSensor:
 1320              	.LFB51:
1028:.\Generated_Source\PSoC4/CapSense.c **** #endif  /* CapSense_IS_COMPLEX_SCANSLOTS */
1029:.\Generated_Source\PSoC4/CapSense.c **** 
1030:.\Generated_Source\PSoC4/CapSense.c **** 
1031:.\Generated_Source\PSoC4/CapSense.c **** /*******************************************************************************
1032:.\Generated_Source\PSoC4/CapSense.c **** * Function Name: CapSense_EnableSensor
1033:.\Generated_Source\PSoC4/CapSense.c **** ********************************************************************************
1034:.\Generated_Source\PSoC4/CapSense.c **** *
1035:.\Generated_Source\PSoC4/CapSense.c **** * Summary:
1036:.\Generated_Source\PSoC4/CapSense.c **** *  Configures the selected sensor to measure during the next measurement cycle.
1037:.\Generated_Source\PSoC4/CapSense.c **** *  The corresponding pins are set to Analog High-Z mode and connected to the
1038:.\Generated_Source\PSoC4/CapSense.c **** *  Analog Mux Bus. This also enables the comparator function.
1039:.\Generated_Source\PSoC4/CapSense.c **** *
1040:.\Generated_Source\PSoC4/CapSense.c **** * Parameters:
1041:.\Generated_Source\PSoC4/CapSense.c **** *  sensor:  Sensor number.
1042:.\Generated_Source\PSoC4/CapSense.c **** *
1043:.\Generated_Source\PSoC4/CapSense.c **** * Return:
1044:.\Generated_Source\PSoC4/CapSense.c **** *  None
1045:.\Generated_Source\PSoC4/CapSense.c **** *
1046:.\Generated_Source\PSoC4/CapSense.c **** * Global Variables:
1047:.\Generated_Source\PSoC4/CapSense.c **** *  CapSense_portTable[] - used to store the port number that pin
1048:.\Generated_Source\PSoC4/CapSense.c **** *  belongs to for each sensor.
1049:.\Generated_Source\PSoC4/CapSense.c **** *  CapSense_pinShiftTbl[] - used to store position of pin that
1050:.\Generated_Source\PSoC4/CapSense.c **** *  configured as sensor in port.
1051:.\Generated_Source\PSoC4/CapSense.c **** *  CapSense_prtSelTbl[] - Contains pointers to the HSIOM
1052:.\Generated_Source\PSoC4/CapSense.c **** *  registers for each port.
1053:.\Generated_Source\PSoC4/CapSense.c **** *  CapSense_PrtCfgTb[] - Contains pointers to the port config
1054:.\Generated_Source\PSoC4/CapSense.c **** *  registers for each port.
1055:.\Generated_Source\PSoC4/CapSense.c **** *
1056:.\Generated_Source\PSoC4/CapSense.c **** * Side Effects:
1057:.\Generated_Source\PSoC4/CapSense.c **** *  None
1058:.\Generated_Source\PSoC4/CapSense.c **** *
1059:.\Generated_Source\PSoC4/CapSense.c **** *******************************************************************************/
ARM GAS  C:\Users\lovelesh\AppData\Local\Temp\ccK8zTJk.s 			page 43


1060:.\Generated_Source\PSoC4/CapSense.c **** void CapSense_EnableSensor(uint32 sensor)
1061:.\Generated_Source\PSoC4/CapSense.c **** {
 1321              		.loc 1 1061 0
 1322              		.cfi_startproc
 1323 0000 90B5     		push	{r4, r7, lr}
 1324              		.cfi_def_cfa_offset 12
 1325              		.cfi_offset 4, -12
 1326              		.cfi_offset 7, -8
 1327              		.cfi_offset 14, -4
 1328 0002 87B0     		sub	sp, sp, #28
 1329              		.cfi_def_cfa_offset 40
 1330 0004 00AF     		add	r7, sp, #0
 1331              		.cfi_def_cfa_register 7
 1332 0006 7860     		str	r0, [r7, #4]
1062:.\Generated_Source\PSoC4/CapSense.c ****     uint8  pinModeShift;
1063:.\Generated_Source\PSoC4/CapSense.c ****     uint8  pinHSIOMShift;
1064:.\Generated_Source\PSoC4/CapSense.c ****     uint8 interruptState;
1065:.\Generated_Source\PSoC4/CapSense.c ****     uint32 newRegisterValue;
1066:.\Generated_Source\PSoC4/CapSense.c ****     uint32 port;
1067:.\Generated_Source\PSoC4/CapSense.c **** 
1068:.\Generated_Source\PSoC4/CapSense.c ****     port = (uint32) CapSense_portTable[sensor];
 1333              		.loc 1 1068 0
 1334 0008 2B4A     		ldr	r2, .L78
 1335 000a 7B68     		ldr	r3, [r7, #4]
 1336 000c D318     		add	r3, r2, r3
 1337 000e 1B78     		ldrb	r3, [r3]
 1338 0010 7B61     		str	r3, [r7, #20]
1069:.\Generated_Source\PSoC4/CapSense.c ****     pinModeShift = CapSense_pinShiftTbl[sensor]  * CapSense_PC_PIN_CFG_SIZE;
 1339              		.loc 1 1069 0
 1340 0012 2A4A     		ldr	r2, .L78+4
 1341 0014 7B68     		ldr	r3, [r7, #4]
 1342 0016 D318     		add	r3, r2, r3
 1343 0018 1B78     		ldrb	r3, [r3]
 1344 001a 1322     		mov	r2, #19
 1345 001c BA18     		add	r2, r7, r2
 1346 001e 191C     		add	r1, r3, #0
 1347 0020 0B1C     		add	r3, r1, #0
 1348 0022 DB18     		add	r3, r3, r3
 1349 0024 5B18     		add	r3, r3, r1
 1350 0026 1370     		strb	r3, [r2]
1070:.\Generated_Source\PSoC4/CapSense.c ****     pinHSIOMShift = CapSense_pinShiftTbl[sensor] * CapSense_HSIOM_PIN_CFG_SIZE;
 1351              		.loc 1 1070 0
 1352 0028 244A     		ldr	r2, .L78+4
 1353 002a 7B68     		ldr	r3, [r7, #4]
 1354 002c D318     		add	r3, r2, r3
 1355 002e 1A78     		ldrb	r2, [r3]
 1356 0030 1223     		mov	r3, #18
 1357 0032 FB18     		add	r3, r7, r3
 1358 0034 9200     		lsl	r2, r2, #2
 1359 0036 1A70     		strb	r2, [r3]
1071:.\Generated_Source\PSoC4/CapSense.c **** 
1072:.\Generated_Source\PSoC4/CapSense.c ****     interruptState = CyEnterCriticalSection();
 1360              		.loc 1 1072 0
 1361 0038 1123     		mov	r3, #17
 1362 003a FC18     		add	r4, r7, r3
 1363 003c FFF7FEFF 		bl	CyEnterCriticalSection
 1364 0040 031C     		mov	r3, r0
ARM GAS  C:\Users\lovelesh\AppData\Local\Temp\ccK8zTJk.s 			page 44


 1365 0042 2370     		strb	r3, [r4]
1073:.\Generated_Source\PSoC4/CapSense.c **** 
1074:.\Generated_Source\PSoC4/CapSense.c ****     newRegisterValue = *CapSense_prtSelTbl[port];
 1366              		.loc 1 1074 0
 1367 0044 1E4B     		ldr	r3, .L78+8
 1368 0046 7A69     		ldr	r2, [r7, #20]
 1369 0048 9200     		lsl	r2, r2, #2
 1370 004a D358     		ldr	r3, [r2, r3]
 1371 004c 1B68     		ldr	r3, [r3]
 1372 004e FB60     		str	r3, [r7, #12]
1075:.\Generated_Source\PSoC4/CapSense.c ****     newRegisterValue &= ~(CapSense_CSD_HSIOM_MASK << pinHSIOMShift);
 1373              		.loc 1 1075 0
 1374 0050 1223     		mov	r3, #18
 1375 0052 FB18     		add	r3, r7, r3
 1376 0054 1B78     		ldrb	r3, [r3]
 1377 0056 0F22     		mov	r2, #15
 1378 0058 9A40     		lsl	r2, r2, r3
 1379 005a 131C     		mov	r3, r2
 1380 005c DA43     		mvn	r2, r3
 1381 005e FB68     		ldr	r3, [r7, #12]
 1382 0060 1340     		and	r3, r2
 1383 0062 FB60     		str	r3, [r7, #12]
1076:.\Generated_Source\PSoC4/CapSense.c ****     newRegisterValue |= (uint32)((uint32)CapSense_CSD_SENSE_PORT_MODE << pinHSIOMShift);
 1384              		.loc 1 1076 0
 1385 0064 1223     		mov	r3, #18
 1386 0066 FB18     		add	r3, r7, r3
 1387 0068 1B78     		ldrb	r3, [r3]
 1388 006a 0422     		mov	r2, #4
 1389 006c 9A40     		lsl	r2, r2, r3
 1390 006e 131C     		mov	r3, r2
 1391 0070 FA68     		ldr	r2, [r7, #12]
 1392 0072 1343     		orr	r3, r2
 1393 0074 FB60     		str	r3, [r7, #12]
1077:.\Generated_Source\PSoC4/CapSense.c **** 
1078:.\Generated_Source\PSoC4/CapSense.c ****     *CapSense_prtCfgTbl[port] &= (uint32)~((uint32)CapSense_CSD_PIN_MODE_MASK << pinModeShift);
 1394              		.loc 1 1078 0
 1395 0076 134B     		ldr	r3, .L78+12
 1396 0078 7A69     		ldr	r2, [r7, #20]
 1397 007a 9200     		lsl	r2, r2, #2
 1398 007c D358     		ldr	r3, [r2, r3]
 1399 007e 114A     		ldr	r2, .L78+12
 1400 0080 7969     		ldr	r1, [r7, #20]
 1401 0082 8900     		lsl	r1, r1, #2
 1402 0084 8A58     		ldr	r2, [r1, r2]
 1403 0086 1268     		ldr	r2, [r2]
 1404 0088 1321     		mov	r1, #19
 1405 008a 7918     		add	r1, r7, r1
 1406 008c 0978     		ldrb	r1, [r1]
 1407 008e 0720     		mov	r0, #7
 1408 0090 8840     		lsl	r0, r0, r1
 1409 0092 011C     		mov	r1, r0
 1410 0094 C943     		mvn	r1, r1
 1411 0096 0A40     		and	r2, r1
 1412 0098 1A60     		str	r2, [r3]
1079:.\Generated_Source\PSoC4/CapSense.c ****     *CapSense_prtSelTbl[port] = newRegisterValue;
 1413              		.loc 1 1079 0
 1414 009a 094B     		ldr	r3, .L78+8
ARM GAS  C:\Users\lovelesh\AppData\Local\Temp\ccK8zTJk.s 			page 45


 1415 009c 7A69     		ldr	r2, [r7, #20]
 1416 009e 9200     		lsl	r2, r2, #2
 1417 00a0 D358     		ldr	r3, [r2, r3]
 1418 00a2 FA68     		ldr	r2, [r7, #12]
 1419 00a4 1A60     		str	r2, [r3]
1080:.\Generated_Source\PSoC4/CapSense.c **** 
1081:.\Generated_Source\PSoC4/CapSense.c ****     CyExitCriticalSection(interruptState);
 1420              		.loc 1 1081 0
 1421 00a6 1123     		mov	r3, #17
 1422 00a8 FB18     		add	r3, r7, r3
 1423 00aa 1B78     		ldrb	r3, [r3]
 1424 00ac 181C     		mov	r0, r3
 1425 00ae FFF7FEFF 		bl	CyExitCriticalSection
1082:.\Generated_Source\PSoC4/CapSense.c **** }
 1426              		.loc 1 1082 0
 1427 00b2 BD46     		mov	sp, r7
 1428 00b4 07B0     		add	sp, sp, #28
 1429              		@ sp needed
 1430 00b6 90BD     		pop	{r4, r7, pc}
 1431              	.L79:
 1432              		.align	2
 1433              	.L78:
 1434 00b8 00000000 		.word	CapSense_portTable
 1435 00bc 00000000 		.word	CapSense_pinShiftTbl
 1436 00c0 00000000 		.word	CapSense_prtSelTbl
 1437 00c4 00000000 		.word	CapSense_prtCfgTbl
 1438              		.cfi_endproc
 1439              	.LFE51:
 1440              		.size	CapSense_EnableSensor, .-CapSense_EnableSensor
 1441              		.section	.text.CapSense_DisableSensor,"ax",%progbits
 1442              		.align	2
 1443              		.global	CapSense_DisableSensor
 1444              		.code	16
 1445              		.thumb_func
 1446              		.type	CapSense_DisableSensor, %function
 1447              	CapSense_DisableSensor:
 1448              	.LFB52:
1083:.\Generated_Source\PSoC4/CapSense.c **** 
1084:.\Generated_Source\PSoC4/CapSense.c **** 
1085:.\Generated_Source\PSoC4/CapSense.c **** /*******************************************************************************
1086:.\Generated_Source\PSoC4/CapSense.c **** * Function Name: CapSense_DisableSensor
1087:.\Generated_Source\PSoC4/CapSense.c **** ********************************************************************************
1088:.\Generated_Source\PSoC4/CapSense.c **** *
1089:.\Generated_Source\PSoC4/CapSense.c **** * Summary:
1090:.\Generated_Source\PSoC4/CapSense.c **** *  Disables the selected sensor. The corresponding pin is disconnected from the
1091:.\Generated_Source\PSoC4/CapSense.c **** *  Analog Mux Bus and connected to GND, High_Z or Shield electrode.
1092:.\Generated_Source\PSoC4/CapSense.c **** *
1093:.\Generated_Source\PSoC4/CapSense.c **** * Parameters:
1094:.\Generated_Source\PSoC4/CapSense.c **** *  sensor:  Sensor number
1095:.\Generated_Source\PSoC4/CapSense.c **** *
1096:.\Generated_Source\PSoC4/CapSense.c **** * Return:
1097:.\Generated_Source\PSoC4/CapSense.c **** *  None
1098:.\Generated_Source\PSoC4/CapSense.c **** *
1099:.\Generated_Source\PSoC4/CapSense.c **** * Global Variables:
1100:.\Generated_Source\PSoC4/CapSense.c **** *  CapSense_portTable[] - used to store the port number that pin
1101:.\Generated_Source\PSoC4/CapSense.c **** *  belongs to for each sensor.
1102:.\Generated_Source\PSoC4/CapSense.c **** *  CapSense_pinShiftTbl[] - used to store position of pin that
ARM GAS  C:\Users\lovelesh\AppData\Local\Temp\ccK8zTJk.s 			page 46


1103:.\Generated_Source\PSoC4/CapSense.c **** *  configured as a sensor in the port.
1104:.\Generated_Source\PSoC4/CapSense.c **** *  CapSense_prtSelTbl[] - Contains pointers to the HSIOM
1105:.\Generated_Source\PSoC4/CapSense.c **** *  registers for each port.
1106:.\Generated_Source\PSoC4/CapSense.c **** *  CapSense_PrtCfgTb[] - Contains pointers to the port config
1107:.\Generated_Source\PSoC4/CapSense.c **** *  registers for each port.
1108:.\Generated_Source\PSoC4/CapSense.c **** *
1109:.\Generated_Source\PSoC4/CapSense.c **** * Side Effects:
1110:.\Generated_Source\PSoC4/CapSense.c **** *  None
1111:.\Generated_Source\PSoC4/CapSense.c **** *
1112:.\Generated_Source\PSoC4/CapSense.c **** *******************************************************************************/
1113:.\Generated_Source\PSoC4/CapSense.c **** void CapSense_DisableSensor(uint32 sensor)
1114:.\Generated_Source\PSoC4/CapSense.c **** {
 1449              		.loc 1 1114 0
 1450              		.cfi_startproc
 1451 0000 90B5     		push	{r4, r7, lr}
 1452              		.cfi_def_cfa_offset 12
 1453              		.cfi_offset 4, -12
 1454              		.cfi_offset 7, -8
 1455              		.cfi_offset 14, -4
 1456 0002 89B0     		sub	sp, sp, #36
 1457              		.cfi_def_cfa_offset 48
 1458 0004 00AF     		add	r7, sp, #0
 1459              		.cfi_def_cfa_register 7
 1460 0006 7860     		str	r0, [r7, #4]
1115:.\Generated_Source\PSoC4/CapSense.c ****     uint8 interruptState;
1116:.\Generated_Source\PSoC4/CapSense.c ****     uint32 newRegisterValue;
1117:.\Generated_Source\PSoC4/CapSense.c **** 
1118:.\Generated_Source\PSoC4/CapSense.c ****     uint32 port = (uint32) CapSense_portTable[sensor];
 1461              		.loc 1 1118 0
 1462 0008 3D4A     		ldr	r2, .L83
 1463 000a 7B68     		ldr	r3, [r7, #4]
 1464 000c D318     		add	r3, r2, r3
 1465 000e 1B78     		ldrb	r3, [r3]
 1466 0010 7B61     		str	r3, [r7, #20]
1119:.\Generated_Source\PSoC4/CapSense.c ****     uint8  pinHSIOMShift = CapSense_pinShiftTbl[sensor] * CapSense_HSIOM_PIN_CFG_SIZE;
 1467              		.loc 1 1119 0
 1468 0012 3C4A     		ldr	r2, .L83+4
 1469 0014 7B68     		ldr	r3, [r7, #4]
 1470 0016 D318     		add	r3, r2, r3
 1471 0018 1A78     		ldrb	r2, [r3]
 1472 001a 1323     		mov	r3, #19
 1473 001c FB18     		add	r3, r7, r3
 1474 001e 9200     		lsl	r2, r2, #2
 1475 0020 1A70     		strb	r2, [r3]
1120:.\Generated_Source\PSoC4/CapSense.c ****     uint8  pinModeShift = CapSense_pinShiftTbl[sensor]  * CapSense_PC_PIN_CFG_SIZE;
 1476              		.loc 1 1120 0
 1477 0022 384A     		ldr	r2, .L83+4
 1478 0024 7B68     		ldr	r3, [r7, #4]
 1479 0026 D318     		add	r3, r2, r3
 1480 0028 1B78     		ldrb	r3, [r3]
 1481 002a 1222     		mov	r2, #18
 1482 002c BA18     		add	r2, r7, r2
 1483 002e 191C     		add	r1, r3, #0
 1484 0030 0B1C     		add	r3, r1, #0
 1485 0032 DB18     		add	r3, r3, r3
 1486 0034 5B18     		add	r3, r3, r1
 1487 0036 1370     		strb	r3, [r2]
ARM GAS  C:\Users\lovelesh\AppData\Local\Temp\ccK8zTJk.s 			page 47


1121:.\Generated_Source\PSoC4/CapSense.c **** 
1122:.\Generated_Source\PSoC4/CapSense.c ****     uint32 inactiveConnect = CapSense_SNS_HIZANALOG_CONNECT;
 1488              		.loc 1 1122 0
 1489 0038 0023     		mov	r3, #0
 1490 003a FB61     		str	r3, [r7, #28]
1123:.\Generated_Source\PSoC4/CapSense.c ****     uint32 sensorState = CapSense_unscannedSnsDriveMode[sensor];
 1491              		.loc 1 1123 0
 1492 003c 324A     		ldr	r2, .L83+8
 1493 003e 7B68     		ldr	r3, [r7, #4]
 1494 0040 D318     		add	r3, r2, r3
 1495 0042 1B78     		ldrb	r3, [r3]
 1496 0044 BB61     		str	r3, [r7, #24]
1124:.\Generated_Source\PSoC4/CapSense.c **** 
1125:.\Generated_Source\PSoC4/CapSense.c ****     *CapSense_prtSelTbl[port] &= ~(CapSense_CSD_HSIOM_MASK << pinHSIOMShift);
 1497              		.loc 1 1125 0
 1498 0046 314B     		ldr	r3, .L83+12
 1499 0048 7A69     		ldr	r2, [r7, #20]
 1500 004a 9200     		lsl	r2, r2, #2
 1501 004c D358     		ldr	r3, [r2, r3]
 1502 004e 2F4A     		ldr	r2, .L83+12
 1503 0050 7969     		ldr	r1, [r7, #20]
 1504 0052 8900     		lsl	r1, r1, #2
 1505 0054 8A58     		ldr	r2, [r1, r2]
 1506 0056 1268     		ldr	r2, [r2]
 1507 0058 1321     		mov	r1, #19
 1508 005a 7918     		add	r1, r7, r1
 1509 005c 0978     		ldrb	r1, [r1]
 1510 005e 0F20     		mov	r0, #15
 1511 0060 8840     		lsl	r0, r0, r1
 1512 0062 011C     		mov	r1, r0
 1513 0064 C943     		mvn	r1, r1
 1514 0066 0A40     		and	r2, r1
 1515 0068 1A60     		str	r2, [r3]
1126:.\Generated_Source\PSoC4/CapSense.c **** 
1127:.\Generated_Source\PSoC4/CapSense.c ****     #if(CapSense_IS_SHIELD_ENABLE != 0)
1128:.\Generated_Source\PSoC4/CapSense.c ****     if(sensorState != (uint32)CapSense__SHIELD)
1129:.\Generated_Source\PSoC4/CapSense.c ****     {
1130:.\Generated_Source\PSoC4/CapSense.c ****     #else
1131:.\Generated_Source\PSoC4/CapSense.c ****         /* Connected to Ground if shield is disabled */
1132:.\Generated_Source\PSoC4/CapSense.c ****         if(sensorState == (uint32)CapSense__SHIELD)
 1516              		.loc 1 1132 0
 1517 006a BB69     		ldr	r3, [r7, #24]
 1518 006c 022B     		cmp	r3, #2
 1519 006e 01D1     		bne	.L81
1133:.\Generated_Source\PSoC4/CapSense.c ****         {
1134:.\Generated_Source\PSoC4/CapSense.c ****             sensorState = (uint32)CapSense__GROUND;
 1520              		.loc 1 1134 0
 1521 0070 0023     		mov	r3, #0
 1522 0072 BB61     		str	r3, [r7, #24]
 1523              	.L81:
1135:.\Generated_Source\PSoC4/CapSense.c ****         }
1136:.\Generated_Source\PSoC4/CapSense.c ****     #endif /* (CapSense_IS_SHIELD_ENABLE) */
1137:.\Generated_Source\PSoC4/CapSense.c ****         if(sensorState != (uint32)CapSense__HIZ_ANALOG)
 1524              		.loc 1 1137 0
 1525 0074 BB69     		ldr	r3, [r7, #24]
 1526 0076 012B     		cmp	r3, #1
 1527 0078 01D0     		beq	.L82
ARM GAS  C:\Users\lovelesh\AppData\Local\Temp\ccK8zTJk.s 			page 48


1138:.\Generated_Source\PSoC4/CapSense.c ****         {
1139:.\Generated_Source\PSoC4/CapSense.c ****             /* Connected to Ground */
1140:.\Generated_Source\PSoC4/CapSense.c ****             inactiveConnect = (uint32)CapSense_SNS_GROUND_CONNECT;
 1528              		.loc 1 1140 0
 1529 007a 0623     		mov	r3, #6
 1530 007c FB61     		str	r3, [r7, #28]
 1531              	.L82:
1141:.\Generated_Source\PSoC4/CapSense.c ****         }
1142:.\Generated_Source\PSoC4/CapSense.c **** 
1143:.\Generated_Source\PSoC4/CapSense.c ****         interruptState = CyEnterCriticalSection();
 1532              		.loc 1 1143 0
 1533 007e 1123     		mov	r3, #17
 1534 0080 FC18     		add	r4, r7, r3
 1535 0082 FFF7FEFF 		bl	CyEnterCriticalSection
 1536 0086 031C     		mov	r3, r0
 1537 0088 2370     		strb	r3, [r4]
1144:.\Generated_Source\PSoC4/CapSense.c **** 
1145:.\Generated_Source\PSoC4/CapSense.c ****         /* Set drive mode */
1146:.\Generated_Source\PSoC4/CapSense.c ****         newRegisterValue = *CapSense_prtCfgTbl[port];
 1538              		.loc 1 1146 0
 1539 008a 214B     		ldr	r3, .L83+16
 1540 008c 7A69     		ldr	r2, [r7, #20]
 1541 008e 9200     		lsl	r2, r2, #2
 1542 0090 D358     		ldr	r3, [r2, r3]
 1543 0092 1B68     		ldr	r3, [r3]
 1544 0094 FB60     		str	r3, [r7, #12]
1147:.\Generated_Source\PSoC4/CapSense.c ****         newRegisterValue &= ~(CapSense_CSD_PIN_MODE_MASK << pinModeShift);
 1545              		.loc 1 1147 0
 1546 0096 1223     		mov	r3, #18
 1547 0098 FB18     		add	r3, r7, r3
 1548 009a 1B78     		ldrb	r3, [r3]
 1549 009c 0722     		mov	r2, #7
 1550 009e 9A40     		lsl	r2, r2, r3
 1551 00a0 131C     		mov	r3, r2
 1552 00a2 DA43     		mvn	r2, r3
 1553 00a4 FB68     		ldr	r3, [r7, #12]
 1554 00a6 1340     		and	r3, r2
 1555 00a8 FB60     		str	r3, [r7, #12]
1148:.\Generated_Source\PSoC4/CapSense.c ****         newRegisterValue |=  (uint32)(inactiveConnect << pinModeShift);
 1556              		.loc 1 1148 0
 1557 00aa 1223     		mov	r3, #18
 1558 00ac FB18     		add	r3, r7, r3
 1559 00ae 1B78     		ldrb	r3, [r3]
 1560 00b0 FA69     		ldr	r2, [r7, #28]
 1561 00b2 9A40     		lsl	r2, r2, r3
 1562 00b4 131C     		mov	r3, r2
 1563 00b6 FA68     		ldr	r2, [r7, #12]
 1564 00b8 1343     		orr	r3, r2
 1565 00ba FB60     		str	r3, [r7, #12]
1149:.\Generated_Source\PSoC4/CapSense.c ****         *CapSense_prtCfgTbl[port] =  newRegisterValue;
 1566              		.loc 1 1149 0
 1567 00bc 144B     		ldr	r3, .L83+16
 1568 00be 7A69     		ldr	r2, [r7, #20]
 1569 00c0 9200     		lsl	r2, r2, #2
 1570 00c2 D358     		ldr	r3, [r2, r3]
 1571 00c4 FA68     		ldr	r2, [r7, #12]
 1572 00c6 1A60     		str	r2, [r3]
ARM GAS  C:\Users\lovelesh\AppData\Local\Temp\ccK8zTJk.s 			page 49


1150:.\Generated_Source\PSoC4/CapSense.c **** 
1151:.\Generated_Source\PSoC4/CapSense.c ****         CyExitCriticalSection(interruptState);
 1573              		.loc 1 1151 0
 1574 00c8 1123     		mov	r3, #17
 1575 00ca FB18     		add	r3, r7, r3
 1576 00cc 1B78     		ldrb	r3, [r3]
 1577 00ce 181C     		mov	r0, r3
 1578 00d0 FFF7FEFF 		bl	CyExitCriticalSection
1152:.\Generated_Source\PSoC4/CapSense.c **** 
1153:.\Generated_Source\PSoC4/CapSense.c ****         *CapSense_prtDRTbl[port]  &=  (uint32)~(uint32)((uint32)1u << CapSense_pinShiftTbl[sensor])
 1579              		.loc 1 1153 0
 1580 00d4 0F4B     		ldr	r3, .L83+20
 1581 00d6 7A69     		ldr	r2, [r7, #20]
 1582 00d8 9200     		lsl	r2, r2, #2
 1583 00da D358     		ldr	r3, [r2, r3]
 1584 00dc 0D4A     		ldr	r2, .L83+20
 1585 00de 7969     		ldr	r1, [r7, #20]
 1586 00e0 8900     		lsl	r1, r1, #2
 1587 00e2 8A58     		ldr	r2, [r1, r2]
 1588 00e4 1268     		ldr	r2, [r2]
 1589 00e6 0748     		ldr	r0, .L83+4
 1590 00e8 7968     		ldr	r1, [r7, #4]
 1591 00ea 4118     		add	r1, r0, r1
 1592 00ec 0978     		ldrb	r1, [r1]
 1593 00ee 081C     		mov	r0, r1
 1594 00f0 0121     		mov	r1, #1
 1595 00f2 8140     		lsl	r1, r1, r0
 1596 00f4 C943     		mvn	r1, r1
 1597 00f6 0A40     		and	r2, r1
 1598 00f8 1A60     		str	r2, [r3]
1154:.\Generated_Source\PSoC4/CapSense.c ****     #if(CapSense_IS_SHIELD_ENABLE != 0)
1155:.\Generated_Source\PSoC4/CapSense.c ****     }
1156:.\Generated_Source\PSoC4/CapSense.c ****     else
1157:.\Generated_Source\PSoC4/CapSense.c ****     {
1158:.\Generated_Source\PSoC4/CapSense.c ****         /* Connect to Shield */
1159:.\Generated_Source\PSoC4/CapSense.c ****         *CapSense_prtSelTbl[port] |= (CapSense_CSD_SHIELD_PORT_MODE << pinHSIOMShift);
1160:.\Generated_Source\PSoC4/CapSense.c ****     }
1161:.\Generated_Source\PSoC4/CapSense.c ****     #endif /* (CapSense_IS_SHIELD_ENABLE) */
1162:.\Generated_Source\PSoC4/CapSense.c **** }
 1599              		.loc 1 1162 0
 1600 00fa BD46     		mov	sp, r7
 1601 00fc 09B0     		add	sp, sp, #36
 1602              		@ sp needed
 1603 00fe 90BD     		pop	{r4, r7, pc}
 1604              	.L84:
 1605              		.align	2
 1606              	.L83:
 1607 0100 00000000 		.word	CapSense_portTable
 1608 0104 00000000 		.word	CapSense_pinShiftTbl
 1609 0108 00000000 		.word	CapSense_unscannedSnsDriveMode
 1610 010c 00000000 		.word	CapSense_prtSelTbl
 1611 0110 00000000 		.word	CapSense_prtCfgTbl
 1612 0114 00000000 		.word	CapSense_prtDRTbl
 1613              		.cfi_endproc
 1614              	.LFE52:
 1615              		.size	CapSense_DisableSensor, .-CapSense_DisableSensor
 1616              		.section	.text.CapSense_SetDriveModeAllPins,"ax",%progbits
ARM GAS  C:\Users\lovelesh\AppData\Local\Temp\ccK8zTJk.s 			page 50


 1617              		.align	2
 1618              		.global	CapSense_SetDriveModeAllPins
 1619              		.code	16
 1620              		.thumb_func
 1621              		.type	CapSense_SetDriveModeAllPins, %function
 1622              	CapSense_SetDriveModeAllPins:
 1623              	.LFB53:
1163:.\Generated_Source\PSoC4/CapSense.c **** 
1164:.\Generated_Source\PSoC4/CapSense.c **** 
1165:.\Generated_Source\PSoC4/CapSense.c **** /*******************************************************************************
1166:.\Generated_Source\PSoC4/CapSense.c **** * Function Name: CapSense_SetDriveModeAllPins
1167:.\Generated_Source\PSoC4/CapSense.c **** ********************************************************************************
1168:.\Generated_Source\PSoC4/CapSense.c **** *
1169:.\Generated_Source\PSoC4/CapSense.c **** * Summary:
1170:.\Generated_Source\PSoC4/CapSense.c **** * This API sets the drive mode of port pins used by the CapSense
1171:.\Generated_Source\PSoC4/CapSense.c **** * component (sensors, guard, shield, shield tank and Cmod) to drive the
1172:.\Generated_Source\PSoC4/CapSense.c **** * mode specified by the argument.
1173:.\Generated_Source\PSoC4/CapSense.c **** *
1174:.\Generated_Source\PSoC4/CapSense.c **** * Parameters:
1175:.\Generated_Source\PSoC4/CapSense.c **** *  driveMode:  Drive mode definition.
1176:.\Generated_Source\PSoC4/CapSense.c **** *
1177:.\Generated_Source\PSoC4/CapSense.c **** * Return:
1178:.\Generated_Source\PSoC4/CapSense.c **** *  None
1179:.\Generated_Source\PSoC4/CapSense.c **** *
1180:.\Generated_Source\PSoC4/CapSense.c **** * Global Variables:
1181:.\Generated_Source\PSoC4/CapSense.c **** *  CapSense_portTable[] - used to store the port number that pin
1182:.\Generated_Source\PSoC4/CapSense.c **** *  belongs to for each sensor.
1183:.\Generated_Source\PSoC4/CapSense.c **** *  CapSense_pinShiftTbl[] - used to store position of pin that
1184:.\Generated_Source\PSoC4/CapSense.c **** *  configured as a sensor in the port.
1185:.\Generated_Source\PSoC4/CapSense.c **** *
1186:.\Generated_Source\PSoC4/CapSense.c **** * Side Effects:
1187:.\Generated_Source\PSoC4/CapSense.c **** *  This API shall be called only after CapSense component is stopped.
1188:.\Generated_Source\PSoC4/CapSense.c **** *
1189:.\Generated_Source\PSoC4/CapSense.c **** *******************************************************************************/
1190:.\Generated_Source\PSoC4/CapSense.c **** void CapSense_SetDriveModeAllPins(uint32 driveMode)
1191:.\Generated_Source\PSoC4/CapSense.c **** {
 1624              		.loc 1 1191 0
 1625              		.cfi_startproc
 1626 0000 80B5     		push	{r7, lr}
 1627              		.cfi_def_cfa_offset 8
 1628              		.cfi_offset 7, -8
 1629              		.cfi_offset 14, -4
 1630 0002 86B0     		sub	sp, sp, #24
 1631              		.cfi_def_cfa_offset 32
 1632 0004 00AF     		add	r7, sp, #0
 1633              		.cfi_def_cfa_register 7
 1634 0006 7860     		str	r0, [r7, #4]
1192:.\Generated_Source\PSoC4/CapSense.c ****     uint8 curSensor;
1193:.\Generated_Source\PSoC4/CapSense.c ****     #if (CapSense_IS_COMPLEX_SCANSLOTS)
1194:.\Generated_Source\PSoC4/CapSense.c ****         uint8 snsNumber;
1195:.\Generated_Source\PSoC4/CapSense.c ****         uint8 snsType;
1196:.\Generated_Source\PSoC4/CapSense.c ****     #endif  /* CapSense_IS_COMPLEX_SCANSLOTS */
1197:.\Generated_Source\PSoC4/CapSense.c ****     uint32 prtNumberTmp;
1198:.\Generated_Source\PSoC4/CapSense.c ****     uint32 pinNumberTmp;
1199:.\Generated_Source\PSoC4/CapSense.c **** 
1200:.\Generated_Source\PSoC4/CapSense.c ****     for(curSensor = 0u; curSensor < CapSense_TOTAL_SENSOR_COUNT; curSensor++)
 1635              		.loc 1 1200 0
ARM GAS  C:\Users\lovelesh\AppData\Local\Temp\ccK8zTJk.s 			page 51


 1636 0008 1723     		mov	r3, #23
 1637 000a FB18     		add	r3, r7, r3
 1638 000c 0022     		mov	r2, #0
 1639 000e 1A70     		strb	r2, [r3]
 1640 0010 3FE0     		b	.L86
 1641              	.L89:
1201:.\Generated_Source\PSoC4/CapSense.c ****     {
1202:.\Generated_Source\PSoC4/CapSense.c ****         #if (CapSense_IS_COMPLEX_SCANSLOTS)
1203:.\Generated_Source\PSoC4/CapSense.c ****             /* Read sensor type: single or complex */
1204:.\Generated_Source\PSoC4/CapSense.c ****             snsType = CapSense_portTable[curSensor];
 1642              		.loc 1 1204 0
 1643 0012 1723     		mov	r3, #23
 1644 0014 FB18     		add	r3, r7, r3
 1645 0016 1A78     		ldrb	r2, [r3]
 1646 0018 1523     		mov	r3, #21
 1647 001a FB18     		add	r3, r7, r3
 1648 001c 2449     		ldr	r1, .L90
 1649 001e 8A5C     		ldrb	r2, [r1, r2]
 1650 0020 1A70     		strb	r2, [r3]
1205:.\Generated_Source\PSoC4/CapSense.c **** 
1206:.\Generated_Source\PSoC4/CapSense.c ****             /* Check if sensor is complex */
1207:.\Generated_Source\PSoC4/CapSense.c ****             if ((snsType & CapSense_COMPLEX_SS_FLAG) == 0u)
 1651              		.loc 1 1207 0
 1652 0022 1523     		mov	r3, #21
 1653 0024 FB18     		add	r3, r7, r3
 1654 0026 1B78     		ldrb	r3, [r3]
 1655 0028 5BB2     		sxtb	r3, r3
 1656 002a 002B     		cmp	r3, #0
 1657 002c 06DB     		blt	.L87
1208:.\Generated_Source\PSoC4/CapSense.c ****             {
1209:.\Generated_Source\PSoC4/CapSense.c ****                 /* The sensor is not complex */
1210:.\Generated_Source\PSoC4/CapSense.c ****                 snsNumber = curSensor;
 1658              		.loc 1 1210 0
 1659 002e 1623     		mov	r3, #22
 1660 0030 FB18     		add	r3, r7, r3
 1661 0032 1722     		mov	r2, #23
 1662 0034 BA18     		add	r2, r7, r2
 1663 0036 1278     		ldrb	r2, [r2]
 1664 0038 1A70     		strb	r2, [r3]
 1665 003a 0FE0     		b	.L88
 1666              	.L87:
1211:.\Generated_Source\PSoC4/CapSense.c ****             }
1212:.\Generated_Source\PSoC4/CapSense.c ****             else
1213:.\Generated_Source\PSoC4/CapSense.c ****             {
1214:.\Generated_Source\PSoC4/CapSense.c ****                 /* Get dedicated sensor ID of the complex sensor */
1215:.\Generated_Source\PSoC4/CapSense.c ****                 snsType &= ~CapSense_COMPLEX_SS_FLAG;
 1667              		.loc 1 1215 0
 1668 003c 1523     		mov	r3, #21
 1669 003e FB18     		add	r3, r7, r3
 1670 0040 1522     		mov	r2, #21
 1671 0042 BA18     		add	r2, r7, r2
 1672 0044 1278     		ldrb	r2, [r2]
 1673 0046 7F21     		mov	r1, #127
 1674 0048 0A40     		and	r2, r1
 1675 004a 1A70     		strb	r2, [r3]
1216:.\Generated_Source\PSoC4/CapSense.c ****                 snsNumber = CapSense_indexTable[snsType];
 1676              		.loc 1 1216 0
ARM GAS  C:\Users\lovelesh\AppData\Local\Temp\ccK8zTJk.s 			page 52


 1677 004c 1523     		mov	r3, #21
 1678 004e FB18     		add	r3, r7, r3
 1679 0050 1A78     		ldrb	r2, [r3]
 1680 0052 1623     		mov	r3, #22
 1681 0054 FB18     		add	r3, r7, r3
 1682 0056 1749     		ldr	r1, .L90+4
 1683 0058 8A5C     		ldrb	r2, [r1, r2]
 1684 005a 1A70     		strb	r2, [r3]
 1685              	.L88:
1217:.\Generated_Source\PSoC4/CapSense.c ****             }
1218:.\Generated_Source\PSoC4/CapSense.c **** 
1219:.\Generated_Source\PSoC4/CapSense.c ****             prtNumberTmp = CapSense_portTable[snsNumber];
 1686              		.loc 1 1219 0 discriminator 2
 1687 005c 1623     		mov	r3, #22
 1688 005e FB18     		add	r3, r7, r3
 1689 0060 1B78     		ldrb	r3, [r3]
 1690 0062 134A     		ldr	r2, .L90
 1691 0064 D35C     		ldrb	r3, [r2, r3]
 1692 0066 3B61     		str	r3, [r7, #16]
1220:.\Generated_Source\PSoC4/CapSense.c ****             pinNumberTmp = CapSense_pinShiftTbl[snsNumber];
 1693              		.loc 1 1220 0 discriminator 2
 1694 0068 1623     		mov	r3, #22
 1695 006a FB18     		add	r3, r7, r3
 1696 006c 1B78     		ldrb	r3, [r3]
 1697 006e 124A     		ldr	r2, .L90+8
 1698 0070 D35C     		ldrb	r3, [r2, r3]
 1699 0072 FB60     		str	r3, [r7, #12]
1221:.\Generated_Source\PSoC4/CapSense.c ****         #else
1222:.\Generated_Source\PSoC4/CapSense.c ****             prtNumberTmp = CapSense_portTable[curSensor];
1223:.\Generated_Source\PSoC4/CapSense.c ****             pinNumberTmp = CapSense_pinShiftTbl[curSensor];
1224:.\Generated_Source\PSoC4/CapSense.c ****         #endif  /* CapSense_IS_COMPLEX_SCANSLOTS */
1225:.\Generated_Source\PSoC4/CapSense.c **** 
1226:.\Generated_Source\PSoC4/CapSense.c ****         CapSense_SetPinDriveMode(driveMode, pinNumberTmp, prtNumberTmp);
 1700              		.loc 1 1226 0 discriminator 2
 1701 0074 7968     		ldr	r1, [r7, #4]
 1702 0076 FA68     		ldr	r2, [r7, #12]
 1703 0078 3B69     		ldr	r3, [r7, #16]
 1704 007a 081C     		mov	r0, r1
 1705 007c 111C     		mov	r1, r2
 1706 007e 1A1C     		mov	r2, r3
 1707 0080 FFF7FEFF 		bl	CapSense_SetPinDriveMode
1200:.\Generated_Source\PSoC4/CapSense.c ****     {
 1708              		.loc 1 1200 0 discriminator 2
 1709 0084 1723     		mov	r3, #23
 1710 0086 FB18     		add	r3, r7, r3
 1711 0088 1A78     		ldrb	r2, [r3]
 1712 008a 1723     		mov	r3, #23
 1713 008c FB18     		add	r3, r7, r3
 1714 008e 0132     		add	r2, r2, #1
 1715 0090 1A70     		strb	r2, [r3]
 1716              	.L86:
1200:.\Generated_Source\PSoC4/CapSense.c ****     {
 1717              		.loc 1 1200 0 is_stmt 0 discriminator 1
 1718 0092 1723     		mov	r3, #23
 1719 0094 FB18     		add	r3, r7, r3
 1720 0096 1B78     		ldrb	r3, [r3]
 1721 0098 072B     		cmp	r3, #7
ARM GAS  C:\Users\lovelesh\AppData\Local\Temp\ccK8zTJk.s 			page 53


 1722 009a BAD9     		bls	.L89
1227:.\Generated_Source\PSoC4/CapSense.c ****     }
1228:.\Generated_Source\PSoC4/CapSense.c **** 
1229:.\Generated_Source\PSoC4/CapSense.c ****     CapSense_SetPinDriveMode(driveMode, (uint32)CapSense_CMOD_PIN_NUMBER, (uint32)CapSense_CMOD_PRT
 1723              		.loc 1 1229 0 is_stmt 1
 1724 009c 7B68     		ldr	r3, [r7, #4]
 1725 009e 181C     		mov	r0, r3
 1726 00a0 0221     		mov	r1, #2
 1727 00a2 0422     		mov	r2, #4
 1728 00a4 FFF7FEFF 		bl	CapSense_SetPinDriveMode
1230:.\Generated_Source\PSoC4/CapSense.c **** 
1231:.\Generated_Source\PSoC4/CapSense.c ****     #if(0u != CapSense_CSH_TANK_ENABLE)
1232:.\Generated_Source\PSoC4/CapSense.c ****         CapSense_SetPinDriveMode(driveMode, (uint32)CapSense_CTANK_PIN_NUMBER, (uint32)CapSense_CTA
1233:.\Generated_Source\PSoC4/CapSense.c ****     #endif /* (0u != CapSense_CSH_TANK_ENABLE) */
1234:.\Generated_Source\PSoC4/CapSense.c **** 
1235:.\Generated_Source\PSoC4/CapSense.c ****     #if(0u != CapSense_IS_SHIELD_ENABLE)
1236:.\Generated_Source\PSoC4/CapSense.c ****         CapSense_SetPinDriveMode(driveMode, (uint32)CapSense_SHIELD_PIN_NUMBER, (uint32)CapSense_SH
1237:.\Generated_Source\PSoC4/CapSense.c ****     #endif /* (0u != CapSense_IS_SHIELD_ENABLE) */
1238:.\Generated_Source\PSoC4/CapSense.c **** }
 1729              		.loc 1 1238 0
 1730 00a8 BD46     		mov	sp, r7
 1731 00aa 06B0     		add	sp, sp, #24
 1732              		@ sp needed
 1733 00ac 80BD     		pop	{r7, pc}
 1734              	.L91:
 1735 00ae C046     		.align	2
 1736              	.L90:
 1737 00b0 00000000 		.word	CapSense_portTable
 1738 00b4 00000000 		.word	CapSense_indexTable
 1739 00b8 00000000 		.word	CapSense_pinShiftTbl
 1740              		.cfi_endproc
 1741              	.LFE53:
 1742              		.size	CapSense_SetDriveModeAllPins, .-CapSense_SetDriveModeAllPins
 1743              		.section	.text.CapSense_RestoreDriveModeAllPins,"ax",%progbits
 1744              		.align	2
 1745              		.global	CapSense_RestoreDriveModeAllPins
 1746              		.code	16
 1747              		.thumb_func
 1748              		.type	CapSense_RestoreDriveModeAllPins, %function
 1749              	CapSense_RestoreDriveModeAllPins:
 1750              	.LFB54:
1239:.\Generated_Source\PSoC4/CapSense.c **** 
1240:.\Generated_Source\PSoC4/CapSense.c **** 
1241:.\Generated_Source\PSoC4/CapSense.c **** /*******************************************************************************
1242:.\Generated_Source\PSoC4/CapSense.c **** * Function Name: CapSense_RestoreDriveModeAllPins
1243:.\Generated_Source\PSoC4/CapSense.c **** ********************************************************************************
1244:.\Generated_Source\PSoC4/CapSense.c **** *
1245:.\Generated_Source\PSoC4/CapSense.c **** * Summary:
1246:.\Generated_Source\PSoC4/CapSense.c **** *  This API restores the drive for all the CapSense port pins to the original
1247:.\Generated_Source\PSoC4/CapSense.c **** *  state.
1248:.\Generated_Source\PSoC4/CapSense.c **** *
1249:.\Generated_Source\PSoC4/CapSense.c **** * Parameters:
1250:.\Generated_Source\PSoC4/CapSense.c **** *  None
1251:.\Generated_Source\PSoC4/CapSense.c **** *
1252:.\Generated_Source\PSoC4/CapSense.c **** * Return:
1253:.\Generated_Source\PSoC4/CapSense.c **** *  None
1254:.\Generated_Source\PSoC4/CapSense.c **** *
ARM GAS  C:\Users\lovelesh\AppData\Local\Temp\ccK8zTJk.s 			page 54


1255:.\Generated_Source\PSoC4/CapSense.c **** * Global Variables:
1256:.\Generated_Source\PSoC4/CapSense.c **** *  CapSense_prtSelTbl[] - Contains pointers to the HSIOM
1257:.\Generated_Source\PSoC4/CapSense.c **** *  registers for each port.
1258:.\Generated_Source\PSoC4/CapSense.c **** *
1259:.\Generated_Source\PSoC4/CapSense.c **** * Side Effects:
1260:.\Generated_Source\PSoC4/CapSense.c **** *  This API is called only after the CapSense component is stopped.
1261:.\Generated_Source\PSoC4/CapSense.c **** *
1262:.\Generated_Source\PSoC4/CapSense.c **** *******************************************************************************/
1263:.\Generated_Source\PSoC4/CapSense.c **** void CapSense_RestoreDriveModeAllPins(void)
1264:.\Generated_Source\PSoC4/CapSense.c **** {
 1751              		.loc 1 1264 0
 1752              		.cfi_startproc
 1753 0000 80B5     		push	{r7, lr}
 1754              		.cfi_def_cfa_offset 8
 1755              		.cfi_offset 7, -8
 1756              		.cfi_offset 14, -4
 1757 0002 82B0     		sub	sp, sp, #8
 1758              		.cfi_def_cfa_offset 16
 1759 0004 00AF     		add	r7, sp, #0
 1760              		.cfi_def_cfa_register 7
1265:.\Generated_Source\PSoC4/CapSense.c ****     uint32 newRegisterValue;
1266:.\Generated_Source\PSoC4/CapSense.c **** 
1267:.\Generated_Source\PSoC4/CapSense.c ****     CapSense_SetDriveModeAllPins(CY_SYS_PINS_DM_ALG_HIZ);
 1761              		.loc 1 1267 0
 1762 0006 0020     		mov	r0, #0
 1763 0008 FFF7FEFF 		bl	CapSense_SetDriveModeAllPins
1268:.\Generated_Source\PSoC4/CapSense.c **** 
1269:.\Generated_Source\PSoC4/CapSense.c ****     newRegisterValue = CapSense_CMOD_CONNECTION_REG;
 1764              		.loc 1 1269 0
 1765 000c 084B     		ldr	r3, .L93
 1766 000e 1B68     		ldr	r3, [r3]
 1767 0010 7B60     		str	r3, [r7, #4]
1270:.\Generated_Source\PSoC4/CapSense.c ****     newRegisterValue &= ~(CapSense_CSD_CMOD_CONNECTION_MASK);
 1768              		.loc 1 1270 0
 1769 0012 7B68     		ldr	r3, [r7, #4]
 1770 0014 074A     		ldr	r2, .L93+4
 1771 0016 1340     		and	r3, r2
 1772 0018 7B60     		str	r3, [r7, #4]
1271:.\Generated_Source\PSoC4/CapSense.c ****     newRegisterValue |= CapSense_CSD_CMOD_TO_AMUXBUS_A;
 1773              		.loc 1 1271 0
 1774 001a 7B68     		ldr	r3, [r7, #4]
 1775 001c C022     		mov	r2, #192
 1776 001e D200     		lsl	r2, r2, #3
 1777 0020 1343     		orr	r3, r2
 1778 0022 7B60     		str	r3, [r7, #4]
1272:.\Generated_Source\PSoC4/CapSense.c ****     CapSense_CMOD_CONNECTION_REG = newRegisterValue;
 1779              		.loc 1 1272 0
 1780 0024 024B     		ldr	r3, .L93
 1781 0026 7A68     		ldr	r2, [r7, #4]
 1782 0028 1A60     		str	r2, [r3]
1273:.\Generated_Source\PSoC4/CapSense.c **** 
1274:.\Generated_Source\PSoC4/CapSense.c ****     #if(0u != CapSense_CSH_TANK_ENABLE)
1275:.\Generated_Source\PSoC4/CapSense.c ****         newRegisterValue = CapSense_CTANK_CONNECTION_REG;
1276:.\Generated_Source\PSoC4/CapSense.c ****         newRegisterValue &= ~(CapSense_CSD_CTANK_CONNECTION_MASK);
1277:.\Generated_Source\PSoC4/CapSense.c ****         newRegisterValue |= CapSense_CSD_CTANK_TO_AMUXBUS_B;
1278:.\Generated_Source\PSoC4/CapSense.c ****         CapSense_CTANK_CONNECTION_REG = newRegisterValue;
1279:.\Generated_Source\PSoC4/CapSense.c ****     #endif/* (0u != CapSense_CSH_TANK_ENABLE) */
ARM GAS  C:\Users\lovelesh\AppData\Local\Temp\ccK8zTJk.s 			page 55


1280:.\Generated_Source\PSoC4/CapSense.c **** 
1281:.\Generated_Source\PSoC4/CapSense.c ****     #if(0u != CapSense_IS_SHIELD_ENABLE)
1282:.\Generated_Source\PSoC4/CapSense.c ****         newRegisterValue = *CapSense_prtSelTbl[CapSense_SHIELD_PORT_NUMBER];
1283:.\Generated_Source\PSoC4/CapSense.c ****         newRegisterValue &= ~(CapSense_CSD_HSIOM_MASK << ((uint32)CapSense_SHIELD_PIN_NUMBER * CapS
1284:.\Generated_Source\PSoC4/CapSense.c ****         newRegisterValue |= (CapSense_CSD_SHIELD_PORT_MODE << ((uint32)CapSense_SHIELD_PIN_NUMBER *
1285:.\Generated_Source\PSoC4/CapSense.c ****         *CapSense_prtSelTbl[CapSense_SHIELD_PORT_NUMBER] = newRegisterValue;
1286:.\Generated_Source\PSoC4/CapSense.c ****     #endif /* (0u != CapSense_IS_SHIELD_ENABLE) */
1287:.\Generated_Source\PSoC4/CapSense.c **** }
 1783              		.loc 1 1287 0
 1784 002a BD46     		mov	sp, r7
 1785 002c 02B0     		add	sp, sp, #8
 1786              		@ sp needed
 1787 002e 80BD     		pop	{r7, pc}
 1788              	.L94:
 1789              		.align	2
 1790              	.L93:
 1791 0030 10000140 		.word	1073807376
 1792 0034 FFF0FFFF 		.word	-3841
 1793              		.cfi_endproc
 1794              	.LFE54:
 1795              		.size	CapSense_RestoreDriveModeAllPins, .-CapSense_RestoreDriveModeAllPins
 1796              		.section	.text.CapSense_SetPinDriveMode,"ax",%progbits
 1797              		.align	2
 1798              		.global	CapSense_SetPinDriveMode
 1799              		.code	16
 1800              		.thumb_func
 1801              		.type	CapSense_SetPinDriveMode, %function
 1802              	CapSense_SetPinDriveMode:
 1803              	.LFB55:
1288:.\Generated_Source\PSoC4/CapSense.c **** 
1289:.\Generated_Source\PSoC4/CapSense.c **** 
1290:.\Generated_Source\PSoC4/CapSense.c **** /*******************************************************************************
1291:.\Generated_Source\PSoC4/CapSense.c **** * Function Name: CapSense_SetPinDriveMode
1292:.\Generated_Source\PSoC4/CapSense.c **** ********************************************************************************
1293:.\Generated_Source\PSoC4/CapSense.c **** *
1294:.\Generated_Source\PSoC4/CapSense.c **** * Summary:
1295:.\Generated_Source\PSoC4/CapSense.c **** * This API sets the drive mode for the appropriate port/pin.
1296:.\Generated_Source\PSoC4/CapSense.c **** *
1297:.\Generated_Source\PSoC4/CapSense.c **** * Parameters:
1298:.\Generated_Source\PSoC4/CapSense.c **** *  driveMode:  Drive mode definition.
1299:.\Generated_Source\PSoC4/CapSense.c **** *  portNumber: contains port number (0, 1, 2).
1300:.\Generated_Source\PSoC4/CapSense.c **** *  pinNumber: contains pin number (0, 1, 2, ... , 7).
1301:.\Generated_Source\PSoC4/CapSense.c **** *
1302:.\Generated_Source\PSoC4/CapSense.c **** * Return:
1303:.\Generated_Source\PSoC4/CapSense.c **** *  None
1304:.\Generated_Source\PSoC4/CapSense.c **** *
1305:.\Generated_Source\PSoC4/CapSense.c **** * Global Variables:
1306:.\Generated_Source\PSoC4/CapSense.c **** *  CapSense_prtSelTbl[] - Contains pointers to the HSIOM
1307:.\Generated_Source\PSoC4/CapSense.c **** *  registers for each port.
1308:.\Generated_Source\PSoC4/CapSense.c **** *  CapSense_prtCfgTb[] - Contains pointers to the port config
1309:.\Generated_Source\PSoC4/CapSense.c **** *  registers for each port.
1310:.\Generated_Source\PSoC4/CapSense.c **** *
1311:.\Generated_Source\PSoC4/CapSense.c **** * Side Effects:
1312:.\Generated_Source\PSoC4/CapSense.c **** *  This API is called only after CapSense component is stopped.
1313:.\Generated_Source\PSoC4/CapSense.c **** *
1314:.\Generated_Source\PSoC4/CapSense.c **** *******************************************************************************/
1315:.\Generated_Source\PSoC4/CapSense.c **** void CapSense_SetPinDriveMode(uint32 driveMode, uint32 pinNumber, uint32 portNumber)
ARM GAS  C:\Users\lovelesh\AppData\Local\Temp\ccK8zTJk.s 			page 56


1316:.\Generated_Source\PSoC4/CapSense.c **** {
 1804              		.loc 1 1316 0
 1805              		.cfi_startproc
 1806 0000 80B5     		push	{r7, lr}
 1807              		.cfi_def_cfa_offset 8
 1808              		.cfi_offset 7, -8
 1809              		.cfi_offset 14, -4
 1810 0002 86B0     		sub	sp, sp, #24
 1811              		.cfi_def_cfa_offset 32
 1812 0004 00AF     		add	r7, sp, #0
 1813              		.cfi_def_cfa_register 7
 1814 0006 F860     		str	r0, [r7, #12]
 1815 0008 B960     		str	r1, [r7, #8]
 1816 000a 7A60     		str	r2, [r7, #4]
1317:.\Generated_Source\PSoC4/CapSense.c ****     uint32  pinModeShift;
1318:.\Generated_Source\PSoC4/CapSense.c ****     uint32 newRegisterValue;
1319:.\Generated_Source\PSoC4/CapSense.c **** 
1320:.\Generated_Source\PSoC4/CapSense.c ****     pinModeShift  = pinNumber * CapSense_PC_PIN_CFG_SIZE;
 1817              		.loc 1 1320 0
 1818 000c BA68     		ldr	r2, [r7, #8]
 1819 000e 131C     		mov	r3, r2
 1820 0010 5B00     		lsl	r3, r3, #1
 1821 0012 9B18     		add	r3, r3, r2
 1822 0014 7B61     		str	r3, [r7, #20]
1321:.\Generated_Source\PSoC4/CapSense.c **** 
1322:.\Generated_Source\PSoC4/CapSense.c ****     newRegisterValue = *CapSense_prtCfgTbl[portNumber];
 1823              		.loc 1 1322 0
 1824 0016 0F4B     		ldr	r3, .L96
 1825 0018 7A68     		ldr	r2, [r7, #4]
 1826 001a 9200     		lsl	r2, r2, #2
 1827 001c D358     		ldr	r3, [r2, r3]
 1828 001e 1B68     		ldr	r3, [r3]
 1829 0020 3B61     		str	r3, [r7, #16]
1323:.\Generated_Source\PSoC4/CapSense.c ****     newRegisterValue &= ~(CapSense_CSD_PIN_MODE_MASK << pinModeShift);
 1830              		.loc 1 1323 0
 1831 0022 7B69     		ldr	r3, [r7, #20]
 1832 0024 0722     		mov	r2, #7
 1833 0026 9A40     		lsl	r2, r2, r3
 1834 0028 131C     		mov	r3, r2
 1835 002a DA43     		mvn	r2, r3
 1836 002c 3B69     		ldr	r3, [r7, #16]
 1837 002e 1340     		and	r3, r2
 1838 0030 3B61     		str	r3, [r7, #16]
1324:.\Generated_Source\PSoC4/CapSense.c ****     newRegisterValue |=  (uint32)((uint32)driveMode << pinModeShift);
 1839              		.loc 1 1324 0
 1840 0032 7B69     		ldr	r3, [r7, #20]
 1841 0034 FA68     		ldr	r2, [r7, #12]
 1842 0036 9A40     		lsl	r2, r2, r3
 1843 0038 131C     		mov	r3, r2
 1844 003a 3A69     		ldr	r2, [r7, #16]
 1845 003c 1343     		orr	r3, r2
 1846 003e 3B61     		str	r3, [r7, #16]
1325:.\Generated_Source\PSoC4/CapSense.c ****     *CapSense_prtCfgTbl[portNumber] =  newRegisterValue;
 1847              		.loc 1 1325 0
 1848 0040 044B     		ldr	r3, .L96
 1849 0042 7A68     		ldr	r2, [r7, #4]
 1850 0044 9200     		lsl	r2, r2, #2
ARM GAS  C:\Users\lovelesh\AppData\Local\Temp\ccK8zTJk.s 			page 57


 1851 0046 D358     		ldr	r3, [r2, r3]
 1852 0048 3A69     		ldr	r2, [r7, #16]
 1853 004a 1A60     		str	r2, [r3]
1326:.\Generated_Source\PSoC4/CapSense.c **** }
 1854              		.loc 1 1326 0
 1855 004c BD46     		mov	sp, r7
 1856 004e 06B0     		add	sp, sp, #24
 1857              		@ sp needed
 1858 0050 80BD     		pop	{r7, pc}
 1859              	.L97:
 1860 0052 C046     		.align	2
 1861              	.L96:
 1862 0054 00000000 		.word	CapSense_prtCfgTbl
 1863              		.cfi_endproc
 1864              	.LFE55:
 1865              		.size	CapSense_SetPinDriveMode, .-CapSense_SetPinDriveMode
 1866              		.section	.text.CapSense_PreScan,"ax",%progbits
 1867              		.align	2
 1868              		.global	CapSense_PreScan
 1869              		.code	16
 1870              		.thumb_func
 1871              		.type	CapSense_PreScan, %function
 1872              	CapSense_PreScan:
 1873              	.LFB56:
1327:.\Generated_Source\PSoC4/CapSense.c **** 
1328:.\Generated_Source\PSoC4/CapSense.c **** 
1329:.\Generated_Source\PSoC4/CapSense.c **** /*******************************************************************************
1330:.\Generated_Source\PSoC4/CapSense.c **** * Function Name: CapSense_PreScan
1331:.\Generated_Source\PSoC4/CapSense.c **** ********************************************************************************
1332:.\Generated_Source\PSoC4/CapSense.c **** *
1333:.\Generated_Source\PSoC4/CapSense.c **** * Summary:
1334:.\Generated_Source\PSoC4/CapSense.c **** *  Sets required settings, enables a sensor, removes Vref from AMUX and starts the
1335:.\Generated_Source\PSoC4/CapSense.c **** *  scanning process of the sensor.
1336:.\Generated_Source\PSoC4/CapSense.c **** *
1337:.\Generated_Source\PSoC4/CapSense.c **** * Parameters:
1338:.\Generated_Source\PSoC4/CapSense.c **** *  sensor:  Sensor number.
1339:.\Generated_Source\PSoC4/CapSense.c **** *
1340:.\Generated_Source\PSoC4/CapSense.c **** * Return:
1341:.\Generated_Source\PSoC4/CapSense.c **** *  None
1342:.\Generated_Source\PSoC4/CapSense.c **** *
1343:.\Generated_Source\PSoC4/CapSense.c **** * Global Variables:
1344:.\Generated_Source\PSoC4/CapSense.c **** * CapSense_widgetNumber[] - This array contains numbers of widgets for each sensor.
1345:.\Generated_Source\PSoC4/CapSense.c **** * CapSense_widgetResolution[] - Contains the widget resolution.
1346:.\Generated_Source\PSoC4/CapSense.c **** *
1347:.\Generated_Source\PSoC4/CapSense.c **** * Side Effects:
1348:.\Generated_Source\PSoC4/CapSense.c **** *  None
1349:.\Generated_Source\PSoC4/CapSense.c **** *
1350:.\Generated_Source\PSoC4/CapSense.c **** *******************************************************************************/
1351:.\Generated_Source\PSoC4/CapSense.c **** void CapSense_PreScan(uint32 sensor)
1352:.\Generated_Source\PSoC4/CapSense.c **** {
 1874              		.loc 1 1352 0
 1875              		.cfi_startproc
 1876 0000 90B5     		push	{r4, r7, lr}
 1877              		.cfi_def_cfa_offset 12
 1878              		.cfi_offset 4, -12
 1879              		.cfi_offset 7, -8
 1880              		.cfi_offset 14, -4
ARM GAS  C:\Users\lovelesh\AppData\Local\Temp\ccK8zTJk.s 			page 58


 1881 0002 87B0     		sub	sp, sp, #28
 1882              		.cfi_def_cfa_offset 40
 1883 0004 00AF     		add	r7, sp, #0
 1884              		.cfi_def_cfa_register 7
 1885 0006 7860     		str	r0, [r7, #4]
1353:.\Generated_Source\PSoC4/CapSense.c ****     uint8 widget;
1354:.\Generated_Source\PSoC4/CapSense.c ****     uint8 interruptState;
1355:.\Generated_Source\PSoC4/CapSense.c ****     uint32 newRegValue;
1356:.\Generated_Source\PSoC4/CapSense.c ****     uint32 counterResolution;
1357:.\Generated_Source\PSoC4/CapSense.c **** 
1358:.\Generated_Source\PSoC4/CapSense.c ****     #if(CapSense_PRS_OPTIONS == CapSense__PRS_AUTO)
1359:.\Generated_Source\PSoC4/CapSense.c ****         uint8 senseClkDivMath;
1360:.\Generated_Source\PSoC4/CapSense.c ****         uint8 sampleClkDivMath;
1361:.\Generated_Source\PSoC4/CapSense.c ****     #endif /* (CapSense_PRS_OPTIONS == CapSense__PRS_AUTO) */
1362:.\Generated_Source\PSoC4/CapSense.c **** 
1363:.\Generated_Source\PSoC4/CapSense.c ****     #if ((CapSense_TUNING_METHOD == CapSense__TUNING_AUTO) &&\
1364:.\Generated_Source\PSoC4/CapSense.c ****          (0 != CapSense_IS_OVERSAMPLING_EN))
1365:.\Generated_Source\PSoC4/CapSense.c ****         uint32 oversamplingFactor;
1366:.\Generated_Source\PSoC4/CapSense.c ****     #endif /* ((CapSense_TUNING_METHOD == CapSense__TUNING_AUTO) &&\
1367:.\Generated_Source\PSoC4/CapSense.c ****                (0 != CapSense_IS_OVERSAMPLING_EN)) */
1368:.\Generated_Source\PSoC4/CapSense.c **** 
1369:.\Generated_Source\PSoC4/CapSense.c ****     /* Define widget sensor belongs to */
1370:.\Generated_Source\PSoC4/CapSense.c ****     widget = CapSense_widgetNumber[sensor];
 1886              		.loc 1 1370 0
 1887 0008 1723     		mov	r3, #23
 1888 000a FB18     		add	r3, r7, r3
 1889 000c 3D49     		ldr	r1, .L100
 1890 000e 7A68     		ldr	r2, [r7, #4]
 1891 0010 8A18     		add	r2, r1, r2
 1892 0012 1278     		ldrb	r2, [r2]
 1893 0014 1A70     		strb	r2, [r3]
1371:.\Generated_Source\PSoC4/CapSense.c **** 
1372:.\Generated_Source\PSoC4/CapSense.c ****     /* Recalculate Counter Resolution to MSB 16 bits */
1373:.\Generated_Source\PSoC4/CapSense.c ****     counterResolution = CapSense_widgetResolution[widget];
 1894              		.loc 1 1373 0
 1895 0016 1723     		mov	r3, #23
 1896 0018 FB18     		add	r3, r7, r3
 1897 001a 1A78     		ldrb	r2, [r3]
 1898 001c 3A4B     		ldr	r3, .L100+4
 1899 001e 9200     		lsl	r2, r2, #2
 1900 0020 D358     		ldr	r3, [r2, r3]
 1901 0022 3B61     		str	r3, [r7, #16]
1374:.\Generated_Source\PSoC4/CapSense.c **** 
1375:.\Generated_Source\PSoC4/CapSense.c ****     #if ((CapSense_TUNING_METHOD == CapSense__TUNING_AUTO) &&\
1376:.\Generated_Source\PSoC4/CapSense.c ****          (0 != CapSense_IS_OVERSAMPLING_EN))
1377:.\Generated_Source\PSoC4/CapSense.c ****         oversamplingFactor = CapSense_GetBitValue(CapSense_scanSpeedTbl, sensor);
1378:.\Generated_Source\PSoC4/CapSense.c **** 
1379:.\Generated_Source\PSoC4/CapSense.c ****         if(counterResolution < CapSense_RESOLUTION_16_BITS)
1380:.\Generated_Source\PSoC4/CapSense.c ****         {
1381:.\Generated_Source\PSoC4/CapSense.c ****             counterResolution <<= oversamplingFactor;
1382:.\Generated_Source\PSoC4/CapSense.c ****             counterResolution |= (uint32)(CapSense_RESOLUTION_8_BITS);
1383:.\Generated_Source\PSoC4/CapSense.c ****         }
1384:.\Generated_Source\PSoC4/CapSense.c ****     #endif /* ((CapSense_TUNING_METHOD == CapSense__TUNING_AUTO) &&\
1385:.\Generated_Source\PSoC4/CapSense.c ****                (0 != CapSense_IS_OVERSAMPLING_EN)) */
1386:.\Generated_Source\PSoC4/CapSense.c **** 
1387:.\Generated_Source\PSoC4/CapSense.c ****     #if (0u != CapSense_IS_M0S8PERI_BLOCK)
1388:.\Generated_Source\PSoC4/CapSense.c ****         CapSense_SenseClk_Stop();
ARM GAS  C:\Users\lovelesh\AppData\Local\Temp\ccK8zTJk.s 			page 59


1389:.\Generated_Source\PSoC4/CapSense.c ****         CapSense_SampleClk_Stop();
1390:.\Generated_Source\PSoC4/CapSense.c ****     #endif /* (0u != CapSense_IS_M0S8PERI_BLOCK) */
1391:.\Generated_Source\PSoC4/CapSense.c **** 
1392:.\Generated_Source\PSoC4/CapSense.c ****     #if (0u != CapSense_MULTIPLE_FREQUENCY_SET)
1393:.\Generated_Source\PSoC4/CapSense.c ****         CapSense_SampleClk_SetDividerValue((uint16)CapSense_sampleClkDividerVal[sensor]);
 1902              		.loc 1 1393 0
 1903 0024 394A     		ldr	r2, .L100+8
 1904 0026 7B68     		ldr	r3, [r7, #4]
 1905 0028 D318     		add	r3, r2, r3
 1906 002a 1B78     		ldrb	r3, [r3]
 1907 002c 9BB2     		uxth	r3, r3
 1908 002e 013B     		sub	r3, r3, #1
 1909 0030 9BB2     		uxth	r3, r3
 1910 0032 181C     		mov	r0, r3
 1911 0034 0021     		mov	r1, #0
 1912 0036 FFF7FEFF 		bl	CapSense_SampleClk_SetFractionalDividerRegister
1394:.\Generated_Source\PSoC4/CapSense.c ****         CapSense_SenseClk_SetDividerValue((uint16)CapSense_senseClkDividerVal[sensor]);
 1913              		.loc 1 1394 0
 1914 003a 354A     		ldr	r2, .L100+12
 1915 003c 7B68     		ldr	r3, [r7, #4]
 1916 003e D318     		add	r3, r2, r3
 1917 0040 1B78     		ldrb	r3, [r3]
 1918 0042 9BB2     		uxth	r3, r3
 1919 0044 013B     		sub	r3, r3, #1
 1920 0046 9BB2     		uxth	r3, r3
 1921 0048 181C     		mov	r0, r3
 1922 004a 0021     		mov	r1, #0
 1923 004c FFF7FEFF 		bl	CapSense_SenseClk_SetFractionalDividerRegister
1395:.\Generated_Source\PSoC4/CapSense.c ****     #else
1396:.\Generated_Source\PSoC4/CapSense.c ****         CapSense_SampleClk_SetDividerValue((uint16)CapSense_sampleClkDividerVal);
1397:.\Generated_Source\PSoC4/CapSense.c ****         CapSense_SenseClk_SetDividerValue((uint16)CapSense_senseClkDividerVal);
1398:.\Generated_Source\PSoC4/CapSense.c ****     #endif /* (0u != CapSense_MULTIPLE_FREQUENCY_SET) */
1399:.\Generated_Source\PSoC4/CapSense.c **** 
1400:.\Generated_Source\PSoC4/CapSense.c ****     #if (0u != CapSense_IS_M0S8PERI_BLOCK)
1401:.\Generated_Source\PSoC4/CapSense.c ****         CapSense_SampleClk_Start();
1402:.\Generated_Source\PSoC4/CapSense.c ****         CapSense_SenseClk_StartEx(CapSense_SampleClk__DIV_ID);
1403:.\Generated_Source\PSoC4/CapSense.c **** 
1404:.\Generated_Source\PSoC4/CapSense.c ****         #if(CapSense_PRS_OPTIONS == CapSense__PRS_NONE)
1405:.\Generated_Source\PSoC4/CapSense.c ****             CyIntDisable(CapSense_ISR_NUMBER);
1406:.\Generated_Source\PSoC4/CapSense.c ****             CapSense_CSD_CNT_REG = CapSense_ONE_CYCLE;
1407:.\Generated_Source\PSoC4/CapSense.c ****             while(0u != (CapSense_CSD_CNT_REG & CapSense_RESOLUTION_16_BITS))
1408:.\Generated_Source\PSoC4/CapSense.c ****             {
1409:.\Generated_Source\PSoC4/CapSense.c ****             /* Wait until scanning is complete */
1410:.\Generated_Source\PSoC4/CapSense.c ****             }
1411:.\Generated_Source\PSoC4/CapSense.c ****             CapSense_CSD_INTR_REG = 1u;
1412:.\Generated_Source\PSoC4/CapSense.c ****             CyIntClearPending(CapSense_ISR_NUMBER);
1413:.\Generated_Source\PSoC4/CapSense.c ****             CyIntEnable(CapSense_ISR_NUMBER);
1414:.\Generated_Source\PSoC4/CapSense.c ****         #endif /* CapSense_PRS_OPTIONS == CapSense__PRS_NONE */
1415:.\Generated_Source\PSoC4/CapSense.c ****     #endif /* (0u != CapSense_IS_M0S8PERI_BLOCK) */
1416:.\Generated_Source\PSoC4/CapSense.c **** 
1417:.\Generated_Source\PSoC4/CapSense.c **** #if(CapSense_PRS_OPTIONS != CapSense__PRS_NONE)
1418:.\Generated_Source\PSoC4/CapSense.c **** 
1419:.\Generated_Source\PSoC4/CapSense.c ****     #if(CapSense_TUNING_METHOD == CapSense__TUNING_AUTO)
1420:.\Generated_Source\PSoC4/CapSense.c ****         if(CapSense_prescalersTuningDone != 0u)
 1924              		.loc 1 1420 0
 1925 0050 304B     		ldr	r3, .L100+16
 1926 0052 1B78     		ldrb	r3, [r3]
ARM GAS  C:\Users\lovelesh\AppData\Local\Temp\ccK8zTJk.s 			page 60


 1927 0054 002B     		cmp	r3, #0
 1928 0056 0FD0     		beq	.L99
1421:.\Generated_Source\PSoC4/CapSense.c ****         {
1422:.\Generated_Source\PSoC4/CapSense.c ****     #endif /* (CapSense_TUNING_METHOD == CapSense__TUNING_AUTO) */
1423:.\Generated_Source\PSoC4/CapSense.c **** 
1424:.\Generated_Source\PSoC4/CapSense.c ****             CyIntDisable(CapSense_ISR_NUMBER);
 1929              		.loc 1 1424 0
 1930 0058 0F20     		mov	r0, #15
 1931 005a FFF7FEFF 		bl	CyIntDisable
1425:.\Generated_Source\PSoC4/CapSense.c **** 
1426:.\Generated_Source\PSoC4/CapSense.c ****             newRegValue = CapSense_CSD_CFG_REG;
 1932              		.loc 1 1426 0
 1933 005e 2E4B     		ldr	r3, .L100+20
 1934 0060 1B68     		ldr	r3, [r3]
 1935 0062 FB60     		str	r3, [r7, #12]
1427:.\Generated_Source\PSoC4/CapSense.c ****             newRegValue |= CapSense_CSD_CFG_PRS_SELECT;
 1936              		.loc 1 1427 0
 1937 0064 FB68     		ldr	r3, [r7, #12]
 1938 0066 4022     		mov	r2, #64
 1939 0068 1343     		orr	r3, r2
 1940 006a FB60     		str	r3, [r7, #12]
1428:.\Generated_Source\PSoC4/CapSense.c **** 
1429:.\Generated_Source\PSoC4/CapSense.c ****             #if(CapSense_PRS_OPTIONS == CapSense__PRS_AUTO)
1430:.\Generated_Source\PSoC4/CapSense.c **** 
1431:.\Generated_Source\PSoC4/CapSense.c ****                 newRegValue &= ~(CapSense_PRS_MODE_MASK);
1432:.\Generated_Source\PSoC4/CapSense.c **** 
1433:.\Generated_Source\PSoC4/CapSense.c ****                 #if (0u != CapSense_MULTIPLE_FREQUENCY_SET)
1434:.\Generated_Source\PSoC4/CapSense.c ****                     senseClkDivMath = CapSense_senseClkDividerVal[sensor];
1435:.\Generated_Source\PSoC4/CapSense.c ****                     sampleClkDivMath = CapSense_sampleClkDividerVal[sensor];
1436:.\Generated_Source\PSoC4/CapSense.c ****                 #else
1437:.\Generated_Source\PSoC4/CapSense.c ****                     senseClkDivMath = CapSense_senseClkDividerVal;
1438:.\Generated_Source\PSoC4/CapSense.c ****                     sampleClkDivMath = CapSense_sampleClkDividerVal;
1439:.\Generated_Source\PSoC4/CapSense.c ****                 #endif /* ( CapSense_MULTIPLE_FREQUENCY_SET) */
1440:.\Generated_Source\PSoC4/CapSense.c **** 
1441:.\Generated_Source\PSoC4/CapSense.c ****                 #if(0u == CapSense_IS_M0S8PERI_BLOCK)
1442:.\Generated_Source\PSoC4/CapSense.c ****                     senseClkDivMath *= sampleClkDivMath;
1443:.\Generated_Source\PSoC4/CapSense.c ****                 #endif /* (0u == CapSense_IS_M0S8PERI_BLOCK) */
1444:.\Generated_Source\PSoC4/CapSense.c **** 
1445:.\Generated_Source\PSoC4/CapSense.c ****                 if((senseClkDivMath * CapSense_RESOLUTION_12_BITS) <
1446:.\Generated_Source\PSoC4/CapSense.c ****                    (sampleClkDivMath * CapSense_widgetResolution[widget]))
1447:.\Generated_Source\PSoC4/CapSense.c ****                 {
1448:.\Generated_Source\PSoC4/CapSense.c ****                     newRegValue |= CapSense_CSD_PRS_12_BIT;
1449:.\Generated_Source\PSoC4/CapSense.c ****                 }
1450:.\Generated_Source\PSoC4/CapSense.c ****             #endif /* (CapSense_PRS_OPTIONS == CapSense__PRS_AUTO) */
1451:.\Generated_Source\PSoC4/CapSense.c **** 
1452:.\Generated_Source\PSoC4/CapSense.c ****             CapSense_CSD_CFG_REG = newRegValue;
 1941              		.loc 1 1452 0
 1942 006c 2A4B     		ldr	r3, .L100+20
 1943 006e FA68     		ldr	r2, [r7, #12]
 1944 0070 1A60     		str	r2, [r3]
1453:.\Generated_Source\PSoC4/CapSense.c **** 
1454:.\Generated_Source\PSoC4/CapSense.c ****             CyIntEnable(CapSense_ISR_NUMBER);
 1945              		.loc 1 1454 0
 1946 0072 0F20     		mov	r0, #15
 1947 0074 FFF7FEFF 		bl	CyIntEnable
 1948              	.L99:
1455:.\Generated_Source\PSoC4/CapSense.c **** 
ARM GAS  C:\Users\lovelesh\AppData\Local\Temp\ccK8zTJk.s 			page 61


1456:.\Generated_Source\PSoC4/CapSense.c ****     #if(CapSense_TUNING_METHOD == CapSense__TUNING_AUTO)
1457:.\Generated_Source\PSoC4/CapSense.c ****         }
1458:.\Generated_Source\PSoC4/CapSense.c ****     #endif /* (CapSense_PRS_OPTIONS != CapSense__PRS_NONE) */
1459:.\Generated_Source\PSoC4/CapSense.c **** 
1460:.\Generated_Source\PSoC4/CapSense.c **** #endif /* (CapSense_PRS_OPTIONS == CapSense__PRS_NONE) */
1461:.\Generated_Source\PSoC4/CapSense.c **** 
1462:.\Generated_Source\PSoC4/CapSense.c ****     /* Set Idac Value */
1463:.\Generated_Source\PSoC4/CapSense.c ****     CyIntDisable(CapSense_ISR_NUMBER);
 1949              		.loc 1 1463 0
 1950 0078 0F20     		mov	r0, #15
 1951 007a FFF7FEFF 		bl	CyIntDisable
1464:.\Generated_Source\PSoC4/CapSense.c ****     newRegValue = CapSense_CSD_IDAC_REG;
 1952              		.loc 1 1464 0
 1953 007e 274B     		ldr	r3, .L100+24
 1954 0080 1B68     		ldr	r3, [r3]
 1955 0082 FB60     		str	r3, [r7, #12]
1465:.\Generated_Source\PSoC4/CapSense.c **** 
1466:.\Generated_Source\PSoC4/CapSense.c **** #if (CapSense_IDAC_CNT == 1u)
1467:.\Generated_Source\PSoC4/CapSense.c ****     newRegValue &= ~(CapSense_CSD_IDAC1_DATA_MASK);
1468:.\Generated_Source\PSoC4/CapSense.c ****     newRegValue |= CapSense_modulationIDAC[sensor];
1469:.\Generated_Source\PSoC4/CapSense.c **** #else
1470:.\Generated_Source\PSoC4/CapSense.c ****     newRegValue &= ~(CapSense_CSD_IDAC1_DATA_MASK | CapSense_CSD_IDAC2_DATA_MASK);
 1956              		.loc 1 1470 0
 1957 0084 FB68     		ldr	r3, [r7, #12]
 1958 0086 264A     		ldr	r2, .L100+28
 1959 0088 1340     		and	r3, r2
 1960 008a FB60     		str	r3, [r7, #12]
1471:.\Generated_Source\PSoC4/CapSense.c ****     newRegValue |= (CapSense_modulationIDAC[sensor] |
 1961              		.loc 1 1471 0
 1962 008c 254A     		ldr	r2, .L100+32
 1963 008e 7B68     		ldr	r3, [r7, #4]
 1964 0090 D318     		add	r3, r2, r3
 1965 0092 1B78     		ldrb	r3, [r3]
 1966 0094 191C     		mov	r1, r3
1472:.\Generated_Source\PSoC4/CapSense.c ****                             (uint32)((uint32)CapSense_compensationIDAC[sensor] <<
 1967              		.loc 1 1472 0
 1968 0096 244A     		ldr	r2, .L100+36
 1969 0098 7B68     		ldr	r3, [r7, #4]
 1970 009a D318     		add	r3, r2, r3
 1971 009c 1B78     		ldrb	r3, [r3]
 1972 009e 1B04     		lsl	r3, r3, #16
1471:.\Generated_Source\PSoC4/CapSense.c ****     newRegValue |= (CapSense_modulationIDAC[sensor] |
 1973              		.loc 1 1471 0
 1974 00a0 0B43     		orr	r3, r1
 1975 00a2 FA68     		ldr	r2, [r7, #12]
 1976 00a4 1343     		orr	r3, r2
 1977 00a6 FB60     		str	r3, [r7, #12]
1473:.\Generated_Source\PSoC4/CapSense.c ****                             CapSense_CSD_IDAC2_DATA_OFFSET));
1474:.\Generated_Source\PSoC4/CapSense.c **** #endif /* (CapSense_IDAC_CNT == 1u) */
1475:.\Generated_Source\PSoC4/CapSense.c **** 
1476:.\Generated_Source\PSoC4/CapSense.c ****     CapSense_CSD_IDAC_REG = newRegValue;
 1978              		.loc 1 1476 0
 1979 00a8 1C4B     		ldr	r3, .L100+24
 1980 00aa FA68     		ldr	r2, [r7, #12]
 1981 00ac 1A60     		str	r2, [r3]
1477:.\Generated_Source\PSoC4/CapSense.c **** 
1478:.\Generated_Source\PSoC4/CapSense.c **** #if(CapSense_CMOD_PREGARGE_OPTION == CapSense__CAPPRIOBUF)
ARM GAS  C:\Users\lovelesh\AppData\Local\Temp\ccK8zTJk.s 			page 62


1479:.\Generated_Source\PSoC4/CapSense.c ****     newRegValue = CapSense_CMOD_CONNECTION_REG;
1480:.\Generated_Source\PSoC4/CapSense.c ****     newRegValue &= ~(CapSense_CSD_CMOD_CONNECTION_MASK);
1481:.\Generated_Source\PSoC4/CapSense.c ****     newRegValue |= CapSense_CSD_CMOD_TO_AMUXBUS_A;
1482:.\Generated_Source\PSoC4/CapSense.c ****     CapSense_CMOD_CONNECTION_REG = newRegValue;
1483:.\Generated_Source\PSoC4/CapSense.c **** 
1484:.\Generated_Source\PSoC4/CapSense.c ****     newRegValue = CapSense_CMOD_PORT_PC_REG;
1485:.\Generated_Source\PSoC4/CapSense.c ****     newRegValue &= ~(CapSense_CSD_CMOD_PC_MASK);
1486:.\Generated_Source\PSoC4/CapSense.c ****     newRegValue |= CapSense_CMOD_PC_HIGH_Z_MODE;
1487:.\Generated_Source\PSoC4/CapSense.c ****     CapSense_CMOD_PORT_PC_REG = newRegValue;
1488:.\Generated_Source\PSoC4/CapSense.c **** #endif /* (CapSense_CMOD_PREGARGE_OPTION == CapSense__CAPPRIOBUF) */
1489:.\Generated_Source\PSoC4/CapSense.c **** 
1490:.\Generated_Source\PSoC4/CapSense.c ****     /* Disconnect Vref Buffer from AMUX */
1491:.\Generated_Source\PSoC4/CapSense.c ****     newRegValue = CapSense_CSD_CFG_REG;
 1982              		.loc 1 1491 0
 1983 00ae 1A4B     		ldr	r3, .L100+20
 1984 00b0 1B68     		ldr	r3, [r3]
 1985 00b2 FB60     		str	r3, [r7, #12]
1492:.\Generated_Source\PSoC4/CapSense.c ****     newRegValue &= ~(CapSense_PRECHARGE_CONFIG_MASK);
 1986              		.loc 1 1492 0
 1987 00b4 FB68     		ldr	r3, [r7, #12]
 1988 00b6 1D4A     		ldr	r2, .L100+40
 1989 00b8 1340     		and	r3, r2
 1990 00ba FB60     		str	r3, [r7, #12]
1493:.\Generated_Source\PSoC4/CapSense.c ****     newRegValue |= CapSense_CTANK_PRECHARGE_CONFIG;
 1991              		.loc 1 1493 0
 1992 00bc FB68     		ldr	r3, [r7, #12]
 1993 00be 1C4A     		ldr	r2, .L100+44
 1994 00c0 1343     		orr	r3, r2
 1995 00c2 FB60     		str	r3, [r7, #12]
1494:.\Generated_Source\PSoC4/CapSense.c **** 
1495:.\Generated_Source\PSoC4/CapSense.c ****     CyIntEnable(CapSense_ISR_NUMBER);
 1996              		.loc 1 1495 0
 1997 00c4 0F20     		mov	r0, #15
 1998 00c6 FFF7FEFF 		bl	CyIntEnable
1496:.\Generated_Source\PSoC4/CapSense.c **** 
1497:.\Generated_Source\PSoC4/CapSense.c ****     /* Enable Sensor */
1498:.\Generated_Source\PSoC4/CapSense.c ****     CapSense_EnableScanSlot(sensor);
 1999              		.loc 1 1498 0
 2000 00ca 7B68     		ldr	r3, [r7, #4]
 2001 00cc 181C     		mov	r0, r3
 2002 00ce FFF7FEFF 		bl	CapSense_EnableScanSlot
1499:.\Generated_Source\PSoC4/CapSense.c **** 
1500:.\Generated_Source\PSoC4/CapSense.c ****     interruptState = CyEnterCriticalSection();
 2003              		.loc 1 1500 0
 2004 00d2 0B23     		mov	r3, #11
 2005 00d4 FC18     		add	r4, r7, r3
 2006 00d6 FFF7FEFF 		bl	CyEnterCriticalSection
 2007 00da 031C     		mov	r3, r0
 2008 00dc 2370     		strb	r3, [r4]
1501:.\Generated_Source\PSoC4/CapSense.c ****     CapSense_CSD_CFG_REG = newRegValue;
 2009              		.loc 1 1501 0
 2010 00de 0E4B     		ldr	r3, .L100+20
 2011 00e0 FA68     		ldr	r2, [r7, #12]
 2012 00e2 1A60     		str	r2, [r3]
1502:.\Generated_Source\PSoC4/CapSense.c **** 
1503:.\Generated_Source\PSoC4/CapSense.c ****     /* `#START CapSense_PreSettlingDelay_Debug` */
1504:.\Generated_Source\PSoC4/CapSense.c **** 
ARM GAS  C:\Users\lovelesh\AppData\Local\Temp\ccK8zTJk.s 			page 63


1505:.\Generated_Source\PSoC4/CapSense.c ****     /* `#END` */
1506:.\Generated_Source\PSoC4/CapSense.c **** 
1507:.\Generated_Source\PSoC4/CapSense.c **** #ifdef CapSense_PRE_SCAN_PRE_SETTLING_DELAY_DEBUG_CALLBACK
1508:.\Generated_Source\PSoC4/CapSense.c ****     CapSense_PreScan_Pre_SettlingDelay_Debug_Callback();
1509:.\Generated_Source\PSoC4/CapSense.c **** #endif /* CapSense_PRE_SCAN_PRE_SETTLING_DELAY_DEBUG_CALLBACK */
1510:.\Generated_Source\PSoC4/CapSense.c **** 
1511:.\Generated_Source\PSoC4/CapSense.c ****     CyDelayCycles(CapSense_GLITCH_ELIMINATION_CYCLES);
 2013              		.loc 1 1511 0
 2014 00e4 0020     		mov	r0, #0
 2015 00e6 FFF7FEFF 		bl	CyDelayCycles
1512:.\Generated_Source\PSoC4/CapSense.c **** 
1513:.\Generated_Source\PSoC4/CapSense.c ****     /* `#START CapSense_PreScan_Debug` */
1514:.\Generated_Source\PSoC4/CapSense.c **** 
1515:.\Generated_Source\PSoC4/CapSense.c ****     /* `#END` */
1516:.\Generated_Source\PSoC4/CapSense.c **** 
1517:.\Generated_Source\PSoC4/CapSense.c **** #ifdef CapSense_PRE_SCAN_DEBUG_CALLBACK
1518:.\Generated_Source\PSoC4/CapSense.c ****     CapSense_PreScan_Debug_Callback();
1519:.\Generated_Source\PSoC4/CapSense.c **** #endif /* CapSense_PRE_SCAN_DEBUG_CALLBACK */
1520:.\Generated_Source\PSoC4/CapSense.c **** 
1521:.\Generated_Source\PSoC4/CapSense.c ****     CapSense_CSD_CNT_REG = counterResolution;
 2016              		.loc 1 1521 0
 2017 00ea 124B     		ldr	r3, .L100+48
 2018 00ec 3A69     		ldr	r2, [r7, #16]
 2019 00ee 1A60     		str	r2, [r3]
1522:.\Generated_Source\PSoC4/CapSense.c ****     CyExitCriticalSection(interruptState);
 2020              		.loc 1 1522 0
 2021 00f0 0B23     		mov	r3, #11
 2022 00f2 FB18     		add	r3, r7, r3
 2023 00f4 1B78     		ldrb	r3, [r3]
 2024 00f6 181C     		mov	r0, r3
 2025 00f8 FFF7FEFF 		bl	CyExitCriticalSection
1523:.\Generated_Source\PSoC4/CapSense.c **** }
 2026              		.loc 1 1523 0
 2027 00fc BD46     		mov	sp, r7
 2028 00fe 07B0     		add	sp, sp, #28
 2029              		@ sp needed
 2030 0100 90BD     		pop	{r4, r7, pc}
 2031              	.L101:
 2032 0102 C046     		.align	2
 2033              	.L100:
 2034 0104 00000000 		.word	CapSense_widgetNumber
 2035 0108 00000000 		.word	CapSense_widgetResolution
 2036 010c 00000000 		.word	CapSense_sampleClkDividerVal
 2037 0110 00000000 		.word	CapSense_senseClkDividerVal
 2038 0114 00000000 		.word	CapSense_prescalersTuningDone
 2039 0118 04000840 		.word	1074266116
 2040 011c 08000840 		.word	1074266120
 2041 0120 00FF80FF 		.word	-8323328
 2042 0124 00000000 		.word	CapSense_modulationIDAC
 2043 0128 00000000 		.word	CapSense_compensationIDAC
 2044 012c FF1FDFFF 		.word	-2154497
 2045 0130 20002000 		.word	2097184
 2046 0134 0C000840 		.word	1074266124
 2047              		.cfi_endproc
 2048              	.LFE56:
 2049              		.size	CapSense_PreScan, .-CapSense_PreScan
 2050              		.section	.text.CapSense_PostScan,"ax",%progbits
ARM GAS  C:\Users\lovelesh\AppData\Local\Temp\ccK8zTJk.s 			page 64


 2051              		.align	2
 2052              		.global	CapSense_PostScan
 2053              		.code	16
 2054              		.thumb_func
 2055              		.type	CapSense_PostScan, %function
 2056              	CapSense_PostScan:
 2057              	.LFB57:
1524:.\Generated_Source\PSoC4/CapSense.c **** 
1525:.\Generated_Source\PSoC4/CapSense.c **** 
1526:.\Generated_Source\PSoC4/CapSense.c **** /*******************************************************************************
1527:.\Generated_Source\PSoC4/CapSense.c **** * Function Name: CapSense_PostScan
1528:.\Generated_Source\PSoC4/CapSense.c **** ********************************************************************************
1529:.\Generated_Source\PSoC4/CapSense.c **** *
1530:.\Generated_Source\PSoC4/CapSense.c **** * Summary:
1531:.\Generated_Source\PSoC4/CapSense.c **** *  Stores the results of measurement in the CapSense_sensorRaw[] array,
1532:.\Generated_Source\PSoC4/CapSense.c **** *  sets the scanning sensor in the non-sampling state, turns off Idac(Current Source IDAC),
1533:.\Generated_Source\PSoC4/CapSense.c **** *  disconnects the IDAC(Sink mode), and applies Vref on AMUX.
1534:.\Generated_Source\PSoC4/CapSense.c **** *
1535:.\Generated_Source\PSoC4/CapSense.c **** * Parameters:
1536:.\Generated_Source\PSoC4/CapSense.c **** *  sensor:  Sensor number.
1537:.\Generated_Source\PSoC4/CapSense.c **** *
1538:.\Generated_Source\PSoC4/CapSense.c **** * Return:
1539:.\Generated_Source\PSoC4/CapSense.c **** *  None
1540:.\Generated_Source\PSoC4/CapSense.c **** *
1541:.\Generated_Source\PSoC4/CapSense.c **** * Global Variables:
1542:.\Generated_Source\PSoC4/CapSense.c **** *  CapSense_sensorRaw[] - used to store sensors raw data.
1543:.\Generated_Source\PSoC4/CapSense.c **** *
1544:.\Generated_Source\PSoC4/CapSense.c **** * Side Effects:
1545:.\Generated_Source\PSoC4/CapSense.c **** *  None
1546:.\Generated_Source\PSoC4/CapSense.c **** *
1547:.\Generated_Source\PSoC4/CapSense.c **** *******************************************************************************/
1548:.\Generated_Source\PSoC4/CapSense.c **** void CapSense_PostScan(uint32 sensor)
1549:.\Generated_Source\PSoC4/CapSense.c **** {
 2058              		.loc 1 1549 0
 2059              		.cfi_startproc
 2060 0000 80B5     		push	{r7, lr}
 2061              		.cfi_def_cfa_offset 8
 2062              		.cfi_offset 7, -8
 2063              		.cfi_offset 14, -4
 2064 0002 84B0     		sub	sp, sp, #16
 2065              		.cfi_def_cfa_offset 24
 2066 0004 00AF     		add	r7, sp, #0
 2067              		.cfi_def_cfa_register 7
 2068 0006 7860     		str	r0, [r7, #4]
1550:.\Generated_Source\PSoC4/CapSense.c ****     uint32 newRegValue;
1551:.\Generated_Source\PSoC4/CapSense.c **** #if ((CapSense_TUNING_METHOD == CapSense__TUNING_AUTO) &&\
1552:.\Generated_Source\PSoC4/CapSense.c ****      (0 != CapSense_IS_OVERSAMPLING_EN))
1553:.\Generated_Source\PSoC4/CapSense.c ****     uint32 oversamplingFactor;
1554:.\Generated_Source\PSoC4/CapSense.c ****     uint32 widget;
1555:.\Generated_Source\PSoC4/CapSense.c **** #endif /* ((CapSense_TUNING_METHOD == CapSense__TUNING_AUTO) &&\
1556:.\Generated_Source\PSoC4/CapSense.c ****            (0 != CapSense_IS_OVERSAMPLING_EN)) */
1557:.\Generated_Source\PSoC4/CapSense.c **** 
1558:.\Generated_Source\PSoC4/CapSense.c ****     /* `#START CapSense_PostScan_Debug` */
1559:.\Generated_Source\PSoC4/CapSense.c **** 
1560:.\Generated_Source\PSoC4/CapSense.c ****     /* `#END` */
1561:.\Generated_Source\PSoC4/CapSense.c **** 
1562:.\Generated_Source\PSoC4/CapSense.c **** #ifdef CapSense_POST_SCAN_DEBUG_CALLBACK
ARM GAS  C:\Users\lovelesh\AppData\Local\Temp\ccK8zTJk.s 			page 65


1563:.\Generated_Source\PSoC4/CapSense.c ****     CapSense_PostScan_Debug_Callback();
1564:.\Generated_Source\PSoC4/CapSense.c **** #endif /* CapSense_POST_SCAN_DEBUG_Callback */
1565:.\Generated_Source\PSoC4/CapSense.c **** 
1566:.\Generated_Source\PSoC4/CapSense.c ****     /* Read SlotResult from Raw Counter */
1567:.\Generated_Source\PSoC4/CapSense.c ****     CapSense_sensorRaw[sensor]  = (uint16)CapSense_CSD_CNT_REG;
 2069              		.loc 1 1567 0
 2070 0008 144B     		ldr	r3, .L103
 2071 000a 1B68     		ldr	r3, [r3]
 2072 000c 99B2     		uxth	r1, r3
 2073 000e 144B     		ldr	r3, .L103+4
 2074 0010 7A68     		ldr	r2, [r7, #4]
 2075 0012 5200     		lsl	r2, r2, #1
 2076 0014 D152     		strh	r1, [r2, r3]
1568:.\Generated_Source\PSoC4/CapSense.c **** 
1569:.\Generated_Source\PSoC4/CapSense.c **** #if ((CapSense_TUNING_METHOD == CapSense__TUNING_AUTO) &&\
1570:.\Generated_Source\PSoC4/CapSense.c ****      (0 != CapSense_IS_OVERSAMPLING_EN))
1571:.\Generated_Source\PSoC4/CapSense.c ****     widget = CapSense_widgetNumber[sensor];
1572:.\Generated_Source\PSoC4/CapSense.c ****     if(CapSense_widgetResolution[widget] < CapSense_RESOLUTION_16_BITS)
1573:.\Generated_Source\PSoC4/CapSense.c ****     {
1574:.\Generated_Source\PSoC4/CapSense.c ****         oversamplingFactor = CapSense_GetBitValue(CapSense_scanSpeedTbl, sensor);
1575:.\Generated_Source\PSoC4/CapSense.c ****         CapSense_sensorRaw[sensor] >>= oversamplingFactor;
1576:.\Generated_Source\PSoC4/CapSense.c ****     }
1577:.\Generated_Source\PSoC4/CapSense.c **** #endif /* ((CapSense_TUNING_METHOD == CapSense__TUNING_AUTO) &&\
1578:.\Generated_Source\PSoC4/CapSense.c ****            (0 != CapSense_IS_OVERSAMPLING_EN)) */
1579:.\Generated_Source\PSoC4/CapSense.c **** 
1580:.\Generated_Source\PSoC4/CapSense.c ****     /* Disable Sensor */
1581:.\Generated_Source\PSoC4/CapSense.c ****     CapSense_DisableScanSlot(sensor);
 2077              		.loc 1 1581 0
 2078 0016 7B68     		ldr	r3, [r7, #4]
 2079 0018 181C     		mov	r0, r3
 2080 001a FFF7FEFF 		bl	CapSense_DisableScanSlot
1582:.\Generated_Source\PSoC4/CapSense.c **** 
1583:.\Generated_Source\PSoC4/CapSense.c ****     CyIntDisable(CapSense_ISR_NUMBER);
 2081              		.loc 1 1583 0
 2082 001e 0F20     		mov	r0, #15
 2083 0020 FFF7FEFF 		bl	CyIntDisable
1584:.\Generated_Source\PSoC4/CapSense.c **** 
1585:.\Generated_Source\PSoC4/CapSense.c **** #if(CapSense_CMOD_PREGARGE_OPTION == CapSense__CAPPRIOBUF)
1586:.\Generated_Source\PSoC4/CapSense.c ****     newRegValue = CapSense_CMOD_CONNECTION_REG;
1587:.\Generated_Source\PSoC4/CapSense.c ****     newRegValue &= ~(CapSense_CSD_CMOD_CONNECTION_MASK);
1588:.\Generated_Source\PSoC4/CapSense.c ****     newRegValue |= CapSense_CSD_CMOD_TO_AMUXBUS_B;
1589:.\Generated_Source\PSoC4/CapSense.c ****     CapSense_CMOD_CONNECTION_REG = newRegValue;
1590:.\Generated_Source\PSoC4/CapSense.c **** 
1591:.\Generated_Source\PSoC4/CapSense.c ****     newRegValue = CapSense_CMOD_PORT_PC_REG;
1592:.\Generated_Source\PSoC4/CapSense.c ****     newRegValue &= ~(CapSense_CSD_CMOD_PC_MASK);
1593:.\Generated_Source\PSoC4/CapSense.c ****     newRegValue |= CapSense_CMOD_PC_STRONG_MODE;
1594:.\Generated_Source\PSoC4/CapSense.c ****     CapSense_CMOD_PORT_PC_REG = newRegValue;
1595:.\Generated_Source\PSoC4/CapSense.c **** 
1596:.\Generated_Source\PSoC4/CapSense.c ****     newRegValue = CapSense_CMOD_PORT_DR_REG;
1597:.\Generated_Source\PSoC4/CapSense.c ****     newRegValue &= ~(CapSense_CMOD_DR_MASK);
1598:.\Generated_Source\PSoC4/CapSense.c ****     newRegValue |= CapSense_CMOD_DR_CONFIG;
1599:.\Generated_Source\PSoC4/CapSense.c ****     CapSense_CMOD_PORT_DR_REG = newRegValue;
1600:.\Generated_Source\PSoC4/CapSense.c **** #endif /* (CapSense_CMOD_PREGARGE_OPTION == CapSense__CAPPRIOBUF) */
1601:.\Generated_Source\PSoC4/CapSense.c **** 
1602:.\Generated_Source\PSoC4/CapSense.c ****     /* Connect Vref Buffer to AMUX bus  */
1603:.\Generated_Source\PSoC4/CapSense.c ****     newRegValue = CapSense_CSD_CFG_REG;
 2084              		.loc 1 1603 0
ARM GAS  C:\Users\lovelesh\AppData\Local\Temp\ccK8zTJk.s 			page 66


 2085 0024 0F4B     		ldr	r3, .L103+8
 2086 0026 1B68     		ldr	r3, [r3]
 2087 0028 FB60     		str	r3, [r7, #12]
1604:.\Generated_Source\PSoC4/CapSense.c ****     newRegValue &= ~(CapSense_PRECHARGE_CONFIG_MASK);
 2088              		.loc 1 1604 0
 2089 002a FB68     		ldr	r3, [r7, #12]
 2090 002c 0E4A     		ldr	r2, .L103+12
 2091 002e 1340     		and	r3, r2
 2092 0030 FB60     		str	r3, [r7, #12]
1605:.\Generated_Source\PSoC4/CapSense.c ****     newRegValue |= CapSense_CMOD_PRECHARGE_CONFIG;
 2093              		.loc 1 1605 0
 2094 0032 FB68     		ldr	r3, [r7, #12]
 2095 0034 A022     		mov	r2, #160
 2096 0036 1202     		lsl	r2, r2, #8
 2097 0038 1343     		orr	r3, r2
 2098 003a FB60     		str	r3, [r7, #12]
1606:.\Generated_Source\PSoC4/CapSense.c ****     CapSense_CSD_CFG_REG = newRegValue;
 2099              		.loc 1 1606 0
 2100 003c 094B     		ldr	r3, .L103+8
 2101 003e FA68     		ldr	r2, [r7, #12]
 2102 0040 1A60     		str	r2, [r3]
1607:.\Generated_Source\PSoC4/CapSense.c **** 
1608:.\Generated_Source\PSoC4/CapSense.c ****     /* Set Idac Value = 0 */
1609:.\Generated_Source\PSoC4/CapSense.c **** #if (CapSense_IDAC_CNT == 1u)
1610:.\Generated_Source\PSoC4/CapSense.c ****     CapSense_CSD_IDAC_REG &= ~(CapSense_CSD_IDAC1_DATA_MASK);
1611:.\Generated_Source\PSoC4/CapSense.c **** #else
1612:.\Generated_Source\PSoC4/CapSense.c ****     CapSense_CSD_IDAC_REG &= ~(CapSense_CSD_IDAC1_DATA_MASK | CapSense_CSD_IDAC2_DATA_MASK);
 2103              		.loc 1 1612 0
 2104 0042 0A4B     		ldr	r3, .L103+16
 2105 0044 094A     		ldr	r2, .L103+16
 2106 0046 1268     		ldr	r2, [r2]
 2107 0048 0949     		ldr	r1, .L103+20
 2108 004a 0A40     		and	r2, r1
 2109 004c 1A60     		str	r2, [r3]
1613:.\Generated_Source\PSoC4/CapSense.c **** #endif /* (CapSense_IDAC_CNT == 1u) */
1614:.\Generated_Source\PSoC4/CapSense.c **** 
1615:.\Generated_Source\PSoC4/CapSense.c ****     CyIntEnable(CapSense_ISR_NUMBER);
 2110              		.loc 1 1615 0
 2111 004e 0F20     		mov	r0, #15
 2112 0050 FFF7FEFF 		bl	CyIntEnable
1616:.\Generated_Source\PSoC4/CapSense.c **** }
 2113              		.loc 1 1616 0
 2114 0054 BD46     		mov	sp, r7
 2115 0056 04B0     		add	sp, sp, #16
 2116              		@ sp needed
 2117 0058 80BD     		pop	{r7, pc}
 2118              	.L104:
 2119 005a C046     		.align	2
 2120              	.L103:
 2121 005c 0C000840 		.word	1074266124
 2122 0060 00000000 		.word	CapSense_sensorRaw
 2123 0064 04000840 		.word	1074266116
 2124 0068 FF1FDFFF 		.word	-2154497
 2125 006c 08000840 		.word	1074266120
 2126 0070 00FF80FF 		.word	-8323328
 2127              		.cfi_endproc
 2128              	.LFE57:
ARM GAS  C:\Users\lovelesh\AppData\Local\Temp\ccK8zTJk.s 			page 67


 2129              		.size	CapSense_PostScan, .-CapSense_PostScan
 2130              		.section	.text.CapSense_EnableShieldElectrode,"ax",%progbits
 2131              		.align	2
 2132              		.global	CapSense_EnableShieldElectrode
 2133              		.code	16
 2134              		.thumb_func
 2135              		.type	CapSense_EnableShieldElectrode, %function
 2136              	CapSense_EnableShieldElectrode:
 2137              	.LFB58:
1617:.\Generated_Source\PSoC4/CapSense.c **** 
1618:.\Generated_Source\PSoC4/CapSense.c **** 
1619:.\Generated_Source\PSoC4/CapSense.c **** /*******************************************************************************
1620:.\Generated_Source\PSoC4/CapSense.c **** * Function Name: CapSense_EnableShieldElectrode
1621:.\Generated_Source\PSoC4/CapSense.c **** ********************************************************************************
1622:.\Generated_Source\PSoC4/CapSense.c **** *
1623:.\Generated_Source\PSoC4/CapSense.c **** * Summary:
1624:.\Generated_Source\PSoC4/CapSense.c **** *  This API enables or disables the shield electrode on a specified port pin.
1625:.\Generated_Source\PSoC4/CapSense.c **** *
1626:.\Generated_Source\PSoC4/CapSense.c **** * Parameters:
1627:.\Generated_Source\PSoC4/CapSense.c **** *  portNumber: contains the shield electrode port number (0, 1, 2).
1628:.\Generated_Source\PSoC4/CapSense.c **** *  pinNumber: contains the shield electrode pin number (0, 1, 2, ... , 7).
1629:.\Generated_Source\PSoC4/CapSense.c **** *
1630:.\Generated_Source\PSoC4/CapSense.c **** * Return:
1631:.\Generated_Source\PSoC4/CapSense.c **** *  None
1632:.\Generated_Source\PSoC4/CapSense.c **** *
1633:.\Generated_Source\PSoC4/CapSense.c **** * Global Variables:
1634:.\Generated_Source\PSoC4/CapSense.c **** *  CapSense_prtCfgTbl[] - Contains pointers to the port config registers for each port.
1635:.\Generated_Source\PSoC4/CapSense.c **** *  CapSense_prtSelTbl[] - Contains pointers to the HSIOM registers for each port.
1636:.\Generated_Source\PSoC4/CapSense.c **** *
1637:.\Generated_Source\PSoC4/CapSense.c **** * Side Effects:
1638:.\Generated_Source\PSoC4/CapSense.c **** *  None
1639:.\Generated_Source\PSoC4/CapSense.c **** *
1640:.\Generated_Source\PSoC4/CapSense.c **** *******************************************************************************/
1641:.\Generated_Source\PSoC4/CapSense.c **** void CapSense_EnableShieldElectrode(uint32 pinNumber, uint32 portNumber)
1642:.\Generated_Source\PSoC4/CapSense.c **** {
 2138              		.loc 1 1642 0
 2139              		.cfi_startproc
 2140 0000 80B5     		push	{r7, lr}
 2141              		.cfi_def_cfa_offset 8
 2142              		.cfi_offset 7, -8
 2143              		.cfi_offset 14, -4
 2144 0002 84B0     		sub	sp, sp, #16
 2145              		.cfi_def_cfa_offset 24
 2146 0004 00AF     		add	r7, sp, #0
 2147              		.cfi_def_cfa_register 7
 2148 0006 7860     		str	r0, [r7, #4]
 2149 0008 3960     		str	r1, [r7]
1643:.\Generated_Source\PSoC4/CapSense.c ****     uint32 newRegValue;
1644:.\Generated_Source\PSoC4/CapSense.c **** 
1645:.\Generated_Source\PSoC4/CapSense.c ****     *CapSense_prtCfgTbl[portNumber] &= ~(CapSense_CSD_PIN_MODE_MASK << (pinNumber * CapSense_PC_PIN
 2150              		.loc 1 1645 0
 2151 000a 194B     		ldr	r3, .L106
 2152 000c 3A68     		ldr	r2, [r7]
 2153 000e 9200     		lsl	r2, r2, #2
 2154 0010 D258     		ldr	r2, [r2, r3]
 2155 0012 174B     		ldr	r3, .L106
 2156 0014 3968     		ldr	r1, [r7]
ARM GAS  C:\Users\lovelesh\AppData\Local\Temp\ccK8zTJk.s 			page 68


 2157 0016 8900     		lsl	r1, r1, #2
 2158 0018 CB58     		ldr	r3, [r1, r3]
 2159 001a 1868     		ldr	r0, [r3]
 2160 001c 7968     		ldr	r1, [r7, #4]
 2161 001e 0B1C     		mov	r3, r1
 2162 0020 5B00     		lsl	r3, r3, #1
 2163 0022 5B18     		add	r3, r3, r1
 2164 0024 191C     		mov	r1, r3
 2165 0026 0723     		mov	r3, #7
 2166 0028 8B40     		lsl	r3, r3, r1
 2167 002a DB43     		mvn	r3, r3
 2168 002c 0340     		and	r3, r0
 2169 002e 1360     		str	r3, [r2]
1646:.\Generated_Source\PSoC4/CapSense.c ****     newRegValue = *CapSense_prtSelTbl[portNumber];
 2170              		.loc 1 1646 0
 2171 0030 104B     		ldr	r3, .L106+4
 2172 0032 3A68     		ldr	r2, [r7]
 2173 0034 9200     		lsl	r2, r2, #2
 2174 0036 D358     		ldr	r3, [r2, r3]
 2175 0038 1B68     		ldr	r3, [r3]
 2176 003a FB60     		str	r3, [r7, #12]
1647:.\Generated_Source\PSoC4/CapSense.c ****     newRegValue &= ~(CapSense_CSD_HSIOM_MASK << (pinNumber * CapSense_HSIOM_PIN_CFG_SIZE));
 2177              		.loc 1 1647 0
 2178 003c 7B68     		ldr	r3, [r7, #4]
 2179 003e 9B00     		lsl	r3, r3, #2
 2180 0040 1A1C     		mov	r2, r3
 2181 0042 0F23     		mov	r3, #15
 2182 0044 9340     		lsl	r3, r3, r2
 2183 0046 DA43     		mvn	r2, r3
 2184 0048 FB68     		ldr	r3, [r7, #12]
 2185 004a 1340     		and	r3, r2
 2186 004c FB60     		str	r3, [r7, #12]
1648:.\Generated_Source\PSoC4/CapSense.c ****     newRegValue |= (CapSense_CSD_SHIELD_PORT_MODE << (pinNumber * CapSense_HSIOM_PIN_CFG_SIZE));
 2187              		.loc 1 1648 0
 2188 004e 7B68     		ldr	r3, [r7, #4]
 2189 0050 9B00     		lsl	r3, r3, #2
 2190 0052 1A1C     		mov	r2, r3
 2191 0054 0523     		mov	r3, #5
 2192 0056 9340     		lsl	r3, r3, r2
 2193 0058 FA68     		ldr	r2, [r7, #12]
 2194 005a 1343     		orr	r3, r2
 2195 005c FB60     		str	r3, [r7, #12]
1649:.\Generated_Source\PSoC4/CapSense.c ****     *CapSense_prtSelTbl[portNumber] = newRegValue;
 2196              		.loc 1 1649 0
 2197 005e 054B     		ldr	r3, .L106+4
 2198 0060 3A68     		ldr	r2, [r7]
 2199 0062 9200     		lsl	r2, r2, #2
 2200 0064 D358     		ldr	r3, [r2, r3]
 2201 0066 FA68     		ldr	r2, [r7, #12]
 2202 0068 1A60     		str	r2, [r3]
1650:.\Generated_Source\PSoC4/CapSense.c **** }
 2203              		.loc 1 1650 0
 2204 006a BD46     		mov	sp, r7
 2205 006c 04B0     		add	sp, sp, #16
 2206              		@ sp needed
 2207 006e 80BD     		pop	{r7, pc}
 2208              	.L107:
ARM GAS  C:\Users\lovelesh\AppData\Local\Temp\ccK8zTJk.s 			page 69


 2209              		.align	2
 2210              	.L106:
 2211 0070 00000000 		.word	CapSense_prtCfgTbl
 2212 0074 00000000 		.word	CapSense_prtSelTbl
 2213              		.cfi_endproc
 2214              	.LFE58:
 2215              		.size	CapSense_EnableShieldElectrode, .-CapSense_EnableShieldElectrode
 2216              		.section	.text.CapSense_SetShieldDelay,"ax",%progbits
 2217              		.align	2
 2218              		.global	CapSense_SetShieldDelay
 2219              		.code	16
 2220              		.thumb_func
 2221              		.type	CapSense_SetShieldDelay, %function
 2222              	CapSense_SetShieldDelay:
 2223              	.LFB59:
1651:.\Generated_Source\PSoC4/CapSense.c **** 
1652:.\Generated_Source\PSoC4/CapSense.c **** 
1653:.\Generated_Source\PSoC4/CapSense.c **** /*******************************************************************************
1654:.\Generated_Source\PSoC4/CapSense.c **** * Function Name: CapSense_SetShieldDelay
1655:.\Generated_Source\PSoC4/CapSense.c **** ********************************************************************************
1656:.\Generated_Source\PSoC4/CapSense.c **** *
1657:.\Generated_Source\PSoC4/CapSense.c **** * Summary:
1658:.\Generated_Source\PSoC4/CapSense.c **** *  This API sets a shield delay.
1659:.\Generated_Source\PSoC4/CapSense.c **** *
1660:.\Generated_Source\PSoC4/CapSense.c **** * Parameters:
1661:.\Generated_Source\PSoC4/CapSense.c **** *  delay:  shield delay value:
1662:.\Generated_Source\PSoC4/CapSense.c **** *                               0 - no delay
1663:.\Generated_Source\PSoC4/CapSense.c **** *                               1 - 1 cycle delay
1664:.\Generated_Source\PSoC4/CapSense.c **** *                               2 - 2 cycles delay
1665:.\Generated_Source\PSoC4/CapSense.c **** *
1666:.\Generated_Source\PSoC4/CapSense.c **** * Return:
1667:.\Generated_Source\PSoC4/CapSense.c **** *  None
1668:.\Generated_Source\PSoC4/CapSense.c **** *
1669:.\Generated_Source\PSoC4/CapSense.c **** * Global Variables:
1670:.\Generated_Source\PSoC4/CapSense.c **** *  None
1671:.\Generated_Source\PSoC4/CapSense.c **** *
1672:.\Generated_Source\PSoC4/CapSense.c **** * Side Effects:
1673:.\Generated_Source\PSoC4/CapSense.c **** *  None
1674:.\Generated_Source\PSoC4/CapSense.c **** *
1675:.\Generated_Source\PSoC4/CapSense.c **** *******************************************************************************/
1676:.\Generated_Source\PSoC4/CapSense.c **** void CapSense_SetShieldDelay(uint32 delay)
1677:.\Generated_Source\PSoC4/CapSense.c **** {
 2224              		.loc 1 1677 0
 2225              		.cfi_startproc
 2226 0000 80B5     		push	{r7, lr}
 2227              		.cfi_def_cfa_offset 8
 2228              		.cfi_offset 7, -8
 2229              		.cfi_offset 14, -4
 2230 0002 84B0     		sub	sp, sp, #16
 2231              		.cfi_def_cfa_offset 24
 2232 0004 00AF     		add	r7, sp, #0
 2233              		.cfi_def_cfa_register 7
 2234 0006 7860     		str	r0, [r7, #4]
1678:.\Generated_Source\PSoC4/CapSense.c ****     uint32 newRegValue;
1679:.\Generated_Source\PSoC4/CapSense.c **** 
1680:.\Generated_Source\PSoC4/CapSense.c ****     delay &= 0x03u;
 2235              		.loc 1 1680 0
ARM GAS  C:\Users\lovelesh\AppData\Local\Temp\ccK8zTJk.s 			page 70


 2236 0008 7B68     		ldr	r3, [r7, #4]
 2237 000a 0322     		mov	r2, #3
 2238 000c 1340     		and	r3, r2
 2239 000e 7B60     		str	r3, [r7, #4]
1681:.\Generated_Source\PSoC4/CapSense.c **** 
1682:.\Generated_Source\PSoC4/CapSense.c ****     newRegValue = CapSense_CSD_CFG_REG;
 2240              		.loc 1 1682 0
 2241 0010 064B     		ldr	r3, .L109
 2242 0012 1B68     		ldr	r3, [r3]
 2243 0014 FB60     		str	r3, [r7, #12]
1683:.\Generated_Source\PSoC4/CapSense.c ****     newRegValue &= (uint32)(~(uint32)CapSense_SHIELD_DELAY);
1684:.\Generated_Source\PSoC4/CapSense.c ****     newRegValue |= (delay << CapSense_CSD_CFG_SHIELD_DELAY_POS);
 2244              		.loc 1 1684 0
 2245 0016 7B68     		ldr	r3, [r7, #4]
 2246 0018 5B02     		lsl	r3, r3, #9
 2247 001a FA68     		ldr	r2, [r7, #12]
 2248 001c 1343     		orr	r3, r2
 2249 001e FB60     		str	r3, [r7, #12]
1685:.\Generated_Source\PSoC4/CapSense.c ****     CapSense_CSD_CFG_REG = newRegValue;
 2250              		.loc 1 1685 0
 2251 0020 024B     		ldr	r3, .L109
 2252 0022 FA68     		ldr	r2, [r7, #12]
 2253 0024 1A60     		str	r2, [r3]
1686:.\Generated_Source\PSoC4/CapSense.c **** }
 2254              		.loc 1 1686 0
 2255 0026 BD46     		mov	sp, r7
 2256 0028 04B0     		add	sp, sp, #16
 2257              		@ sp needed
 2258 002a 80BD     		pop	{r7, pc}
 2259              	.L110:
 2260              		.align	2
 2261              	.L109:
 2262 002c 04000840 		.word	1074266116
 2263              		.cfi_endproc
 2264              	.LFE59:
 2265              		.size	CapSense_SetShieldDelay, .-CapSense_SetShieldDelay
 2266              		.section	.text.CapSense_ReadCurrentScanningSensor,"ax",%progbits
 2267              		.align	2
 2268              		.global	CapSense_ReadCurrentScanningSensor
 2269              		.code	16
 2270              		.thumb_func
 2271              		.type	CapSense_ReadCurrentScanningSensor, %function
 2272              	CapSense_ReadCurrentScanningSensor:
 2273              	.LFB60:
1687:.\Generated_Source\PSoC4/CapSense.c **** 
1688:.\Generated_Source\PSoC4/CapSense.c **** 
1689:.\Generated_Source\PSoC4/CapSense.c **** /*******************************************************************************
1690:.\Generated_Source\PSoC4/CapSense.c **** * Function Name: CapSense_ReadCurrentScanningSensor
1691:.\Generated_Source\PSoC4/CapSense.c **** ********************************************************************************
1692:.\Generated_Source\PSoC4/CapSense.c **** *
1693:.\Generated_Source\PSoC4/CapSense.c **** * Summary:
1694:.\Generated_Source\PSoC4/CapSense.c **** *  This API returns scanning sensor number when sensor scan is in progress.
1695:.\Generated_Source\PSoC4/CapSense.c **** *  When sensor scan is completed the API returns
1696:.\Generated_Source\PSoC4/CapSense.c **** *  $INSTANCE_NAME`_NOT_SENSOR (0xFFFFFFFF) (when no sensor is scanned).
1697:.\Generated_Source\PSoC4/CapSense.c **** *
1698:.\Generated_Source\PSoC4/CapSense.c **** * Parameters:
1699:.\Generated_Source\PSoC4/CapSense.c **** *   None.
ARM GAS  C:\Users\lovelesh\AppData\Local\Temp\ccK8zTJk.s 			page 71


1700:.\Generated_Source\PSoC4/CapSense.c **** *
1701:.\Generated_Source\PSoC4/CapSense.c **** * Return:
1702:.\Generated_Source\PSoC4/CapSense.c **** *  Returns Sensor number if sensor is being scanned and
1703:.\Generated_Source\PSoC4/CapSense.c **** *  $INSTANCE_NAME`_NOT_SENSOR (0xFFFFFFFF) if scanning is complete.
1704:.\Generated_Source\PSoC4/CapSense.c **** *
1705:.\Generated_Source\PSoC4/CapSense.c **** * Global Variables:
1706:.\Generated_Source\PSoC4/CapSense.c **** *  CapSense_sensorIndex - the sensor number is being scanned.
1707:.\Generated_Source\PSoC4/CapSense.c **** *
1708:.\Generated_Source\PSoC4/CapSense.c **** * Side Effects:
1709:.\Generated_Source\PSoC4/CapSense.c **** *  None
1710:.\Generated_Source\PSoC4/CapSense.c **** *
1711:.\Generated_Source\PSoC4/CapSense.c **** *******************************************************************************/
1712:.\Generated_Source\PSoC4/CapSense.c **** uint32 CapSense_ReadCurrentScanningSensor(void)
1713:.\Generated_Source\PSoC4/CapSense.c **** {
 2274              		.loc 1 1713 0
 2275              		.cfi_startproc
 2276 0000 80B5     		push	{r7, lr}
 2277              		.cfi_def_cfa_offset 8
 2278              		.cfi_offset 7, -8
 2279              		.cfi_offset 14, -4
 2280 0002 00AF     		add	r7, sp, #0
 2281              		.cfi_def_cfa_register 7
1714:.\Generated_Source\PSoC4/CapSense.c ****     return ((uint32)(( 0u != (CapSense_csdStatusVar & CapSense_SW_STS_BUSY)) ?
 2282              		.loc 1 1714 0
 2283 0004 074B     		ldr	r3, .L115
 2284 0006 1B78     		ldrb	r3, [r3]
 2285 0008 DBB2     		uxtb	r3, r3
 2286 000a 1A1C     		mov	r2, r3
 2287 000c 0123     		mov	r3, #1
 2288 000e 1340     		and	r3, r2
 2289 0010 03D0     		beq	.L112
 2290              		.loc 1 1714 0 is_stmt 0 discriminator 1
 2291 0012 054B     		ldr	r3, .L115+4
 2292 0014 1B78     		ldrb	r3, [r3]
 2293 0016 DBB2     		uxtb	r3, r3
 2294 0018 01E0     		b	.L113
 2295              	.L112:
 2296              		.loc 1 1714 0 discriminator 2
 2297 001a 0123     		mov	r3, #1
 2298 001c 5B42     		neg	r3, r3
 2299              	.L113:
1715:.\Generated_Source\PSoC4/CapSense.c ****                      CapSense_sensorIndex : CapSense_NOT_SENSOR));
1716:.\Generated_Source\PSoC4/CapSense.c **** }
 2300              		.loc 1 1716 0 is_stmt 1 discriminator 4
 2301 001e 181C     		mov	r0, r3
 2302 0020 BD46     		mov	sp, r7
 2303              		@ sp needed
 2304 0022 80BD     		pop	{r7, pc}
 2305              	.L116:
 2306              		.align	2
 2307              	.L115:
 2308 0024 00000000 		.word	CapSense_csdStatusVar
 2309 0028 00000000 		.word	CapSense_sensorIndex
 2310              		.cfi_endproc
 2311              	.LFE60:
 2312              		.size	CapSense_ReadCurrentScanningSensor, .-CapSense_ReadCurrentScanningSensor
 2313              		.section	.text.CapSense_GetBitValue,"ax",%progbits
ARM GAS  C:\Users\lovelesh\AppData\Local\Temp\ccK8zTJk.s 			page 72


 2314              		.align	2
 2315              		.global	CapSense_GetBitValue
 2316              		.code	16
 2317              		.thumb_func
 2318              		.type	CapSense_GetBitValue, %function
 2319              	CapSense_GetBitValue:
 2320              	.LFB61:
1717:.\Generated_Source\PSoC4/CapSense.c **** 
1718:.\Generated_Source\PSoC4/CapSense.c **** 
1719:.\Generated_Source\PSoC4/CapSense.c **** /*******************************************************************************
1720:.\Generated_Source\PSoC4/CapSense.c **** * Function Name: CapSense_GetBitValue
1721:.\Generated_Source\PSoC4/CapSense.c **** ********************************************************************************
1722:.\Generated_Source\PSoC4/CapSense.c **** *
1723:.\Generated_Source\PSoC4/CapSense.c **** * Summary:
1724:.\Generated_Source\PSoC4/CapSense.c **** *  The API returns a bit status of the bit in the table array which contains the masks.
1725:.\Generated_Source\PSoC4/CapSense.c **** *
1726:.\Generated_Source\PSoC4/CapSense.c **** * Parameters:
1727:.\Generated_Source\PSoC4/CapSense.c **** *  table[] - array with bit masks.
1728:.\Generated_Source\PSoC4/CapSense.c **** *  position - position of bit in the table[] array.
1729:.\Generated_Source\PSoC4/CapSense.c **** *
1730:.\Generated_Source\PSoC4/CapSense.c **** * Return:
1731:.\Generated_Source\PSoC4/CapSense.c **** *  0 - bit is not set; 1 - bit is set.
1732:.\Generated_Source\PSoC4/CapSense.c **** *
1733:.\Generated_Source\PSoC4/CapSense.c **** * Global Variables:
1734:.\Generated_Source\PSoC4/CapSense.c **** *  None
1735:.\Generated_Source\PSoC4/CapSense.c **** *
1736:.\Generated_Source\PSoC4/CapSense.c **** * Side Effects:
1737:.\Generated_Source\PSoC4/CapSense.c **** *  None
1738:.\Generated_Source\PSoC4/CapSense.c **** *
1739:.\Generated_Source\PSoC4/CapSense.c **** *******************************************************************************/
1740:.\Generated_Source\PSoC4/CapSense.c **** uint32 CapSense_GetBitValue(const uint8 table[], uint32 position)
1741:.\Generated_Source\PSoC4/CapSense.c **** {
 2321              		.loc 1 1741 0
 2322              		.cfi_startproc
 2323 0000 80B5     		push	{r7, lr}
 2324              		.cfi_def_cfa_offset 8
 2325              		.cfi_offset 7, -8
 2326              		.cfi_offset 14, -4
 2327 0002 84B0     		sub	sp, sp, #16
 2328              		.cfi_def_cfa_offset 24
 2329 0004 00AF     		add	r7, sp, #0
 2330              		.cfi_def_cfa_register 7
 2331 0006 7860     		str	r0, [r7, #4]
 2332 0008 3960     		str	r1, [r7]
1742:.\Generated_Source\PSoC4/CapSense.c ****     uint32 offset;
1743:.\Generated_Source\PSoC4/CapSense.c ****     uint8 enMask;
1744:.\Generated_Source\PSoC4/CapSense.c **** 
1745:.\Generated_Source\PSoC4/CapSense.c ****     /* position is divided by 8 to calculate the element of the
1746:.\Generated_Source\PSoC4/CapSense.c ****        table[] array that contains the enable bit
1747:.\Generated_Source\PSoC4/CapSense.c ****        for an appropriate sensor.
1748:.\Generated_Source\PSoC4/CapSense.c ****     */
1749:.\Generated_Source\PSoC4/CapSense.c ****     offset = (position >> 3u);
 2333              		.loc 1 1749 0
 2334 000a 3B68     		ldr	r3, [r7]
 2335 000c DB08     		lsr	r3, r3, #3
 2336 000e FB60     		str	r3, [r7, #12]
1750:.\Generated_Source\PSoC4/CapSense.c **** 
ARM GAS  C:\Users\lovelesh\AppData\Local\Temp\ccK8zTJk.s 			page 73


1751:.\Generated_Source\PSoC4/CapSense.c ****     /* The enMask calculation for the appropriate sensor. Operation (position & 0x07u)
1752:.\Generated_Source\PSoC4/CapSense.c ****        intends to calculate the enable bit offset for the 8-bit element of the
1753:.\Generated_Source\PSoC4/CapSense.c ****        table[] array.
1754:.\Generated_Source\PSoC4/CapSense.c ****     */
1755:.\Generated_Source\PSoC4/CapSense.c ****     enMask = 0x01u << (position & 0x07u);
 2337              		.loc 1 1755 0
 2338 0010 3B68     		ldr	r3, [r7]
 2339 0012 0722     		mov	r2, #7
 2340 0014 1340     		and	r3, r2
 2341 0016 0122     		mov	r2, #1
 2342 0018 9A40     		lsl	r2, r2, r3
 2343 001a 0B23     		mov	r3, #11
 2344 001c FB18     		add	r3, r7, r3
 2345 001e 1A70     		strb	r2, [r3]
1756:.\Generated_Source\PSoC4/CapSense.c **** 
1757:.\Generated_Source\PSoC4/CapSense.c ****     return ((0u !=(table[offset] & enMask)) ? 1Lu : 0Lu);
 2346              		.loc 1 1757 0
 2347 0020 7A68     		ldr	r2, [r7, #4]
 2348 0022 FB68     		ldr	r3, [r7, #12]
 2349 0024 D318     		add	r3, r2, r3
 2350 0026 1B78     		ldrb	r3, [r3]
 2351 0028 0B22     		mov	r2, #11
 2352 002a BA18     		add	r2, r7, r2
 2353 002c 1278     		ldrb	r2, [r2]
 2354 002e 1340     		and	r3, r2
 2355 0030 DBB2     		uxtb	r3, r3
 2356 0032 002B     		cmp	r3, #0
 2357 0034 01D0     		beq	.L118
 2358              		.loc 1 1757 0 is_stmt 0 discriminator 1
 2359 0036 0123     		mov	r3, #1
 2360 0038 00E0     		b	.L119
 2361              	.L118:
 2362              		.loc 1 1757 0 discriminator 2
 2363 003a 0023     		mov	r3, #0
 2364              	.L119:
1758:.\Generated_Source\PSoC4/CapSense.c **** }
 2365              		.loc 1 1758 0 is_stmt 1 discriminator 4
 2366 003c 181C     		mov	r0, r3
 2367 003e BD46     		mov	sp, r7
 2368 0040 04B0     		add	sp, sp, #16
 2369              		@ sp needed
 2370 0042 80BD     		pop	{r7, pc}
 2371              		.cfi_endproc
 2372              	.LFE61:
 2373              		.size	CapSense_GetBitValue, .-CapSense_GetBitValue
 2374              		.section	.text.CapSense_SetBitValue,"ax",%progbits
 2375              		.align	2
 2376              		.global	CapSense_SetBitValue
 2377              		.code	16
 2378              		.thumb_func
 2379              		.type	CapSense_SetBitValue, %function
 2380              	CapSense_SetBitValue:
 2381              	.LFB62:
1759:.\Generated_Source\PSoC4/CapSense.c **** 
1760:.\Generated_Source\PSoC4/CapSense.c **** 
1761:.\Generated_Source\PSoC4/CapSense.c **** /*******************************************************************************
1762:.\Generated_Source\PSoC4/CapSense.c **** * Function Name: CapSense_SetBitValue
ARM GAS  C:\Users\lovelesh\AppData\Local\Temp\ccK8zTJk.s 			page 74


1763:.\Generated_Source\PSoC4/CapSense.c **** ********************************************************************************
1764:.\Generated_Source\PSoC4/CapSense.c **** *
1765:.\Generated_Source\PSoC4/CapSense.c **** * Summary:
1766:.\Generated_Source\PSoC4/CapSense.c **** *  The API sets a bit status of the bit in the table array which contains masks.
1767:.\Generated_Source\PSoC4/CapSense.c **** *
1768:.\Generated_Source\PSoC4/CapSense.c **** * Parameters:
1769:.\Generated_Source\PSoC4/CapSense.c **** *  table[] - array with bit masks.
1770:.\Generated_Source\PSoC4/CapSense.c **** *  position - position of bit in the table[] array.
1771:.\Generated_Source\PSoC4/CapSense.c **** *  value: 0 - bit is not set; 1 - bit is set.
1772:.\Generated_Source\PSoC4/CapSense.c **** *
1773:.\Generated_Source\PSoC4/CapSense.c **** * Return:
1774:.\Generated_Source\PSoC4/CapSense.c **** *  None
1775:.\Generated_Source\PSoC4/CapSense.c **** *
1776:.\Generated_Source\PSoC4/CapSense.c **** * Global Variables:
1777:.\Generated_Source\PSoC4/CapSense.c **** *  None
1778:.\Generated_Source\PSoC4/CapSense.c **** *
1779:.\Generated_Source\PSoC4/CapSense.c **** * Side Effects:
1780:.\Generated_Source\PSoC4/CapSense.c **** *  None
1781:.\Generated_Source\PSoC4/CapSense.c **** *
1782:.\Generated_Source\PSoC4/CapSense.c **** *******************************************************************************/
1783:.\Generated_Source\PSoC4/CapSense.c **** void CapSense_SetBitValue(uint8 table[], uint32 position, uint32 value)
1784:.\Generated_Source\PSoC4/CapSense.c **** {
 2382              		.loc 1 1784 0
 2383              		.cfi_startproc
 2384 0000 80B5     		push	{r7, lr}
 2385              		.cfi_def_cfa_offset 8
 2386              		.cfi_offset 7, -8
 2387              		.cfi_offset 14, -4
 2388 0002 86B0     		sub	sp, sp, #24
 2389              		.cfi_def_cfa_offset 32
 2390 0004 00AF     		add	r7, sp, #0
 2391              		.cfi_def_cfa_register 7
 2392 0006 F860     		str	r0, [r7, #12]
 2393 0008 B960     		str	r1, [r7, #8]
 2394 000a 7A60     		str	r2, [r7, #4]
1785:.\Generated_Source\PSoC4/CapSense.c ****     uint32 offset;
1786:.\Generated_Source\PSoC4/CapSense.c ****     uint8 enMask;
1787:.\Generated_Source\PSoC4/CapSense.c **** 
1788:.\Generated_Source\PSoC4/CapSense.c ****     /* position is divided by 8 to calculate the element of the
1789:.\Generated_Source\PSoC4/CapSense.c ****        table[] array that contains the enable bit
1790:.\Generated_Source\PSoC4/CapSense.c ****        for an appropriate sensor.
1791:.\Generated_Source\PSoC4/CapSense.c ****     */
1792:.\Generated_Source\PSoC4/CapSense.c ****     offset = (position >> 3u);
 2395              		.loc 1 1792 0
 2396 000c BB68     		ldr	r3, [r7, #8]
 2397 000e DB08     		lsr	r3, r3, #3
 2398 0010 7B61     		str	r3, [r7, #20]
1793:.\Generated_Source\PSoC4/CapSense.c **** 
1794:.\Generated_Source\PSoC4/CapSense.c ****     /* The enMask calculation for the appropriate sensor. Operation (position & 0x07u)
1795:.\Generated_Source\PSoC4/CapSense.c ****        intends to calculate the enable bit offset for the 8-bit element of the
1796:.\Generated_Source\PSoC4/CapSense.c ****        table[] array.
1797:.\Generated_Source\PSoC4/CapSense.c ****     */
1798:.\Generated_Source\PSoC4/CapSense.c ****     enMask = 0x01u << (position & 0x07u);
 2399              		.loc 1 1798 0
 2400 0012 BB68     		ldr	r3, [r7, #8]
 2401 0014 0722     		mov	r2, #7
 2402 0016 1340     		and	r3, r2
ARM GAS  C:\Users\lovelesh\AppData\Local\Temp\ccK8zTJk.s 			page 75


 2403 0018 0122     		mov	r2, #1
 2404 001a 9A40     		lsl	r2, r2, r3
 2405 001c 1323     		mov	r3, #19
 2406 001e FB18     		add	r3, r7, r3
 2407 0020 1A70     		strb	r2, [r3]
1799:.\Generated_Source\PSoC4/CapSense.c **** 
1800:.\Generated_Source\PSoC4/CapSense.c ****     if(0u != value)
 2408              		.loc 1 1800 0
 2409 0022 7B68     		ldr	r3, [r7, #4]
 2410 0024 002B     		cmp	r3, #0
 2411 0026 0DD0     		beq	.L122
1801:.\Generated_Source\PSoC4/CapSense.c ****     {
1802:.\Generated_Source\PSoC4/CapSense.c ****         table[offset] |= enMask;
 2412              		.loc 1 1802 0
 2413 0028 FA68     		ldr	r2, [r7, #12]
 2414 002a 7B69     		ldr	r3, [r7, #20]
 2415 002c D318     		add	r3, r2, r3
 2416 002e F968     		ldr	r1, [r7, #12]
 2417 0030 7A69     		ldr	r2, [r7, #20]
 2418 0032 8A18     		add	r2, r1, r2
 2419 0034 1178     		ldrb	r1, [r2]
 2420 0036 1322     		mov	r2, #19
 2421 0038 BA18     		add	r2, r7, r2
 2422 003a 1278     		ldrb	r2, [r2]
 2423 003c 0A43     		orr	r2, r1
 2424 003e D2B2     		uxtb	r2, r2
 2425 0040 1A70     		strb	r2, [r3]
 2426 0042 0EE0     		b	.L121
 2427              	.L122:
1803:.\Generated_Source\PSoC4/CapSense.c ****     }
1804:.\Generated_Source\PSoC4/CapSense.c ****     else
1805:.\Generated_Source\PSoC4/CapSense.c ****     {
1806:.\Generated_Source\PSoC4/CapSense.c ****         table[offset] &= (uint8)~(enMask);
 2428              		.loc 1 1806 0
 2429 0044 FA68     		ldr	r2, [r7, #12]
 2430 0046 7B69     		ldr	r3, [r7, #20]
 2431 0048 D318     		add	r3, r2, r3
 2432 004a F968     		ldr	r1, [r7, #12]
 2433 004c 7A69     		ldr	r2, [r7, #20]
 2434 004e 8A18     		add	r2, r1, r2
 2435 0050 1278     		ldrb	r2, [r2]
 2436 0052 1321     		mov	r1, #19
 2437 0054 7918     		add	r1, r7, r1
 2438 0056 0978     		ldrb	r1, [r1]
 2439 0058 C943     		mvn	r1, r1
 2440 005a C9B2     		uxtb	r1, r1
 2441 005c 0A40     		and	r2, r1
 2442 005e D2B2     		uxtb	r2, r2
 2443 0060 1A70     		strb	r2, [r3]
 2444              	.L121:
1807:.\Generated_Source\PSoC4/CapSense.c ****     }
1808:.\Generated_Source\PSoC4/CapSense.c **** }
 2445              		.loc 1 1808 0
 2446 0062 BD46     		mov	sp, r7
 2447 0064 06B0     		add	sp, sp, #24
 2448              		@ sp needed
 2449 0066 80BD     		pop	{r7, pc}
ARM GAS  C:\Users\lovelesh\AppData\Local\Temp\ccK8zTJk.s 			page 76


 2450              		.cfi_endproc
 2451              	.LFE62:
 2452              		.size	CapSense_SetBitValue, .-CapSense_SetBitValue
 2453              		.section	.text.CapSense_GetSenseClkDivider,"ax",%progbits
 2454              		.align	2
 2455              		.global	CapSense_GetSenseClkDivider
 2456              		.code	16
 2457              		.thumb_func
 2458              		.type	CapSense_GetSenseClkDivider, %function
 2459              	CapSense_GetSenseClkDivider:
 2460              	.LFB63:
1809:.\Generated_Source\PSoC4/CapSense.c **** 
1810:.\Generated_Source\PSoC4/CapSense.c **** 
1811:.\Generated_Source\PSoC4/CapSense.c **** 
1812:.\Generated_Source\PSoC4/CapSense.c **** /*******************************************************************************
1813:.\Generated_Source\PSoC4/CapSense.c **** * Function Name: CapSense_GetSenseClkDivider
1814:.\Generated_Source\PSoC4/CapSense.c **** ********************************************************************************
1815:.\Generated_Source\PSoC4/CapSense.c **** *
1816:.\Generated_Source\PSoC4/CapSense.c **** * Summary:
1817:.\Generated_Source\PSoC4/CapSense.c **** *  This API returns a value of the sense clock divider for the  sensor.
1818:.\Generated_Source\PSoC4/CapSense.c **** *
1819:.\Generated_Source\PSoC4/CapSense.c **** * Parameters:
1820:.\Generated_Source\PSoC4/CapSense.c **** *  sensor: sensor index. The index value can be
1821:.\Generated_Source\PSoC4/CapSense.c **** *  from 0 to (CapSense_TOTAL_SENSOR_COUNT-1).
1822:.\Generated_Source\PSoC4/CapSense.c **** *
1823:.\Generated_Source\PSoC4/CapSense.c **** * Return:
1824:.\Generated_Source\PSoC4/CapSense.c **** *  This API returns the sense clock divider of the sensor.
1825:.\Generated_Source\PSoC4/CapSense.c **** *
1826:.\Generated_Source\PSoC4/CapSense.c **** * Global Variables:
1827:.\Generated_Source\PSoC4/CapSense.c **** *  CapSense_senseClkDividerVal[] - stores the sense clock divider values.
1828:.\Generated_Source\PSoC4/CapSense.c **** *
1829:.\Generated_Source\PSoC4/CapSense.c **** * Side Effects:
1830:.\Generated_Source\PSoC4/CapSense.c **** *  None
1831:.\Generated_Source\PSoC4/CapSense.c **** *
1832:.\Generated_Source\PSoC4/CapSense.c **** *******************************************************************************/
1833:.\Generated_Source\PSoC4/CapSense.c **** uint32 CapSense_GetSenseClkDivider(uint32 sensor)
1834:.\Generated_Source\PSoC4/CapSense.c **** {
 2461              		.loc 1 1834 0
 2462              		.cfi_startproc
 2463 0000 80B5     		push	{r7, lr}
 2464              		.cfi_def_cfa_offset 8
 2465              		.cfi_offset 7, -8
 2466              		.cfi_offset 14, -4
 2467 0002 82B0     		sub	sp, sp, #8
 2468              		.cfi_def_cfa_offset 16
 2469 0004 00AF     		add	r7, sp, #0
 2470              		.cfi_def_cfa_register 7
 2471 0006 7860     		str	r0, [r7, #4]
1835:.\Generated_Source\PSoC4/CapSense.c ****     #if(0u != CapSense_MULTIPLE_FREQUENCY_SET)
1836:.\Generated_Source\PSoC4/CapSense.c ****         return((uint32)CapSense_senseClkDividerVal[sensor]);
 2472              		.loc 1 1836 0
 2473 0008 034A     		ldr	r2, .L126
 2474 000a 7B68     		ldr	r3, [r7, #4]
 2475 000c D318     		add	r3, r2, r3
 2476 000e 1B78     		ldrb	r3, [r3]
1837:.\Generated_Source\PSoC4/CapSense.c ****     #else
1838:.\Generated_Source\PSoC4/CapSense.c ****         return((uint32)CapSense_senseClkDividerVal);
ARM GAS  C:\Users\lovelesh\AppData\Local\Temp\ccK8zTJk.s 			page 77


1839:.\Generated_Source\PSoC4/CapSense.c ****     #endif /* (0u != CapSense_MULTIPLE_FREQUENCY_SET) */
1840:.\Generated_Source\PSoC4/CapSense.c **** }
 2477              		.loc 1 1840 0
 2478 0010 181C     		mov	r0, r3
 2479 0012 BD46     		mov	sp, r7
 2480 0014 02B0     		add	sp, sp, #8
 2481              		@ sp needed
 2482 0016 80BD     		pop	{r7, pc}
 2483              	.L127:
 2484              		.align	2
 2485              	.L126:
 2486 0018 00000000 		.word	CapSense_senseClkDividerVal
 2487              		.cfi_endproc
 2488              	.LFE63:
 2489              		.size	CapSense_GetSenseClkDivider, .-CapSense_GetSenseClkDivider
 2490              		.section	.text.CapSense_SetSenseClkDivider,"ax",%progbits
 2491              		.align	2
 2492              		.global	CapSense_SetSenseClkDivider
 2493              		.code	16
 2494              		.thumb_func
 2495              		.type	CapSense_SetSenseClkDivider, %function
 2496              	CapSense_SetSenseClkDivider:
 2497              	.LFB64:
1841:.\Generated_Source\PSoC4/CapSense.c **** 
1842:.\Generated_Source\PSoC4/CapSense.c **** #if (CapSense_TUNING_METHOD != CapSense__TUNING_NONE)
1843:.\Generated_Source\PSoC4/CapSense.c ****     /*******************************************************************************
1844:.\Generated_Source\PSoC4/CapSense.c ****     * Function Name: CapSense_SetSenseClkDivider
1845:.\Generated_Source\PSoC4/CapSense.c ****     ********************************************************************************
1846:.\Generated_Source\PSoC4/CapSense.c ****     *
1847:.\Generated_Source\PSoC4/CapSense.c ****     * Summary:
1848:.\Generated_Source\PSoC4/CapSense.c ****     *  This API sets a value of the sense clock divider for the  sensor.
1849:.\Generated_Source\PSoC4/CapSense.c ****     *
1850:.\Generated_Source\PSoC4/CapSense.c ****     * Parameters:
1851:.\Generated_Source\PSoC4/CapSense.c ****     *  sensor:  Sensor index.
1852:.\Generated_Source\PSoC4/CapSense.c ****     *  senseClk: represents the sense clock value.
1853:.\Generated_Source\PSoC4/CapSense.c ****     *
1854:.\Generated_Source\PSoC4/CapSense.c ****     * Return:
1855:.\Generated_Source\PSoC4/CapSense.c ****     *  None.
1856:.\Generated_Source\PSoC4/CapSense.c ****     *
1857:.\Generated_Source\PSoC4/CapSense.c ****     * Global Variables:
1858:.\Generated_Source\PSoC4/CapSense.c ****     *  CapSense_senseClkDividerVal[] - stores the sense clock divider values.
1859:.\Generated_Source\PSoC4/CapSense.c ****     *
1860:.\Generated_Source\PSoC4/CapSense.c ****     * Side Effects:
1861:.\Generated_Source\PSoC4/CapSense.c ****     *  None
1862:.\Generated_Source\PSoC4/CapSense.c ****     *
1863:.\Generated_Source\PSoC4/CapSense.c ****     *******************************************************************************/
1864:.\Generated_Source\PSoC4/CapSense.c ****     void CapSense_SetSenseClkDivider(uint32 sensor, uint32 senseClk)
1865:.\Generated_Source\PSoC4/CapSense.c ****     {
 2498              		.loc 1 1865 0
 2499              		.cfi_startproc
 2500 0000 80B5     		push	{r7, lr}
 2501              		.cfi_def_cfa_offset 8
 2502              		.cfi_offset 7, -8
 2503              		.cfi_offset 14, -4
 2504 0002 82B0     		sub	sp, sp, #8
 2505              		.cfi_def_cfa_offset 16
 2506 0004 00AF     		add	r7, sp, #0
ARM GAS  C:\Users\lovelesh\AppData\Local\Temp\ccK8zTJk.s 			page 78


 2507              		.cfi_def_cfa_register 7
 2508 0006 7860     		str	r0, [r7, #4]
 2509 0008 3960     		str	r1, [r7]
1866:.\Generated_Source\PSoC4/CapSense.c ****         #if(0u != CapSense_MULTIPLE_FREQUENCY_SET)
1867:.\Generated_Source\PSoC4/CapSense.c ****             CapSense_senseClkDividerVal[sensor] = (uint8)senseClk;
 2510              		.loc 1 1867 0
 2511 000a 3B68     		ldr	r3, [r7]
 2512 000c D9B2     		uxtb	r1, r3
 2513 000e 044A     		ldr	r2, .L129
 2514 0010 7B68     		ldr	r3, [r7, #4]
 2515 0012 D318     		add	r3, r2, r3
 2516 0014 0A1C     		add	r2, r1, #0
