ARM GAS  C:\Users\Amit\AppData\Local\Temp\ccR6FZnJ.s 			page 1


   1              		.cpu cortex-m0
   2              		.fpu softvfp
   3              		.eabi_attribute 20, 1
   4              		.eabi_attribute 21, 1
   5              		.eabi_attribute 23, 3
   6              		.eabi_attribute 24, 1
   7              		.eabi_attribute 25, 1
   8              		.eabi_attribute 26, 1
   9              		.eabi_attribute 30, 6
  10              		.eabi_attribute 34, 0
  11              		.eabi_attribute 18, 4
  12              		.code	16
  13              		.file	"CapSense_SMS.c"
  14              		.text
  15              	.Ltext0:
  16              		.cfi_sections	.debug_frame
  17              		.global	CapSense_prescalerTable
  18              		.section	.rodata
  19              		.align	2
  20              		.type	CapSense_prescalerTable, %object
  21              		.size	CapSense_prescalerTable, 16
  22              	CapSense_prescalerTable:
  23 0000 01       		.byte	1
  24 0001 01       		.byte	1
  25 0002 01       		.byte	1
  26 0003 02       		.byte	2
  27 0004 02       		.byte	2
  28 0005 02       		.byte	2
  29 0006 02       		.byte	2
  30 0007 04       		.byte	4
  31 0008 04       		.byte	4
  32 0009 04       		.byte	4
  33 000a 04       		.byte	4
  34 000b 04       		.byte	4
  35 000c 04       		.byte	4
  36 000d 04       		.byte	4
  37 000e 04       		.byte	4
  38 000f 04       		.byte	4
  39              		.comm	CapSense_noiseEnvelopeTbl,8,4
  40              		.comm	CapSense_runningDifferenceTbl,8,4
  41              		.comm	CapSense_signRegisterTbl,8,4
  42              		.comm	CapSense_sampleMinTbl,16,4
  43              		.comm	CapSense_sampleMaxTbl,16,4
  44              		.comm	CapSense_previousSampleTbl,16,4
  45              		.comm	CapSense_kValueTbl,8,4
  46              		.global	CapSense_sensorSensitivity
  47              		.data
  48              		.align	2
  49              		.type	CapSense_sensorSensitivity, %object
  50              		.size	CapSense_sensorSensitivity, 8
  51              	CapSense_sensorSensitivity:
  52 0000 04       		.byte	4
  53 0001 04       		.byte	4
  54 0002 04       		.byte	4
  55 0003 04       		.byte	4
  56 0004 04       		.byte	4
  57 0005 02       		.byte	2
ARM GAS  C:\Users\Amit\AppData\Local\Temp\ccR6FZnJ.s 			page 2


  58 0006 02       		.byte	2
  59 0007 02       		.byte	2
  60              		.comm	CapSense_config,12,4
  61              		.global	CapSense_configPointers
  62              		.section	.rodata
  63              		.align	2
  64              		.type	CapSense_configPointers, %object
  65              		.size	CapSense_configPointers, 92
  66              	CapSense_configPointers:
  67 0010 00000000 		.word	CapSense_modulationIDAC
  68 0014 00000000 		.word	CapSense_compensationIDAC
  69 0018 00000000 		.word	CapSense_sensorSensitivity
  70 001c 00000000 		.word	CapSense_senseClkDividerVal
  71 0020 00000000 		.word	CapSense_sampleClkDividerVal
  72 0024 00000000 		.word	CapSense_widgetNumber
  73 0028 00000000 		.word	CapSense_widgetResolution
  74 002c 00000000 		.word	CapSense_noiseEnvelopeTbl
  75 0030 00000000 		.word	CapSense_runningDifferenceTbl
  76 0034 00000000 		.word	CapSense_signRegisterTbl
  77 0038 00000000 		.word	CapSense_sampleMinTbl
  78 003c 00000000 		.word	CapSense_sampleMaxTbl
  79 0040 00000000 		.word	CapSense_previousSampleTbl
  80 0044 00000000 		.word	CapSense_kValueTbl
  81 0048 00000000 		.word	CapSense_scanSpeedTbl
  82 004c 00000000 		.word	CapSense_prescalerTable
  83 0050 00000000 		.word	CapSense_rawDataIndex
  84 0054 00000000 		.word	CapSense_numberOfSensors
  85 0058 00000000 		.word	CapSense_GetSensorRaw
  86 005c 00000000 		.word	CapSense_PreScan
  87 0060 00000000 		.word	CapSense_ReadSensorRaw
  88 0064 00000000 		.word	CapSense_GetBitValue
  89 0068 00000000 		.word	CapSense_SetBitValue
  90              		.section	.text.CapSense_AutoTune,"ax",%progbits
  91              		.align	2
  92              		.global	CapSense_AutoTune
  93              		.code	16
  94              		.thumb_func
  95              		.type	CapSense_AutoTune, %function
  96              	CapSense_AutoTune:
  97              	.LFB34:
  98              		.file 1 ".\\Generated_Source\\PSoC4\\CapSense_SMS.c"
   1:.\Generated_Source\PSoC4/CapSense_SMS.c **** /*******************************************************************************
   2:.\Generated_Source\PSoC4/CapSense_SMS.c **** * File Name: CapSense_SMS.c
   3:.\Generated_Source\PSoC4/CapSense_SMS.c **** * Version 2.40
   4:.\Generated_Source\PSoC4/CapSense_SMS.c **** *
   5:.\Generated_Source\PSoC4/CapSense_SMS.c **** * Description:
   6:.\Generated_Source\PSoC4/CapSense_SMS.c **** *  This file provides the source code of wrapper between CapSense CSD component
   7:.\Generated_Source\PSoC4/CapSense_SMS.c **** *  and Auto Tuning library.
   8:.\Generated_Source\PSoC4/CapSense_SMS.c **** *
   9:.\Generated_Source\PSoC4/CapSense_SMS.c **** * Note:
  10:.\Generated_Source\PSoC4/CapSense_SMS.c **** *
  11:.\Generated_Source\PSoC4/CapSense_SMS.c **** ********************************************************************************
  12:.\Generated_Source\PSoC4/CapSense_SMS.c **** * Copyright 2013-2015, Cypress Semiconductor Corporation.  All rights reserved.
  13:.\Generated_Source\PSoC4/CapSense_SMS.c **** * You may use this file only in accordance with the license, terms, conditions,
  14:.\Generated_Source\PSoC4/CapSense_SMS.c **** * disclaimers, and limitations in the end user license agreement accompanying
  15:.\Generated_Source\PSoC4/CapSense_SMS.c **** * the software package with which this file was provided.
  16:.\Generated_Source\PSoC4/CapSense_SMS.c **** *******************************************************************************/
ARM GAS  C:\Users\Amit\AppData\Local\Temp\ccR6FZnJ.s 			page 3


  17:.\Generated_Source\PSoC4/CapSense_SMS.c **** 
  18:.\Generated_Source\PSoC4/CapSense_SMS.c **** #include "CapSense_SMS.h"
  19:.\Generated_Source\PSoC4/CapSense_SMS.c **** #include "CapSense_PVT.h"
  20:.\Generated_Source\PSoC4/CapSense_SMS.c **** 
  21:.\Generated_Source\PSoC4/CapSense_SMS.c **** #include "cytypes.h"
  22:.\Generated_Source\PSoC4/CapSense_SMS.c **** 
  23:.\Generated_Source\PSoC4/CapSense_SMS.c **** #if (CapSense_TUNING_METHOD == CapSense__TUNING_AUTO)
  24:.\Generated_Source\PSoC4/CapSense_SMS.c **** 
  25:.\Generated_Source\PSoC4/CapSense_SMS.c **** 
  26:.\Generated_Source\PSoC4/CapSense_SMS.c **** /*  Real Charge Divider values */
  27:.\Generated_Source\PSoC4/CapSense_SMS.c **** #if ((0u != CapSense_IS_M0S8PERI_BLOCK) && (0u == CY_PSOC4_4000))
  28:.\Generated_Source\PSoC4/CapSense_SMS.c ****     /*  Dividers are not chained */
  29:.\Generated_Source\PSoC4/CapSense_SMS.c ****     #if (CYDEV_BCLK__HFCLK__MHZ > 24u)
  30:.\Generated_Source\PSoC4/CapSense_SMS.c ****         const uint8 CapSense_prescalerTable[CapSense_PRESCALERS_TBL_SIZE] = {
  31:.\Generated_Source\PSoC4/CapSense_SMS.c ****             4u,     4u,     4u,    8u,    8u,    8u,    8u,    16u,    16u,    16u,    16u,    16u,
  32:.\Generated_Source\PSoC4/CapSense_SMS.c ****         };
  33:.\Generated_Source\PSoC4/CapSense_SMS.c ****     #elif (CYDEV_BCLK__HFCLK__MHZ >12u)
  34:.\Generated_Source\PSoC4/CapSense_SMS.c ****         const uint8 CapSense_prescalerTable[CapSense_PRESCALERS_TBL_SIZE] = {
  35:.\Generated_Source\PSoC4/CapSense_SMS.c ****             2u,     2u,     2u,    4u,    4u,    4u,    4u,    8u,    8u,    8u,    8u,    8u,    8
  36:.\Generated_Source\PSoC4/CapSense_SMS.c ****         };
  37:.\Generated_Source\PSoC4/CapSense_SMS.c ****     #else   /* (CYDEV_BCLK__HFCLK__MHZ > 12u) */
  38:.\Generated_Source\PSoC4/CapSense_SMS.c ****         const uint8 CapSense_prescalerTable[CapSense_PRESCALERS_TBL_SIZE] = {
  39:.\Generated_Source\PSoC4/CapSense_SMS.c ****             1u,     1u,     1u,    2u,    2u,    2u,    2u,    4u,    4u,    4u,    4u,    4u,    4
  40:.\Generated_Source\PSoC4/CapSense_SMS.c ****         };
  41:.\Generated_Source\PSoC4/CapSense_SMS.c ****     #endif /* (CYDEV_BCLK__HFCLK__MHZ > 24u) */
  42:.\Generated_Source\PSoC4/CapSense_SMS.c **** 
  43:.\Generated_Source\PSoC4/CapSense_SMS.c **** #elif (0u != CapSense_IS_M0S8PERI_BLOCK)
  44:.\Generated_Source\PSoC4/CapSense_SMS.c ****     /*  Dividers are not chained (PSoC 4000) */
  45:.\Generated_Source\PSoC4/CapSense_SMS.c ****     #if (CYDEV_BCLK__HFCLK__MHZ >= 12u)
  46:.\Generated_Source\PSoC4/CapSense_SMS.c ****         const uint8 CapSense_prescalerTable[CapSense_PRESCALERS_TBL_SIZE] = {
  47:.\Generated_Source\PSoC4/CapSense_SMS.c ****             1u,     1u,     1u,    2u,    2u,    2u,    2u,    4u,    4u,    4u,    4u,    4u,    4
  48:.\Generated_Source\PSoC4/CapSense_SMS.c ****         };
  49:.\Generated_Source\PSoC4/CapSense_SMS.c **** 
  50:.\Generated_Source\PSoC4/CapSense_SMS.c ****     #elif (CYDEV_BCLK__HFCLK__MHZ >= 6u)
  51:.\Generated_Source\PSoC4/CapSense_SMS.c ****         const uint8 CapSense_prescalerTable[CapSense_PRESCALERS_TBL_SIZE] = {
  52:.\Generated_Source\PSoC4/CapSense_SMS.c ****             1u,     1u,     1u,    1u,    1u,    1u,    1u,    2u,    2u,    2u,    2u,    2u,    2
  53:.\Generated_Source\PSoC4/CapSense_SMS.c ****         };
  54:.\Generated_Source\PSoC4/CapSense_SMS.c ****     #else
  55:.\Generated_Source\PSoC4/CapSense_SMS.c ****         const uint8 CapSense_prescalerTable[CapSense_PRESCALERS_TBL_SIZE] = {
  56:.\Generated_Source\PSoC4/CapSense_SMS.c ****             1u,     1u,     1u,    1u,    1u,    1u,    1u,    1u,    1u,    1u,    1u,    1u,    1
  57:.\Generated_Source\PSoC4/CapSense_SMS.c ****         };
  58:.\Generated_Source\PSoC4/CapSense_SMS.c ****     #endif /* (CYDEV_BCLK__HFCLK__MHZ > 12u) */
  59:.\Generated_Source\PSoC4/CapSense_SMS.c **** 
  60:.\Generated_Source\PSoC4/CapSense_SMS.c **** #else
  61:.\Generated_Source\PSoC4/CapSense_SMS.c ****     /*  Dividers are chained (PSoC 4100, PSoC 4200) */
  62:.\Generated_Source\PSoC4/CapSense_SMS.c ****     #if (CYDEV_BCLK__HFCLK__MHZ > 24u)
  63:.\Generated_Source\PSoC4/CapSense_SMS.c ****         const uint8 CapSense_prescalerTable[CapSense_PRESCALERS_TBL_SIZE] = {
  64:.\Generated_Source\PSoC4/CapSense_SMS.c ****             2u,     2u,     2u,    4u,    4u,    4u,    4u,    8u,    8u,    8u,    8u,    8u,    8
  65:.\Generated_Source\PSoC4/CapSense_SMS.c ****         };
  66:.\Generated_Source\PSoC4/CapSense_SMS.c **** 
  67:.\Generated_Source\PSoC4/CapSense_SMS.c ****     #elif (CYDEV_BCLK__HFCLK__MHZ >12u)
  68:.\Generated_Source\PSoC4/CapSense_SMS.c ****         const uint8 CapSense_prescalerTable[CapSense_PRESCALERS_TBL_SIZE] = {
  69:.\Generated_Source\PSoC4/CapSense_SMS.c ****             1u,     1u,     1u,    2u,    2u,    2u,    2u,    4u,    4u,    4u,    4u,    4u,    4
  70:.\Generated_Source\PSoC4/CapSense_SMS.c ****         };
  71:.\Generated_Source\PSoC4/CapSense_SMS.c ****     #else   /* (CYDEV_BCLK__HFCLK__MHZ > 12u) */
  72:.\Generated_Source\PSoC4/CapSense_SMS.c ****         const uint8 CapSense_prescalerTable[CapSense_PRESCALERS_TBL_SIZE] = {
  73:.\Generated_Source\PSoC4/CapSense_SMS.c ****             1u,     1u,     1u,    1u,    1u,    1u,    1u,    2u,    2u,    2u,    2u,    2u,    2
ARM GAS  C:\Users\Amit\AppData\Local\Temp\ccR6FZnJ.s 			page 4


  74:.\Generated_Source\PSoC4/CapSense_SMS.c ****         };
  75:.\Generated_Source\PSoC4/CapSense_SMS.c ****     #endif /* (CYDEV_BCLK__HFCLK__MHZ > 24u) */
  76:.\Generated_Source\PSoC4/CapSense_SMS.c **** #endif /* ((0u != CapSense_IS_M0S8PERI_BLOCK) && (0u == CY_PSOC4_4000)) */
  77:.\Generated_Source\PSoC4/CapSense_SMS.c **** 
  78:.\Generated_Source\PSoC4/CapSense_SMS.c **** 
  79:.\Generated_Source\PSoC4/CapSense_SMS.c **** uint8 CapSense_noiseEnvelopeTbl[CapSense_TOTAL_SENSOR_COUNT];
  80:.\Generated_Source\PSoC4/CapSense_SMS.c **** uint8 CapSense_runningDifferenceTbl[CapSense_TOTAL_SENSOR_COUNT];
  81:.\Generated_Source\PSoC4/CapSense_SMS.c **** uint8 CapSense_signRegisterTbl[CapSense_TOTAL_SENSOR_COUNT];
  82:.\Generated_Source\PSoC4/CapSense_SMS.c **** uint16 CapSense_sampleMinTbl[CapSense_TOTAL_SENSOR_COUNT];
  83:.\Generated_Source\PSoC4/CapSense_SMS.c **** uint16 CapSense_sampleMaxTbl[CapSense_TOTAL_SENSOR_COUNT];
  84:.\Generated_Source\PSoC4/CapSense_SMS.c **** uint16 CapSense_previousSampleTbl[CapSense_TOTAL_SENSOR_COUNT];
  85:.\Generated_Source\PSoC4/CapSense_SMS.c **** uint8 CapSense_kValueTbl[CapSense_TOTAL_SENSOR_COUNT];
  86:.\Generated_Source\PSoC4/CapSense_SMS.c **** 
  87:.\Generated_Source\PSoC4/CapSense_SMS.c **** uint8 CapSense_sensorSensitivity[] = {
  88:.\Generated_Source\PSoC4/CapSense_SMS.c ****     4u, 4u, 4u, 4u, 4u, 2u, 2u, 2u, 
  89:.\Generated_Source\PSoC4/CapSense_SMS.c **** };
  90:.\Generated_Source\PSoC4/CapSense_SMS.c **** 
  91:.\Generated_Source\PSoC4/CapSense_SMS.c **** CapSense_CONFIG_TYPE_P4_v2_40 CapSense_config;
  92:.\Generated_Source\PSoC4/CapSense_SMS.c **** CapSense_CONFIG_TYPE_POINTERS_P4_v2_40 const CapSense_configPointers = {
  93:.\Generated_Source\PSoC4/CapSense_SMS.c ****     CapSense_modulationIDAC,
  94:.\Generated_Source\PSoC4/CapSense_SMS.c ****     CapSense_compensationIDAC,
  95:.\Generated_Source\PSoC4/CapSense_SMS.c ****     CapSense_sensorSensitivity,
  96:.\Generated_Source\PSoC4/CapSense_SMS.c ****     CapSense_senseClkDividerVal,
  97:.\Generated_Source\PSoC4/CapSense_SMS.c ****     CapSense_sampleClkDividerVal,
  98:.\Generated_Source\PSoC4/CapSense_SMS.c ****     CapSense_widgetNumber,
  99:.\Generated_Source\PSoC4/CapSense_SMS.c ****     CapSense_widgetResolution,
 100:.\Generated_Source\PSoC4/CapSense_SMS.c ****     CapSense_noiseEnvelopeTbl,
 101:.\Generated_Source\PSoC4/CapSense_SMS.c ****     CapSense_runningDifferenceTbl,
 102:.\Generated_Source\PSoC4/CapSense_SMS.c ****     CapSense_signRegisterTbl,
 103:.\Generated_Source\PSoC4/CapSense_SMS.c ****     CapSense_sampleMinTbl,
 104:.\Generated_Source\PSoC4/CapSense_SMS.c ****     CapSense_sampleMaxTbl,
 105:.\Generated_Source\PSoC4/CapSense_SMS.c ****     CapSense_previousSampleTbl,
 106:.\Generated_Source\PSoC4/CapSense_SMS.c ****     CapSense_kValueTbl,
 107:.\Generated_Source\PSoC4/CapSense_SMS.c ****     CapSense_scanSpeedTbl,
 108:.\Generated_Source\PSoC4/CapSense_SMS.c ****     CapSense_prescalerTable,
 109:.\Generated_Source\PSoC4/CapSense_SMS.c ****     (const uint8  *)CapSense_rawDataIndex,
 110:.\Generated_Source\PSoC4/CapSense_SMS.c ****     (const uint8  *)CapSense_numberOfSensors,
 111:.\Generated_Source\PSoC4/CapSense_SMS.c ****     &CapSense_GetSensorRaw,
 112:.\Generated_Source\PSoC4/CapSense_SMS.c ****     &CapSense_PreScan,
 113:.\Generated_Source\PSoC4/CapSense_SMS.c ****     &CapSense_ReadSensorRaw,
 114:.\Generated_Source\PSoC4/CapSense_SMS.c ****     &CapSense_GetBitValue,
 115:.\Generated_Source\PSoC4/CapSense_SMS.c ****     &CapSense_SetBitValue
 116:.\Generated_Source\PSoC4/CapSense_SMS.c **** };
 117:.\Generated_Source\PSoC4/CapSense_SMS.c **** 
 118:.\Generated_Source\PSoC4/CapSense_SMS.c **** 
 119:.\Generated_Source\PSoC4/CapSense_SMS.c **** /*******************************************************************************
 120:.\Generated_Source\PSoC4/CapSense_SMS.c **** * Function Name: CapSense_AutoTune
 121:.\Generated_Source\PSoC4/CapSense_SMS.c **** ********************************************************************************
 122:.\Generated_Source\PSoC4/CapSense_SMS.c **** *
 123:.\Generated_Source\PSoC4/CapSense_SMS.c **** * Summary:
 124:.\Generated_Source\PSoC4/CapSense_SMS.c **** *  Provides the tuning procedure for all sensors.
 125:.\Generated_Source\PSoC4/CapSense_SMS.c **** *
 126:.\Generated_Source\PSoC4/CapSense_SMS.c **** * Parameters:
 127:.\Generated_Source\PSoC4/CapSense_SMS.c **** *  None
 128:.\Generated_Source\PSoC4/CapSense_SMS.c **** *
 129:.\Generated_Source\PSoC4/CapSense_SMS.c **** * Return:
 130:.\Generated_Source\PSoC4/CapSense_SMS.c **** *  None
ARM GAS  C:\Users\Amit\AppData\Local\Temp\ccR6FZnJ.s 			page 5


 131:.\Generated_Source\PSoC4/CapSense_SMS.c **** *
 132:.\Generated_Source\PSoC4/CapSense_SMS.c **** * Global Variables:
 133:.\Generated_Source\PSoC4/CapSense_SMS.c **** *   CapSense_config: the structure which contains configuration parameters
 134:.\Generated_Source\PSoC4/CapSense_SMS.c **** *   CapSense_senseClkDividerVal[]: used to store the Analog Switch
 135:.\Generated_Source\PSoC4/CapSense_SMS.c **** *   dividers for each sensor.
 136:.\Generated_Source\PSoC4/CapSense_SMS.c **** *   CapSense_senseClkDividerVal[]: used to store the
 137:.\Generated_Source\PSoC4/CapSense_SMS.c **** *    Analog Switch divider for all sensors.
 138:.\Generated_Source\PSoC4/CapSense_SMS.c **** *   CapSense_prescalersTuningDone - used to notify the Tuner GUI that
 139:.\Generated_Source\PSoC4/CapSense_SMS.c **** *   the pre-scalers tuning  is done.
 140:.\Generated_Source\PSoC4/CapSense_SMS.c **** *
 141:.\Generated_Source\PSoC4/CapSense_SMS.c **** * Side Effects:
 142:.\Generated_Source\PSoC4/CapSense_SMS.c **** *  None
 143:.\Generated_Source\PSoC4/CapSense_SMS.c **** *
 144:.\Generated_Source\PSoC4/CapSense_SMS.c **** *******************************************************************************/
 145:.\Generated_Source\PSoC4/CapSense_SMS.c **** void CapSense_AutoTune(void)
 146:.\Generated_Source\PSoC4/CapSense_SMS.c **** {
  99              		.loc 1 146 0
 100              		.cfi_startproc
 101 0000 80B5     		push	{r7, lr}
 102              		.cfi_def_cfa_offset 8
 103              		.cfi_offset 7, -8
 104              		.cfi_offset 14, -4
 105 0002 82B0     		sub	sp, sp, #8
 106              		.cfi_def_cfa_offset 16
 107 0004 00AF     		add	r7, sp, #0
 108              		.cfi_def_cfa_register 7
 147:.\Generated_Source\PSoC4/CapSense_SMS.c ****     uint32 curSensor;
 148:.\Generated_Source\PSoC4/CapSense_SMS.c ****     uint32 widget;
 149:.\Generated_Source\PSoC4/CapSense_SMS.c **** 
 150:.\Generated_Source\PSoC4/CapSense_SMS.c ****     CapSense_config.totalScanslotsNum = CapSense_TOTAL_SCANSLOT_COUNT;
 109              		.loc 1 150 0
 110 0006 374B     		ldr	r3, .L8
 111 0008 0822     		mov	r2, #8
 112 000a 1A70     		strb	r2, [r3]
 151:.\Generated_Source\PSoC4/CapSense_SMS.c ****     CapSense_config.totalWidgetsNum = CapSense_END_OF_WIDGETS_INDEX;
 113              		.loc 1 151 0
 114 000c 354B     		ldr	r3, .L8
 115 000e 0422     		mov	r2, #4
 116 0010 5A70     		strb	r2, [r3, #1]
 152:.\Generated_Source\PSoC4/CapSense_SMS.c ****     CapSense_config.totalSensorsNum = CapSense_TOTAL_SENSOR_COUNT;
 117              		.loc 1 152 0
 118 0012 344B     		ldr	r3, .L8
 119 0014 0822     		mov	r2, #8
 120 0016 9A70     		strb	r2, [r3, #2]
 153:.\Generated_Source\PSoC4/CapSense_SMS.c **** 
 154:.\Generated_Source\PSoC4/CapSense_SMS.c ****     CapSense_config.hfclkFreq_MHz = CYDEV_BCLK__HFCLK__MHZ;
 121              		.loc 1 154 0
 122 0018 324B     		ldr	r3, .L8
 123 001a 1822     		mov	r2, #24
 124 001c DA80     		strh	r2, [r3, #6]
 155:.\Generated_Source\PSoC4/CapSense_SMS.c ****     CapSense_config.sensetivitySeed = CapSense_SENSETIVITY_FACTOR;
 125              		.loc 1 155 0
 126 001e 314B     		ldr	r3, .L8
 127 0020 314A     		ldr	r2, .L8+4
 128 0022 9A80     		strh	r2, [r3, #4]
 156:.\Generated_Source\PSoC4/CapSense_SMS.c **** 
 157:.\Generated_Source\PSoC4/CapSense_SMS.c ****     CapSense_config.pointers = &CapSense_configPointers;
ARM GAS  C:\Users\Amit\AppData\Local\Temp\ccR6FZnJ.s 			page 6


 129              		.loc 1 157 0
 130 0024 2F4B     		ldr	r3, .L8
 131 0026 314A     		ldr	r2, .L8+8
 132 0028 9A60     		str	r2, [r3, #8]
 158:.\Generated_Source\PSoC4/CapSense_SMS.c **** 
 159:.\Generated_Source\PSoC4/CapSense_SMS.c ****     CapSense_SetAnalogSwitchesSrcDirect();
 133              		.loc 1 159 0
 134 002a FFF7FEFF 		bl	CapSense_SetAnalogSwitchesSrcDirect
 160:.\Generated_Source\PSoC4/CapSense_SMS.c **** 
 161:.\Generated_Source\PSoC4/CapSense_SMS.c ****     for(widget = 0u; widget < CapSense_config.totalWidgetsNum; widget++)
 135              		.loc 1 161 0
 136 002e 0023     		mov	r3, #0
 137 0030 3B60     		str	r3, [r7]
 138 0032 07E0     		b	.L2
 139              	.L3:
 162:.\Generated_Source\PSoC4/CapSense_SMS.c ****     {
 163:.\Generated_Source\PSoC4/CapSense_SMS.c ****         CapSense_widgetResolution[widget] = CapSense_CALIBRATION_RESOLUTION;
 140              		.loc 1 163 0 discriminator 3
 141 0034 2E4B     		ldr	r3, .L8+12
 142 0036 3A68     		ldr	r2, [r7]
 143 0038 9200     		lsl	r2, r2, #2
 144 003a 2E49     		ldr	r1, .L8+16
 145 003c D150     		str	r1, [r2, r3]
 161:.\Generated_Source\PSoC4/CapSense_SMS.c ****     {
 146              		.loc 1 161 0 discriminator 3
 147 003e 3B68     		ldr	r3, [r7]
 148 0040 0133     		add	r3, r3, #1
 149 0042 3B60     		str	r3, [r7]
 150              	.L2:
 161:.\Generated_Source\PSoC4/CapSense_SMS.c ****     {
 151              		.loc 1 161 0 is_stmt 0 discriminator 1
 152 0044 274B     		ldr	r3, .L8
 153 0046 5B78     		ldrb	r3, [r3, #1]
 154 0048 1A1E     		sub	r2, r3, #0
 155 004a 3B68     		ldr	r3, [r7]
 156 004c 9A42     		cmp	r2, r3
 157 004e F1D8     		bhi	.L3
 164:.\Generated_Source\PSoC4/CapSense_SMS.c ****     }
 165:.\Generated_Source\PSoC4/CapSense_SMS.c **** 
 166:.\Generated_Source\PSoC4/CapSense_SMS.c **** 
 167:.\Generated_Source\PSoC4/CapSense_SMS.c ****     for(curSensor = 0u; curSensor < CapSense_TOTAL_SCANSLOT_COUNT; curSensor++)
 158              		.loc 1 167 0 is_stmt 1
 159 0050 0023     		mov	r3, #0
 160 0052 7B60     		str	r3, [r7, #4]
 161 0054 0CE0     		b	.L4
 162              	.L5:
 168:.\Generated_Source\PSoC4/CapSense_SMS.c ****     {
 169:.\Generated_Source\PSoC4/CapSense_SMS.c ****         CapSense_senseClkDividerVal[curSensor] = CapSense_CALIBRATION_ASD;
 163              		.loc 1 169 0 discriminator 3
 164 0056 284A     		ldr	r2, .L8+20
 165 0058 7B68     		ldr	r3, [r7, #4]
 166 005a D318     		add	r3, r2, r3
 167 005c 0422     		mov	r2, #4
 168 005e 1A70     		strb	r2, [r3]
 170:.\Generated_Source\PSoC4/CapSense_SMS.c ****         CapSense_sampleClkDividerVal[curSensor] = CapSense_CALIBRATION_MD;
 169              		.loc 1 170 0 discriminator 3
 170 0060 264A     		ldr	r2, .L8+24
ARM GAS  C:\Users\Amit\AppData\Local\Temp\ccR6FZnJ.s 			page 7


 171 0062 7B68     		ldr	r3, [r7, #4]
 172 0064 D318     		add	r3, r2, r3
 173 0066 0222     		mov	r2, #2
 174 0068 1A70     		strb	r2, [r3]
 167:.\Generated_Source\PSoC4/CapSense_SMS.c ****     {
 175              		.loc 1 167 0 discriminator 3
 176 006a 7B68     		ldr	r3, [r7, #4]
 177 006c 0133     		add	r3, r3, #1
 178 006e 7B60     		str	r3, [r7, #4]
 179              	.L4:
 167:.\Generated_Source\PSoC4/CapSense_SMS.c ****     {
 180              		.loc 1 167 0 is_stmt 0 discriminator 1
 181 0070 7B68     		ldr	r3, [r7, #4]
 182 0072 072B     		cmp	r3, #7
 183 0074 EFD9     		bls	.L5
 171:.\Generated_Source\PSoC4/CapSense_SMS.c ****     }
 172:.\Generated_Source\PSoC4/CapSense_SMS.c **** 
 173:.\Generated_Source\PSoC4/CapSense_SMS.c ****     CapSense_DisableBaselineIDAC();
 184              		.loc 1 173 0 is_stmt 1
 185 0076 FFF7FEFF 		bl	CapSense_DisableBaselineIDAC
 174:.\Generated_Source\PSoC4/CapSense_SMS.c **** 
 175:.\Generated_Source\PSoC4/CapSense_SMS.c ****     CalibrateSensors_P4_v2_40(&CapSense_config, CapSense_CAL_RAW_COUNT);
 186              		.loc 1 175 0
 187 007a 1A4B     		ldr	r3, .L8
 188 007c 204A     		ldr	r2, .L8+28
 189 007e 181C     		mov	r0, r3
 190 0080 111C     		mov	r1, r2
 191 0082 FFF7FEFF 		bl	CalibrateSensors_P4_v2_40
 176:.\Generated_Source\PSoC4/CapSense_SMS.c **** 
 177:.\Generated_Source\PSoC4/CapSense_SMS.c ****     #if(0u != CapSense_TOTAL_CENTROIDS_COUNT)
 178:.\Generated_Source\PSoC4/CapSense_SMS.c ****         CapSense_NormalizeWidgets(CapSense_END_OF_WIDGETS_INDEX, CapSense_modulationIDAC);
 192              		.loc 1 178 0
 193 0086 1F4B     		ldr	r3, .L8+32
 194 0088 0420     		mov	r0, #4
 195 008a 191C     		mov	r1, r3
 196 008c FFF7FEFF 		bl	CapSense_NormalizeWidgets
 179:.\Generated_Source\PSoC4/CapSense_SMS.c ****     #endif /* (0u != CapSense_TOTAL_CENTROIDS_COUNT)  */
 180:.\Generated_Source\PSoC4/CapSense_SMS.c **** 
 181:.\Generated_Source\PSoC4/CapSense_SMS.c ****     TunePrescalers_P4_v2_40(&CapSense_config);
 197              		.loc 1 181 0
 198 0090 144B     		ldr	r3, .L8
 199 0092 181C     		mov	r0, r3
 200 0094 FFF7FEFF 		bl	TunePrescalers_P4_v2_40
 182:.\Generated_Source\PSoC4/CapSense_SMS.c **** 
 183:.\Generated_Source\PSoC4/CapSense_SMS.c ****     #if(CapSense_PRS_OPTIONS != CapSense__PRS_NONE)
 184:.\Generated_Source\PSoC4/CapSense_SMS.c ****         CapSense_prescalersTuningDone = 1u;
 201              		.loc 1 184 0
 202 0098 1B4B     		ldr	r3, .L8+36
 203 009a 0122     		mov	r2, #1
 204 009c 1A70     		strb	r2, [r3]
 185:.\Generated_Source\PSoC4/CapSense_SMS.c ****     #endif /* (CapSense_PRS_OPTIONS == CapSense__PRS_NONE) */
 186:.\Generated_Source\PSoC4/CapSense_SMS.c **** 
 187:.\Generated_Source\PSoC4/CapSense_SMS.c ****     CalibrateSensors_P4_v2_40(&CapSense_config, CapSense_CAL_RAW_COUNT);
 205              		.loc 1 187 0
 206 009e 114B     		ldr	r3, .L8
 207 00a0 174A     		ldr	r2, .L8+28
 208 00a2 181C     		mov	r0, r3
ARM GAS  C:\Users\Amit\AppData\Local\Temp\ccR6FZnJ.s 			page 8


 209 00a4 111C     		mov	r1, r2
 210 00a6 FFF7FEFF 		bl	CalibrateSensors_P4_v2_40
 188:.\Generated_Source\PSoC4/CapSense_SMS.c ****     #if(0u != CapSense_TOTAL_CENTROIDS_COUNT)
 189:.\Generated_Source\PSoC4/CapSense_SMS.c ****         CapSense_NormalizeWidgets(CapSense_END_OF_WIDGETS_INDEX, CapSense_modulationIDAC);
 211              		.loc 1 189 0
 212 00aa 164B     		ldr	r3, .L8+32
 213 00ac 0420     		mov	r0, #4
 214 00ae 191C     		mov	r1, r3
 215 00b0 FFF7FEFF 		bl	CapSense_NormalizeWidgets
 190:.\Generated_Source\PSoC4/CapSense_SMS.c ****     #endif /* (0u != CapSense_TOTAL_CENTROIDS_COUNT)  */
 191:.\Generated_Source\PSoC4/CapSense_SMS.c ****     TuneSensitivity_P4_v2_40(&CapSense_config);
 216              		.loc 1 191 0
 217 00b4 0B4B     		ldr	r3, .L8
 218 00b6 181C     		mov	r0, r3
 219 00b8 FFF7FEFF 		bl	TuneSensitivity_P4_v2_40
 192:.\Generated_Source\PSoC4/CapSense_SMS.c **** 
 193:.\Generated_Source\PSoC4/CapSense_SMS.c ****     CapSense_EnableBaselineIDAC(&CapSense_config);
 220              		.loc 1 193 0
 221 00bc 094B     		ldr	r3, .L8
 222 00be 181C     		mov	r0, r3
 223 00c0 FFF7FEFF 		bl	CapSense_EnableBaselineIDAC
 194:.\Generated_Source\PSoC4/CapSense_SMS.c **** 
 195:.\Generated_Source\PSoC4/CapSense_SMS.c ****     for(curSensor = 0u; curSensor < CapSense_TOTAL_SCANSLOT_COUNT; curSensor++)
 224              		.loc 1 195 0
 225 00c4 0023     		mov	r3, #0
 226 00c6 7B60     		str	r3, [r7, #4]
 227 00c8 06E0     		b	.L6
 228              	.L7:
 196:.\Generated_Source\PSoC4/CapSense_SMS.c ****     {
 197:.\Generated_Source\PSoC4/CapSense_SMS.c ****         CapSense_UpdateThresholds(curSensor);
 229              		.loc 1 197 0 discriminator 3
 230 00ca 7B68     		ldr	r3, [r7, #4]
 231 00cc 181C     		mov	r0, r3
 232 00ce FFF7FEFF 		bl	CapSense_UpdateThresholds
 195:.\Generated_Source\PSoC4/CapSense_SMS.c ****     {
 233              		.loc 1 195 0 discriminator 3
 234 00d2 7B68     		ldr	r3, [r7, #4]
 235 00d4 0133     		add	r3, r3, #1
 236 00d6 7B60     		str	r3, [r7, #4]
 237              	.L6:
 195:.\Generated_Source\PSoC4/CapSense_SMS.c ****     {
 238              		.loc 1 195 0 is_stmt 0 discriminator 1
 239 00d8 7B68     		ldr	r3, [r7, #4]
 240 00da 072B     		cmp	r3, #7
 241 00dc F5D9     		bls	.L7
 198:.\Generated_Source\PSoC4/CapSense_SMS.c ****     }
 199:.\Generated_Source\PSoC4/CapSense_SMS.c **** }
 242              		.loc 1 199 0 is_stmt 1
 243 00de BD46     		mov	sp, r7
 244 00e0 02B0     		add	sp, sp, #8
 245              		@ sp needed
 246 00e2 80BD     		pop	{r7, pc}
 247              	.L9:
 248              		.align	2
 249              	.L8:
 250 00e4 00000000 		.word	CapSense_config
 251 00e8 66020000 		.word	614
ARM GAS  C:\Users\Amit\AppData\Local\Temp\ccR6FZnJ.s 			page 9


 252 00ec 00000000 		.word	CapSense_configPointers
 253 00f0 00000000 		.word	CapSense_widgetResolution
 254 00f4 0000FF0F 		.word	268369920
 255 00f8 00000000 		.word	CapSense_senseClkDividerVal
 256 00fc 00000000 		.word	CapSense_sampleClkDividerVal
 257 0100 9A0D0000 		.word	3482
 258 0104 00000000 		.word	CapSense_modulationIDAC
 259 0108 00000000 		.word	CapSense_prescalersTuningDone
 260              		.cfi_endproc
 261              	.LFE34:
 262              		.size	CapSense_AutoTune, .-CapSense_AutoTune
 263              		.section	.text.CapSense_UpdateThresholds,"ax",%progbits
 264              		.align	2
 265              		.global	CapSense_UpdateThresholds
 266              		.code	16
 267              		.thumb_func
 268              		.type	CapSense_UpdateThresholds, %function
 269              	CapSense_UpdateThresholds:
 270              	.LFB35:
 200:.\Generated_Source\PSoC4/CapSense_SMS.c **** 
 201:.\Generated_Source\PSoC4/CapSense_SMS.c **** 
 202:.\Generated_Source\PSoC4/CapSense_SMS.c **** /*******************************************************************************
 203:.\Generated_Source\PSoC4/CapSense_SMS.c **** * Function Name: CapSense_UpdateThresholds
 204:.\Generated_Source\PSoC4/CapSense_SMS.c **** ********************************************************************************
 205:.\Generated_Source\PSoC4/CapSense_SMS.c **** *
 206:.\Generated_Source\PSoC4/CapSense_SMS.c **** * Summary:
 207:.\Generated_Source\PSoC4/CapSense_SMS.c **** *  The API updates the Finger Threshold, Hysteresis, Noise Threshold, and
 208:.\Generated_Source\PSoC4/CapSense_SMS.c **** *  Negative Noise Threshold in the AutoTuning (Smartsense) Mode.
 209:.\Generated_Source\PSoC4/CapSense_SMS.c **** *
 210:.\Generated_Source\PSoC4/CapSense_SMS.c **** * Parameters:
 211:.\Generated_Source\PSoC4/CapSense_SMS.c **** *  sensor: sensor number.
 212:.\Generated_Source\PSoC4/CapSense_SMS.c **** *
 213:.\Generated_Source\PSoC4/CapSense_SMS.c **** * Return:
 214:.\Generated_Source\PSoC4/CapSense_SMS.c **** *  None
 215:.\Generated_Source\PSoC4/CapSense_SMS.c **** *
 216:.\Generated_Source\PSoC4/CapSense_SMS.c **** * Global Variables:
 217:.\Generated_Source\PSoC4/CapSense_SMS.c **** *  CapSense_widgetNumber[] - contains widget Number for given sensor.
 218:.\Generated_Source\PSoC4/CapSense_SMS.c **** *  0 through 7 (sensor 0 is bit 0, sensor 1 is bit 1).
 219:.\Generated_Source\PSoC4/CapSense_SMS.c **** *  For other sensors the array element equals to 255.
 220:.\Generated_Source\PSoC4/CapSense_SMS.c **** *  CapSense_numberOfSensors[widget] - Number of sensors in the widget.
 221:.\Generated_Source\PSoC4/CapSense_SMS.c **** *   CapSense_fingerThreshold[] - contains the level of signal for each sensor
 222:.\Generated_Source\PSoC4/CapSense_SMS.c **** *   that determines if a finger present on the sensor.
 223:.\Generated_Source\PSoC4/CapSense_SMS.c **** *   CapSense_negativeNoiseThreshold[] - negative Noise Threshold
 224:.\Generated_Source\PSoC4/CapSense_SMS.c **** *   CapSense_hysteresis[] - the array with hysteresis values.
 225:.\Generated_Source\PSoC4/CapSense_SMS.c **** *
 226:.\Generated_Source\PSoC4/CapSense_SMS.c **** * Side Effects:
 227:.\Generated_Source\PSoC4/CapSense_SMS.c **** *  None
 228:.\Generated_Source\PSoC4/CapSense_SMS.c **** *
 229:.\Generated_Source\PSoC4/CapSense_SMS.c **** *******************************************************************************/
 230:.\Generated_Source\PSoC4/CapSense_SMS.c **** void CapSense_UpdateThresholds(uint32 sensor)
 231:.\Generated_Source\PSoC4/CapSense_SMS.c **** {
 271              		.loc 1 231 0
 272              		.cfi_startproc
 273 0000 90B5     		push	{r4, r7, lr}
 274              		.cfi_def_cfa_offset 12
 275              		.cfi_offset 4, -12
 276              		.cfi_offset 7, -8
ARM GAS  C:\Users\Amit\AppData\Local\Temp\ccR6FZnJ.s 			page 10


 277              		.cfi_offset 14, -4
 278 0002 87B0     		sub	sp, sp, #28
 279              		.cfi_def_cfa_offset 40
 280 0004 02AF     		add	r7, sp, #8
 281              		.cfi_def_cfa 7, 32
 282 0006 7860     		str	r0, [r7, #4]
 232:.\Generated_Source\PSoC4/CapSense_SMS.c ****     uint8 fingerThreshold;
 233:.\Generated_Source\PSoC4/CapSense_SMS.c ****     uint32 widget;
 234:.\Generated_Source\PSoC4/CapSense_SMS.c **** 
 235:.\Generated_Source\PSoC4/CapSense_SMS.c ****     widget = CapSense_widgetNumber[sensor];
 283              		.loc 1 235 0
 284 0008 334A     		ldr	r2, .L16
 285 000a 7B68     		ldr	r3, [r7, #4]
 286 000c D318     		add	r3, r2, r3
 287 000e 1B78     		ldrb	r3, [r3]
 288 0010 FB60     		str	r3, [r7, #12]
 236:.\Generated_Source\PSoC4/CapSense_SMS.c **** 
 237:.\Generated_Source\PSoC4/CapSense_SMS.c ****     #if(0u != CapSense_FLEXIBLE_THRESHOLDS_EN)
 238:.\Generated_Source\PSoC4/CapSense_SMS.c ****         fingerThreshold = CapSense_fingerThreshold[widget];
 239:.\Generated_Source\PSoC4/CapSense_SMS.c ****         /* Update Threshold manually (flexible) */
 240:.\Generated_Source\PSoC4/CapSense_SMS.c ****         CapSense_noiseThreshold[widget] = (uint8)(fingerThreshold >> 1u);
 241:.\Generated_Source\PSoC4/CapSense_SMS.c ****         CapSense_negativeNoiseThreshold[widget] = (uint8)(fingerThreshold >> 1u);
 242:.\Generated_Source\PSoC4/CapSense_SMS.c ****         CapSense_hysteresis[widget] = (uint8)(fingerThreshold >> 3u);
 243:.\Generated_Source\PSoC4/CapSense_SMS.c ****     #else
 244:.\Generated_Source\PSoC4/CapSense_SMS.c ****         /* Calculate Finger Threshold and Noise Threshold with Smartsense (automatic) */
 245:.\Generated_Source\PSoC4/CapSense_SMS.c ****         CalculateThresholds_P4_v2_40(&CapSense_config, (uint8)sensor, (uint8)widget, CapSense_finge
 289              		.loc 1 245 0
 290 0012 7B68     		ldr	r3, [r7, #4]
 291 0014 D9B2     		uxtb	r1, r3
 292 0016 FB68     		ldr	r3, [r7, #12]
 293 0018 DAB2     		uxtb	r2, r3
 294 001a 3048     		ldr	r0, .L16+4
 295 001c 304C     		ldr	r4, .L16+8
 296 001e 314B     		ldr	r3, .L16+12
 297 0020 0093     		str	r3, [sp]
 298 0022 231C     		mov	r3, r4
 299 0024 FFF7FEFF 		bl	CalculateThresholds_P4_v2_40
 246:.\Generated_Source\PSoC4/CapSense_SMS.c **** 
 247:.\Generated_Source\PSoC4/CapSense_SMS.c ****         fingerThreshold = CapSense_fingerThreshold[widget];
 300              		.loc 1 247 0
 301 0028 0B23     		mov	r3, #11
 302 002a FB18     		add	r3, r7, r3
 303 002c 2C49     		ldr	r1, .L16+8
 304 002e FA68     		ldr	r2, [r7, #12]
 305 0030 8A18     		add	r2, r1, r2
 306 0032 1278     		ldrb	r2, [r2]
 307 0034 1A70     		strb	r2, [r3]
 248:.\Generated_Source\PSoC4/CapSense_SMS.c **** 
 249:.\Generated_Source\PSoC4/CapSense_SMS.c ****         /* Update Threshold based on calculated with Smartsense (automatic) */
 250:.\Generated_Source\PSoC4/CapSense_SMS.c ****         CapSense_negativeNoiseThreshold[widget] = CapSense_noiseThreshold[widget];
 308              		.loc 1 250 0
 309 0036 2B4A     		ldr	r2, .L16+12
 310 0038 FB68     		ldr	r3, [r7, #12]
 311 003a D318     		add	r3, r2, r3
 312 003c 1978     		ldrb	r1, [r3]
 313 003e 2A4A     		ldr	r2, .L16+16
 314 0040 FB68     		ldr	r3, [r7, #12]
ARM GAS  C:\Users\Amit\AppData\Local\Temp\ccR6FZnJ.s 			page 11


 315 0042 D318     		add	r3, r2, r3
 316 0044 0A1C     		add	r2, r1, #0
 317 0046 1A70     		strb	r2, [r3]
 251:.\Generated_Source\PSoC4/CapSense_SMS.c **** 
 252:.\Generated_Source\PSoC4/CapSense_SMS.c ****         if(fingerThreshold < CapSense_THRESHOLD_1)
 318              		.loc 1 252 0
 319 0048 0B23     		mov	r3, #11
 320 004a FB18     		add	r3, r7, r3
 321 004c 1B78     		ldrb	r3, [r3]
 322 004e DB2B     		cmp	r3, #219
 323 0050 0AD8     		bhi	.L11
 253:.\Generated_Source\PSoC4/CapSense_SMS.c ****         {
 254:.\Generated_Source\PSoC4/CapSense_SMS.c ****             CapSense_hysteresis[widget] = (uint8)(fingerThreshold >> 3u);
 324              		.loc 1 254 0
 325 0052 0B23     		mov	r3, #11
 326 0054 FB18     		add	r3, r7, r3
 327 0056 1B78     		ldrb	r3, [r3]
 328 0058 DB08     		lsr	r3, r3, #3
 329 005a D9B2     		uxtb	r1, r3
 330 005c 234A     		ldr	r2, .L16+20
 331 005e FB68     		ldr	r3, [r7, #12]
 332 0060 D318     		add	r3, r2, r3
 333 0062 0A1C     		add	r2, r1, #0
 334 0064 1A70     		strb	r2, [r3]
 335 0066 34E0     		b	.L10
 336              	.L11:
 255:.\Generated_Source\PSoC4/CapSense_SMS.c ****         }
 256:.\Generated_Source\PSoC4/CapSense_SMS.c ****         else if(fingerThreshold <  CapSense_THRESHOLD_2)
 337              		.loc 1 256 0
 338 0068 0B23     		mov	r3, #11
 339 006a FB18     		add	r3, r7, r3
 340 006c 1B78     		ldrb	r3, [r3]
 341 006e EC2B     		cmp	r3, #236
 342 0070 0AD8     		bhi	.L13
 257:.\Generated_Source\PSoC4/CapSense_SMS.c ****         {
 258:.\Generated_Source\PSoC4/CapSense_SMS.c ****             CapSense_hysteresis[widget] = (uint8)(fingerThreshold >> 4u);
 343              		.loc 1 258 0
 344 0072 0B23     		mov	r3, #11
 345 0074 FB18     		add	r3, r7, r3
 346 0076 1B78     		ldrb	r3, [r3]
 347 0078 1B09     		lsr	r3, r3, #4
 348 007a D9B2     		uxtb	r1, r3
 349 007c 1B4A     		ldr	r2, .L16+20
 350 007e FB68     		ldr	r3, [r7, #12]
 351 0080 D318     		add	r3, r2, r3
 352 0082 0A1C     		add	r2, r1, #0
 353 0084 1A70     		strb	r2, [r3]
 354 0086 24E0     		b	.L10
 355              	.L13:
 259:.\Generated_Source\PSoC4/CapSense_SMS.c ****         }
 260:.\Generated_Source\PSoC4/CapSense_SMS.c ****         else if(fingerThreshold <  CapSense_THRESHOLD_3)
 356              		.loc 1 260 0
 357 0088 0B23     		mov	r3, #11
 358 008a FB18     		add	r3, r7, r3
 359 008c 1B78     		ldrb	r3, [r3]
 360 008e F42B     		cmp	r3, #244
 361 0090 0AD8     		bhi	.L14
ARM GAS  C:\Users\Amit\AppData\Local\Temp\ccR6FZnJ.s 			page 12


 261:.\Generated_Source\PSoC4/CapSense_SMS.c ****         {
 262:.\Generated_Source\PSoC4/CapSense_SMS.c ****             CapSense_hysteresis[widget] = (uint8)(fingerThreshold >> 5u);
 362              		.loc 1 262 0
 363 0092 0B23     		mov	r3, #11
 364 0094 FB18     		add	r3, r7, r3
 365 0096 1B78     		ldrb	r3, [r3]
 366 0098 5B09     		lsr	r3, r3, #5
 367 009a D9B2     		uxtb	r1, r3
 368 009c 134A     		ldr	r2, .L16+20
 369 009e FB68     		ldr	r3, [r7, #12]
 370 00a0 D318     		add	r3, r2, r3
 371 00a2 0A1C     		add	r2, r1, #0
 372 00a4 1A70     		strb	r2, [r3]
 373 00a6 14E0     		b	.L10
 374              	.L14:
 263:.\Generated_Source\PSoC4/CapSense_SMS.c ****         }
 264:.\Generated_Source\PSoC4/CapSense_SMS.c ****         else if(fingerThreshold <  CapSense_THRESHOLD_4)
 375              		.loc 1 264 0
 376 00a8 0B23     		mov	r3, #11
 377 00aa FB18     		add	r3, r7, r3
 378 00ac 1B78     		ldrb	r3, [r3]
 379 00ae F92B     		cmp	r3, #249
 380 00b0 0AD8     		bhi	.L15
 265:.\Generated_Source\PSoC4/CapSense_SMS.c ****         {
 266:.\Generated_Source\PSoC4/CapSense_SMS.c ****             CapSense_hysteresis[widget] = (uint8)(fingerThreshold >> 6u);
 381              		.loc 1 266 0
 382 00b2 0B23     		mov	r3, #11
 383 00b4 FB18     		add	r3, r7, r3
 384 00b6 1B78     		ldrb	r3, [r3]
 385 00b8 9B09     		lsr	r3, r3, #6
 386 00ba D9B2     		uxtb	r1, r3
 387 00bc 0B4A     		ldr	r2, .L16+20
 388 00be FB68     		ldr	r3, [r7, #12]
 389 00c0 D318     		add	r3, r2, r3
 390 00c2 0A1C     		add	r2, r1, #0
 391 00c4 1A70     		strb	r2, [r3]
 392 00c6 04E0     		b	.L10
 393              	.L15:
 267:.\Generated_Source\PSoC4/CapSense_SMS.c ****         }
 268:.\Generated_Source\PSoC4/CapSense_SMS.c ****         else
 269:.\Generated_Source\PSoC4/CapSense_SMS.c ****         {
 270:.\Generated_Source\PSoC4/CapSense_SMS.c ****             CapSense_hysteresis[widget] = 0u;
 394              		.loc 1 270 0
 395 00c8 084A     		ldr	r2, .L16+20
 396 00ca FB68     		ldr	r3, [r7, #12]
 397 00cc D318     		add	r3, r2, r3
 398 00ce 0022     		mov	r2, #0
 399 00d0 1A70     		strb	r2, [r3]
 400              	.L10:
 271:.\Generated_Source\PSoC4/CapSense_SMS.c ****         }
 272:.\Generated_Source\PSoC4/CapSense_SMS.c ****     #endif /* (0u != CapSense_FLEXIBLE_THRESHOLDS_EN)  */
 273:.\Generated_Source\PSoC4/CapSense_SMS.c **** }
 401              		.loc 1 273 0
 402 00d2 BD46     		mov	sp, r7
 403 00d4 05B0     		add	sp, sp, #20
 404              		@ sp needed
 405 00d6 90BD     		pop	{r4, r7, pc}
ARM GAS  C:\Users\Amit\AppData\Local\Temp\ccR6FZnJ.s 			page 13


 406              	.L17:
 407              		.align	2
 408              	.L16:
 409 00d8 00000000 		.word	CapSense_widgetNumber
 410 00dc 00000000 		.word	CapSense_config
 411 00e0 00000000 		.word	CapSense_fingerThreshold
 412 00e4 00000000 		.word	CapSense_noiseThreshold
 413 00e8 00000000 		.word	CapSense_negativeNoiseThreshold
 414 00ec 00000000 		.word	CapSense_hysteresis
 415              		.cfi_endproc
 416              	.LFE35:
 417              		.size	CapSense_UpdateThresholds, .-CapSense_UpdateThresholds
 418              		.section	.text.CapSense_SetAnalogSwitchesSrcDirect,"ax",%progbits
 419              		.align	2
 420              		.global	CapSense_SetAnalogSwitchesSrcDirect
 421              		.code	16
 422              		.thumb_func
 423              		.type	CapSense_SetAnalogSwitchesSrcDirect, %function
 424              	CapSense_SetAnalogSwitchesSrcDirect:
 425              	.LFB36:
 274:.\Generated_Source\PSoC4/CapSense_SMS.c **** 
 275:.\Generated_Source\PSoC4/CapSense_SMS.c **** /*******************************************************************************
 276:.\Generated_Source\PSoC4/CapSense_SMS.c **** * Function Name: CapSense_SetAnalogSwitchesSrcDirect
 277:.\Generated_Source\PSoC4/CapSense_SMS.c **** ********************************************************************************
 278:.\Generated_Source\PSoC4/CapSense_SMS.c **** *
 279:.\Generated_Source\PSoC4/CapSense_SMS.c **** * Summary:
 280:.\Generated_Source\PSoC4/CapSense_SMS.c **** *  This API switches the charge clock source to prescaler.
 281:.\Generated_Source\PSoC4/CapSense_SMS.c **** *
 282:.\Generated_Source\PSoC4/CapSense_SMS.c **** * Parameters:
 283:.\Generated_Source\PSoC4/CapSense_SMS.c **** *  None
 284:.\Generated_Source\PSoC4/CapSense_SMS.c **** *
 285:.\Generated_Source\PSoC4/CapSense_SMS.c **** * Return:
 286:.\Generated_Source\PSoC4/CapSense_SMS.c **** *  None
 287:.\Generated_Source\PSoC4/CapSense_SMS.c **** *
 288:.\Generated_Source\PSoC4/CapSense_SMS.c **** * Global Variables:
 289:.\Generated_Source\PSoC4/CapSense_SMS.c **** *  None
 290:.\Generated_Source\PSoC4/CapSense_SMS.c **** *
 291:.\Generated_Source\PSoC4/CapSense_SMS.c **** * Side Effects:
 292:.\Generated_Source\PSoC4/CapSense_SMS.c **** *  None
 293:.\Generated_Source\PSoC4/CapSense_SMS.c **** *
 294:.\Generated_Source\PSoC4/CapSense_SMS.c **** *******************************************************************************/
 295:.\Generated_Source\PSoC4/CapSense_SMS.c **** void CapSense_SetAnalogSwitchesSrcDirect(void)
 296:.\Generated_Source\PSoC4/CapSense_SMS.c **** {
 426              		.loc 1 296 0
 427              		.cfi_startproc
 428 0000 80B5     		push	{r7, lr}
 429              		.cfi_def_cfa_offset 8
 430              		.cfi_offset 7, -8
 431              		.cfi_offset 14, -4
 432 0002 00AF     		add	r7, sp, #0
 433              		.cfi_def_cfa_register 7
 297:.\Generated_Source\PSoC4/CapSense_SMS.c ****     CapSense_CSD_CFG_REG &= ~(CapSense_CSD_CFG_PRS_SELECT);
 434              		.loc 1 297 0
 435 0004 034B     		ldr	r3, .L19
 436 0006 034A     		ldr	r2, .L19
 437 0008 1268     		ldr	r2, [r2]
 438 000a 4021     		mov	r1, #64
ARM GAS  C:\Users\Amit\AppData\Local\Temp\ccR6FZnJ.s 			page 14


 439 000c 8A43     		bic	r2, r1
 440 000e 1A60     		str	r2, [r3]
 298:.\Generated_Source\PSoC4/CapSense_SMS.c **** }
 441              		.loc 1 298 0
 442 0010 BD46     		mov	sp, r7
 443              		@ sp needed
 444 0012 80BD     		pop	{r7, pc}
 445              	.L20:
 446              		.align	2
 447              	.L19:
 448 0014 04000840 		.word	1074266116
 449              		.cfi_endproc
 450              	.LFE36:
 451              		.size	CapSense_SetAnalogSwitchesSrcDirect, .-CapSense_SetAnalogSwitchesSrcDirect
 452              		.section	.text.CapSense_DisableBaselineIDAC,"ax",%progbits
 453              		.align	2
 454              		.global	CapSense_DisableBaselineIDAC
 455              		.code	16
 456              		.thumb_func
 457              		.type	CapSense_DisableBaselineIDAC, %function
 458              	CapSense_DisableBaselineIDAC:
 459              	.LFB37:
 299:.\Generated_Source\PSoC4/CapSense_SMS.c **** 
 300:.\Generated_Source\PSoC4/CapSense_SMS.c **** 
 301:.\Generated_Source\PSoC4/CapSense_SMS.c **** /*******************************************************************************
 302:.\Generated_Source\PSoC4/CapSense_SMS.c **** * Function Name: CapSense_DisableBaselineIDAC
 303:.\Generated_Source\PSoC4/CapSense_SMS.c **** ********************************************************************************
 304:.\Generated_Source\PSoC4/CapSense_SMS.c **** *
 305:.\Generated_Source\PSoC4/CapSense_SMS.c **** * Summary:
 306:.\Generated_Source\PSoC4/CapSense_SMS.c **** *  The API disables the Compensation IDAC.
 307:.\Generated_Source\PSoC4/CapSense_SMS.c **** *
 308:.\Generated_Source\PSoC4/CapSense_SMS.c **** * Parameters:
 309:.\Generated_Source\PSoC4/CapSense_SMS.c **** *  None
 310:.\Generated_Source\PSoC4/CapSense_SMS.c **** *
 311:.\Generated_Source\PSoC4/CapSense_SMS.c **** * Return:
 312:.\Generated_Source\PSoC4/CapSense_SMS.c **** *  None
 313:.\Generated_Source\PSoC4/CapSense_SMS.c **** *
 314:.\Generated_Source\PSoC4/CapSense_SMS.c **** * Global Variables:
 315:.\Generated_Source\PSoC4/CapSense_SMS.c **** *  None
 316:.\Generated_Source\PSoC4/CapSense_SMS.c **** *
 317:.\Generated_Source\PSoC4/CapSense_SMS.c **** * Side Effects:
 318:.\Generated_Source\PSoC4/CapSense_SMS.c **** *  None
 319:.\Generated_Source\PSoC4/CapSense_SMS.c **** *
 320:.\Generated_Source\PSoC4/CapSense_SMS.c **** *******************************************************************************/
 321:.\Generated_Source\PSoC4/CapSense_SMS.c **** void CapSense_DisableBaselineIDAC(void)
 322:.\Generated_Source\PSoC4/CapSense_SMS.c **** {
 460              		.loc 1 322 0
 461              		.cfi_startproc
 462 0000 80B5     		push	{r7, lr}
 463              		.cfi_def_cfa_offset 8
 464              		.cfi_offset 7, -8
 465              		.cfi_offset 14, -4
 466 0002 82B0     		sub	sp, sp, #8
 467              		.cfi_def_cfa_offset 16
 468 0004 00AF     		add	r7, sp, #0
 469              		.cfi_def_cfa_register 7
 323:.\Generated_Source\PSoC4/CapSense_SMS.c ****     uint32 newRegValue;
ARM GAS  C:\Users\Amit\AppData\Local\Temp\ccR6FZnJ.s 			page 15


 324:.\Generated_Source\PSoC4/CapSense_SMS.c **** 
 325:.\Generated_Source\PSoC4/CapSense_SMS.c ****     newRegValue = CapSense_CSD_IDAC_REG;
 470              		.loc 1 325 0
 471 0006 094B     		ldr	r3, .L22
 472 0008 1B68     		ldr	r3, [r3]
 473 000a 7B60     		str	r3, [r7, #4]
 326:.\Generated_Source\PSoC4/CapSense_SMS.c **** 
 327:.\Generated_Source\PSoC4/CapSense_SMS.c ****     newRegValue &= ~(CapSense_CSD_IDAC1_MODE_MASK | CapSense_CSD_IDAC2_MODE_MASK);
 474              		.loc 1 327 0
 475 000c 7B68     		ldr	r3, [r7, #4]
 476 000e 084A     		ldr	r2, .L22+4
 477 0010 1340     		and	r3, r2
 478 0012 7B60     		str	r3, [r7, #4]
 328:.\Generated_Source\PSoC4/CapSense_SMS.c ****     newRegValue |= CapSense_CSD_IDAC1_MODE_VARIABLE;
 479              		.loc 1 328 0
 480 0014 7B68     		ldr	r3, [r7, #4]
 481 0016 8022     		mov	r2, #128
 482 0018 9200     		lsl	r2, r2, #2
 483 001a 1343     		orr	r3, r2
 484 001c 7B60     		str	r3, [r7, #4]
 329:.\Generated_Source\PSoC4/CapSense_SMS.c **** 
 330:.\Generated_Source\PSoC4/CapSense_SMS.c ****     CapSense_CSD_IDAC_REG = newRegValue;
 485              		.loc 1 330 0
 486 001e 034B     		ldr	r3, .L22
 487 0020 7A68     		ldr	r2, [r7, #4]
 488 0022 1A60     		str	r2, [r3]
 331:.\Generated_Source\PSoC4/CapSense_SMS.c **** }
 489              		.loc 1 331 0
 490 0024 BD46     		mov	sp, r7
 491 0026 02B0     		add	sp, sp, #8
 492              		@ sp needed
 493 0028 80BD     		pop	{r7, pc}
 494              	.L23:
 495 002a C046     		.align	2
 496              	.L22:
 497 002c 08000840 		.word	1074266120
 498 0030 FFFCFFFC 		.word	-50332417
 499              		.cfi_endproc
 500              	.LFE37:
 501              		.size	CapSense_DisableBaselineIDAC, .-CapSense_DisableBaselineIDAC
 502              		.section	.text.CapSense_EnableBaselineIDAC,"ax",%progbits
 503              		.align	2
 504              		.global	CapSense_EnableBaselineIDAC
 505              		.code	16
 506              		.thumb_func
 507              		.type	CapSense_EnableBaselineIDAC, %function
 508              	CapSense_EnableBaselineIDAC:
 509              	.LFB38:
 332:.\Generated_Source\PSoC4/CapSense_SMS.c **** 
 333:.\Generated_Source\PSoC4/CapSense_SMS.c **** 
 334:.\Generated_Source\PSoC4/CapSense_SMS.c **** /*******************************************************************************
 335:.\Generated_Source\PSoC4/CapSense_SMS.c **** * Function Name: CapSense_EnableBaselineIDAC
 336:.\Generated_Source\PSoC4/CapSense_SMS.c **** ********************************************************************************
 337:.\Generated_Source\PSoC4/CapSense_SMS.c **** *
 338:.\Generated_Source\PSoC4/CapSense_SMS.c **** * Summary:
 339:.\Generated_Source\PSoC4/CapSense_SMS.c **** *  The API enables the Compensation IDAC.
 340:.\Generated_Source\PSoC4/CapSense_SMS.c **** *
ARM GAS  C:\Users\Amit\AppData\Local\Temp\ccR6FZnJ.s 			page 16


 341:.\Generated_Source\PSoC4/CapSense_SMS.c **** * Parameters:
 342:.\Generated_Source\PSoC4/CapSense_SMS.c **** *  None
 343:.\Generated_Source\PSoC4/CapSense_SMS.c **** *
 344:.\Generated_Source\PSoC4/CapSense_SMS.c **** * Return:
 345:.\Generated_Source\PSoC4/CapSense_SMS.c **** *  None
 346:.\Generated_Source\PSoC4/CapSense_SMS.c **** *
 347:.\Generated_Source\PSoC4/CapSense_SMS.c **** * Global Variables:
 348:.\Generated_Source\PSoC4/CapSense_SMS.c **** *  CapSense_compensationIDAC[] - used to store a 7-bit idac value for all the sensors.
 349:.\Generated_Source\PSoC4/CapSense_SMS.c **** *
 350:.\Generated_Source\PSoC4/CapSense_SMS.c **** * Side Effects:
 351:.\Generated_Source\PSoC4/CapSense_SMS.c **** *  None
 352:.\Generated_Source\PSoC4/CapSense_SMS.c **** *
 353:.\Generated_Source\PSoC4/CapSense_SMS.c **** *******************************************************************************/
 354:.\Generated_Source\PSoC4/CapSense_SMS.c **** void  CapSense_EnableBaselineIDAC(const CapSense_CONFIG_TYPE_P4_v2_40 *config)
 355:.\Generated_Source\PSoC4/CapSense_SMS.c **** {
 510              		.loc 1 355 0
 511              		.cfi_startproc
 512 0000 80B5     		push	{r7, lr}
 513              		.cfi_def_cfa_offset 8
 514              		.cfi_offset 7, -8
 515              		.cfi_offset 14, -4
 516 0002 84B0     		sub	sp, sp, #16
 517              		.cfi_def_cfa_offset 24
 518 0004 00AF     		add	r7, sp, #0
 519              		.cfi_def_cfa_register 7
 520 0006 7860     		str	r0, [r7, #4]
 356:.\Generated_Source\PSoC4/CapSense_SMS.c ****     uint32 curSensor;
 357:.\Generated_Source\PSoC4/CapSense_SMS.c ****     uint32 newRegValue;
 358:.\Generated_Source\PSoC4/CapSense_SMS.c **** 
 359:.\Generated_Source\PSoC4/CapSense_SMS.c ****     for(curSensor = 0u; curSensor < config->totalScanslotsNum; curSensor++)
 521              		.loc 1 359 0
 522 0008 0023     		mov	r3, #0
 523 000a FB60     		str	r3, [r7, #12]
 524 000c 19E0     		b	.L25
 525              	.L26:
 360:.\Generated_Source\PSoC4/CapSense_SMS.c ****     {
 361:.\Generated_Source\PSoC4/CapSense_SMS.c ****         CapSense_compensationIDAC[curSensor] = CapSense_modulationIDAC[curSensor] / 2u;
 526              		.loc 1 361 0 discriminator 3
 527 000e 1B4A     		ldr	r2, .L27
 528 0010 FB68     		ldr	r3, [r7, #12]
 529 0012 D318     		add	r3, r2, r3
 530 0014 1B78     		ldrb	r3, [r3]
 531 0016 5B08     		lsr	r3, r3, #1
 532 0018 D9B2     		uxtb	r1, r3
 533 001a 194A     		ldr	r2, .L27+4
 534 001c FB68     		ldr	r3, [r7, #12]
 535 001e D318     		add	r3, r2, r3
 536 0020 0A1C     		add	r2, r1, #0
 537 0022 1A70     		strb	r2, [r3]
 362:.\Generated_Source\PSoC4/CapSense_SMS.c ****         CapSense_modulationIDAC[curSensor] = (CapSense_modulationIDAC[curSensor] + 1u) / 2u;
 538              		.loc 1 362 0 discriminator 3
 539 0024 154A     		ldr	r2, .L27
 540 0026 FB68     		ldr	r3, [r7, #12]
 541 0028 D318     		add	r3, r2, r3
 542 002a 1B78     		ldrb	r3, [r3]
 543 002c 0133     		add	r3, r3, #1
 544 002e 5B08     		lsr	r3, r3, #1
ARM GAS  C:\Users\Amit\AppData\Local\Temp\ccR6FZnJ.s 			page 17


 545 0030 D9B2     		uxtb	r1, r3
 546 0032 124A     		ldr	r2, .L27
 547 0034 FB68     		ldr	r3, [r7, #12]
 548 0036 D318     		add	r3, r2, r3
 549 0038 0A1C     		add	r2, r1, #0
 550 003a 1A70     		strb	r2, [r3]
 359:.\Generated_Source\PSoC4/CapSense_SMS.c ****     {
 551              		.loc 1 359 0 discriminator 3
 552 003c FB68     		ldr	r3, [r7, #12]
 553 003e 0133     		add	r3, r3, #1
 554 0040 FB60     		str	r3, [r7, #12]
 555              	.L25:
 359:.\Generated_Source\PSoC4/CapSense_SMS.c ****     {
 556              		.loc 1 359 0 is_stmt 0 discriminator 1
 557 0042 7B68     		ldr	r3, [r7, #4]
 558 0044 1B78     		ldrb	r3, [r3]
 559 0046 1A1E     		sub	r2, r3, #0
 560 0048 FB68     		ldr	r3, [r7, #12]
 561 004a 9A42     		cmp	r2, r3
 562 004c DFD8     		bhi	.L26
 363:.\Generated_Source\PSoC4/CapSense_SMS.c ****     }
 364:.\Generated_Source\PSoC4/CapSense_SMS.c **** 
 365:.\Generated_Source\PSoC4/CapSense_SMS.c ****     CyIntDisable(CapSense_ISR_NUMBER);
 563              		.loc 1 365 0 is_stmt 1
 564 004e 0F20     		mov	r0, #15
 565 0050 FFF7FEFF 		bl	CyIntDisable
 366:.\Generated_Source\PSoC4/CapSense_SMS.c **** 
 367:.\Generated_Source\PSoC4/CapSense_SMS.c ****     newRegValue = CapSense_CSD_IDAC_REG;
 566              		.loc 1 367 0
 567 0054 0B4B     		ldr	r3, .L27+8
 568 0056 1B68     		ldr	r3, [r3]
 569 0058 BB60     		str	r3, [r7, #8]
 368:.\Generated_Source\PSoC4/CapSense_SMS.c ****     newRegValue &= ~(CapSense_CSD_IDAC1_MODE_MASK | CapSense_CSD_IDAC2_MODE_MASK);
 570              		.loc 1 368 0
 571 005a BB68     		ldr	r3, [r7, #8]
 572 005c 0A4A     		ldr	r2, .L27+12
 573 005e 1340     		and	r3, r2
 574 0060 BB60     		str	r3, [r7, #8]
 369:.\Generated_Source\PSoC4/CapSense_SMS.c ****     newRegValue |= (CapSense_CSD_IDAC1_MODE_VARIABLE | CapSense_CSD_IDAC2_MODE_FIXED);
 575              		.loc 1 369 0
 576 0062 BB68     		ldr	r3, [r7, #8]
 577 0064 094A     		ldr	r2, .L27+16
 578 0066 1343     		orr	r3, r2
 579 0068 BB60     		str	r3, [r7, #8]
 370:.\Generated_Source\PSoC4/CapSense_SMS.c ****     CapSense_CSD_IDAC_REG = newRegValue;
 580              		.loc 1 370 0
 581 006a 064B     		ldr	r3, .L27+8
 582 006c BA68     		ldr	r2, [r7, #8]
 583 006e 1A60     		str	r2, [r3]
 371:.\Generated_Source\PSoC4/CapSense_SMS.c **** 
 372:.\Generated_Source\PSoC4/CapSense_SMS.c ****     CyIntEnable(CapSense_ISR_NUMBER);
 584              		.loc 1 372 0
 585 0070 0F20     		mov	r0, #15
 586 0072 FFF7FEFF 		bl	CyIntEnable
 373:.\Generated_Source\PSoC4/CapSense_SMS.c **** }
 587              		.loc 1 373 0
 588 0076 BD46     		mov	sp, r7
ARM GAS  C:\Users\Amit\AppData\Local\Temp\ccR6FZnJ.s 			page 18


 589 0078 04B0     		add	sp, sp, #16
 590              		@ sp needed
 591 007a 80BD     		pop	{r7, pc}
 592              	.L28:
 593              		.align	2
 594              	.L27:
 595 007c 00000000 		.word	CapSense_modulationIDAC
 596 0080 00000000 		.word	CapSense_compensationIDAC
 597 0084 08000840 		.word	1074266120
 598 0088 FFFCFFFC 		.word	-50332417
 599 008c 00020001 		.word	16777728
 600              		.cfi_endproc
 601              	.LFE38:
 602              		.size	CapSense_EnableBaselineIDAC, .-CapSense_EnableBaselineIDAC
 603              		.section	.text.CapSense_SetSensitivity,"ax",%progbits
 604              		.align	2
 605              		.global	CapSense_SetSensitivity
 606              		.code	16
 607              		.thumb_func
 608              		.type	CapSense_SetSensitivity, %function
 609              	CapSense_SetSensitivity:
 610              	.LFB39:
 374:.\Generated_Source\PSoC4/CapSense_SMS.c **** 
 375:.\Generated_Source\PSoC4/CapSense_SMS.c **** 
 376:.\Generated_Source\PSoC4/CapSense_SMS.c **** /*******************************************************************************
 377:.\Generated_Source\PSoC4/CapSense_SMS.c **** * Function Name: CapSense_SetSensitivity
 378:.\Generated_Source\PSoC4/CapSense_SMS.c **** ********************************************************************************
 379:.\Generated_Source\PSoC4/CapSense_SMS.c **** *
 380:.\Generated_Source\PSoC4/CapSense_SMS.c **** * Summary:
 381:.\Generated_Source\PSoC4/CapSense_SMS.c **** *  This API sets the sensitivity value for the sensor. The sensitivity
 382:.\Generated_Source\PSoC4/CapSense_SMS.c **** *  value is used during the auto-tuning algorithm executed as part of the CapSense_Start API.
 383:.\Generated_Source\PSoC4/CapSense_SMS.c **** *  This API is called by the application layer prior to calling the CapSense_Start API.
 384:.\Generated_Source\PSoC4/CapSense_SMS.c **** *  Calling this API after execution of CapSense_Start API has no effect.
 385:.\Generated_Source\PSoC4/CapSense_SMS.c **** *
 386:.\Generated_Source\PSoC4/CapSense_SMS.c **** * Parameters:
 387:.\Generated_Source\PSoC4/CapSense_SMS.c **** *  sensor  Sensor index
 388:.\Generated_Source\PSoC4/CapSense_SMS.c **** *  data    Sensitivity of the sensor. Possible values are below
 389:.\Generated_Source\PSoC4/CapSense_SMS.c **** *  1 - 0.1pf sensitivity
 390:.\Generated_Source\PSoC4/CapSense_SMS.c **** *  2 - 0.2pf sensitivity
 391:.\Generated_Source\PSoC4/CapSense_SMS.c **** *  3 - 0.3pf sensitivity
 392:.\Generated_Source\PSoC4/CapSense_SMS.c **** *  4 - 0.4pf sensitivity
 393:.\Generated_Source\PSoC4/CapSense_SMS.c **** *  5 - 0.5pf sensitivity
 394:.\Generated_Source\PSoC4/CapSense_SMS.c **** *  6 - 0.6pf sensitivity
 395:.\Generated_Source\PSoC4/CapSense_SMS.c **** *  7 - 0.7pf sensitivity
 396:.\Generated_Source\PSoC4/CapSense_SMS.c **** *  8 - 0.8pf sensitivity
 397:.\Generated_Source\PSoC4/CapSense_SMS.c **** *  9 - 0.9pf sensitivity
 398:.\Generated_Source\PSoC4/CapSense_SMS.c **** *  10 - 1.0pf sensitivity
 399:.\Generated_Source\PSoC4/CapSense_SMS.c **** *  All other values, set sensitivity to 1.0pf
 400:.\Generated_Source\PSoC4/CapSense_SMS.c **** *
 401:.\Generated_Source\PSoC4/CapSense_SMS.c **** *  Return Value:
 402:.\Generated_Source\PSoC4/CapSense_SMS.c **** *   None
 403:.\Generated_Source\PSoC4/CapSense_SMS.c **** *
 404:.\Generated_Source\PSoC4/CapSense_SMS.c **** * Global Variables:
 405:.\Generated_Source\PSoC4/CapSense_SMS.c **** * CapSense_sensorSensitivity[] - This 8-bits array contains Sensitivity in the LSB nibble
 406:.\Generated_Source\PSoC4/CapSense_SMS.c **** *                                and Noise Reset Counter value in the MSB nibble.
 407:.\Generated_Source\PSoC4/CapSense_SMS.c **** *
 408:.\Generated_Source\PSoC4/CapSense_SMS.c **** * Side Effects:
ARM GAS  C:\Users\Amit\AppData\Local\Temp\ccR6FZnJ.s 			page 19


 409:.\Generated_Source\PSoC4/CapSense_SMS.c **** *  None
 410:.\Generated_Source\PSoC4/CapSense_SMS.c **** *
 411:.\Generated_Source\PSoC4/CapSense_SMS.c **** *******************************************************************************/
 412:.\Generated_Source\PSoC4/CapSense_SMS.c **** void CapSense_SetSensitivity(uint32 sensor, uint32 value)
 413:.\Generated_Source\PSoC4/CapSense_SMS.c **** {
 611              		.loc 1 413 0
 612              		.cfi_startproc
 613 0000 80B5     		push	{r7, lr}
 614              		.cfi_def_cfa_offset 8
 615              		.cfi_offset 7, -8
 616              		.cfi_offset 14, -4
 617 0002 82B0     		sub	sp, sp, #8
 618              		.cfi_def_cfa_offset 16
 619 0004 00AF     		add	r7, sp, #0
 620              		.cfi_def_cfa_register 7
 621 0006 7860     		str	r0, [r7, #4]
 622 0008 3960     		str	r1, [r7]
 414:.\Generated_Source\PSoC4/CapSense_SMS.c ****     if(value > 10u)
 623              		.loc 1 414 0
 624 000a 3B68     		ldr	r3, [r7]
 625 000c 0A2B     		cmp	r3, #10
 626 000e 01D9     		bls	.L30
 415:.\Generated_Source\PSoC4/CapSense_SMS.c ****     {
 416:.\Generated_Source\PSoC4/CapSense_SMS.c ****         value = 10u;
 627              		.loc 1 416 0
 628 0010 0A23     		mov	r3, #10
 629 0012 3B60     		str	r3, [r7]
 630              	.L30:
 417:.\Generated_Source\PSoC4/CapSense_SMS.c ****     }
 418:.\Generated_Source\PSoC4/CapSense_SMS.c **** 
 419:.\Generated_Source\PSoC4/CapSense_SMS.c ****     /* Clear SensorSensitivity value in LSB nibble */
 420:.\Generated_Source\PSoC4/CapSense_SMS.c ****     CapSense_sensorSensitivity[sensor] &= (uint8)~CapSense_SENSITIVITY_MASK;
 631              		.loc 1 420 0
 632 0014 0D4A     		ldr	r2, .L31
 633 0016 7B68     		ldr	r3, [r7, #4]
 634 0018 D318     		add	r3, r2, r3
 635 001a 1B78     		ldrb	r3, [r3]
 636 001c 0F22     		mov	r2, #15
 637 001e 9343     		bic	r3, r2
 638 0020 D9B2     		uxtb	r1, r3
 639 0022 0A4A     		ldr	r2, .L31
 640 0024 7B68     		ldr	r3, [r7, #4]
 641 0026 D318     		add	r3, r2, r3
 642 0028 0A1C     		add	r2, r1, #0
 643 002a 1A70     		strb	r2, [r3]
 421:.\Generated_Source\PSoC4/CapSense_SMS.c ****     /* Set SensorSensitivity value in LSB nibble */
 422:.\Generated_Source\PSoC4/CapSense_SMS.c ****     CapSense_sensorSensitivity[sensor] |= (uint8)value;
 644              		.loc 1 422 0
 645 002c 074A     		ldr	r2, .L31
 646 002e 7B68     		ldr	r3, [r7, #4]
 647 0030 D318     		add	r3, r2, r3
 648 0032 1A78     		ldrb	r2, [r3]
 649 0034 3B68     		ldr	r3, [r7]
 650 0036 DBB2     		uxtb	r3, r3
 651 0038 1343     		orr	r3, r2
 652 003a D9B2     		uxtb	r1, r3
 653 003c 034A     		ldr	r2, .L31
ARM GAS  C:\Users\Amit\AppData\Local\Temp\ccR6FZnJ.s 			page 20


 654 003e 7B68     		ldr	r3, [r7, #4]
 655 0040 D318     		add	r3, r2, r3
 656 0042 0A1C     		add	r2, r1, #0
 657 0044 1A70     		strb	r2, [r3]
 423:.\Generated_Source\PSoC4/CapSense_SMS.c **** }
 658              		.loc 1 423 0
 659 0046 BD46     		mov	sp, r7
 660 0048 02B0     		add	sp, sp, #8
 661              		@ sp needed
 662 004a 80BD     		pop	{r7, pc}
 663              	.L32:
 664              		.align	2
 665              	.L31:
 666 004c 00000000 		.word	CapSense_sensorSensitivity
 667              		.cfi_endproc
 668              	.LFE39:
 669              		.size	CapSense_SetSensitivity, .-CapSense_SetSensitivity
 670              		.section	.text.CapSense_GetSensitivityCoefficient,"ax",%progbits
 671              		.align	2
 672              		.global	CapSense_GetSensitivityCoefficient
 673              		.code	16
 674              		.thumb_func
 675              		.type	CapSense_GetSensitivityCoefficient, %function
 676              	CapSense_GetSensitivityCoefficient:
 677              	.LFB40:
 424:.\Generated_Source\PSoC4/CapSense_SMS.c **** 
 425:.\Generated_Source\PSoC4/CapSense_SMS.c **** 
 426:.\Generated_Source\PSoC4/CapSense_SMS.c **** /*******************************************************************************
 427:.\Generated_Source\PSoC4/CapSense_SMS.c **** * Function Name: CapSense_GetSensitivityCoefficient
 428:.\Generated_Source\PSoC4/CapSense_SMS.c **** ********************************************************************************
 429:.\Generated_Source\PSoC4/CapSense_SMS.c **** *
 430:.\Generated_Source\PSoC4/CapSense_SMS.c **** * Summary:
 431:.\Generated_Source\PSoC4/CapSense_SMS.c **** *  This API returns the K coefficient for the appropriate sensor.
 432:.\Generated_Source\PSoC4/CapSense_SMS.c **** *
 433:.\Generated_Source\PSoC4/CapSense_SMS.c **** * Parameters:
 434:.\Generated_Source\PSoC4/CapSense_SMS.c **** *  sensor:  Sensor index
 435:.\Generated_Source\PSoC4/CapSense_SMS.c **** *
 436:.\Generated_Source\PSoC4/CapSense_SMS.c **** *  Return Value:
 437:.\Generated_Source\PSoC4/CapSense_SMS.c **** *   K - value for the appropriate sensor.
 438:.\Generated_Source\PSoC4/CapSense_SMS.c **** *
 439:.\Generated_Source\PSoC4/CapSense_SMS.c **** * Global Variables:
 440:.\Generated_Source\PSoC4/CapSense_SMS.c **** *  CapSense_kValueTbl[] - This 8-bits array contains the K value for each sensor.
 441:.\Generated_Source\PSoC4/CapSense_SMS.c **** *
 442:.\Generated_Source\PSoC4/CapSense_SMS.c **** * Side Effects:
 443:.\Generated_Source\PSoC4/CapSense_SMS.c **** *  None
 444:.\Generated_Source\PSoC4/CapSense_SMS.c **** *
 445:.\Generated_Source\PSoC4/CapSense_SMS.c **** *******************************************************************************/
 446:.\Generated_Source\PSoC4/CapSense_SMS.c **** uint8 CapSense_GetSensitivityCoefficient(uint32 sensor)
 447:.\Generated_Source\PSoC4/CapSense_SMS.c **** {
 678              		.loc 1 447 0
 679              		.cfi_startproc
 680 0000 80B5     		push	{r7, lr}
 681              		.cfi_def_cfa_offset 8
 682              		.cfi_offset 7, -8
 683              		.cfi_offset 14, -4
 684 0002 82B0     		sub	sp, sp, #8
 685              		.cfi_def_cfa_offset 16
ARM GAS  C:\Users\Amit\AppData\Local\Temp\ccR6FZnJ.s 			page 21


 686 0004 00AF     		add	r7, sp, #0
 687              		.cfi_def_cfa_register 7
 688 0006 7860     		str	r0, [r7, #4]
 448:.\Generated_Source\PSoC4/CapSense_SMS.c ****     return (CapSense_kValueTbl[sensor]);
 689              		.loc 1 448 0
 690 0008 034A     		ldr	r2, .L35
 691 000a 7B68     		ldr	r3, [r7, #4]
 692 000c D318     		add	r3, r2, r3
 693 000e 1B78     		ldrb	r3, [r3]
 449:.\Generated_Source\PSoC4/CapSense_SMS.c **** }
 694              		.loc 1 449 0
 695 0010 181C     		mov	r0, r3
 696 0012 BD46     		mov	sp, r7
 697 0014 02B0     		add	sp, sp, #8
 698              		@ sp needed
 699 0016 80BD     		pop	{r7, pc}
 700              	.L36:
 701              		.align	2
 702              	.L35:
 703 0018 00000000 		.word	CapSense_kValueTbl
 704              		.cfi_endproc
 705              	.LFE40:
 706              		.size	CapSense_GetSensitivityCoefficient, .-CapSense_GetSensitivityCoefficient
 707              		.section	.text.CapSense_GetNoiseEnvelope,"ax",%progbits
 708              		.align	2
 709              		.global	CapSense_GetNoiseEnvelope
 710              		.code	16
 711              		.thumb_func
 712              		.type	CapSense_GetNoiseEnvelope, %function
 713              	CapSense_GetNoiseEnvelope:
 714              	.LFB41:
 450:.\Generated_Source\PSoC4/CapSense_SMS.c **** 
 451:.\Generated_Source\PSoC4/CapSense_SMS.c **** 
 452:.\Generated_Source\PSoC4/CapSense_SMS.c **** /*******************************************************************************
 453:.\Generated_Source\PSoC4/CapSense_SMS.c **** * Function Name: CapSense_GetNoiseEnvelope
 454:.\Generated_Source\PSoC4/CapSense_SMS.c **** ********************************************************************************
 455:.\Generated_Source\PSoC4/CapSense_SMS.c **** *
 456:.\Generated_Source\PSoC4/CapSense_SMS.c **** * Summary:
 457:.\Generated_Source\PSoC4/CapSense_SMS.c **** *  This function returns the noise value of a
 458:.\Generated_Source\PSoC4/CapSense_SMS.c **** *  component.
 459:.\Generated_Source\PSoC4/CapSense_SMS.c **** *
 460:.\Generated_Source\PSoC4/CapSense_SMS.c **** * Parameters:
 461:.\Generated_Source\PSoC4/CapSense_SMS.c **** *  sensor - Sensor number.
 462:.\Generated_Source\PSoC4/CapSense_SMS.c **** *
 463:.\Generated_Source\PSoC4/CapSense_SMS.c **** * Return:
 464:.\Generated_Source\PSoC4/CapSense_SMS.c **** *  The noise envelope value of the sensor
 465:.\Generated_Source\PSoC4/CapSense_SMS.c **** *  indicated by argument.
 466:.\Generated_Source\PSoC4/CapSense_SMS.c **** *
 467:.\Generated_Source\PSoC4/CapSense_SMS.c **** * Global Variables:
 468:.\Generated_Source\PSoC4/CapSense_SMS.c **** *  CapSense_noiseEnvelopeTbl[] - array with Noise Envelope.
 469:.\Generated_Source\PSoC4/CapSense_SMS.c **** *
 470:.\Generated_Source\PSoC4/CapSense_SMS.c **** * Side Effects:
 471:.\Generated_Source\PSoC4/CapSense_SMS.c **** *  None
 472:.\Generated_Source\PSoC4/CapSense_SMS.c **** *
 473:.\Generated_Source\PSoC4/CapSense_SMS.c **** *******************************************************************************/
 474:.\Generated_Source\PSoC4/CapSense_SMS.c **** uint16 CapSense_GetNoiseEnvelope(uint32 sensor)
 475:.\Generated_Source\PSoC4/CapSense_SMS.c **** {
ARM GAS  C:\Users\Amit\AppData\Local\Temp\ccR6FZnJ.s 			page 22


 715              		.loc 1 475 0
 716              		.cfi_startproc
 717 0000 80B5     		push	{r7, lr}
 718              		.cfi_def_cfa_offset 8
 719              		.cfi_offset 7, -8
 720              		.cfi_offset 14, -4
 721 0002 82B0     		sub	sp, sp, #8
 722              		.cfi_def_cfa_offset 16
 723 0004 00AF     		add	r7, sp, #0
 724              		.cfi_def_cfa_register 7
 725 0006 7860     		str	r0, [r7, #4]
 476:.\Generated_Source\PSoC4/CapSense_SMS.c ****     return((uint16)((uint16)CapSense_noiseEnvelopeTbl[sensor] << 1u) + 1u);
 726              		.loc 1 476 0
 727 0008 064A     		ldr	r2, .L39
 728 000a 7B68     		ldr	r3, [r7, #4]
 729 000c D318     		add	r3, r2, r3
 730 000e 1B78     		ldrb	r3, [r3]
 731 0010 9BB2     		uxth	r3, r3
 732 0012 DB18     		add	r3, r3, r3
 733 0014 9BB2     		uxth	r3, r3
 734 0016 0133     		add	r3, r3, #1
 735 0018 9BB2     		uxth	r3, r3
 477:.\Generated_Source\PSoC4/CapSense_SMS.c **** }
 736              		.loc 1 477 0
 737 001a 181C     		mov	r0, r3
 738 001c BD46     		mov	sp, r7
 739 001e 02B0     		add	sp, sp, #8
 740              		@ sp needed
 741 0020 80BD     		pop	{r7, pc}
 742              	.L40:
 743 0022 C046     		.align	2
 744              	.L39:
 745 0024 00000000 		.word	CapSense_noiseEnvelopeTbl
 746              		.cfi_endproc
 747              	.LFE41:
 748              		.size	CapSense_GetNoiseEnvelope, .-CapSense_GetNoiseEnvelope
 749              		.global	__aeabi_uidiv
 750              		.section	.text.CapSense_GetNormalizedDiffCountData,"ax",%progbits
 751              		.align	2
 752              		.global	CapSense_GetNormalizedDiffCountData
 753              		.code	16
 754              		.thumb_func
 755              		.type	CapSense_GetNormalizedDiffCountData, %function
 756              	CapSense_GetNormalizedDiffCountData:
 757              	.LFB42:
 478:.\Generated_Source\PSoC4/CapSense_SMS.c **** 
 479:.\Generated_Source\PSoC4/CapSense_SMS.c **** 
 480:.\Generated_Source\PSoC4/CapSense_SMS.c **** /*******************************************************************************
 481:.\Generated_Source\PSoC4/CapSense_SMS.c **** * Function Name: CapSense_GetNormalizedDiffCountData
 482:.\Generated_Source\PSoC4/CapSense_SMS.c **** ********************************************************************************
 483:.\Generated_Source\PSoC4/CapSense_SMS.c **** *
 484:.\Generated_Source\PSoC4/CapSense_SMS.c **** * Summary:
 485:.\Generated_Source\PSoC4/CapSense_SMS.c **** *  This API returns normalized difference count data.
 486:.\Generated_Source\PSoC4/CapSense_SMS.c **** *
 487:.\Generated_Source\PSoC4/CapSense_SMS.c **** * Parameters:
 488:.\Generated_Source\PSoC4/CapSense_SMS.c **** *  sensor:  Sensor number.
 489:.\Generated_Source\PSoC4/CapSense_SMS.c **** *
ARM GAS  C:\Users\Amit\AppData\Local\Temp\ccR6FZnJ.s 			page 23


 490:.\Generated_Source\PSoC4/CapSense_SMS.c **** * Return:
 491:.\Generated_Source\PSoC4/CapSense_SMS.c **** *  This API returns a normalized count value of the sensor indicated by the
 492:.\Generated_Source\PSoC4/CapSense_SMS.c **** *  argument.
 493:.\Generated_Source\PSoC4/CapSense_SMS.c **** *
 494:.\Generated_Source\PSoC4/CapSense_SMS.c **** * Global Variables:
 495:.\Generated_Source\PSoC4/CapSense_SMS.c **** *  CapSense_sensorSignal[] - array with difference counts for sensors
 496:.\Generated_Source\PSoC4/CapSense_SMS.c **** *
 497:.\Generated_Source\PSoC4/CapSense_SMS.c **** * Side Effects:
 498:.\Generated_Source\PSoC4/CapSense_SMS.c **** *  None
 499:.\Generated_Source\PSoC4/CapSense_SMS.c **** *
 500:.\Generated_Source\PSoC4/CapSense_SMS.c **** *******************************************************************************/
 501:.\Generated_Source\PSoC4/CapSense_SMS.c **** uint16 CapSense_GetNormalizedDiffCountData(uint32 sensor)
 502:.\Generated_Source\PSoC4/CapSense_SMS.c **** {
 758              		.loc 1 502 0
 759              		.cfi_startproc
 760 0000 80B5     		push	{r7, lr}
 761              		.cfi_def_cfa_offset 8
 762              		.cfi_offset 7, -8
 763              		.cfi_offset 14, -4
 764 0002 82B0     		sub	sp, sp, #8
 765              		.cfi_def_cfa_offset 16
 766 0004 00AF     		add	r7, sp, #0
 767              		.cfi_def_cfa_register 7
 768 0006 7860     		str	r0, [r7, #4]
 503:.\Generated_Source\PSoC4/CapSense_SMS.c ****     return (uint16)(((uint32)CapSense_sensorSignal[sensor] << 7u) / CapSense_kValueTbl[sensor]);
 769              		.loc 1 503 0
 770 0008 094A     		ldr	r2, .L43
 771 000a 7B68     		ldr	r3, [r7, #4]
 772 000c D318     		add	r3, r2, r3
 773 000e 1B78     		ldrb	r3, [r3]
 774 0010 D901     		lsl	r1, r3, #7
 775 0012 084A     		ldr	r2, .L43+4
 776 0014 7B68     		ldr	r3, [r7, #4]
 777 0016 D318     		add	r3, r2, r3
 778 0018 1B78     		ldrb	r3, [r3]
 779 001a 081C     		mov	r0, r1
 780 001c 191C     		mov	r1, r3
 781 001e FFF7FEFF 		bl	__aeabi_uidiv
 782 0022 031C     		mov	r3, r0
 783 0024 9BB2     		uxth	r3, r3
 504:.\Generated_Source\PSoC4/CapSense_SMS.c **** }
 784              		.loc 1 504 0
 785 0026 181C     		mov	r0, r3
 786 0028 BD46     		mov	sp, r7
 787 002a 02B0     		add	sp, sp, #8
 788              		@ sp needed
 789 002c 80BD     		pop	{r7, pc}
 790              	.L44:
 791 002e C046     		.align	2
 792              	.L43:
 793 0030 00000000 		.word	CapSense_sensorSignal
 794 0034 00000000 		.word	CapSense_kValueTbl
 795              		.cfi_endproc
 796              	.LFE42:
 797              		.size	CapSense_GetNormalizedDiffCountData, .-CapSense_GetNormalizedDiffCountData
 798              		.text
 799              	.Letext0:
ARM GAS  C:\Users\Amit\AppData\Local\Temp\ccR6FZnJ.s 			page 24


 800              		.file 2 ".\\Generated_Source\\PSoC4\\cytypes.h"
 801              		.file 3 ".\\Generated_Source\\PSoC4\\CapSense_PVT.h"
 802              		.file 4 ".\\Generated_Source\\PSoC4\\CapSense.h"
 803              		.file 5 ".\\Generated_Source\\PSoC4\\CapSense_CSHL.h"