ARM GAS  C:\Users\poornima\AppData\Local\Temp\ccxTyVc8.s 			page 1


   1              		.cpu cortex-m0
   2              		.fpu softvfp
   3              		.eabi_attribute 20, 1
   4              		.eabi_attribute 21, 1
   5              		.eabi_attribute 23, 3
   6              		.eabi_attribute 24, 1
   7              		.eabi_attribute 25, 1
   8              		.eabi_attribute 26, 1
   9              		.eabi_attribute 30, 6
  10              		.eabi_attribute 34, 0
  11              		.eabi_attribute 18, 4
  12              		.code	16
  13              		.file	"CapSense_CSHL.c"
  14              		.text
  15              	.Ltext0:
  16              		.cfi_sections	.debug_frame
  17              		.comm	CapSense_rawFilterData1,16,4
  18              		.global	CapSense_sensorBaseline
  19              		.bss
  20              		.align	2
  21              		.type	CapSense_sensorBaseline, %object
  22              		.size	CapSense_sensorBaseline, 16
  23              	CapSense_sensorBaseline:
  24 0000 00000000 		.space	16
  24      00000000 
  24      00000000 
  24      00000000 
  25              		.global	CapSense_sensorBaselineLow
  26              		.align	2
  27              		.type	CapSense_sensorBaselineLow, %object
  28              		.size	CapSense_sensorBaselineLow, 8
  29              	CapSense_sensorBaselineLow:
  30 0010 00000000 		.space	8
  30      00000000 
  31              		.global	CapSense_sensorSignal
  32              		.align	2
  33              		.type	CapSense_sensorSignal, %object
  34              		.size	CapSense_sensorSignal, 8
  35              	CapSense_sensorSignal:
  36 0018 00000000 		.space	8
  36      00000000 
  37              		.global	CapSense_sensorOnMask
  38              		.align	2
  39              		.type	CapSense_sensorOnMask, %object
  40              		.size	CapSense_sensorOnMask, 1
  41              	CapSense_sensorOnMask:
  42 0020 00       		.space	1
  43              		.comm	CapSense_lowBaselineResetCnt,8,4
  44              		.global	CapSense_lowBaselineReset
  45              		.data
  46              		.align	2
  47              		.type	CapSense_lowBaselineReset, %object
  48              		.size	CapSense_lowBaselineReset, 8
  49              	CapSense_lowBaselineReset:
  50 0000 1E       		.byte	30
  51 0001 1E       		.byte	30
  52 0002 1E       		.byte	30
ARM GAS  C:\Users\poornima\AppData\Local\Temp\ccxTyVc8.s 			page 2


  53 0003 1E       		.byte	30
  54 0004 1E       		.byte	30
  55 0005 1E       		.byte	30
  56 0006 1E       		.byte	30
  57 0007 1E       		.byte	30
  58              		.global	CapSense_enableRawFilters
  59              		.type	CapSense_enableRawFilters, %object
  60              		.size	CapSense_enableRawFilters, 1
  61              	CapSense_enableRawFilters:
  62 0008 01       		.byte	1
  63              		.comm	CapSense_fingerThreshold,8,4
  64              		.comm	CapSense_noiseThreshold,8,4
  65              		.comm	CapSense_negativeNoiseThreshold,8,4
  66              		.comm	CapSense_hysteresis,8,4
  67              		.global	CapSense_debounce
  68 0009 000000   		.align	2
  69              		.type	CapSense_debounce, %object
  70              		.size	CapSense_debounce, 8
  71              	CapSense_debounce:
  72 000c 05       		.byte	5
  73 000d 05       		.byte	5
  74 000e 05       		.byte	5
  75 000f 05       		.byte	5
  76 0010 05       		.byte	5
  77 0011 05       		.byte	5
  78 0012 05       		.byte	5
  79 0013 05       		.byte	5
  80              		.bss
  81 0021 000000   		.align	2
  82              	CapSense_debounceCounter:
  83 0024 00000000 		.space	9
  83      00000000 
  83      00
  84              		.global	CapSense_rawDataIndex
  85 002d 000000   		.section	.rodata
  86              		.align	2
  87              		.type	CapSense_rawDataIndex, %object
  88              		.size	CapSense_rawDataIndex, 8
  89              	CapSense_rawDataIndex:
  90 0000 00       		.byte	0
  91 0001 01       		.byte	1
  92 0002 02       		.byte	2
  93 0003 03       		.byte	3
  94 0004 04       		.byte	4
  95 0005 05       		.byte	5
  96 0006 06       		.byte	6
  97 0007 07       		.byte	7
  98              		.global	CapSense_numberOfSensors
  99              		.align	2
 100              		.type	CapSense_numberOfSensors, %object
 101              		.size	CapSense_numberOfSensors, 8
 102              	CapSense_numberOfSensors:
 103 0008 01       		.byte	1
 104 0009 01       		.byte	1
 105 000a 01       		.byte	1
 106 000b 01       		.byte	1
 107 000c 01       		.byte	1
ARM GAS  C:\Users\poornima\AppData\Local\Temp\ccxTyVc8.s 			page 3


 108 000d 01       		.byte	1
 109 000e 01       		.byte	1
 110 000f 01       		.byte	1
 111              		.section	.text.CapSense_BaseInit,"ax",%progbits
 112              		.align	2
 113              		.global	CapSense_BaseInit
 114              		.code	16
 115              		.thumb_func
 116              		.type	CapSense_BaseInit, %function
 117              	CapSense_BaseInit:
 118              	.LFB35:
 119              		.file 1 "Generated_Source\\PSoC4\\CapSense_CSHL.c"
   1:Generated_Source\PSoC4/CapSense_CSHL.c **** /*******************************************************************************
   2:Generated_Source\PSoC4/CapSense_CSHL.c **** * File Name: CapSense_CSHL.c
   3:Generated_Source\PSoC4/CapSense_CSHL.c **** * Version 2.40
   4:Generated_Source\PSoC4/CapSense_CSHL.c **** *
   5:Generated_Source\PSoC4/CapSense_CSHL.c **** * Description:
   6:Generated_Source\PSoC4/CapSense_CSHL.c **** *  This file provides the source code to the High Level APIs for the CapSesne
   7:Generated_Source\PSoC4/CapSense_CSHL.c **** *  CSD component.
   8:Generated_Source\PSoC4/CapSense_CSHL.c **** *
   9:Generated_Source\PSoC4/CapSense_CSHL.c **** * Note:
  10:Generated_Source\PSoC4/CapSense_CSHL.c **** *
  11:Generated_Source\PSoC4/CapSense_CSHL.c **** ********************************************************************************
  12:Generated_Source\PSoC4/CapSense_CSHL.c **** * Copyright 2013-2015, Cypress Semiconductor Corporation.  All rights reserved.
  13:Generated_Source\PSoC4/CapSense_CSHL.c **** * You may use this file only in accordance with the license, terms, conditions,
  14:Generated_Source\PSoC4/CapSense_CSHL.c **** * disclaimers, and limitations in the end user license agreement accompanying
  15:Generated_Source\PSoC4/CapSense_CSHL.c **** * the software package with which this file was provided.
  16:Generated_Source\PSoC4/CapSense_CSHL.c **** *******************************************************************************/
  17:Generated_Source\PSoC4/CapSense_CSHL.c **** 
  18:Generated_Source\PSoC4/CapSense_CSHL.c **** #include "CapSense_CSHL.h"
  19:Generated_Source\PSoC4/CapSense_CSHL.c **** #include "CapSense_PVT.h"
  20:Generated_Source\PSoC4/CapSense_CSHL.c **** 
  21:Generated_Source\PSoC4/CapSense_CSHL.c **** /* SmartSense functions */
  22:Generated_Source\PSoC4/CapSense_CSHL.c **** #if (CapSense_TUNING_METHOD == CapSense__TUNING_AUTO)
  23:Generated_Source\PSoC4/CapSense_CSHL.c ****     extern void CapSense_UpdateThresholds(uint32 sensor);
  24:Generated_Source\PSoC4/CapSense_CSHL.c **** #endif /* (CapSense_TUNING_METHOD == CapSense__TUNING_AUTO) */
  25:Generated_Source\PSoC4/CapSense_CSHL.c **** 
  26:Generated_Source\PSoC4/CapSense_CSHL.c **** /* Storage of filters data */
  27:Generated_Source\PSoC4/CapSense_CSHL.c **** #if ( (0u != (CapSense_RAW_FILTER_MASK & CapSense_MEDIAN_FILTER)) || \
  28:Generated_Source\PSoC4/CapSense_CSHL.c ****       (0u != (CapSense_RAW_FILTER_MASK & CapSense_AVERAGING_FILTER)) )
  29:Generated_Source\PSoC4/CapSense_CSHL.c **** 
  30:Generated_Source\PSoC4/CapSense_CSHL.c ****     uint16 CapSense_rawFilterData1[CapSense_TOTAL_SENSOR_COUNT];
  31:Generated_Source\PSoC4/CapSense_CSHL.c ****     uint16 CapSense_rawFilterData2[CapSense_TOTAL_SENSOR_COUNT];
  32:Generated_Source\PSoC4/CapSense_CSHL.c **** 
  33:Generated_Source\PSoC4/CapSense_CSHL.c **** #elif ( (0u != (CapSense_RAW_FILTER_MASK & CapSense_IIR2_FILTER))   || \
  34:Generated_Source\PSoC4/CapSense_CSHL.c ****         (0u != (CapSense_RAW_FILTER_MASK & CapSense_IIR4_FILTER))   || \
  35:Generated_Source\PSoC4/CapSense_CSHL.c ****         (0u != (CapSense_RAW_FILTER_MASK & CapSense_JITTER_FILTER)) || \
  36:Generated_Source\PSoC4/CapSense_CSHL.c ****         (0u != (CapSense_RAW_FILTER_MASK & CapSense_IIR8_FILTER))   || \
  37:Generated_Source\PSoC4/CapSense_CSHL.c ****         (0u != (CapSense_RAW_FILTER_MASK & CapSense_IIR16_FILTER)) )
  38:Generated_Source\PSoC4/CapSense_CSHL.c **** 
  39:Generated_Source\PSoC4/CapSense_CSHL.c ****     uint16 CapSense_rawFilterData1[CapSense_TOTAL_SENSOR_COUNT];
  40:Generated_Source\PSoC4/CapSense_CSHL.c **** #endif  /* ( (CapSense_RAW_FILTER_MASK & CapSense_MEDIAN_FILTER) || \
  41:Generated_Source\PSoC4/CapSense_CSHL.c ****         *    (CapSense_RAW_FILTER_MASK & CapSense_AVERAGING_FILTER) )
  42:Generated_Source\PSoC4/CapSense_CSHL.c ****         */
  43:Generated_Source\PSoC4/CapSense_CSHL.c **** 
  44:Generated_Source\PSoC4/CapSense_CSHL.c **** extern uint16 CapSense_sensorRaw[CapSense_TOTAL_SENSOR_COUNT];
  45:Generated_Source\PSoC4/CapSense_CSHL.c **** extern uint8 CapSense_sensorEnableMask[CapSense_TOTAL_SENSOR_MASK];
ARM GAS  C:\Users\poornima\AppData\Local\Temp\ccxTyVc8.s 			page 4


  46:Generated_Source\PSoC4/CapSense_CSHL.c **** extern const uint8 CapSense_widgetNumber[CapSense_TOTAL_SENSOR_COUNT];
  47:Generated_Source\PSoC4/CapSense_CSHL.c **** 
  48:Generated_Source\PSoC4/CapSense_CSHL.c **** #if (CapSense_TUNING_METHOD != CapSense__TUNING_NONE)
  49:Generated_Source\PSoC4/CapSense_CSHL.c ****     extern uint32 CapSense_widgetResolution[CapSense_RESOLUTIONS_TBL_SIZE];
  50:Generated_Source\PSoC4/CapSense_CSHL.c **** #endif /* (CapSense_TUNING_METHOD != CapSense__TUNING_NONE) */
  51:Generated_Source\PSoC4/CapSense_CSHL.c **** 
  52:Generated_Source\PSoC4/CapSense_CSHL.c **** uint16 CapSense_sensorBaseline[CapSense_TOTAL_SENSOR_COUNT] = {0u};
  53:Generated_Source\PSoC4/CapSense_CSHL.c **** uint8 CapSense_sensorBaselineLow[CapSense_TOTAL_SENSOR_COUNT] = {0u};
  54:Generated_Source\PSoC4/CapSense_CSHL.c **** uint8 CapSense_sensorSignal[CapSense_TOTAL_SENSOR_COUNT] = {0u};
  55:Generated_Source\PSoC4/CapSense_CSHL.c **** uint8 CapSense_sensorOnMask[CapSense_TOTAL_SENSOR_MASK] = {0u};
  56:Generated_Source\PSoC4/CapSense_CSHL.c **** 
  57:Generated_Source\PSoC4/CapSense_CSHL.c **** uint8 CapSense_lowBaselineResetCnt[CapSense_TOTAL_SENSOR_COUNT];
  58:Generated_Source\PSoC4/CapSense_CSHL.c **** uint8 CapSense_lowBaselineReset[CapSense_TOTAL_SENSOR_COUNT] = {
  59:Generated_Source\PSoC4/CapSense_CSHL.c ****     30u, 30u, 30u, 30u, 30u, 30u, 30u, 30u, 
  60:Generated_Source\PSoC4/CapSense_CSHL.c **** };
  61:Generated_Source\PSoC4/CapSense_CSHL.c **** 
  62:Generated_Source\PSoC4/CapSense_CSHL.c **** 
  63:Generated_Source\PSoC4/CapSense_CSHL.c **** 
  64:Generated_Source\PSoC4/CapSense_CSHL.c **** #if (CapSense_TUNING_METHOD == CapSense__TUNING_AUTO)
  65:Generated_Source\PSoC4/CapSense_CSHL.c ****     extern CapSense_CONFIG_TYPE_P4_v2_40 CapSense_config;
  66:Generated_Source\PSoC4/CapSense_CSHL.c **** #endif  /* (CapSense_TUNING_METHOD == CapSense__TUNING_AUTO) */
  67:Generated_Source\PSoC4/CapSense_CSHL.c **** 
  68:Generated_Source\PSoC4/CapSense_CSHL.c **** #if (CapSense_RAW_FILTER_MASK != 0u)
  69:Generated_Source\PSoC4/CapSense_CSHL.c **** uint8 CapSense_enableRawFilters = CapSense_RAW_FILTERS_ENABLED;
  70:Generated_Source\PSoC4/CapSense_CSHL.c **** #endif  /* (CapSense_RAW_FILTER_MASK != 0u) */
  71:Generated_Source\PSoC4/CapSense_CSHL.c **** 
  72:Generated_Source\PSoC4/CapSense_CSHL.c **** /* Generated by Customizer */
  73:Generated_Source\PSoC4/CapSense_CSHL.c **** uint8 CapSense_fingerThreshold[CapSense_THRESHOLD_TBL_SIZE];
  74:Generated_Source\PSoC4/CapSense_CSHL.c **** 
  75:Generated_Source\PSoC4/CapSense_CSHL.c **** uint8 CapSense_noiseThreshold[CapSense_THRESHOLD_TBL_SIZE];
  76:Generated_Source\PSoC4/CapSense_CSHL.c **** 
  77:Generated_Source\PSoC4/CapSense_CSHL.c **** uint8 CapSense_negativeNoiseThreshold[CapSense_THRESHOLD_TBL_SIZE];
  78:Generated_Source\PSoC4/CapSense_CSHL.c **** 
  79:Generated_Source\PSoC4/CapSense_CSHL.c **** uint8 CapSense_hysteresis[CapSense_WIDGET_PARAM_TBL_SIZE];
  80:Generated_Source\PSoC4/CapSense_CSHL.c **** 
  81:Generated_Source\PSoC4/CapSense_CSHL.c **** uint8 CapSense_debounce[] = {
  82:Generated_Source\PSoC4/CapSense_CSHL.c ****     5u, 5u, 5u, 5u, 5u, 5u, 5u, 5u, 
  83:Generated_Source\PSoC4/CapSense_CSHL.c **** };
  84:Generated_Source\PSoC4/CapSense_CSHL.c **** 
  85:Generated_Source\PSoC4/CapSense_CSHL.c **** static uint8 CapSense_debounceCounter[] = {
  86:Generated_Source\PSoC4/CapSense_CSHL.c ****     0u, 0u, 0u, 0u, 0u, 0u, 0u, 0u, 0u, 
  87:Generated_Source\PSoC4/CapSense_CSHL.c **** };
  88:Generated_Source\PSoC4/CapSense_CSHL.c **** 
  89:Generated_Source\PSoC4/CapSense_CSHL.c **** const uint8 CapSense_rawDataIndex[] = {
  90:Generated_Source\PSoC4/CapSense_CSHL.c ****     0u, /* Button0__BTN */
  91:Generated_Source\PSoC4/CapSense_CSHL.c ****     1u, /* Button1__BTN */
  92:Generated_Source\PSoC4/CapSense_CSHL.c ****     2u, /* Button2__BTN */
  93:Generated_Source\PSoC4/CapSense_CSHL.c ****     3u, /* Button3__BTN */
  94:Generated_Source\PSoC4/CapSense_CSHL.c ****     4u, /* Button4__BTN */
  95:Generated_Source\PSoC4/CapSense_CSHL.c ****     5u, /* Button5__BTN */
  96:Generated_Source\PSoC4/CapSense_CSHL.c ****     6u, /* Button6__BTN */
  97:Generated_Source\PSoC4/CapSense_CSHL.c ****     7u, /* Button7__BTN */
  98:Generated_Source\PSoC4/CapSense_CSHL.c **** };
  99:Generated_Source\PSoC4/CapSense_CSHL.c **** 
 100:Generated_Source\PSoC4/CapSense_CSHL.c **** const uint8 CapSense_numberOfSensors[] = {
 101:Generated_Source\PSoC4/CapSense_CSHL.c ****     1u, /* Button0__BTN */
 102:Generated_Source\PSoC4/CapSense_CSHL.c ****     1u, /* Button1__BTN */
ARM GAS  C:\Users\poornima\AppData\Local\Temp\ccxTyVc8.s 			page 5


 103:Generated_Source\PSoC4/CapSense_CSHL.c ****     1u, /* Button2__BTN */
 104:Generated_Source\PSoC4/CapSense_CSHL.c ****     1u, /* Button3__BTN */
 105:Generated_Source\PSoC4/CapSense_CSHL.c ****     1u, /* Button4__BTN */
 106:Generated_Source\PSoC4/CapSense_CSHL.c ****     1u, /* Button5__BTN */
 107:Generated_Source\PSoC4/CapSense_CSHL.c ****     1u, /* Button6__BTN */
 108:Generated_Source\PSoC4/CapSense_CSHL.c ****     1u, /* Button7__BTN */
 109:Generated_Source\PSoC4/CapSense_CSHL.c **** };
 110:Generated_Source\PSoC4/CapSense_CSHL.c **** 
 111:Generated_Source\PSoC4/CapSense_CSHL.c **** 
 112:Generated_Source\PSoC4/CapSense_CSHL.c **** 
 113:Generated_Source\PSoC4/CapSense_CSHL.c **** 
 114:Generated_Source\PSoC4/CapSense_CSHL.c **** /*******************************************************************************
 115:Generated_Source\PSoC4/CapSense_CSHL.c **** * Function Name: CapSense_BaseInit
 116:Generated_Source\PSoC4/CapSense_CSHL.c **** ********************************************************************************
 117:Generated_Source\PSoC4/CapSense_CSHL.c **** *
 118:Generated_Source\PSoC4/CapSense_CSHL.c **** * Summary:
 119:Generated_Source\PSoC4/CapSense_CSHL.c **** *  Loads the CapSense_sensorBaseline[sensor] array element with an
 120:Generated_Source\PSoC4/CapSense_CSHL.c **** *  initial value which is equal to the raw count value.
 121:Generated_Source\PSoC4/CapSense_CSHL.c **** *  Resets to zero CapSense_sensorBaselineLow[sensor] and
 122:Generated_Source\PSoC4/CapSense_CSHL.c **** *  CapSense_sensorSignal[sensor] array element.
 123:Generated_Source\PSoC4/CapSense_CSHL.c **** *  Loads the CapSense_rawFilterData2[sensor] and
 124:Generated_Source\PSoC4/CapSense_CSHL.c **** *  CapSense_rawFilterData2[sensor] array element with an
 125:Generated_Source\PSoC4/CapSense_CSHL.c **** *  initial value which is equal to the raw count value if the raw data filter is enabled.
 126:Generated_Source\PSoC4/CapSense_CSHL.c **** *
 127:Generated_Source\PSoC4/CapSense_CSHL.c **** * Parameters:
 128:Generated_Source\PSoC4/CapSense_CSHL.c **** *  sensor:  Sensor number.
 129:Generated_Source\PSoC4/CapSense_CSHL.c **** *
 130:Generated_Source\PSoC4/CapSense_CSHL.c **** * Return:
 131:Generated_Source\PSoC4/CapSense_CSHL.c **** *  None
 132:Generated_Source\PSoC4/CapSense_CSHL.c **** *
 133:Generated_Source\PSoC4/CapSense_CSHL.c **** * Global Variables:
 134:Generated_Source\PSoC4/CapSense_CSHL.c **** *  CapSense_sensorBaseline[]    - used to store the baseline value.
 135:Generated_Source\PSoC4/CapSense_CSHL.c **** *  CapSense_sensorBaselineLow[] - used to store the fraction byte of
 136:Generated_Source\PSoC4/CapSense_CSHL.c **** *  the baseline value.
 137:Generated_Source\PSoC4/CapSense_CSHL.c **** *  CapSense_sensorSignal[]      - used to store a difference between
 138:Generated_Source\PSoC4/CapSense_CSHL.c **** *  the current value of raw data and the previous value of the baseline.
 139:Generated_Source\PSoC4/CapSense_CSHL.c **** *  CapSense_rawFilterData1[]    - used to store a previous sample of
 140:Generated_Source\PSoC4/CapSense_CSHL.c **** *  any enabled raw data filter.
 141:Generated_Source\PSoC4/CapSense_CSHL.c **** *  CapSense_rawFilterData2[]    - used to store before a previous sample
 142:Generated_Source\PSoC4/CapSense_CSHL.c **** *  of the enabled raw data filter. Required only for median or average filters.
 143:Generated_Source\PSoC4/CapSense_CSHL.c **** *
 144:Generated_Source\PSoC4/CapSense_CSHL.c **** * Side Effects:
 145:Generated_Source\PSoC4/CapSense_CSHL.c **** *  None
 146:Generated_Source\PSoC4/CapSense_CSHL.c **** *
 147:Generated_Source\PSoC4/CapSense_CSHL.c **** *******************************************************************************/
 148:Generated_Source\PSoC4/CapSense_CSHL.c **** void CapSense_BaseInit(uint32 sensor)
 149:Generated_Source\PSoC4/CapSense_CSHL.c **** {
 120              		.loc 1 149 0
 121              		.cfi_startproc
 122 0000 80B5     		push	{r7, lr}
 123              		.cfi_def_cfa_offset 8
 124              		.cfi_offset 7, -8
 125              		.cfi_offset 14, -4
 126 0002 84B0     		sub	sp, sp, #16
 127              		.cfi_def_cfa_offset 24
 128 0004 00AF     		add	r7, sp, #0
 129              		.cfi_def_cfa_register 7
ARM GAS  C:\Users\poornima\AppData\Local\Temp\ccxTyVc8.s 			page 6


 130 0006 7860     		str	r0, [r7, #4]
 150:Generated_Source\PSoC4/CapSense_CSHL.c ****     #if ((CapSense_TOTAL_BUTTONS_COUNT) || (CapSense_TOTAL_MATRIX_BUTTONS_COUNT) || \
 151:Generated_Source\PSoC4/CapSense_CSHL.c ****          (CapSense_TOTAL_GENERICS_COUNT))
 152:Generated_Source\PSoC4/CapSense_CSHL.c ****         uint8 widget = CapSense_widgetNumber[sensor];
 131              		.loc 1 152 0
 132 0008 0F23     		mov	r3, #15
 133 000a FB18     		add	r3, r7, r3
 134 000c 1549     		ldr	r1, .L2
 135 000e 7A68     		ldr	r2, [r7, #4]
 136 0010 8A18     		add	r2, r1, r2
 137 0012 1278     		ldrb	r2, [r2]
 138 0014 1A70     		strb	r2, [r3]
 153:Generated_Source\PSoC4/CapSense_CSHL.c ****     #endif /* ((CapSense_TOTAL_MATRIX_BUTTONS_COUNT) || (CapSense_TOTAL_MATRIX_BUTTONS_COUNT)) */
 154:Generated_Source\PSoC4/CapSense_CSHL.c **** 
 155:Generated_Source\PSoC4/CapSense_CSHL.c ****     #if (CapSense_TOTAL_MATRIX_BUTTONS_COUNT)
 156:Generated_Source\PSoC4/CapSense_CSHL.c ****         uint8 debounceIndex;
 157:Generated_Source\PSoC4/CapSense_CSHL.c ****     #endif  /* (CapSense_TOTAL_MATRIX_BUTTONS_COUNT) */
 158:Generated_Source\PSoC4/CapSense_CSHL.c **** 
 159:Generated_Source\PSoC4/CapSense_CSHL.c ****     #if (CapSense_TOTAL_GENERICS_COUNT)
 160:Generated_Source\PSoC4/CapSense_CSHL.c ****         /* Exclude generic widget */
 161:Generated_Source\PSoC4/CapSense_CSHL.c ****         if(widget < CapSense_END_OF_WIDGETS_INDEX)
 162:Generated_Source\PSoC4/CapSense_CSHL.c ****         {
 163:Generated_Source\PSoC4/CapSense_CSHL.c ****     #endif  /* CapSense_TOTAL_GENERICS_COUNT */
 164:Generated_Source\PSoC4/CapSense_CSHL.c **** 
 165:Generated_Source\PSoC4/CapSense_CSHL.c ****     /* Initialize Baseline */
 166:Generated_Source\PSoC4/CapSense_CSHL.c ****     CapSense_sensorBaseline[sensor] = CapSense_sensorRaw[sensor];
 139              		.loc 1 166 0
 140 0016 144B     		ldr	r3, .L2+4
 141 0018 7A68     		ldr	r2, [r7, #4]
 142 001a 5200     		lsl	r2, r2, #1
 143 001c D15A     		ldrh	r1, [r2, r3]
 144 001e 134B     		ldr	r3, .L2+8
 145 0020 7A68     		ldr	r2, [r7, #4]
 146 0022 5200     		lsl	r2, r2, #1
 147 0024 D152     		strh	r1, [r2, r3]
 167:Generated_Source\PSoC4/CapSense_CSHL.c ****     CapSense_sensorBaselineLow[sensor] = 0u;
 148              		.loc 1 167 0
 149 0026 124A     		ldr	r2, .L2+12
 150 0028 7B68     		ldr	r3, [r7, #4]
 151 002a D318     		add	r3, r2, r3
 152 002c 0022     		mov	r2, #0
 153 002e 1A70     		strb	r2, [r3]
 168:Generated_Source\PSoC4/CapSense_CSHL.c ****     CapSense_sensorSignal[sensor] = 0u;
 154              		.loc 1 168 0
 155 0030 104A     		ldr	r2, .L2+16
 156 0032 7B68     		ldr	r3, [r7, #4]
 157 0034 D318     		add	r3, r2, r3
 158 0036 0022     		mov	r2, #0
 159 0038 1A70     		strb	r2, [r3]
 169:Generated_Source\PSoC4/CapSense_CSHL.c **** 
 170:Generated_Source\PSoC4/CapSense_CSHL.c ****     CapSense_debounceCounter[widget] =  CapSense_debounce[widget];
 160              		.loc 1 170 0
 161 003a 0F23     		mov	r3, #15
 162 003c FB18     		add	r3, r7, r3
 163 003e 1B78     		ldrb	r3, [r3]
 164 0040 0F22     		mov	r2, #15
 165 0042 BA18     		add	r2, r7, r2
ARM GAS  C:\Users\poornima\AppData\Local\Temp\ccxTyVc8.s 			page 7


 166 0044 1278     		ldrb	r2, [r2]
 167 0046 0C49     		ldr	r1, .L2+20
 168 0048 895C     		ldrb	r1, [r1, r2]
 169 004a 0C4A     		ldr	r2, .L2+24
 170 004c D154     		strb	r1, [r2, r3]
 171:Generated_Source\PSoC4/CapSense_CSHL.c **** 
 172:Generated_Source\PSoC4/CapSense_CSHL.c **** 
 173:Generated_Source\PSoC4/CapSense_CSHL.c ****     #if ((0u != (CapSense_RAW_FILTER_MASK & CapSense_MEDIAN_FILTER)) ||\
 174:Generated_Source\PSoC4/CapSense_CSHL.c ****          (0u != (CapSense_RAW_FILTER_MASK & CapSense_AVERAGING_FILTER)))
 175:Generated_Source\PSoC4/CapSense_CSHL.c **** 
 176:Generated_Source\PSoC4/CapSense_CSHL.c ****         CapSense_rawFilterData1[sensor] = CapSense_sensorRaw[sensor];
 177:Generated_Source\PSoC4/CapSense_CSHL.c ****         CapSense_rawFilterData2[sensor] = CapSense_sensorRaw[sensor];
 178:Generated_Source\PSoC4/CapSense_CSHL.c **** 
 179:Generated_Source\PSoC4/CapSense_CSHL.c ****     #elif ((CapSense_RAW_FILTER_MASK & CapSense_IIR2_FILTER) ||\
 180:Generated_Source\PSoC4/CapSense_CSHL.c ****            (CapSense_RAW_FILTER_MASK & CapSense_IIR4_FILTER) ||\
 181:Generated_Source\PSoC4/CapSense_CSHL.c ****            (CapSense_RAW_FILTER_MASK & CapSense_JITTER_FILTER) ||\
 182:Generated_Source\PSoC4/CapSense_CSHL.c ****            (CapSense_RAW_FILTER_MASK & CapSense_IIR8_FILTER) ||\
 183:Generated_Source\PSoC4/CapSense_CSHL.c ****            (CapSense_RAW_FILTER_MASK & CapSense_IIR16_FILTER))
 184:Generated_Source\PSoC4/CapSense_CSHL.c **** 
 185:Generated_Source\PSoC4/CapSense_CSHL.c ****         CapSense_rawFilterData1[sensor] = CapSense_sensorRaw[sensor];
 171              		.loc 1 185 0
 172 004e 064B     		ldr	r3, .L2+4
 173 0050 7A68     		ldr	r2, [r7, #4]
 174 0052 5200     		lsl	r2, r2, #1
 175 0054 D15A     		ldrh	r1, [r2, r3]
 176 0056 0A4B     		ldr	r3, .L2+28
 177 0058 7A68     		ldr	r2, [r7, #4]
 178 005a 5200     		lsl	r2, r2, #1
 179 005c D152     		strh	r1, [r2, r3]
 186:Generated_Source\PSoC4/CapSense_CSHL.c **** 
 187:Generated_Source\PSoC4/CapSense_CSHL.c ****     #else
 188:Generated_Source\PSoC4/CapSense_CSHL.c ****         /* No Raw filters */
 189:Generated_Source\PSoC4/CapSense_CSHL.c ****     #endif  /* ((CapSense_RAW_FILTER_MASK & CapSense_MEDIAN_FILTER) || \
 190:Generated_Source\PSoC4/CapSense_CSHL.c ****             *   (CapSense_RAW_FILTER_MASK & CapSense_AVERAGING_FILTER))
 191:Generated_Source\PSoC4/CapSense_CSHL.c ****             */
 192:Generated_Source\PSoC4/CapSense_CSHL.c **** 
 193:Generated_Source\PSoC4/CapSense_CSHL.c ****     #if (CapSense_TOTAL_GENERICS_COUNT)
 194:Generated_Source\PSoC4/CapSense_CSHL.c ****         /* Exclude generic widget */
 195:Generated_Source\PSoC4/CapSense_CSHL.c ****         }
 196:Generated_Source\PSoC4/CapSense_CSHL.c ****     #endif  /* CapSense_TOTAL_GENERICS_COUNT */
 197:Generated_Source\PSoC4/CapSense_CSHL.c **** }
 180              		.loc 1 197 0
 181 005e BD46     		mov	sp, r7
 182 0060 04B0     		add	sp, sp, #16
 183              		@ sp needed
 184 0062 80BD     		pop	{r7, pc}
 185              	.L3:
 186              		.align	2
 187              	.L2:
 188 0064 00000000 		.word	CapSense_widgetNumber
 189 0068 00000000 		.word	CapSense_sensorRaw
 190 006c 00000000 		.word	CapSense_sensorBaseline
 191 0070 00000000 		.word	CapSense_sensorBaselineLow
 192 0074 00000000 		.word	CapSense_sensorSignal
 193 0078 00000000 		.word	CapSense_debounce
 194 007c 24000000 		.word	CapSense_debounceCounter
 195 0080 00000000 		.word	CapSense_rawFilterData1
ARM GAS  C:\Users\poornima\AppData\Local\Temp\ccxTyVc8.s 			page 8


 196              		.cfi_endproc
 197              	.LFE35:
 198              		.size	CapSense_BaseInit, .-CapSense_BaseInit
 199              		.section	.text.CapSense_InitializeSensorBaseline,"ax",%progbits
 200              		.align	2
 201              		.global	CapSense_InitializeSensorBaseline
 202              		.code	16
 203              		.thumb_func
 204              		.type	CapSense_InitializeSensorBaseline, %function
 205              	CapSense_InitializeSensorBaseline:
 206              	.LFB36:
 198:Generated_Source\PSoC4/CapSense_CSHL.c **** 
 199:Generated_Source\PSoC4/CapSense_CSHL.c **** 
 200:Generated_Source\PSoC4/CapSense_CSHL.c **** /*******************************************************************************
 201:Generated_Source\PSoC4/CapSense_CSHL.c **** * Function Name: CapSense_InitializeSensorBaseline
 202:Generated_Source\PSoC4/CapSense_CSHL.c **** ********************************************************************************
 203:Generated_Source\PSoC4/CapSense_CSHL.c **** *
 204:Generated_Source\PSoC4/CapSense_CSHL.c **** * Summary:
 205:Generated_Source\PSoC4/CapSense_CSHL.c **** *  Loads the CapSense_sensorBaseline[sensor] array element with an
 206:Generated_Source\PSoC4/CapSense_CSHL.c **** *  initial value by scanning the selected sensor (one channel design) or a pair
 207:Generated_Source\PSoC4/CapSense_CSHL.c **** *  of sensors (two channels designs). The raw count value is copied into the
 208:Generated_Source\PSoC4/CapSense_CSHL.c **** *  baseline array for each sensor. The raw data filters are initialized if
 209:Generated_Source\PSoC4/CapSense_CSHL.c **** *  enabled.
 210:Generated_Source\PSoC4/CapSense_CSHL.c **** *
 211:Generated_Source\PSoC4/CapSense_CSHL.c **** * Parameters:
 212:Generated_Source\PSoC4/CapSense_CSHL.c **** *  sensor:  Sensor number.
 213:Generated_Source\PSoC4/CapSense_CSHL.c **** *
 214:Generated_Source\PSoC4/CapSense_CSHL.c **** * Return:
 215:Generated_Source\PSoC4/CapSense_CSHL.c **** *  None
 216:Generated_Source\PSoC4/CapSense_CSHL.c **** *
 217:Generated_Source\PSoC4/CapSense_CSHL.c **** * Global Variables:
 218:Generated_Source\PSoC4/CapSense_CSHL.c **** *  None
 219:Generated_Source\PSoC4/CapSense_CSHL.c **** *
 220:Generated_Source\PSoC4/CapSense_CSHL.c **** * Side Effects:
 221:Generated_Source\PSoC4/CapSense_CSHL.c **** *  None
 222:Generated_Source\PSoC4/CapSense_CSHL.c **** *
 223:Generated_Source\PSoC4/CapSense_CSHL.c **** *******************************************************************************/
 224:Generated_Source\PSoC4/CapSense_CSHL.c **** void CapSense_InitializeSensorBaseline(uint32 sensor)
 225:Generated_Source\PSoC4/CapSense_CSHL.c **** {
 207              		.loc 1 225 0
 208              		.cfi_startproc
 209 0000 80B5     		push	{r7, lr}
 210              		.cfi_def_cfa_offset 8
 211              		.cfi_offset 7, -8
 212              		.cfi_offset 14, -4
 213 0002 82B0     		sub	sp, sp, #8
 214              		.cfi_def_cfa_offset 16
 215 0004 00AF     		add	r7, sp, #0
 216              		.cfi_def_cfa_register 7
 217 0006 7860     		str	r0, [r7, #4]
 226:Generated_Source\PSoC4/CapSense_CSHL.c ****     /* Scan sensor */
 227:Generated_Source\PSoC4/CapSense_CSHL.c ****     CapSense_ScanSensor(sensor);
 218              		.loc 1 227 0
 219 0008 7B68     		ldr	r3, [r7, #4]
 220 000a 181C     		mov	r0, r3
 221 000c FFF7FEFF 		bl	CapSense_ScanSensor
 228:Generated_Source\PSoC4/CapSense_CSHL.c ****     while(CapSense_IsBusy() != 0u)
ARM GAS  C:\Users\poornima\AppData\Local\Temp\ccxTyVc8.s 			page 9


 222              		.loc 1 228 0
 223 0010 C046     		mov	r8, r8
 224              	.L5:
 225              		.loc 1 228 0 is_stmt 0 discriminator 1
 226 0012 FFF7FEFF 		bl	CapSense_IsBusy
 227 0016 031E     		sub	r3, r0, #0
 228 0018 FBD1     		bne	.L5
 229:Generated_Source\PSoC4/CapSense_CSHL.c ****     {
 230:Generated_Source\PSoC4/CapSense_CSHL.c ****         /* Wait while sensor is busy */
 231:Generated_Source\PSoC4/CapSense_CSHL.c ****     }
 232:Generated_Source\PSoC4/CapSense_CSHL.c **** 
 233:Generated_Source\PSoC4/CapSense_CSHL.c ****     /* Initialize Baseline, Signal and debounce counters */
 234:Generated_Source\PSoC4/CapSense_CSHL.c ****     CapSense_BaseInit(sensor);
 229              		.loc 1 234 0 is_stmt 1
 230 001a 7B68     		ldr	r3, [r7, #4]
 231 001c 181C     		mov	r0, r3
 232 001e FFF7FEFF 		bl	CapSense_BaseInit
 235:Generated_Source\PSoC4/CapSense_CSHL.c **** }
 233              		.loc 1 235 0
 234 0022 BD46     		mov	sp, r7
 235 0024 02B0     		add	sp, sp, #8
 236              		@ sp needed
 237 0026 80BD     		pop	{r7, pc}
 238              		.cfi_endproc
 239              	.LFE36:
 240              		.size	CapSense_InitializeSensorBaseline, .-CapSense_InitializeSensorBaseline
 241              		.section	.text.CapSense_InitializeAllBaselines,"ax",%progbits
 242              		.align	2
 243              		.global	CapSense_InitializeAllBaselines
 244              		.code	16
 245              		.thumb_func
 246              		.type	CapSense_InitializeAllBaselines, %function
 247              	CapSense_InitializeAllBaselines:
 248              	.LFB37:
 236:Generated_Source\PSoC4/CapSense_CSHL.c **** 
 237:Generated_Source\PSoC4/CapSense_CSHL.c **** 
 238:Generated_Source\PSoC4/CapSense_CSHL.c **** /*******************************************************************************
 239:Generated_Source\PSoC4/CapSense_CSHL.c **** * Function Name: CapSense_InitializeAllBaselines
 240:Generated_Source\PSoC4/CapSense_CSHL.c **** ********************************************************************************
 241:Generated_Source\PSoC4/CapSense_CSHL.c **** *
 242:Generated_Source\PSoC4/CapSense_CSHL.c **** * Summary:
 243:Generated_Source\PSoC4/CapSense_CSHL.c **** *  Uses the CapSense_InitializeSensorBaseline function to load the
 244:Generated_Source\PSoC4/CapSense_CSHL.c **** *  CapSense_sensorBaseline[] array with an initial values by scanning
 245:Generated_Source\PSoC4/CapSense_CSHL.c **** *  all the sensors. The raw count values are copied into the baseline array for
 246:Generated_Source\PSoC4/CapSense_CSHL.c **** *  all the sensors. The raw data filters are initialized if enabled.
 247:Generated_Source\PSoC4/CapSense_CSHL.c **** *
 248:Generated_Source\PSoC4/CapSense_CSHL.c **** * Parameters:
 249:Generated_Source\PSoC4/CapSense_CSHL.c **** *  None
 250:Generated_Source\PSoC4/CapSense_CSHL.c **** *
 251:Generated_Source\PSoC4/CapSense_CSHL.c **** * Return:
 252:Generated_Source\PSoC4/CapSense_CSHL.c **** *  None
 253:Generated_Source\PSoC4/CapSense_CSHL.c **** *
 254:Generated_Source\PSoC4/CapSense_CSHL.c **** * Global Variables:
 255:Generated_Source\PSoC4/CapSense_CSHL.c **** *  None
 256:Generated_Source\PSoC4/CapSense_CSHL.c **** *
 257:Generated_Source\PSoC4/CapSense_CSHL.c **** * Side Effects:
 258:Generated_Source\PSoC4/CapSense_CSHL.c **** *  None
ARM GAS  C:\Users\poornima\AppData\Local\Temp\ccxTyVc8.s 			page 10


 259:Generated_Source\PSoC4/CapSense_CSHL.c **** *
 260:Generated_Source\PSoC4/CapSense_CSHL.c **** *******************************************************************************/
 261:Generated_Source\PSoC4/CapSense_CSHL.c **** void CapSense_InitializeAllBaselines(void)
 262:Generated_Source\PSoC4/CapSense_CSHL.c **** {
 249              		.loc 1 262 0
 250              		.cfi_startproc
 251 0000 80B5     		push	{r7, lr}
 252              		.cfi_def_cfa_offset 8
 253              		.cfi_offset 7, -8
 254              		.cfi_offset 14, -4
 255 0002 82B0     		sub	sp, sp, #8
 256              		.cfi_def_cfa_offset 16
 257 0004 00AF     		add	r7, sp, #0
 258              		.cfi_def_cfa_register 7
 263:Generated_Source\PSoC4/CapSense_CSHL.c ****     uint32 i;
 264:Generated_Source\PSoC4/CapSense_CSHL.c **** 
 265:Generated_Source\PSoC4/CapSense_CSHL.c ****     for(i = 0u; i < CapSense_TOTAL_SCANSLOT_COUNT; i++)
 259              		.loc 1 265 0
 260 0006 0023     		mov	r3, #0
 261 0008 7B60     		str	r3, [r7, #4]
 262 000a 06E0     		b	.L7
 263              	.L8:
 266:Generated_Source\PSoC4/CapSense_CSHL.c ****     {
 267:Generated_Source\PSoC4/CapSense_CSHL.c ****         CapSense_InitializeSensorBaseline(i);
 264              		.loc 1 267 0 discriminator 3
 265 000c 7B68     		ldr	r3, [r7, #4]
 266 000e 181C     		mov	r0, r3
 267 0010 FFF7FEFF 		bl	CapSense_InitializeSensorBaseline
 265:Generated_Source\PSoC4/CapSense_CSHL.c ****     {
 268              		.loc 1 265 0 discriminator 3
 269 0014 7B68     		ldr	r3, [r7, #4]
 270 0016 0133     		add	r3, r3, #1
 271 0018 7B60     		str	r3, [r7, #4]
 272              	.L7:
 265:Generated_Source\PSoC4/CapSense_CSHL.c ****     {
 273              		.loc 1 265 0 is_stmt 0 discriminator 1
 274 001a 7B68     		ldr	r3, [r7, #4]
 275 001c 072B     		cmp	r3, #7
 276 001e F5D9     		bls	.L8
 268:Generated_Source\PSoC4/CapSense_CSHL.c ****     }
 269:Generated_Source\PSoC4/CapSense_CSHL.c **** }
 277              		.loc 1 269 0 is_stmt 1
 278 0020 BD46     		mov	sp, r7
 279 0022 02B0     		add	sp, sp, #8
 280              		@ sp needed
 281 0024 80BD     		pop	{r7, pc}
 282              		.cfi_endproc
 283              	.LFE37:
 284              		.size	CapSense_InitializeAllBaselines, .-CapSense_InitializeAllBaselines
 285 0026 C046     		.section	.text.CapSense_InitializeEnabledBaselines,"ax",%progbits
 286              		.align	2
 287              		.global	CapSense_InitializeEnabledBaselines
 288              		.code	16
 289              		.thumb_func
 290              		.type	CapSense_InitializeEnabledBaselines, %function
 291              	CapSense_InitializeEnabledBaselines:
 292              	.LFB38:
ARM GAS  C:\Users\poornima\AppData\Local\Temp\ccxTyVc8.s 			page 11


 270:Generated_Source\PSoC4/CapSense_CSHL.c **** 
 271:Generated_Source\PSoC4/CapSense_CSHL.c **** 
 272:Generated_Source\PSoC4/CapSense_CSHL.c **** /*******************************************************************************
 273:Generated_Source\PSoC4/CapSense_CSHL.c **** * Function Name: CapSense_InitializeEnabledBaselines
 274:Generated_Source\PSoC4/CapSense_CSHL.c **** ********************************************************************************
 275:Generated_Source\PSoC4/CapSense_CSHL.c **** *
 276:Generated_Source\PSoC4/CapSense_CSHL.c **** * Summary:
 277:Generated_Source\PSoC4/CapSense_CSHL.c **** *  Scans all the enabled widgets and the raw count values are copied into the
 278:Generated_Source\PSoC4/CapSense_CSHL.c **** *  baseline array for all the sensors enabled in the scanning process. The baselines
 279:Generated_Source\PSoC4/CapSense_CSHL.c **** *  are initialized with zero values for sensors disabled from the scanning process.
 280:Generated_Source\PSoC4/CapSense_CSHL.c **** *  The raw data filters are initialized if enabled.
 281:Generated_Source\PSoC4/CapSense_CSHL.c **** *
 282:Generated_Source\PSoC4/CapSense_CSHL.c **** * Parameters:
 283:Generated_Source\PSoC4/CapSense_CSHL.c **** *  None
 284:Generated_Source\PSoC4/CapSense_CSHL.c **** *
 285:Generated_Source\PSoC4/CapSense_CSHL.c **** * Return:
 286:Generated_Source\PSoC4/CapSense_CSHL.c **** *  None
 287:Generated_Source\PSoC4/CapSense_CSHL.c **** *
 288:Generated_Source\PSoC4/CapSense_CSHL.c **** * Global Variables:
 289:Generated_Source\PSoC4/CapSense_CSHL.c **** *  CapSense_sensorRaw[] - used to store the sensors raw data.
 290:Generated_Source\PSoC4/CapSense_CSHL.c **** *  CapSense_sensorEnableMask[ ] - used to store bit masks of the enabled sensors.
 291:Generated_Source\PSoC4/CapSense_CSHL.c **** *
 292:Generated_Source\PSoC4/CapSense_CSHL.c **** * Side Effects:
 293:Generated_Source\PSoC4/CapSense_CSHL.c **** *  None
 294:Generated_Source\PSoC4/CapSense_CSHL.c **** *
 295:Generated_Source\PSoC4/CapSense_CSHL.c **** *******************************************************************************/
 296:Generated_Source\PSoC4/CapSense_CSHL.c **** void CapSense_InitializeEnabledBaselines(void)
 297:Generated_Source\PSoC4/CapSense_CSHL.c **** {
 293              		.loc 1 297 0
 294              		.cfi_startproc
 295 0000 80B5     		push	{r7, lr}
 296              		.cfi_def_cfa_offset 8
 297              		.cfi_offset 7, -8
 298              		.cfi_offset 14, -4
 299 0002 82B0     		sub	sp, sp, #8
 300              		.cfi_def_cfa_offset 16
 301 0004 00AF     		add	r7, sp, #0
 302              		.cfi_def_cfa_register 7
 298:Generated_Source\PSoC4/CapSense_CSHL.c ****     uint32 i;
 299:Generated_Source\PSoC4/CapSense_CSHL.c ****     uint32 isSensorEnabled;
 300:Generated_Source\PSoC4/CapSense_CSHL.c **** 
 301:Generated_Source\PSoC4/CapSense_CSHL.c ****     CapSense_ScanEnabledWidgets();
 303              		.loc 1 301 0
 304 0006 FFF7FEFF 		bl	CapSense_ScanEnabledWidgets
 302:Generated_Source\PSoC4/CapSense_CSHL.c ****     while(CapSense_IsBusy() != 0u)
 305              		.loc 1 302 0
 306 000a C046     		mov	r8, r8
 307              	.L10:
 308              		.loc 1 302 0 is_stmt 0 discriminator 1
 309 000c FFF7FEFF 		bl	CapSense_IsBusy
 310 0010 031E     		sub	r3, r0, #0
 311 0012 FBD1     		bne	.L10
 303:Generated_Source\PSoC4/CapSense_CSHL.c ****     {
 304:Generated_Source\PSoC4/CapSense_CSHL.c ****         /* Wait while sensor is busy */
 305:Generated_Source\PSoC4/CapSense_CSHL.c ****     }
 306:Generated_Source\PSoC4/CapSense_CSHL.c **** 
 307:Generated_Source\PSoC4/CapSense_CSHL.c ****     for(i = 0u; i < CapSense_TOTAL_SENSOR_COUNT; i++)
ARM GAS  C:\Users\poornima\AppData\Local\Temp\ccxTyVc8.s 			page 12


 312              		.loc 1 307 0 is_stmt 1
 313 0014 0023     		mov	r3, #0
 314 0016 7B60     		str	r3, [r7, #4]
 315 0018 11E0     		b	.L11
 316              	.L13:
 308:Generated_Source\PSoC4/CapSense_CSHL.c ****     {
 309:Generated_Source\PSoC4/CapSense_CSHL.c ****         isSensorEnabled = CapSense_GetBitValue(CapSense_sensorEnableMask, i);
 317              		.loc 1 309 0
 318 001a 0C4A     		ldr	r2, .L14
 319 001c 7B68     		ldr	r3, [r7, #4]
 320 001e 101C     		mov	r0, r2
 321 0020 191C     		mov	r1, r3
 322 0022 FFF7FEFF 		bl	CapSense_GetBitValue
 323 0026 031C     		mov	r3, r0
 324 0028 3B60     		str	r3, [r7]
 310:Generated_Source\PSoC4/CapSense_CSHL.c **** 
 311:Generated_Source\PSoC4/CapSense_CSHL.c ****         /* Clear raw data if sensor is disabled from scanning process */
 312:Generated_Source\PSoC4/CapSense_CSHL.c ****         if(isSensorEnabled != 0u)
 325              		.loc 1 312 0
 326 002a 3B68     		ldr	r3, [r7]
 327 002c 002B     		cmp	r3, #0
 328 002e 03D0     		beq	.L12
 313:Generated_Source\PSoC4/CapSense_CSHL.c ****         {
 314:Generated_Source\PSoC4/CapSense_CSHL.c ****             /* Initialize baselines */
 315:Generated_Source\PSoC4/CapSense_CSHL.c ****             CapSense_BaseInit(i);
 329              		.loc 1 315 0
 330 0030 7B68     		ldr	r3, [r7, #4]
 331 0032 181C     		mov	r0, r3
 332 0034 FFF7FEFF 		bl	CapSense_BaseInit
 333              	.L12:
 307:Generated_Source\PSoC4/CapSense_CSHL.c ****     {
 334              		.loc 1 307 0 discriminator 2
 335 0038 7B68     		ldr	r3, [r7, #4]
 336 003a 0133     		add	r3, r3, #1
 337 003c 7B60     		str	r3, [r7, #4]
 338              	.L11:
 307:Generated_Source\PSoC4/CapSense_CSHL.c ****     {
 339              		.loc 1 307 0 is_stmt 0 discriminator 1
 340 003e 7B68     		ldr	r3, [r7, #4]
 341 0040 072B     		cmp	r3, #7
 342 0042 EAD9     		bls	.L13
 316:Generated_Source\PSoC4/CapSense_CSHL.c ****         }
 317:Generated_Source\PSoC4/CapSense_CSHL.c ****     }
 318:Generated_Source\PSoC4/CapSense_CSHL.c **** }
 343              		.loc 1 318 0 is_stmt 1
 344 0044 BD46     		mov	sp, r7
 345 0046 02B0     		add	sp, sp, #8
 346              		@ sp needed
 347 0048 80BD     		pop	{r7, pc}
 348              	.L15:
 349 004a C046     		.align	2
 350              	.L14:
 351 004c 00000000 		.word	CapSense_sensorEnableMask
 352              		.cfi_endproc
 353              	.LFE38:
 354              		.size	CapSense_InitializeEnabledBaselines, .-CapSense_InitializeEnabledBaselines
 355              		.section	.text.CapSense_UpdateBaselineNoThreshold,"ax",%progbits
ARM GAS  C:\Users\poornima\AppData\Local\Temp\ccxTyVc8.s 			page 13


 356              		.align	2
 357              		.global	CapSense_UpdateBaselineNoThreshold
 358              		.code	16
 359              		.thumb_func
 360              		.type	CapSense_UpdateBaselineNoThreshold, %function
 361              	CapSense_UpdateBaselineNoThreshold:
 362              	.LFB39:
 319:Generated_Source\PSoC4/CapSense_CSHL.c **** 
 320:Generated_Source\PSoC4/CapSense_CSHL.c **** 
 321:Generated_Source\PSoC4/CapSense_CSHL.c **** /*******************************************************************************
 322:Generated_Source\PSoC4/CapSense_CSHL.c **** * Function Name: CapSense_UpdateBaselineNoThreshold
 323:Generated_Source\PSoC4/CapSense_CSHL.c **** ********************************************************************************
 324:Generated_Source\PSoC4/CapSense_CSHL.c **** *
 325:Generated_Source\PSoC4/CapSense_CSHL.c **** * Summary:
 326:Generated_Source\PSoC4/CapSense_CSHL.c **** *  Updates the CapSense_sensorBaseline[sensor] array element using the
 327:Generated_Source\PSoC4/CapSense_CSHL.c **** *  LP filter with k = 256. The signal calculates the difference of count by
 328:Generated_Source\PSoC4/CapSense_CSHL.c **** *  subtracting the previous baseline from the current raw count value and stores
 329:Generated_Source\PSoC4/CapSense_CSHL.c **** *  it in CapSense_sensorSignal[sensor].
 330:Generated_Source\PSoC4/CapSense_CSHL.c **** *  If the auto reset option is enabled, the baseline updated regards the noise threshold.
 331:Generated_Source\PSoC4/CapSense_CSHL.c **** *  If the auto reset option is disabled, the baseline stops updating; baseline is loaded
 332:Generated_Source\PSoC4/CapSense_CSHL.c **** *  with a raw count value if a signal is greater than zero and if signal is less
 333:Generated_Source\PSoC4/CapSense_CSHL.c **** *  than noise threshold.
 334:Generated_Source\PSoC4/CapSense_CSHL.c **** *  Raw data filters are applied to the values if enabled before baseline
 335:Generated_Source\PSoC4/CapSense_CSHL.c **** *  calculation.
 336:Generated_Source\PSoC4/CapSense_CSHL.c **** *
 337:Generated_Source\PSoC4/CapSense_CSHL.c **** *  This API does not update the thresholds in the Smartsense Mode.
 338:Generated_Source\PSoC4/CapSense_CSHL.c **** *
 339:Generated_Source\PSoC4/CapSense_CSHL.c **** * Parameters:
 340:Generated_Source\PSoC4/CapSense_CSHL.c **** *  sensor:  Sensor number.
 341:Generated_Source\PSoC4/CapSense_CSHL.c **** *
 342:Generated_Source\PSoC4/CapSense_CSHL.c **** * Return:
 343:Generated_Source\PSoC4/CapSense_CSHL.c **** *  None
 344:Generated_Source\PSoC4/CapSense_CSHL.c **** *
 345:Generated_Source\PSoC4/CapSense_CSHL.c **** * Global Variables:
 346:Generated_Source\PSoC4/CapSense_CSHL.c **** *  CapSense_widgetNumber[]  - stores widget numbers.
 347:Generated_Source\PSoC4/CapSense_CSHL.c **** *  CapSense_sensorBaseline[]    - used to store baseline value.
 348:Generated_Source\PSoC4/CapSense_CSHL.c **** *  CapSense_sensorBaselineLow[] - used to store fraction byte of
 349:Generated_Source\PSoC4/CapSense_CSHL.c **** *  baseline value.
 350:Generated_Source\PSoC4/CapSense_CSHL.c **** *  CapSense_sensorSignal[]      - used to store difference between
 351:Generated_Source\PSoC4/CapSense_CSHL.c **** *  current value of raw data and previous value of baseline.
 352:Generated_Source\PSoC4/CapSense_CSHL.c **** *  CapSense_rawFilterData1[]    - used to store previous sample of
 353:Generated_Source\PSoC4/CapSense_CSHL.c **** *  any enabled raw data filter.
 354:Generated_Source\PSoC4/CapSense_CSHL.c **** *  CapSense_rawFilterData2[]    - used to store before previous sample
 355:Generated_Source\PSoC4/CapSense_CSHL.c **** *  of enabled raw data filter. Only required for median or average filters.
 356:Generated_Source\PSoC4/CapSense_CSHL.c **** *
 357:Generated_Source\PSoC4/CapSense_CSHL.c **** * Side Effects:
 358:Generated_Source\PSoC4/CapSense_CSHL.c **** *  None
 359:Generated_Source\PSoC4/CapSense_CSHL.c **** *
 360:Generated_Source\PSoC4/CapSense_CSHL.c **** *******************************************************************************/
 361:Generated_Source\PSoC4/CapSense_CSHL.c **** void CapSense_UpdateBaselineNoThreshold(uint32 sensor)
 362:Generated_Source\PSoC4/CapSense_CSHL.c **** {
 363              		.loc 1 362 0
 364              		.cfi_startproc
 365 0000 90B5     		push	{r4, r7, lr}
 366              		.cfi_def_cfa_offset 12
 367              		.cfi_offset 4, -12
 368              		.cfi_offset 7, -8
ARM GAS  C:\Users\poornima\AppData\Local\Temp\ccxTyVc8.s 			page 14


 369              		.cfi_offset 14, -4
 370 0002 87B0     		sub	sp, sp, #28
 371              		.cfi_def_cfa_offset 40
 372 0004 00AF     		add	r7, sp, #0
 373              		.cfi_def_cfa_register 7
 374 0006 7860     		str	r0, [r7, #4]
 363:Generated_Source\PSoC4/CapSense_CSHL.c ****     uint32 calc;
 364:Generated_Source\PSoC4/CapSense_CSHL.c ****     uint32 sign;
 365:Generated_Source\PSoC4/CapSense_CSHL.c ****     uint16 tempRaw;
 366:Generated_Source\PSoC4/CapSense_CSHL.c ****     uint16 filteredRawData;
 367:Generated_Source\PSoC4/CapSense_CSHL.c ****     uint8 widget = CapSense_widgetNumber[sensor];
 375              		.loc 1 367 0
 376 0008 0F23     		mov	r3, #15
 377 000a FB18     		add	r3, r7, r3
 378 000c 7E49     		ldr	r1, .L29
 379 000e 7A68     		ldr	r2, [r7, #4]
 380 0010 8A18     		add	r2, r1, r2
 381 0012 1278     		ldrb	r2, [r2]
 382 0014 1A70     		strb	r2, [r3]
 368:Generated_Source\PSoC4/CapSense_CSHL.c ****     uint8 noiseThreshold;
 369:Generated_Source\PSoC4/CapSense_CSHL.c **** 
 370:Generated_Source\PSoC4/CapSense_CSHL.c ****     #if (CapSense_TOTAL_GENERICS_COUNT)
 371:Generated_Source\PSoC4/CapSense_CSHL.c ****         /* Exclude generic widget */
 372:Generated_Source\PSoC4/CapSense_CSHL.c ****         if(widget < CapSense_END_OF_WIDGETS_INDEX)
 373:Generated_Source\PSoC4/CapSense_CSHL.c ****         {
 374:Generated_Source\PSoC4/CapSense_CSHL.c ****     #endif  /* CapSense_TOTAL_GENERICS_COUNT */
 375:Generated_Source\PSoC4/CapSense_CSHL.c **** 
 376:Generated_Source\PSoC4/CapSense_CSHL.c ****     noiseThreshold = CapSense_noiseThreshold[widget];
 383              		.loc 1 376 0
 384 0016 0F23     		mov	r3, #15
 385 0018 FB18     		add	r3, r7, r3
 386 001a 1A78     		ldrb	r2, [r3]
 387 001c 0E23     		mov	r3, #14
 388 001e FB18     		add	r3, r7, r3
 389 0020 7A49     		ldr	r1, .L29+4
 390 0022 8A5C     		ldrb	r2, [r1, r2]
 391 0024 1A70     		strb	r2, [r3]
 377:Generated_Source\PSoC4/CapSense_CSHL.c ****     filteredRawData = CapSense_sensorRaw[sensor];
 392              		.loc 1 377 0
 393 0026 1023     		mov	r3, #16
 394 0028 FB18     		add	r3, r7, r3
 395 002a 794A     		ldr	r2, .L29+8
 396 002c 7968     		ldr	r1, [r7, #4]
 397 002e 4900     		lsl	r1, r1, #1
 398 0030 8A5A     		ldrh	r2, [r1, r2]
 399 0032 1A80     		strh	r2, [r3]
 378:Generated_Source\PSoC4/CapSense_CSHL.c **** 
 379:Generated_Source\PSoC4/CapSense_CSHL.c ****     #if (CapSense_RAW_FILTER_MASK != 0u)
 380:Generated_Source\PSoC4/CapSense_CSHL.c ****     if(CapSense_enableRawFilters != 0u)
 400              		.loc 1 380 0
 401 0034 774B     		ldr	r3, .L29+12
 402 0036 1B78     		ldrb	r3, [r3]
 403 0038 002B     		cmp	r3, #0
 404 003a 15D0     		beq	.L17
 381:Generated_Source\PSoC4/CapSense_CSHL.c ****     {
 382:Generated_Source\PSoC4/CapSense_CSHL.c ****         #if (CapSense_RAW_FILTER_MASK & CapSense_MEDIAN_FILTER)
 383:Generated_Source\PSoC4/CapSense_CSHL.c ****             tempRaw = filteredRawData;
ARM GAS  C:\Users\poornima\AppData\Local\Temp\ccxTyVc8.s 			page 15


 384:Generated_Source\PSoC4/CapSense_CSHL.c ****             filteredRawData = CapSense_MedianFilter(filteredRawData, CapSense_rawFilterData1[sensor
 385:Generated_Source\PSoC4/CapSense_CSHL.c ****                                                             CapSense_rawFilterData2[sensor]);
 386:Generated_Source\PSoC4/CapSense_CSHL.c ****             CapSense_rawFilterData2[sensor] = CapSense_rawFilterData1[sensor];
 387:Generated_Source\PSoC4/CapSense_CSHL.c ****             CapSense_rawFilterData1[sensor] = tempRaw;
 388:Generated_Source\PSoC4/CapSense_CSHL.c **** 
 389:Generated_Source\PSoC4/CapSense_CSHL.c ****         #elif (CapSense_RAW_FILTER_MASK & CapSense_AVERAGING_FILTER)
 390:Generated_Source\PSoC4/CapSense_CSHL.c ****             tempRaw = filteredRawData;
 391:Generated_Source\PSoC4/CapSense_CSHL.c ****             filteredRawData = CapSense_AveragingFilter(filteredRawData, CapSense_rawFilterData1[sen
 392:Generated_Source\PSoC4/CapSense_CSHL.c ****                                                                CapSense_rawFilterData2[sensor]);
 393:Generated_Source\PSoC4/CapSense_CSHL.c ****             CapSense_rawFilterData2[sensor] = CapSense_rawFilterData1[sensor];
 394:Generated_Source\PSoC4/CapSense_CSHL.c ****             CapSense_rawFilterData1[sensor] = tempRaw;
 395:Generated_Source\PSoC4/CapSense_CSHL.c **** 
 396:Generated_Source\PSoC4/CapSense_CSHL.c ****         #elif (CapSense_RAW_FILTER_MASK & CapSense_IIR2_FILTER)
 397:Generated_Source\PSoC4/CapSense_CSHL.c ****             filteredRawData = CapSense_IIR2Filter(filteredRawData, CapSense_rawFilterData1[sensor])
 398:Generated_Source\PSoC4/CapSense_CSHL.c ****             CapSense_rawFilterData1[sensor] = filteredRawData;
 399:Generated_Source\PSoC4/CapSense_CSHL.c **** 
 400:Generated_Source\PSoC4/CapSense_CSHL.c ****         #elif (CapSense_RAW_FILTER_MASK & CapSense_IIR4_FILTER)
 401:Generated_Source\PSoC4/CapSense_CSHL.c ****             filteredRawData = CapSense_IIR4Filter(filteredRawData, CapSense_rawFilterData1[sensor])
 405              		.loc 1 401 0
 406 003c 764B     		ldr	r3, .L29+16
 407 003e 7A68     		ldr	r2, [r7, #4]
 408 0040 5200     		lsl	r2, r2, #1
 409 0042 D25A     		ldrh	r2, [r2, r3]
 410 0044 1023     		mov	r3, #16
 411 0046 FC18     		add	r4, r7, r3
 412 0048 1023     		mov	r3, #16
 413 004a FB18     		add	r3, r7, r3
 414 004c 1B88     		ldrh	r3, [r3]
 415 004e 181C     		mov	r0, r3
 416 0050 111C     		mov	r1, r2
 417 0052 FFF7FEFF 		bl	CapSense_IIR4Filter
 418 0056 031C     		mov	r3, r0
 419 0058 2380     		strh	r3, [r4]
 402:Generated_Source\PSoC4/CapSense_CSHL.c ****             CapSense_rawFilterData1[sensor] = filteredRawData;
 420              		.loc 1 402 0
 421 005a 6F4B     		ldr	r3, .L29+16
 422 005c 7A68     		ldr	r2, [r7, #4]
 423 005e 5200     		lsl	r2, r2, #1
 424 0060 1021     		mov	r1, #16
 425 0062 7918     		add	r1, r7, r1
 426 0064 0988     		ldrh	r1, [r1]
 427 0066 D152     		strh	r1, [r2, r3]
 428              	.L17:
 403:Generated_Source\PSoC4/CapSense_CSHL.c **** 
 404:Generated_Source\PSoC4/CapSense_CSHL.c ****         #elif (CapSense_RAW_FILTER_MASK & CapSense_JITTER_FILTER)
 405:Generated_Source\PSoC4/CapSense_CSHL.c ****             filteredRawData = CapSense_JitterFilter(filteredRawData, CapSense_rawFilterData1[sensor
 406:Generated_Source\PSoC4/CapSense_CSHL.c ****             CapSense_rawFilterData1[sensor] = filteredRawData;
 407:Generated_Source\PSoC4/CapSense_CSHL.c **** 
 408:Generated_Source\PSoC4/CapSense_CSHL.c ****         #elif (CapSense_RAW_FILTER_MASK & CapSense_IIR8_FILTER)
 409:Generated_Source\PSoC4/CapSense_CSHL.c ****             filteredRawData = CapSense_IIR8Filter(filteredRawData, CapSense_rawFilterData1[sensor])
 410:Generated_Source\PSoC4/CapSense_CSHL.c ****             CapSense_rawFilterData1[sensor] = filteredRawData;
 411:Generated_Source\PSoC4/CapSense_CSHL.c **** 
 412:Generated_Source\PSoC4/CapSense_CSHL.c ****         #elif (CapSense_RAW_FILTER_MASK & CapSense_IIR16_FILTER)
 413:Generated_Source\PSoC4/CapSense_CSHL.c ****             filteredRawData = CapSense_IIR16Filter(filteredRawData, CapSense_rawFilterData1[sensor]
 414:Generated_Source\PSoC4/CapSense_CSHL.c ****             CapSense_rawFilterData1[sensor] = filteredRawData;
 415:Generated_Source\PSoC4/CapSense_CSHL.c **** 
 416:Generated_Source\PSoC4/CapSense_CSHL.c ****         #else
ARM GAS  C:\Users\poornima\AppData\Local\Temp\ccxTyVc8.s 			page 16


 417:Generated_Source\PSoC4/CapSense_CSHL.c ****             /* No Raw filters */
 418:Generated_Source\PSoC4/CapSense_CSHL.c ****         #endif  /* (CapSense_RAW_FILTER_MASK & CapSense_MEDIAN_FILTER) */
 419:Generated_Source\PSoC4/CapSense_CSHL.c ****     }
 420:Generated_Source\PSoC4/CapSense_CSHL.c ****     #endif  /* (CapSense_RAW_FILTER_MASK != 0u) */
 421:Generated_Source\PSoC4/CapSense_CSHL.c **** 
 422:Generated_Source\PSoC4/CapSense_CSHL.c ****     #if (CapSense_TUNING_METHOD == CapSense__TUNING_AUTO)
 423:Generated_Source\PSoC4/CapSense_CSHL.c ****         MeasureNoiseEnvelope_P4_v2_40(&CapSense_config, (uint8)sensor, CapSense_sensorRaw);
 429              		.loc 1 423 0
 430 0068 7B68     		ldr	r3, [r7, #4]
 431 006a DAB2     		uxtb	r2, r3
 432 006c 6B49     		ldr	r1, .L29+20
 433 006e 684B     		ldr	r3, .L29+8
 434 0070 081C     		mov	r0, r1
 435 0072 111C     		mov	r1, r2
 436 0074 1A1C     		mov	r2, r3
 437 0076 FFF7FEFF 		bl	MeasureNoiseEnvelope_P4_v2_40
 424:Generated_Source\PSoC4/CapSense_CSHL.c ****     #endif /* (CapSense_TUNING_METHOD == CapSense__TUNING_AUTO) */
 425:Generated_Source\PSoC4/CapSense_CSHL.c **** 
 426:Generated_Source\PSoC4/CapSense_CSHL.c ****     /* Baseline calculation */
 427:Generated_Source\PSoC4/CapSense_CSHL.c ****     /* Calculate difference RawData[cur] - Baseline[prev] */
 428:Generated_Source\PSoC4/CapSense_CSHL.c ****     if(filteredRawData >= CapSense_sensorBaseline[sensor])
 438              		.loc 1 428 0
 439 007a 694B     		ldr	r3, .L29+24
 440 007c 7A68     		ldr	r2, [r7, #4]
 441 007e 5200     		lsl	r2, r2, #1
 442 0080 D35A     		ldrh	r3, [r2, r3]
 443 0082 1022     		mov	r2, #16
 444 0084 BA18     		add	r2, r7, r2
 445 0086 1288     		ldrh	r2, [r2]
 446 0088 9A42     		cmp	r2, r3
 447 008a 12D3     		bcc	.L18
 429:Generated_Source\PSoC4/CapSense_CSHL.c ****     {
 430:Generated_Source\PSoC4/CapSense_CSHL.c ****         CapSense_lowBaselineResetCnt[sensor] = 0u;
 448              		.loc 1 430 0
 449 008c 654A     		ldr	r2, .L29+28
 450 008e 7B68     		ldr	r3, [r7, #4]
 451 0090 D318     		add	r3, r2, r3
 452 0092 0022     		mov	r2, #0
 453 0094 1A70     		strb	r2, [r3]
 431:Generated_Source\PSoC4/CapSense_CSHL.c ****         tempRaw = filteredRawData - CapSense_sensorBaseline[sensor];
 454              		.loc 1 431 0
 455 0096 624B     		ldr	r3, .L29+24
 456 0098 7A68     		ldr	r2, [r7, #4]
 457 009a 5200     		lsl	r2, r2, #1
 458 009c D25A     		ldrh	r2, [r2, r3]
 459 009e 1223     		mov	r3, #18
 460 00a0 FB18     		add	r3, r7, r3
 461 00a2 1021     		mov	r1, #16
 462 00a4 7918     		add	r1, r7, r1
 463 00a6 0988     		ldrh	r1, [r1]
 464 00a8 8A1A     		sub	r2, r1, r2
 465 00aa 1A80     		strh	r2, [r3]
 432:Generated_Source\PSoC4/CapSense_CSHL.c ****         sign = 1u;    /* Positive difference - Calculate the Signal */
 466              		.loc 1 432 0
 467 00ac 0123     		mov	r3, #1
 468 00ae 7B61     		str	r3, [r7, #20]
 469 00b0 0CE0     		b	.L19
ARM GAS  C:\Users\poornima\AppData\Local\Temp\ccxTyVc8.s 			page 17


 470              	.L18:
 433:Generated_Source\PSoC4/CapSense_CSHL.c ****     }
 434:Generated_Source\PSoC4/CapSense_CSHL.c ****     else
 435:Generated_Source\PSoC4/CapSense_CSHL.c ****     {
 436:Generated_Source\PSoC4/CapSense_CSHL.c ****         tempRaw = CapSense_sensorBaseline[sensor] - filteredRawData;
 471              		.loc 1 436 0
 472 00b2 5B4B     		ldr	r3, .L29+24
 473 00b4 7A68     		ldr	r2, [r7, #4]
 474 00b6 5200     		lsl	r2, r2, #1
 475 00b8 D15A     		ldrh	r1, [r2, r3]
 476 00ba 1223     		mov	r3, #18
 477 00bc FB18     		add	r3, r7, r3
 478 00be 1022     		mov	r2, #16
 479 00c0 BA18     		add	r2, r7, r2
 480 00c2 1288     		ldrh	r2, [r2]
 481 00c4 8A1A     		sub	r2, r1, r2
 482 00c6 1A80     		strh	r2, [r3]
 437:Generated_Source\PSoC4/CapSense_CSHL.c ****         sign = 0u;    /* Negative difference - Do NOT calculate the Signal */
 483              		.loc 1 437 0
 484 00c8 0023     		mov	r3, #0
 485 00ca 7B61     		str	r3, [r7, #20]
 486              	.L19:
 438:Generated_Source\PSoC4/CapSense_CSHL.c ****     }
 439:Generated_Source\PSoC4/CapSense_CSHL.c **** 
 440:Generated_Source\PSoC4/CapSense_CSHL.c ****     #if (CapSense_TUNING_METHOD != CapSense__TUNING_NONE)
 441:Generated_Source\PSoC4/CapSense_CSHL.c ****     if((sign == 0u) && (tempRaw > (uint16) CapSense_negativeNoiseThreshold[widget]))
 487              		.loc 1 441 0
 488 00cc 7B69     		ldr	r3, [r7, #20]
 489 00ce 002B     		cmp	r3, #0
 490 00d0 2AD1     		bne	.L20
 491              		.loc 1 441 0 is_stmt 0 discriminator 1
 492 00d2 0F23     		mov	r3, #15
 493 00d4 FB18     		add	r3, r7, r3
 494 00d6 1B78     		ldrb	r3, [r3]
 495 00d8 534A     		ldr	r2, .L29+32
 496 00da D35C     		ldrb	r3, [r2, r3]
 497 00dc 9BB2     		uxth	r3, r3
 498 00de 1222     		mov	r2, #18
 499 00e0 BA18     		add	r2, r7, r2
 500 00e2 1288     		ldrh	r2, [r2]
 501 00e4 9A42     		cmp	r2, r3
 502 00e6 1FD9     		bls	.L20
 442:Generated_Source\PSoC4/CapSense_CSHL.c ****     #else
 443:Generated_Source\PSoC4/CapSense_CSHL.c ****     if((sign == 0u) && (tempRaw > (uint16) CapSense_NEGATIVE_NOISE_THRESHOLD))
 444:Generated_Source\PSoC4/CapSense_CSHL.c ****     #endif /* (CapSense_TUNING_METHOD != CapSense__TUNING_NONE) */
 445:Generated_Source\PSoC4/CapSense_CSHL.c ****     {
 446:Generated_Source\PSoC4/CapSense_CSHL.c ****         if(CapSense_lowBaselineResetCnt[sensor] >= CapSense_lowBaselineReset[sensor])
 503              		.loc 1 446 0 is_stmt 1
 504 00e8 4E4A     		ldr	r2, .L29+28
 505 00ea 7B68     		ldr	r3, [r7, #4]
 506 00ec D318     		add	r3, r2, r3
 507 00ee 1A78     		ldrb	r2, [r3]
 508 00f0 4E49     		ldr	r1, .L29+36
 509 00f2 7B68     		ldr	r3, [r7, #4]
 510 00f4 CB18     		add	r3, r1, r3
 511 00f6 1B78     		ldrb	r3, [r3]
 512 00f8 9A42     		cmp	r2, r3
ARM GAS  C:\Users\poornima\AppData\Local\Temp\ccxTyVc8.s 			page 18


 513 00fa 09D3     		bcc	.L21
 447:Generated_Source\PSoC4/CapSense_CSHL.c ****         {
 448:Generated_Source\PSoC4/CapSense_CSHL.c ****             CapSense_BaseInit(sensor);
 514              		.loc 1 448 0
 515 00fc 7B68     		ldr	r3, [r7, #4]
 516 00fe 181C     		mov	r0, r3
 517 0100 FFF7FEFF 		bl	CapSense_BaseInit
 449:Generated_Source\PSoC4/CapSense_CSHL.c ****             CapSense_lowBaselineResetCnt[sensor] = 0u;
 518              		.loc 1 449 0
 519 0104 474A     		ldr	r2, .L29+28
 520 0106 7B68     		ldr	r3, [r7, #4]
 521 0108 D318     		add	r3, r2, r3
 522 010a 0022     		mov	r2, #0
 523 010c 1A70     		strb	r2, [r3]
 446:Generated_Source\PSoC4/CapSense_CSHL.c ****         {
 524              		.loc 1 446 0
 525 010e 51E0     		b	.L23
 526              	.L21:
 450:Generated_Source\PSoC4/CapSense_CSHL.c ****         }
 451:Generated_Source\PSoC4/CapSense_CSHL.c ****         else
 452:Generated_Source\PSoC4/CapSense_CSHL.c ****         {
 453:Generated_Source\PSoC4/CapSense_CSHL.c ****             CapSense_lowBaselineResetCnt[sensor]++;
 527              		.loc 1 453 0
 528 0110 444A     		ldr	r2, .L29+28
 529 0112 7B68     		ldr	r3, [r7, #4]
 530 0114 D318     		add	r3, r2, r3
 531 0116 1B78     		ldrb	r3, [r3]
 532 0118 0133     		add	r3, r3, #1
 533 011a D9B2     		uxtb	r1, r3
 534 011c 414A     		ldr	r2, .L29+28
 535 011e 7B68     		ldr	r3, [r7, #4]
 536 0120 D318     		add	r3, r2, r3
 537 0122 0A1C     		add	r2, r1, #0
 538 0124 1A70     		strb	r2, [r3]
 446:Generated_Source\PSoC4/CapSense_CSHL.c ****         {
 539              		.loc 1 446 0
 540 0126 45E0     		b	.L23
 541              	.L20:
 454:Generated_Source\PSoC4/CapSense_CSHL.c ****         }
 455:Generated_Source\PSoC4/CapSense_CSHL.c ****     }
 456:Generated_Source\PSoC4/CapSense_CSHL.c ****     else
 457:Generated_Source\PSoC4/CapSense_CSHL.c ****     {
 458:Generated_Source\PSoC4/CapSense_CSHL.c ****         #if (CapSense_AUTO_RESET == CapSense_AUTO_RESET_DISABLE)
 459:Generated_Source\PSoC4/CapSense_CSHL.c ****         #if (CapSense_TUNING_METHOD != CapSense__TUNING_NONE)
 460:Generated_Source\PSoC4/CapSense_CSHL.c ****             /* Update Baseline if lower than noiseThreshold */
 461:Generated_Source\PSoC4/CapSense_CSHL.c ****             if ( (tempRaw <= noiseThreshold) ||
 542              		.loc 1 461 0
 543 0128 0E23     		mov	r3, #14
 544 012a FB18     		add	r3, r7, r3
 545 012c 1B78     		ldrb	r3, [r3]
 546 012e 9BB2     		uxth	r3, r3
 547 0130 1222     		mov	r2, #18
 548 0132 BA18     		add	r2, r7, r2
 549 0134 1288     		ldrh	r2, [r2]
 550 0136 9A42     		cmp	r2, r3
 551 0138 0DD9     		bls	.L24
 462:Generated_Source\PSoC4/CapSense_CSHL.c ****              ((tempRaw < (uint16) CapSense_negativeNoiseThreshold[widget])
ARM GAS  C:\Users\poornima\AppData\Local\Temp\ccxTyVc8.s 			page 19


 552              		.loc 1 462 0 discriminator 1
 553 013a 0F23     		mov	r3, #15
 554 013c FB18     		add	r3, r7, r3
 555 013e 1B78     		ldrb	r3, [r3]
 556 0140 394A     		ldr	r2, .L29+32
 557 0142 D35C     		ldrb	r3, [r2, r3]
 558 0144 9BB2     		uxth	r3, r3
 461:Generated_Source\PSoC4/CapSense_CSHL.c ****              ((tempRaw < (uint16) CapSense_negativeNoiseThreshold[widget])
 559              		.loc 1 461 0 discriminator 1
 560 0146 1222     		mov	r2, #18
 561 0148 BA18     		add	r2, r7, r2
 562 014a 1288     		ldrh	r2, [r2]
 563 014c 9A42     		cmp	r2, r3
 564 014e 31D2     		bcs	.L23
 463:Generated_Source\PSoC4/CapSense_CSHL.c ****                && (sign == 0u)))
 565              		.loc 1 463 0
 566 0150 7B69     		ldr	r3, [r7, #20]
 567 0152 002B     		cmp	r3, #0
 568 0154 2ED1     		bne	.L23
 569              	.L24:
 464:Generated_Source\PSoC4/CapSense_CSHL.c ****             {
 465:Generated_Source\PSoC4/CapSense_CSHL.c ****         #else
 466:Generated_Source\PSoC4/CapSense_CSHL.c ****             /* Update Baseline if lower than noiseThreshold */
 467:Generated_Source\PSoC4/CapSense_CSHL.c ****             if ( (tempRaw <= noiseThreshold) ||
 468:Generated_Source\PSoC4/CapSense_CSHL.c ****                  ((tempRaw < (uint16) CapSense_NEGATIVE_NOISE_THRESHOLD)
 469:Generated_Source\PSoC4/CapSense_CSHL.c ****                    && (sign == 0u)))
 470:Generated_Source\PSoC4/CapSense_CSHL.c ****             {
 471:Generated_Source\PSoC4/CapSense_CSHL.c ****         #endif /* (CapSense_TUNING_METHOD != CapSense__TUNING_NONE) */
 472:Generated_Source\PSoC4/CapSense_CSHL.c ****         #endif /* (CapSense_AUTO_RESET == CapSense_AUTO_RESET_DISABLE) */
 473:Generated_Source\PSoC4/CapSense_CSHL.c ****                 /* Make full Baseline 23 bits */
 474:Generated_Source\PSoC4/CapSense_CSHL.c ****                 calc = (uint32) CapSense_sensorBaseline[sensor] << 8u;
 570              		.loc 1 474 0
 571 0156 324B     		ldr	r3, .L29+24
 572 0158 7A68     		ldr	r2, [r7, #4]
 573 015a 5200     		lsl	r2, r2, #1
 574 015c D35A     		ldrh	r3, [r2, r3]
 575 015e 1B02     		lsl	r3, r3, #8
 576 0160 BB60     		str	r3, [r7, #8]
 475:Generated_Source\PSoC4/CapSense_CSHL.c ****                 calc |= (uint32) CapSense_sensorBaselineLow[sensor];
 577              		.loc 1 475 0
 578 0162 334A     		ldr	r2, .L29+40
 579 0164 7B68     		ldr	r3, [r7, #4]
 580 0166 D318     		add	r3, r2, r3
 581 0168 1B78     		ldrb	r3, [r3]
 582 016a 1A1C     		mov	r2, r3
 583 016c BB68     		ldr	r3, [r7, #8]
 584 016e 1343     		orr	r3, r2
 585 0170 BB60     		str	r3, [r7, #8]
 476:Generated_Source\PSoC4/CapSense_CSHL.c **** 
 477:Generated_Source\PSoC4/CapSense_CSHL.c ****                 /* Add Raw Data to Baseline */
 478:Generated_Source\PSoC4/CapSense_CSHL.c ****                 calc += filteredRawData;
 586              		.loc 1 478 0
 587 0172 1023     		mov	r3, #16
 588 0174 FB18     		add	r3, r7, r3
 589 0176 1B88     		ldrh	r3, [r3]
 590 0178 BA68     		ldr	r2, [r7, #8]
 591 017a D318     		add	r3, r2, r3
ARM GAS  C:\Users\poornima\AppData\Local\Temp\ccxTyVc8.s 			page 20


 592 017c BB60     		str	r3, [r7, #8]
 479:Generated_Source\PSoC4/CapSense_CSHL.c **** 
 480:Generated_Source\PSoC4/CapSense_CSHL.c ****                 /* Sub the high Baseline */
 481:Generated_Source\PSoC4/CapSense_CSHL.c ****                 calc -= CapSense_sensorBaseline[sensor];
 593              		.loc 1 481 0
 594 017e 284B     		ldr	r3, .L29+24
 595 0180 7A68     		ldr	r2, [r7, #4]
 596 0182 5200     		lsl	r2, r2, #1
 597 0184 D35A     		ldrh	r3, [r2, r3]
 598 0186 1A1C     		mov	r2, r3
 599 0188 BB68     		ldr	r3, [r7, #8]
 600 018a 9B1A     		sub	r3, r3, r2
 601 018c BB60     		str	r3, [r7, #8]
 482:Generated_Source\PSoC4/CapSense_CSHL.c **** 
 483:Generated_Source\PSoC4/CapSense_CSHL.c ****                 /* Put Baseline and BaselineLow */
 484:Generated_Source\PSoC4/CapSense_CSHL.c ****                 CapSense_sensorBaseline[sensor] = ((uint16) (calc >> 8u));
 602              		.loc 1 484 0
 603 018e BB68     		ldr	r3, [r7, #8]
 604 0190 1B0A     		lsr	r3, r3, #8
 605 0192 99B2     		uxth	r1, r3
 606 0194 224B     		ldr	r3, .L29+24
 607 0196 7A68     		ldr	r2, [r7, #4]
 608 0198 5200     		lsl	r2, r2, #1
 609 019a D152     		strh	r1, [r2, r3]
 485:Generated_Source\PSoC4/CapSense_CSHL.c ****                 CapSense_sensorBaselineLow[sensor] = ((uint8) calc);
 610              		.loc 1 485 0
 611 019c BB68     		ldr	r3, [r7, #8]
 612 019e D9B2     		uxtb	r1, r3
 613 01a0 234A     		ldr	r2, .L29+40
 614 01a2 7B68     		ldr	r3, [r7, #4]
 615 01a4 D318     		add	r3, r2, r3
 616 01a6 0A1C     		add	r2, r1, #0
 617 01a8 1A70     		strb	r2, [r3]
 486:Generated_Source\PSoC4/CapSense_CSHL.c **** 
 487:Generated_Source\PSoC4/CapSense_CSHL.c ****                 CapSense_lowBaselineResetCnt[sensor] = 0u;
 618              		.loc 1 487 0
 619 01aa 1E4A     		ldr	r2, .L29+28
 620 01ac 7B68     		ldr	r3, [r7, #4]
 621 01ae D318     		add	r3, r2, r3
 622 01b0 0022     		mov	r2, #0
 623 01b2 1A70     		strb	r2, [r3]
 624              	.L23:
 488:Generated_Source\PSoC4/CapSense_CSHL.c ****         #if (CapSense_AUTO_RESET == CapSense_AUTO_RESET_DISABLE)
 489:Generated_Source\PSoC4/CapSense_CSHL.c ****             }
 490:Generated_Source\PSoC4/CapSense_CSHL.c ****         #endif /* (CapSense_AUTO_RESET == CapSense_AUTO_RESET_DISABLE) */
 491:Generated_Source\PSoC4/CapSense_CSHL.c ****     }
 492:Generated_Source\PSoC4/CapSense_CSHL.c **** 
 493:Generated_Source\PSoC4/CapSense_CSHL.c ****     /* Calculate Signal if positive difference > noiseThreshold */
 494:Generated_Source\PSoC4/CapSense_CSHL.c ****     if((tempRaw > (uint16) noiseThreshold) && (sign != 0u))
 625              		.loc 1 494 0
 626 01b4 0E23     		mov	r3, #14
 627 01b6 FB18     		add	r3, r7, r3
 628 01b8 1B78     		ldrb	r3, [r3]
 629 01ba 9BB2     		uxth	r3, r3
 630 01bc 1222     		mov	r2, #18
 631 01be BA18     		add	r2, r7, r2
 632 01c0 1288     		ldrh	r2, [r2]
ARM GAS  C:\Users\poornima\AppData\Local\Temp\ccxTyVc8.s 			page 21


 633 01c2 9A42     		cmp	r2, r3
 634 01c4 17D9     		bls	.L25
 635              		.loc 1 494 0 is_stmt 0 discriminator 1
 636 01c6 7B69     		ldr	r3, [r7, #20]
 637 01c8 002B     		cmp	r3, #0
 638 01ca 14D0     		beq	.L25
 495:Generated_Source\PSoC4/CapSense_CSHL.c ****     {
 496:Generated_Source\PSoC4/CapSense_CSHL.c ****         #if (CapSense_SIGNAL_SIZE == CapSense_SIGNAL_SIZE_UINT8)
 497:Generated_Source\PSoC4/CapSense_CSHL.c ****             /* Over flow defence for uint8 */
 498:Generated_Source\PSoC4/CapSense_CSHL.c ****             if (tempRaw > 0xFFu)
 639              		.loc 1 498 0 is_stmt 1
 640 01cc 1223     		mov	r3, #18
 641 01ce FB18     		add	r3, r7, r3
 642 01d0 1B88     		ldrh	r3, [r3]
 643 01d2 FF2B     		cmp	r3, #255
 644 01d4 05D9     		bls	.L26
 499:Generated_Source\PSoC4/CapSense_CSHL.c ****             {
 500:Generated_Source\PSoC4/CapSense_CSHL.c ****                 CapSense_sensorSignal[sensor] = 0xFFu;
 645              		.loc 1 500 0
 646 01d6 174A     		ldr	r2, .L29+44
 647 01d8 7B68     		ldr	r3, [r7, #4]
 648 01da D318     		add	r3, r2, r3
 649 01dc FF22     		mov	r2, #255
 650 01de 1A70     		strb	r2, [r3]
 498:Generated_Source\PSoC4/CapSense_CSHL.c ****             {
 651              		.loc 1 498 0
 652 01e0 0EE0     		b	.L16
 653              	.L26:
 501:Generated_Source\PSoC4/CapSense_CSHL.c ****             }
 502:Generated_Source\PSoC4/CapSense_CSHL.c ****             else
 503:Generated_Source\PSoC4/CapSense_CSHL.c ****             {
 504:Generated_Source\PSoC4/CapSense_CSHL.c ****                 CapSense_sensorSignal[sensor] = ((uint8) tempRaw);
 654              		.loc 1 504 0
 655 01e2 1223     		mov	r3, #18
 656 01e4 FB18     		add	r3, r7, r3
 657 01e6 1B88     		ldrh	r3, [r3]
 658 01e8 D9B2     		uxtb	r1, r3
 659 01ea 124A     		ldr	r2, .L29+44
 660 01ec 7B68     		ldr	r3, [r7, #4]
 661 01ee D318     		add	r3, r2, r3
 662 01f0 0A1C     		add	r2, r1, #0
 663 01f2 1A70     		strb	r2, [r3]
 498:Generated_Source\PSoC4/CapSense_CSHL.c ****             {
 664              		.loc 1 498 0
 665 01f4 04E0     		b	.L16
 666              	.L25:
 505:Generated_Source\PSoC4/CapSense_CSHL.c ****             }
 506:Generated_Source\PSoC4/CapSense_CSHL.c ****         #else
 507:Generated_Source\PSoC4/CapSense_CSHL.c ****             CapSense_sensorSignal[sensor] = ((uint16) tempRaw);
 508:Generated_Source\PSoC4/CapSense_CSHL.c ****         #endif  /* (CapSense_SIGNAL_SIZE == CapSense_SIGNAL_SIZE_UINT8) */
 509:Generated_Source\PSoC4/CapSense_CSHL.c ****     }
 510:Generated_Source\PSoC4/CapSense_CSHL.c ****     else
 511:Generated_Source\PSoC4/CapSense_CSHL.c ****     {
 512:Generated_Source\PSoC4/CapSense_CSHL.c ****         /* Signal is zero */
 513:Generated_Source\PSoC4/CapSense_CSHL.c ****         CapSense_sensorSignal[sensor] = 0u;
 667              		.loc 1 513 0
 668 01f6 0F4A     		ldr	r2, .L29+44
ARM GAS  C:\Users\poornima\AppData\Local\Temp\ccxTyVc8.s 			page 22


 669 01f8 7B68     		ldr	r3, [r7, #4]
 670 01fa D318     		add	r3, r2, r3
 671 01fc 0022     		mov	r2, #0
 672 01fe 1A70     		strb	r2, [r3]
 673              	.L16:
 514:Generated_Source\PSoC4/CapSense_CSHL.c ****     }
 515:Generated_Source\PSoC4/CapSense_CSHL.c **** 
 516:Generated_Source\PSoC4/CapSense_CSHL.c ****     #if (CapSense_TOTAL_GENERICS_COUNT)
 517:Generated_Source\PSoC4/CapSense_CSHL.c ****         /* Exclude generic widget */
 518:Generated_Source\PSoC4/CapSense_CSHL.c ****         }
 519:Generated_Source\PSoC4/CapSense_CSHL.c ****     #endif  /* CapSense_TOTAL_GENERICS_COUNT */
 520:Generated_Source\PSoC4/CapSense_CSHL.c **** }
 674              		.loc 1 520 0
 675 0200 BD46     		mov	sp, r7
 676 0202 07B0     		add	sp, sp, #28
 677              		@ sp needed
 678 0204 90BD     		pop	{r4, r7, pc}
 679              	.L30:
 680 0206 C046     		.align	2
 681              	.L29:
 682 0208 00000000 		.word	CapSense_widgetNumber
 683 020c 00000000 		.word	CapSense_noiseThreshold
 684 0210 00000000 		.word	CapSense_sensorRaw
 685 0214 00000000 		.word	CapSense_enableRawFilters
 686 0218 00000000 		.word	CapSense_rawFilterData1
 687 021c 00000000 		.word	CapSense_config
 688 0220 00000000 		.word	CapSense_sensorBaseline
 689 0224 00000000 		.word	CapSense_lowBaselineResetCnt
 690 0228 00000000 		.word	CapSense_negativeNoiseThreshold
 691 022c 00000000 		.word	CapSense_lowBaselineReset
 692 0230 00000000 		.word	CapSense_sensorBaselineLow
 693 0234 00000000 		.word	CapSense_sensorSignal
 694              		.cfi_endproc
 695              	.LFE39:
 696              		.size	CapSense_UpdateBaselineNoThreshold, .-CapSense_UpdateBaselineNoThreshold
 697              		.section	.text.CapSense_UpdateSensorBaseline,"ax",%progbits
 698              		.align	2
 699              		.global	CapSense_UpdateSensorBaseline
 700              		.code	16
 701              		.thumb_func
 702              		.type	CapSense_UpdateSensorBaseline, %function
 703              	CapSense_UpdateSensorBaseline:
 704              	.LFB40:
 521:Generated_Source\PSoC4/CapSense_CSHL.c **** 
 522:Generated_Source\PSoC4/CapSense_CSHL.c **** 
 523:Generated_Source\PSoC4/CapSense_CSHL.c **** /*******************************************************************************
 524:Generated_Source\PSoC4/CapSense_CSHL.c **** * Function Name: CapSense_UpdateSensorBaseline
 525:Generated_Source\PSoC4/CapSense_CSHL.c **** ********************************************************************************
 526:Generated_Source\PSoC4/CapSense_CSHL.c **** *
 527:Generated_Source\PSoC4/CapSense_CSHL.c **** * Summary:
 528:Generated_Source\PSoC4/CapSense_CSHL.c **** *  Updates the CapSense_sensorBaseline[sensor] array element using the
 529:Generated_Source\PSoC4/CapSense_CSHL.c **** *  LP filter with k = 256. The signal calculates the difference of count by
 530:Generated_Source\PSoC4/CapSense_CSHL.c **** *  subtracting the previous baseline from the current raw count value and stores
 531:Generated_Source\PSoC4/CapSense_CSHL.c **** *  it in CapSense_sensorSignal[sensor].
 532:Generated_Source\PSoC4/CapSense_CSHL.c **** *  If the auto reset option is enabled, the baseline updated regards the noise threshold.
 533:Generated_Source\PSoC4/CapSense_CSHL.c **** *  If the auto reset option is disabled, the baseline stops updating.
 534:Generated_Source\PSoC4/CapSense_CSHL.c **** *  Baseline is loaded with raw count value if a signal is greater than zero and
ARM GAS  C:\Users\poornima\AppData\Local\Temp\ccxTyVc8.s 			page 23


 535:Generated_Source\PSoC4/CapSense_CSHL.c **** *  if signal is less than noise threshold.
 536:Generated_Source\PSoC4/CapSense_CSHL.c **** *  Raw data filters are applied to the values if enabled before baseline
 537:Generated_Source\PSoC4/CapSense_CSHL.c **** *  calculation.
 538:Generated_Source\PSoC4/CapSense_CSHL.c **** *  This API updates the thresholds in the Smartsense Mode.
 539:Generated_Source\PSoC4/CapSense_CSHL.c **** *
 540:Generated_Source\PSoC4/CapSense_CSHL.c **** * Parameters:
 541:Generated_Source\PSoC4/CapSense_CSHL.c **** *  sensor:  Sensor number.
 542:Generated_Source\PSoC4/CapSense_CSHL.c **** *
 543:Generated_Source\PSoC4/CapSense_CSHL.c **** * Return:
 544:Generated_Source\PSoC4/CapSense_CSHL.c **** *  None
 545:Generated_Source\PSoC4/CapSense_CSHL.c **** *
 546:Generated_Source\PSoC4/CapSense_CSHL.c **** * Global Variables:
 547:Generated_Source\PSoC4/CapSense_CSHL.c **** *  CapSense_widgetNumber[]  - stores widget numbers.
 548:Generated_Source\PSoC4/CapSense_CSHL.c **** *
 549:Generated_Source\PSoC4/CapSense_CSHL.c **** * Side Effects:
 550:Generated_Source\PSoC4/CapSense_CSHL.c **** *  None
 551:Generated_Source\PSoC4/CapSense_CSHL.c **** *
 552:Generated_Source\PSoC4/CapSense_CSHL.c **** *******************************************************************************/
 553:Generated_Source\PSoC4/CapSense_CSHL.c ****  void CapSense_UpdateSensorBaseline(uint32 sensor)
 554:Generated_Source\PSoC4/CapSense_CSHL.c **** {
 705              		.loc 1 554 0
 706              		.cfi_startproc
 707 0000 80B5     		push	{r7, lr}
 708              		.cfi_def_cfa_offset 8
 709              		.cfi_offset 7, -8
 710              		.cfi_offset 14, -4
 711 0002 82B0     		sub	sp, sp, #8
 712              		.cfi_def_cfa_offset 16
 713 0004 00AF     		add	r7, sp, #0
 714              		.cfi_def_cfa_register 7
 715 0006 7860     		str	r0, [r7, #4]
 555:Generated_Source\PSoC4/CapSense_CSHL.c ****     #if (CapSense_TOTAL_GENERICS_COUNT)
 556:Generated_Source\PSoC4/CapSense_CSHL.c ****         uint32 widget;
 557:Generated_Source\PSoC4/CapSense_CSHL.c **** 
 558:Generated_Source\PSoC4/CapSense_CSHL.c ****         widget = CapSense_widgetNumber[sensor];
 559:Generated_Source\PSoC4/CapSense_CSHL.c **** 
 560:Generated_Source\PSoC4/CapSense_CSHL.c ****         /* Exclude generic widget */
 561:Generated_Source\PSoC4/CapSense_CSHL.c ****         if(widget < CapSense_END_OF_WIDGETS_INDEX)
 562:Generated_Source\PSoC4/CapSense_CSHL.c ****         {
 563:Generated_Source\PSoC4/CapSense_CSHL.c ****     #endif  /* CapSense_TOTAL_GENERICS_COUNT */
 564:Generated_Source\PSoC4/CapSense_CSHL.c **** 
 565:Generated_Source\PSoC4/CapSense_CSHL.c ****     #if (CapSense_TUNING_METHOD == CapSense__TUNING_AUTO)
 566:Generated_Source\PSoC4/CapSense_CSHL.c ****         CapSense_UpdateThresholds(sensor);
 716              		.loc 1 566 0
 717 0008 7B68     		ldr	r3, [r7, #4]
 718 000a 181C     		mov	r0, r3
 719 000c FFF7FEFF 		bl	CapSense_UpdateThresholds
 567:Generated_Source\PSoC4/CapSense_CSHL.c ****     #endif /* (CapSense_TUNING_METHOD == CapSense__TUNING_AUTO) */
 568:Generated_Source\PSoC4/CapSense_CSHL.c **** 
 569:Generated_Source\PSoC4/CapSense_CSHL.c ****     CapSense_UpdateBaselineNoThreshold(sensor);
 720              		.loc 1 569 0
 721 0010 7B68     		ldr	r3, [r7, #4]
 722 0012 181C     		mov	r0, r3
 723 0014 FFF7FEFF 		bl	CapSense_UpdateBaselineNoThreshold
 570:Generated_Source\PSoC4/CapSense_CSHL.c **** 
 571:Generated_Source\PSoC4/CapSense_CSHL.c ****     #if (CapSense_TOTAL_GENERICS_COUNT)
 572:Generated_Source\PSoC4/CapSense_CSHL.c ****         /* Exclude generic widget */
ARM GAS  C:\Users\poornima\AppData\Local\Temp\ccxTyVc8.s 			page 24


 573:Generated_Source\PSoC4/CapSense_CSHL.c ****         }
 574:Generated_Source\PSoC4/CapSense_CSHL.c ****     #endif  /* CapSense_TOTAL_GENERICS_COUNT */
 575:Generated_Source\PSoC4/CapSense_CSHL.c **** }
 724              		.loc 1 575 0
 725 0018 BD46     		mov	sp, r7
 726 001a 02B0     		add	sp, sp, #8
 727              		@ sp needed
 728 001c 80BD     		pop	{r7, pc}
 729              		.cfi_endproc
 730              	.LFE40:
 731              		.size	CapSense_UpdateSensorBaseline, .-CapSense_UpdateSensorBaseline
 732 001e C046     		.section	.text.CapSense_UpdateEnabledBaselines,"ax",%progbits
 733              		.align	2
 734              		.global	CapSense_UpdateEnabledBaselines
 735              		.code	16
 736              		.thumb_func
 737              		.type	CapSense_UpdateEnabledBaselines, %function
 738              	CapSense_UpdateEnabledBaselines:
 739              	.LFB41:
 576:Generated_Source\PSoC4/CapSense_CSHL.c **** 
 577:Generated_Source\PSoC4/CapSense_CSHL.c **** 
 578:Generated_Source\PSoC4/CapSense_CSHL.c **** /*******************************************************************************
 579:Generated_Source\PSoC4/CapSense_CSHL.c **** * Function Name: CapSense_UpdateEnabledBaselines
 580:Generated_Source\PSoC4/CapSense_CSHL.c **** ********************************************************************************
 581:Generated_Source\PSoC4/CapSense_CSHL.c **** *
 582:Generated_Source\PSoC4/CapSense_CSHL.c **** * Summary:
 583:Generated_Source\PSoC4/CapSense_CSHL.c **** *  Checks CapSense_sensorEnableMask[] array and calls the
 584:Generated_Source\PSoC4/CapSense_CSHL.c **** *  CapSense_UpdateSensorBaseline function to update the baselines
 585:Generated_Source\PSoC4/CapSense_CSHL.c **** *  for the enabled sensors.
 586:Generated_Source\PSoC4/CapSense_CSHL.c **** *
 587:Generated_Source\PSoC4/CapSense_CSHL.c **** * Parameters:
 588:Generated_Source\PSoC4/CapSense_CSHL.c **** *  None
 589:Generated_Source\PSoC4/CapSense_CSHL.c **** *
 590:Generated_Source\PSoC4/CapSense_CSHL.c **** * Return:
 591:Generated_Source\PSoC4/CapSense_CSHL.c **** *  None
 592:Generated_Source\PSoC4/CapSense_CSHL.c **** *
 593:Generated_Source\PSoC4/CapSense_CSHL.c **** * Global Variables:
 594:Generated_Source\PSoC4/CapSense_CSHL.c **** *  CapSense_sensorEnableMask[] - used to store the sensor scanning
 595:Generated_Source\PSoC4/CapSense_CSHL.c **** *  state.
 596:Generated_Source\PSoC4/CapSense_CSHL.c **** *  CapSense_sensorEnableMask[0] contains the masked bits for sensors
 597:Generated_Source\PSoC4/CapSense_CSHL.c **** *   0 through 7 (sensor 0 is bit 0, sensor 1 is bit 1).
 598:Generated_Source\PSoC4/CapSense_CSHL.c **** *  CapSense_sensorEnableMask[1] contains the masked bits for
 599:Generated_Source\PSoC4/CapSense_CSHL.c **** *  sensors 8 through 15 (if needed), and so on.
 600:Generated_Source\PSoC4/CapSense_CSHL.c **** *  0 - sensor doesn't scan by CapSense_ScanEnabledWidgets().
 601:Generated_Source\PSoC4/CapSense_CSHL.c **** *  1 - sensor scans by CapSense_ScanEnabledWidgets().
 602:Generated_Source\PSoC4/CapSense_CSHL.c **** *
 603:Generated_Source\PSoC4/CapSense_CSHL.c **** * Side Effects:
 604:Generated_Source\PSoC4/CapSense_CSHL.c **** *  None
 605:Generated_Source\PSoC4/CapSense_CSHL.c **** *
 606:Generated_Source\PSoC4/CapSense_CSHL.c **** *******************************************************************************/
 607:Generated_Source\PSoC4/CapSense_CSHL.c ****  void CapSense_UpdateEnabledBaselines(void)
 608:Generated_Source\PSoC4/CapSense_CSHL.c **** {
 740              		.loc 1 608 0
 741              		.cfi_startproc
 742 0000 80B5     		push	{r7, lr}
 743              		.cfi_def_cfa_offset 8
 744              		.cfi_offset 7, -8
ARM GAS  C:\Users\poornima\AppData\Local\Temp\ccxTyVc8.s 			page 25


 745              		.cfi_offset 14, -4
 746 0002 82B0     		sub	sp, sp, #8
 747              		.cfi_def_cfa_offset 16
 748 0004 00AF     		add	r7, sp, #0
 749              		.cfi_def_cfa_register 7
 609:Generated_Source\PSoC4/CapSense_CSHL.c ****     uint32 i;
 610:Generated_Source\PSoC4/CapSense_CSHL.c ****     uint32 isSensorEnabled;
 611:Generated_Source\PSoC4/CapSense_CSHL.c **** 
 612:Generated_Source\PSoC4/CapSense_CSHL.c ****     for(i = 0u; i < CapSense_TOTAL_SENSOR_COUNT; i++)
 750              		.loc 1 612 0
 751 0006 0023     		mov	r3, #0
 752 0008 7B60     		str	r3, [r7, #4]
 753 000a 11E0     		b	.L33
 754              	.L35:
 613:Generated_Source\PSoC4/CapSense_CSHL.c ****     {
 614:Generated_Source\PSoC4/CapSense_CSHL.c ****         isSensorEnabled = CapSense_GetBitValue(CapSense_sensorEnableMask, i);
 755              		.loc 1 614 0
 756 000c 0B4A     		ldr	r2, .L36
 757 000e 7B68     		ldr	r3, [r7, #4]
 758 0010 101C     		mov	r0, r2
 759 0012 191C     		mov	r1, r3
 760 0014 FFF7FEFF 		bl	CapSense_GetBitValue
 761 0018 031C     		mov	r3, r0
 762 001a 3B60     		str	r3, [r7]
 615:Generated_Source\PSoC4/CapSense_CSHL.c **** 
 616:Generated_Source\PSoC4/CapSense_CSHL.c ****         if(0u != isSensorEnabled)
 763              		.loc 1 616 0
 764 001c 3B68     		ldr	r3, [r7]
 765 001e 002B     		cmp	r3, #0
 766 0020 03D0     		beq	.L34
 617:Generated_Source\PSoC4/CapSense_CSHL.c ****         {
 618:Generated_Source\PSoC4/CapSense_CSHL.c ****             CapSense_UpdateSensorBaseline(i);
 767              		.loc 1 618 0
 768 0022 7B68     		ldr	r3, [r7, #4]
 769 0024 181C     		mov	r0, r3
 770 0026 FFF7FEFF 		bl	CapSense_UpdateSensorBaseline
 771              	.L34:
 612:Generated_Source\PSoC4/CapSense_CSHL.c ****     {
 772              		.loc 1 612 0 discriminator 2
 773 002a 7B68     		ldr	r3, [r7, #4]
 774 002c 0133     		add	r3, r3, #1
 775 002e 7B60     		str	r3, [r7, #4]
 776              	.L33:
 612:Generated_Source\PSoC4/CapSense_CSHL.c ****     {
 777              		.loc 1 612 0 is_stmt 0 discriminator 1
 778 0030 7B68     		ldr	r3, [r7, #4]
 779 0032 072B     		cmp	r3, #7
 780 0034 EAD9     		bls	.L35
 619:Generated_Source\PSoC4/CapSense_CSHL.c ****         }
 620:Generated_Source\PSoC4/CapSense_CSHL.c ****     }
 621:Generated_Source\PSoC4/CapSense_CSHL.c **** }
 781              		.loc 1 621 0 is_stmt 1
 782 0036 BD46     		mov	sp, r7
 783 0038 02B0     		add	sp, sp, #8
 784              		@ sp needed
 785 003a 80BD     		pop	{r7, pc}
 786              	.L37:
ARM GAS  C:\Users\poornima\AppData\Local\Temp\ccxTyVc8.s 			page 26


 787              		.align	2
 788              	.L36:
 789 003c 00000000 		.word	CapSense_sensorEnableMask
 790              		.cfi_endproc
 791              	.LFE41:
 792              		.size	CapSense_UpdateEnabledBaselines, .-CapSense_UpdateEnabledBaselines
 793              		.section	.text.CapSense_UpdateWidgetBaseline,"ax",%progbits
 794              		.align	2
 795              		.global	CapSense_UpdateWidgetBaseline
 796              		.code	16
 797              		.thumb_func
 798              		.type	CapSense_UpdateWidgetBaseline, %function
 799              	CapSense_UpdateWidgetBaseline:
 800              	.LFB42:
 622:Generated_Source\PSoC4/CapSense_CSHL.c **** 
 623:Generated_Source\PSoC4/CapSense_CSHL.c **** /*******************************************************************************
 624:Generated_Source\PSoC4/CapSense_CSHL.c **** * Function Name: CapSense_UpdateWidgetBaseline
 625:Generated_Source\PSoC4/CapSense_CSHL.c **** ********************************************************************************
 626:Generated_Source\PSoC4/CapSense_CSHL.c **** *
 627:Generated_Source\PSoC4/CapSense_CSHL.c **** * Summary:
 628:Generated_Source\PSoC4/CapSense_CSHL.c **** *  Checks CapSense_sensorEnableMask[] array and calls the
 629:Generated_Source\PSoC4/CapSense_CSHL.c **** *  CapSense_UpdateSensorBaseline function to update the baselines
 630:Generated_Source\PSoC4/CapSense_CSHL.c **** *  for the enabled sensors that belong to widget.
 631:Generated_Source\PSoC4/CapSense_CSHL.c **** *
 632:Generated_Source\PSoC4/CapSense_CSHL.c **** * Parameters:
 633:Generated_Source\PSoC4/CapSense_CSHL.c **** *  widget:  Widget number.
 634:Generated_Source\PSoC4/CapSense_CSHL.c **** *
 635:Generated_Source\PSoC4/CapSense_CSHL.c **** * Return:
 636:Generated_Source\PSoC4/CapSense_CSHL.c **** *  None
 637:Generated_Source\PSoC4/CapSense_CSHL.c **** *
 638:Generated_Source\PSoC4/CapSense_CSHL.c **** * Global Variables:
 639:Generated_Source\PSoC4/CapSense_CSHL.c **** *  CapSense_sensorEnableMask[] - used to store the sensor scanning
 640:Generated_Source\PSoC4/CapSense_CSHL.c **** *  state.
 641:Generated_Source\PSoC4/CapSense_CSHL.c **** *  CapSense_sensorEnableMask[0] contains the masked bits for sensors
 642:Generated_Source\PSoC4/CapSense_CSHL.c **** *   0 through 7 (sensor 0 is bit 0, sensor 1 is bit 1).
 643:Generated_Source\PSoC4/CapSense_CSHL.c **** *  CapSense_sensorEnableMask[1] contains the masked bits for
 644:Generated_Source\PSoC4/CapSense_CSHL.c **** *  sensors 8 through 15 (if needed), and so on.
 645:Generated_Source\PSoC4/CapSense_CSHL.c **** *  0 - sensor doesn't scan by CapSense_ScanEnabledWidgets().
 646:Generated_Source\PSoC4/CapSense_CSHL.c **** *  1 - sensor scans by CapSense_ScanEnabledWidgets().
 647:Generated_Source\PSoC4/CapSense_CSHL.c **** *
 648:Generated_Source\PSoC4/CapSense_CSHL.c **** * Side Effects:
 649:Generated_Source\PSoC4/CapSense_CSHL.c **** *  None
 650:Generated_Source\PSoC4/CapSense_CSHL.c **** *
 651:Generated_Source\PSoC4/CapSense_CSHL.c **** *******************************************************************************/
 652:Generated_Source\PSoC4/CapSense_CSHL.c **** void CapSense_UpdateWidgetBaseline(uint32 widget)
 653:Generated_Source\PSoC4/CapSense_CSHL.c **** {
 801              		.loc 1 653 0
 802              		.cfi_startproc
 803 0000 80B5     		push	{r7, lr}
 804              		.cfi_def_cfa_offset 8
 805              		.cfi_offset 7, -8
 806              		.cfi_offset 14, -4
 807 0002 88B0     		sub	sp, sp, #32
 808              		.cfi_def_cfa_offset 40
 809 0004 00AF     		add	r7, sp, #0
 810              		.cfi_def_cfa_register 7
 811 0006 7860     		str	r0, [r7, #4]
ARM GAS  C:\Users\poornima\AppData\Local\Temp\ccxTyVc8.s 			page 27


 654:Generated_Source\PSoC4/CapSense_CSHL.c ****     uint32 sensorsPerWidget;
 655:Generated_Source\PSoC4/CapSense_CSHL.c ****     uint32 firstSensor;
 656:Generated_Source\PSoC4/CapSense_CSHL.c ****     uint32 lastSensor;
 657:Generated_Source\PSoC4/CapSense_CSHL.c ****     uint32 i;
 658:Generated_Source\PSoC4/CapSense_CSHL.c ****     uint32 isSensorEnabled;
 659:Generated_Source\PSoC4/CapSense_CSHL.c **** 
 660:Generated_Source\PSoC4/CapSense_CSHL.c ****     /* Get number of sensors in widget */
 661:Generated_Source\PSoC4/CapSense_CSHL.c ****     sensorsPerWidget = CapSense_numberOfSensors[widget];
 812              		.loc 1 661 0
 813 0008 164A     		ldr	r2, .L42
 814 000a 7B68     		ldr	r3, [r7, #4]
 815 000c D318     		add	r3, r2, r3
 816 000e 1B78     		ldrb	r3, [r3]
 817 0010 BB61     		str	r3, [r7, #24]
 662:Generated_Source\PSoC4/CapSense_CSHL.c **** 
 663:Generated_Source\PSoC4/CapSense_CSHL.c ****     /* Get first sensor in widget */
 664:Generated_Source\PSoC4/CapSense_CSHL.c ****     firstSensor = CapSense_rawDataIndex[widget];
 818              		.loc 1 664 0
 819 0012 154A     		ldr	r2, .L42+4
 820 0014 7B68     		ldr	r3, [r7, #4]
 821 0016 D318     		add	r3, r2, r3
 822 0018 1B78     		ldrb	r3, [r3]
 823 001a 7B61     		str	r3, [r7, #20]
 665:Generated_Source\PSoC4/CapSense_CSHL.c **** 
 666:Generated_Source\PSoC4/CapSense_CSHL.c ****     /* Get last sensor in widget */
 667:Generated_Source\PSoC4/CapSense_CSHL.c ****     lastSensor = (CapSense_rawDataIndex[widget] + sensorsPerWidget);
 824              		.loc 1 667 0
 825 001c 124A     		ldr	r2, .L42+4
 826 001e 7B68     		ldr	r3, [r7, #4]
 827 0020 D318     		add	r3, r2, r3
 828 0022 1B78     		ldrb	r3, [r3]
 829 0024 1A1C     		mov	r2, r3
 830 0026 BB69     		ldr	r3, [r7, #24]
 831 0028 D318     		add	r3, r2, r3
 832 002a 3B61     		str	r3, [r7, #16]
 668:Generated_Source\PSoC4/CapSense_CSHL.c **** 
 669:Generated_Source\PSoC4/CapSense_CSHL.c ****     for(i = firstSensor; i < lastSensor; i++)
 833              		.loc 1 669 0
 834 002c 7B69     		ldr	r3, [r7, #20]
 835 002e FB61     		str	r3, [r7, #28]
 836 0030 11E0     		b	.L39
 837              	.L41:
 670:Generated_Source\PSoC4/CapSense_CSHL.c ****     {
 671:Generated_Source\PSoC4/CapSense_CSHL.c ****         isSensorEnabled = CapSense_GetBitValue(CapSense_sensorEnableMask, i);
 838              		.loc 1 671 0
 839 0032 0E4A     		ldr	r2, .L42+8
 840 0034 FB69     		ldr	r3, [r7, #28]
 841 0036 101C     		mov	r0, r2
 842 0038 191C     		mov	r1, r3
 843 003a FFF7FEFF 		bl	CapSense_GetBitValue
 844 003e 031C     		mov	r3, r0
 845 0040 FB60     		str	r3, [r7, #12]
 672:Generated_Source\PSoC4/CapSense_CSHL.c **** 
 673:Generated_Source\PSoC4/CapSense_CSHL.c ****         if(0u != isSensorEnabled)
 846              		.loc 1 673 0
 847 0042 FB68     		ldr	r3, [r7, #12]
 848 0044 002B     		cmp	r3, #0
ARM GAS  C:\Users\poornima\AppData\Local\Temp\ccxTyVc8.s 			page 28


 849 0046 03D0     		beq	.L40
 674:Generated_Source\PSoC4/CapSense_CSHL.c ****         {
 675:Generated_Source\PSoC4/CapSense_CSHL.c ****             CapSense_UpdateSensorBaseline(i);
 850              		.loc 1 675 0
 851 0048 FB69     		ldr	r3, [r7, #28]
 852 004a 181C     		mov	r0, r3
 853 004c FFF7FEFF 		bl	CapSense_UpdateSensorBaseline
 854              	.L40:
 669:Generated_Source\PSoC4/CapSense_CSHL.c ****     {
 855              		.loc 1 669 0 discriminator 2
 856 0050 FB69     		ldr	r3, [r7, #28]
 857 0052 0133     		add	r3, r3, #1
 858 0054 FB61     		str	r3, [r7, #28]
 859              	.L39:
 669:Generated_Source\PSoC4/CapSense_CSHL.c ****     {
 860              		.loc 1 669 0 is_stmt 0 discriminator 1
 861 0056 FA69     		ldr	r2, [r7, #28]
 862 0058 3B69     		ldr	r3, [r7, #16]
 863 005a 9A42     		cmp	r2, r3
 864 005c E9D3     		bcc	.L41
 676:Generated_Source\PSoC4/CapSense_CSHL.c ****         }
 677:Generated_Source\PSoC4/CapSense_CSHL.c ****     }
 678:Generated_Source\PSoC4/CapSense_CSHL.c **** }
 865              		.loc 1 678 0 is_stmt 1
 866 005e BD46     		mov	sp, r7
 867 0060 08B0     		add	sp, sp, #32
 868              		@ sp needed
 869 0062 80BD     		pop	{r7, pc}
 870              	.L43:
 871              		.align	2
 872              	.L42:
 873 0064 00000000 		.word	CapSense_numberOfSensors
 874 0068 00000000 		.word	CapSense_rawDataIndex
 875 006c 00000000 		.word	CapSense_sensorEnableMask
 876              		.cfi_endproc
 877              	.LFE42:
 878              		.size	CapSense_UpdateWidgetBaseline, .-CapSense_UpdateWidgetBaseline
 879              		.section	.text.CapSense_GetBaselineData,"ax",%progbits
 880              		.align	2
 881              		.global	CapSense_GetBaselineData
 882              		.code	16
 883              		.thumb_func
 884              		.type	CapSense_GetBaselineData, %function
 885              	CapSense_GetBaselineData:
 886              	.LFB43:
 679:Generated_Source\PSoC4/CapSense_CSHL.c **** 
 680:Generated_Source\PSoC4/CapSense_CSHL.c **** 
 681:Generated_Source\PSoC4/CapSense_CSHL.c **** /*******************************************************************************
 682:Generated_Source\PSoC4/CapSense_CSHL.c **** * Function Name: CapSense_GetBaselineData
 683:Generated_Source\PSoC4/CapSense_CSHL.c **** ********************************************************************************
 684:Generated_Source\PSoC4/CapSense_CSHL.c **** *
 685:Generated_Source\PSoC4/CapSense_CSHL.c **** * Summary:
 686:Generated_Source\PSoC4/CapSense_CSHL.c **** *  This function reads the sensor baseline from the component.
 687:Generated_Source\PSoC4/CapSense_CSHL.c **** *
 688:Generated_Source\PSoC4/CapSense_CSHL.c **** * Parameters:
 689:Generated_Source\PSoC4/CapSense_CSHL.c **** *  sensor:  Sensor number.
 690:Generated_Source\PSoC4/CapSense_CSHL.c **** *
ARM GAS  C:\Users\poornima\AppData\Local\Temp\ccxTyVc8.s 			page 29


 691:Generated_Source\PSoC4/CapSense_CSHL.c **** * Return:
 692:Generated_Source\PSoC4/CapSense_CSHL.c **** *  This API returns the baseline value of the sensor indicated by an argument.
 693:Generated_Source\PSoC4/CapSense_CSHL.c **** *
 694:Generated_Source\PSoC4/CapSense_CSHL.c **** * Global Variables:
 695:Generated_Source\PSoC4/CapSense_CSHL.c **** *  CapSense_sensorBaseline[] - the array with an initial values by scanning
 696:Generated_Source\PSoC4/CapSense_CSHL.c **** *
 697:Generated_Source\PSoC4/CapSense_CSHL.c **** * Side Effects:
 698:Generated_Source\PSoC4/CapSense_CSHL.c **** *  None
 699:Generated_Source\PSoC4/CapSense_CSHL.c **** *
 700:Generated_Source\PSoC4/CapSense_CSHL.c **** *******************************************************************************/
 701:Generated_Source\PSoC4/CapSense_CSHL.c **** uint16 CapSense_GetBaselineData(uint32 sensor)
 702:Generated_Source\PSoC4/CapSense_CSHL.c **** {
 887              		.loc 1 702 0
 888              		.cfi_startproc
 889 0000 80B5     		push	{r7, lr}
 890              		.cfi_def_cfa_offset 8
 891              		.cfi_offset 7, -8
 892              		.cfi_offset 14, -4
 893 0002 82B0     		sub	sp, sp, #8
 894              		.cfi_def_cfa_offset 16
 895 0004 00AF     		add	r7, sp, #0
 896              		.cfi_def_cfa_register 7
 897 0006 7860     		str	r0, [r7, #4]
 703:Generated_Source\PSoC4/CapSense_CSHL.c ****     return (CapSense_sensorBaseline[sensor]);
 898              		.loc 1 703 0
 899 0008 034B     		ldr	r3, .L46
 900 000a 7A68     		ldr	r2, [r7, #4]
 901 000c 5200     		lsl	r2, r2, #1
 902 000e D35A     		ldrh	r3, [r2, r3]
 704:Generated_Source\PSoC4/CapSense_CSHL.c **** }
 903              		.loc 1 704 0
 904 0010 181C     		mov	r0, r3
 905 0012 BD46     		mov	sp, r7
 906 0014 02B0     		add	sp, sp, #8
 907              		@ sp needed
 908 0016 80BD     		pop	{r7, pc}
 909              	.L47:
 910              		.align	2
 911              	.L46:
 912 0018 00000000 		.word	CapSense_sensorBaseline
 913              		.cfi_endproc
 914              	.LFE43:
 915              		.size	CapSense_GetBaselineData, .-CapSense_GetBaselineData
 916              		.section	.text.CapSense_SetBaselineData,"ax",%progbits
 917              		.align	2
 918              		.global	CapSense_SetBaselineData
 919              		.code	16
 920              		.thumb_func
 921              		.type	CapSense_SetBaselineData, %function
 922              	CapSense_SetBaselineData:
 923              	.LFB44:
 705:Generated_Source\PSoC4/CapSense_CSHL.c **** 
 706:Generated_Source\PSoC4/CapSense_CSHL.c **** 
 707:Generated_Source\PSoC4/CapSense_CSHL.c **** /*******************************************************************************
 708:Generated_Source\PSoC4/CapSense_CSHL.c **** * Function Name: CapSense_SetBaselineData
 709:Generated_Source\PSoC4/CapSense_CSHL.c **** ********************************************************************************
 710:Generated_Source\PSoC4/CapSense_CSHL.c **** *
ARM GAS  C:\Users\poornima\AppData\Local\Temp\ccxTyVc8.s 			page 30


 711:Generated_Source\PSoC4/CapSense_CSHL.c **** * Summary:
 712:Generated_Source\PSoC4/CapSense_CSHL.c **** *  This API writes the data value passed as an argument to the sensor baseline array.
 713:Generated_Source\PSoC4/CapSense_CSHL.c **** *
 714:Generated_Source\PSoC4/CapSense_CSHL.c **** * Parameters:
 715:Generated_Source\PSoC4/CapSense_CSHL.c **** *  sensor:  Sensor number.
 716:Generated_Source\PSoC4/CapSense_CSHL.c **** *  data:    Sensor baseline.
 717:Generated_Source\PSoC4/CapSense_CSHL.c **** *
 718:Generated_Source\PSoC4/CapSense_CSHL.c **** * Return:
 719:Generated_Source\PSoC4/CapSense_CSHL.c **** *  None.
 720:Generated_Source\PSoC4/CapSense_CSHL.c **** *
 721:Generated_Source\PSoC4/CapSense_CSHL.c **** * Global Variables:
 722:Generated_Source\PSoC4/CapSense_CSHL.c **** *  CapSense_sensorBaseline[] - the array with initial values by scanning
 723:Generated_Source\PSoC4/CapSense_CSHL.c **** *
 724:Generated_Source\PSoC4/CapSense_CSHL.c **** * Side Effects:
 725:Generated_Source\PSoC4/CapSense_CSHL.c **** *  None
 726:Generated_Source\PSoC4/CapSense_CSHL.c **** *
 727:Generated_Source\PSoC4/CapSense_CSHL.c **** *******************************************************************************/
 728:Generated_Source\PSoC4/CapSense_CSHL.c **** void CapSense_SetBaselineData(uint32 sensor, uint16 data)
 729:Generated_Source\PSoC4/CapSense_CSHL.c **** {
 924              		.loc 1 729 0
 925              		.cfi_startproc
 926 0000 80B5     		push	{r7, lr}
 927              		.cfi_def_cfa_offset 8
 928              		.cfi_offset 7, -8
 929              		.cfi_offset 14, -4
 930 0002 82B0     		sub	sp, sp, #8
 931              		.cfi_def_cfa_offset 16
 932 0004 00AF     		add	r7, sp, #0
 933              		.cfi_def_cfa_register 7
 934 0006 7860     		str	r0, [r7, #4]
 935 0008 0A1C     		mov	r2, r1
 936 000a BB1C     		add	r3, r7, #2
 937 000c 1A80     		strh	r2, [r3]
 730:Generated_Source\PSoC4/CapSense_CSHL.c ****     CapSense_sensorBaseline[sensor] = data;
 938              		.loc 1 730 0
 939 000e 044B     		ldr	r3, .L49
 940 0010 7A68     		ldr	r2, [r7, #4]
 941 0012 5200     		lsl	r2, r2, #1
 942 0014 B91C     		add	r1, r7, #2
 943 0016 0988     		ldrh	r1, [r1]
 944 0018 D152     		strh	r1, [r2, r3]
 731:Generated_Source\PSoC4/CapSense_CSHL.c **** }
 945              		.loc 1 731 0
 946 001a BD46     		mov	sp, r7
 947 001c 02B0     		add	sp, sp, #8
 948              		@ sp needed
 949 001e 80BD     		pop	{r7, pc}
 950              	.L50:
 951              		.align	2
 952              	.L49:
 953 0020 00000000 		.word	CapSense_sensorBaseline
 954              		.cfi_endproc
 955              	.LFE44:
 956              		.size	CapSense_SetBaselineData, .-CapSense_SetBaselineData
 957              		.section	.text.CapSense_GetDiffCountData,"ax",%progbits
 958              		.align	2
 959              		.global	CapSense_GetDiffCountData
ARM GAS  C:\Users\poornima\AppData\Local\Temp\ccxTyVc8.s 			page 31


 960              		.code	16
 961              		.thumb_func
 962              		.type	CapSense_GetDiffCountData, %function
 963              	CapSense_GetDiffCountData:
 964              	.LFB45:
 732:Generated_Source\PSoC4/CapSense_CSHL.c **** 
 733:Generated_Source\PSoC4/CapSense_CSHL.c **** 
 734:Generated_Source\PSoC4/CapSense_CSHL.c **** /*******************************************************************************
 735:Generated_Source\PSoC4/CapSense_CSHL.c **** * Function Name: CapSense_GetDiffCountData
 736:Generated_Source\PSoC4/CapSense_CSHL.c **** ********************************************************************************
 737:Generated_Source\PSoC4/CapSense_CSHL.c **** *
 738:Generated_Source\PSoC4/CapSense_CSHL.c **** * Summary:
 739:Generated_Source\PSoC4/CapSense_CSHL.c **** *  This function returns the Sensor Signal from the component.
 740:Generated_Source\PSoC4/CapSense_CSHL.c **** *
 741:Generated_Source\PSoC4/CapSense_CSHL.c **** * Parameters:
 742:Generated_Source\PSoC4/CapSense_CSHL.c **** *  sensor:  Sensor number.
 743:Generated_Source\PSoC4/CapSense_CSHL.c **** *
 744:Generated_Source\PSoC4/CapSense_CSHL.c **** * Return:
 745:Generated_Source\PSoC4/CapSense_CSHL.c **** *  This API returns the difference count value of the sensor indicated by the
 746:Generated_Source\PSoC4/CapSense_CSHL.c **** *  argument.
 747:Generated_Source\PSoC4/CapSense_CSHL.c **** *
 748:Generated_Source\PSoC4/CapSense_CSHL.c **** * Global Variables:
 749:Generated_Source\PSoC4/CapSense_CSHL.c **** *  CapSense_sensorSignal[] - the array with difference counts for sensors
 750:Generated_Source\PSoC4/CapSense_CSHL.c **** *
 751:Generated_Source\PSoC4/CapSense_CSHL.c **** * Side Effects:
 752:Generated_Source\PSoC4/CapSense_CSHL.c **** *  None
 753:Generated_Source\PSoC4/CapSense_CSHL.c **** *
 754:Generated_Source\PSoC4/CapSense_CSHL.c **** *******************************************************************************/
 755:Generated_Source\PSoC4/CapSense_CSHL.c **** uint8 CapSense_GetDiffCountData(uint32 sensor)
 756:Generated_Source\PSoC4/CapSense_CSHL.c **** {
 965              		.loc 1 756 0
 966              		.cfi_startproc
 967 0000 80B5     		push	{r7, lr}
 968              		.cfi_def_cfa_offset 8
 969              		.cfi_offset 7, -8
 970              		.cfi_offset 14, -4
 971 0002 82B0     		sub	sp, sp, #8
 972              		.cfi_def_cfa_offset 16
 973 0004 00AF     		add	r7, sp, #0
 974              		.cfi_def_cfa_register 7
 975 0006 7860     		str	r0, [r7, #4]
 757:Generated_Source\PSoC4/CapSense_CSHL.c ****     return (CapSense_sensorSignal[sensor]);
 976              		.loc 1 757 0
 977 0008 034A     		ldr	r2, .L53
 978 000a 7B68     		ldr	r3, [r7, #4]
 979 000c D318     		add	r3, r2, r3
 980 000e 1B78     		ldrb	r3, [r3]
 758:Generated_Source\PSoC4/CapSense_CSHL.c **** }
 981              		.loc 1 758 0
 982 0010 181C     		mov	r0, r3
 983 0012 BD46     		mov	sp, r7
 984 0014 02B0     		add	sp, sp, #8
 985              		@ sp needed
 986 0016 80BD     		pop	{r7, pc}
 987              	.L54:
 988              		.align	2
 989              	.L53:
ARM GAS  C:\Users\poornima\AppData\Local\Temp\ccxTyVc8.s 			page 32


 990 0018 00000000 		.word	CapSense_sensorSignal
 991              		.cfi_endproc
 992              	.LFE45:
 993              		.size	CapSense_GetDiffCountData, .-CapSense_GetDiffCountData
 994              		.section	.text.CapSense_SetDiffCountData,"ax",%progbits
 995              		.align	2
 996              		.global	CapSense_SetDiffCountData
 997              		.code	16
 998              		.thumb_func
 999              		.type	CapSense_SetDiffCountData, %function
 1000              	CapSense_SetDiffCountData:
 1001              	.LFB46:
 759:Generated_Source\PSoC4/CapSense_CSHL.c **** 
 760:Generated_Source\PSoC4/CapSense_CSHL.c **** 
 761:Generated_Source\PSoC4/CapSense_CSHL.c **** /*******************************************************************************
 762:Generated_Source\PSoC4/CapSense_CSHL.c **** * Function Name: CapSense_SetDiffCountData
 763:Generated_Source\PSoC4/CapSense_CSHL.c **** ********************************************************************************
 764:Generated_Source\PSoC4/CapSense_CSHL.c **** *
 765:Generated_Source\PSoC4/CapSense_CSHL.c **** * Summary:
 766:Generated_Source\PSoC4/CapSense_CSHL.c **** *  This API writes the data value passed as an argument to the sensor signal array.
 767:Generated_Source\PSoC4/CapSense_CSHL.c **** *
 768:Generated_Source\PSoC4/CapSense_CSHL.c **** * Parameters:
 769:Generated_Source\PSoC4/CapSense_CSHL.c **** *  sensor:  Sensor number.
 770:Generated_Source\PSoC4/CapSense_CSHL.c **** *  value:   Sensor signal.
 771:Generated_Source\PSoC4/CapSense_CSHL.c **** *
 772:Generated_Source\PSoC4/CapSense_CSHL.c **** * Return:
 773:Generated_Source\PSoC4/CapSense_CSHL.c **** *  None.
 774:Generated_Source\PSoC4/CapSense_CSHL.c **** *
 775:Generated_Source\PSoC4/CapSense_CSHL.c **** * Global Variables:
 776:Generated_Source\PSoC4/CapSense_CSHL.c **** *  CapSense_sensorSignal[] - the array with difference counts for sensors
 777:Generated_Source\PSoC4/CapSense_CSHL.c **** *
 778:Generated_Source\PSoC4/CapSense_CSHL.c **** * Side Effects:
 779:Generated_Source\PSoC4/CapSense_CSHL.c **** *  None
 780:Generated_Source\PSoC4/CapSense_CSHL.c **** *
 781:Generated_Source\PSoC4/CapSense_CSHL.c **** *******************************************************************************/
 782:Generated_Source\PSoC4/CapSense_CSHL.c **** void CapSense_SetDiffCountData(uint32 sensor, uint8 value)
 783:Generated_Source\PSoC4/CapSense_CSHL.c **** {
 1002              		.loc 1 783 0
 1003              		.cfi_startproc
 1004 0000 80B5     		push	{r7, lr}
 1005              		.cfi_def_cfa_offset 8
 1006              		.cfi_offset 7, -8
 1007              		.cfi_offset 14, -4
 1008 0002 82B0     		sub	sp, sp, #8
 1009              		.cfi_def_cfa_offset 16
 1010 0004 00AF     		add	r7, sp, #0
 1011              		.cfi_def_cfa_register 7
 1012 0006 7860     		str	r0, [r7, #4]
 1013 0008 0A1C     		mov	r2, r1
 1014 000a FB1C     		add	r3, r7, #3
 1015 000c 1A70     		strb	r2, [r3]
 784:Generated_Source\PSoC4/CapSense_CSHL.c ****     CapSense_sensorSignal[sensor] = value;
 1016              		.loc 1 784 0
 1017 000e 044A     		ldr	r2, .L56
 1018 0010 7B68     		ldr	r3, [r7, #4]
 1019 0012 D318     		add	r3, r2, r3
 1020 0014 FA1C     		add	r2, r7, #3
ARM GAS  C:\Users\poornima\AppData\Local\Temp\ccxTyVc8.s 			page 33


 1021 0016 1278     		ldrb	r2, [r2]
 1022 0018 1A70     		strb	r2, [r3]
 785:Generated_Source\PSoC4/CapSense_CSHL.c **** }
 1023              		.loc 1 785 0
 1024 001a BD46     		mov	sp, r7
 1025 001c 02B0     		add	sp, sp, #8
 1026              		@ sp needed
 1027 001e 80BD     		pop	{r7, pc}
 1028              	.L57:
 1029              		.align	2
 1030              	.L56:
 1031 0020 00000000 		.word	CapSense_sensorSignal
 1032              		.cfi_endproc
 1033              	.LFE46:
 1034              		.size	CapSense_SetDiffCountData, .-CapSense_SetDiffCountData
 1035              		.section	.text.CapSense_GetFingerThreshold,"ax",%progbits
 1036              		.align	2
 1037              		.global	CapSense_GetFingerThreshold
 1038              		.code	16
 1039              		.thumb_func
 1040              		.type	CapSense_GetFingerThreshold, %function
 1041              	CapSense_GetFingerThreshold:
 1042              	.LFB47:
 786:Generated_Source\PSoC4/CapSense_CSHL.c **** 
 787:Generated_Source\PSoC4/CapSense_CSHL.c **** 
 788:Generated_Source\PSoC4/CapSense_CSHL.c **** /*******************************************************************************
 789:Generated_Source\PSoC4/CapSense_CSHL.c **** * Function Name: CapSense_GetFingerThreshold
 790:Generated_Source\PSoC4/CapSense_CSHL.c **** ********************************************************************************
 791:Generated_Source\PSoC4/CapSense_CSHL.c **** *
 792:Generated_Source\PSoC4/CapSense_CSHL.c **** * Summary:
 793:Generated_Source\PSoC4/CapSense_CSHL.c **** *  This function reads the finger threshold from the component.
 794:Generated_Source\PSoC4/CapSense_CSHL.c **** *
 795:Generated_Source\PSoC4/CapSense_CSHL.c **** * Parameters:
 796:Generated_Source\PSoC4/CapSense_CSHL.c **** *  widget:  widget number.
 797:Generated_Source\PSoC4/CapSense_CSHL.c **** *
 798:Generated_Source\PSoC4/CapSense_CSHL.c **** * Return:
 799:Generated_Source\PSoC4/CapSense_CSHL.c **** *  This API returns the finger threshold of the widget indicated by the argument.
 800:Generated_Source\PSoC4/CapSense_CSHL.c **** *
 801:Generated_Source\PSoC4/CapSense_CSHL.c **** * Global Variables:
 802:Generated_Source\PSoC4/CapSense_CSHL.c **** *  CapSense_fingerThreshold[] - This array contains the level of signal
 803:Generated_Source\PSoC4/CapSense_CSHL.c **** *  for each widget that is determined if a finger is present on the widget.
 804:Generated_Source\PSoC4/CapSense_CSHL.c **** *
 805:Generated_Source\PSoC4/CapSense_CSHL.c **** * Side Effects:
 806:Generated_Source\PSoC4/CapSense_CSHL.c **** *  None
 807:Generated_Source\PSoC4/CapSense_CSHL.c **** *
 808:Generated_Source\PSoC4/CapSense_CSHL.c **** *******************************************************************************/
 809:Generated_Source\PSoC4/CapSense_CSHL.c **** uint8 CapSense_GetFingerThreshold(uint32 widget)
 810:Generated_Source\PSoC4/CapSense_CSHL.c **** {
 1043              		.loc 1 810 0
 1044              		.cfi_startproc
 1045 0000 80B5     		push	{r7, lr}
 1046              		.cfi_def_cfa_offset 8
 1047              		.cfi_offset 7, -8
 1048              		.cfi_offset 14, -4
 1049 0002 82B0     		sub	sp, sp, #8
 1050              		.cfi_def_cfa_offset 16
 1051 0004 00AF     		add	r7, sp, #0
ARM GAS  C:\Users\poornima\AppData\Local\Temp\ccxTyVc8.s 			page 34


 1052              		.cfi_def_cfa_register 7
 1053 0006 7860     		str	r0, [r7, #4]
 811:Generated_Source\PSoC4/CapSense_CSHL.c ****     return(CapSense_fingerThreshold[widget]);
 1054              		.loc 1 811 0
 1055 0008 034A     		ldr	r2, .L60
 1056 000a 7B68     		ldr	r3, [r7, #4]
 1057 000c D318     		add	r3, r2, r3
 1058 000e 1B78     		ldrb	r3, [r3]
 812:Generated_Source\PSoC4/CapSense_CSHL.c **** }
 1059              		.loc 1 812 0
 1060 0010 181C     		mov	r0, r3
 1061 0012 BD46     		mov	sp, r7
 1062 0014 02B0     		add	sp, sp, #8
 1063              		@ sp needed
 1064 0016 80BD     		pop	{r7, pc}
 1065              	.L61:
 1066              		.align	2
 1067              	.L60:
 1068 0018 00000000 		.word	CapSense_fingerThreshold
 1069              		.cfi_endproc
 1070              	.LFE47:
 1071              		.size	CapSense_GetFingerThreshold, .-CapSense_GetFingerThreshold
 1072              		.section	.text.CapSense_GetNoiseThreshold,"ax",%progbits
 1073              		.align	2
 1074              		.global	CapSense_GetNoiseThreshold
 1075              		.code	16
 1076              		.thumb_func
 1077              		.type	CapSense_GetNoiseThreshold, %function
 1078              	CapSense_GetNoiseThreshold:
 1079              	.LFB48:
 813:Generated_Source\PSoC4/CapSense_CSHL.c **** 
 814:Generated_Source\PSoC4/CapSense_CSHL.c **** 
 815:Generated_Source\PSoC4/CapSense_CSHL.c **** /*******************************************************************************
 816:Generated_Source\PSoC4/CapSense_CSHL.c **** * Function Name: CapSense_GetNoiseThreshold
 817:Generated_Source\PSoC4/CapSense_CSHL.c **** ********************************************************************************
 818:Generated_Source\PSoC4/CapSense_CSHL.c **** *
 819:Generated_Source\PSoC4/CapSense_CSHL.c **** * Summary:
 820:Generated_Source\PSoC4/CapSense_CSHL.c **** *  This function reads the noise threshold from the component.
 821:Generated_Source\PSoC4/CapSense_CSHL.c **** *
 822:Generated_Source\PSoC4/CapSense_CSHL.c **** * Parameters:
 823:Generated_Source\PSoC4/CapSense_CSHL.c **** *  widget:  widget number.
 824:Generated_Source\PSoC4/CapSense_CSHL.c **** *
 825:Generated_Source\PSoC4/CapSense_CSHL.c **** * Return:
 826:Generated_Source\PSoC4/CapSense_CSHL.c **** *  This API returns the noise threshold of the widget indicated by the argument.
 827:Generated_Source\PSoC4/CapSense_CSHL.c **** *
 828:Generated_Source\PSoC4/CapSense_CSHL.c **** * Global Variables:
 829:Generated_Source\PSoC4/CapSense_CSHL.c **** *  CapSense_noiseThreshold[] - This array contains the level of signal
 830:Generated_Source\PSoC4/CapSense_CSHL.c **** *  for each widget that determines the level of noise in the capacitive scan.
 831:Generated_Source\PSoC4/CapSense_CSHL.c **** *
 832:Generated_Source\PSoC4/CapSense_CSHL.c **** * Side Effects:
 833:Generated_Source\PSoC4/CapSense_CSHL.c **** *  None
 834:Generated_Source\PSoC4/CapSense_CSHL.c **** *
 835:Generated_Source\PSoC4/CapSense_CSHL.c **** *******************************************************************************/
 836:Generated_Source\PSoC4/CapSense_CSHL.c **** uint8 CapSense_GetNoiseThreshold(uint32 widget)
 837:Generated_Source\PSoC4/CapSense_CSHL.c **** {
 1080              		.loc 1 837 0
 1081              		.cfi_startproc
ARM GAS  C:\Users\poornima\AppData\Local\Temp\ccxTyVc8.s 			page 35


 1082 0000 80B5     		push	{r7, lr}
 1083              		.cfi_def_cfa_offset 8
 1084              		.cfi_offset 7, -8
 1085              		.cfi_offset 14, -4
 1086 0002 82B0     		sub	sp, sp, #8
 1087              		.cfi_def_cfa_offset 16
 1088 0004 00AF     		add	r7, sp, #0
 1089              		.cfi_def_cfa_register 7
 1090 0006 7860     		str	r0, [r7, #4]
 838:Generated_Source\PSoC4/CapSense_CSHL.c ****     return (CapSense_noiseThreshold[widget]);
 1091              		.loc 1 838 0
 1092 0008 034A     		ldr	r2, .L64
 1093 000a 7B68     		ldr	r3, [r7, #4]
 1094 000c D318     		add	r3, r2, r3
 1095 000e 1B78     		ldrb	r3, [r3]
 839:Generated_Source\PSoC4/CapSense_CSHL.c **** }
 1096              		.loc 1 839 0
 1097 0010 181C     		mov	r0, r3
 1098 0012 BD46     		mov	sp, r7
 1099 0014 02B0     		add	sp, sp, #8
 1100              		@ sp needed
 1101 0016 80BD     		pop	{r7, pc}
 1102              	.L65:
 1103              		.align	2
 1104              	.L64:
 1105 0018 00000000 		.word	CapSense_noiseThreshold
 1106              		.cfi_endproc
 1107              	.LFE48:
 1108              		.size	CapSense_GetNoiseThreshold, .-CapSense_GetNoiseThreshold
 1109              		.section	.text.CapSense_GetFingerHysteresis,"ax",%progbits
 1110              		.align	2
 1111              		.global	CapSense_GetFingerHysteresis
 1112              		.code	16
 1113              		.thumb_func
 1114              		.type	CapSense_GetFingerHysteresis, %function
 1115              	CapSense_GetFingerHysteresis:
 1116              	.LFB49:
 840:Generated_Source\PSoC4/CapSense_CSHL.c **** 
 841:Generated_Source\PSoC4/CapSense_CSHL.c **** 
 842:Generated_Source\PSoC4/CapSense_CSHL.c **** /*******************************************************************************
 843:Generated_Source\PSoC4/CapSense_CSHL.c **** * Function Name: CapSense_GetFingerHysteresis
 844:Generated_Source\PSoC4/CapSense_CSHL.c **** ********************************************************************************
 845:Generated_Source\PSoC4/CapSense_CSHL.c **** *
 846:Generated_Source\PSoC4/CapSense_CSHL.c **** * Summary:
 847:Generated_Source\PSoC4/CapSense_CSHL.c **** *  This function reads the Hysteresis value from the component.
 848:Generated_Source\PSoC4/CapSense_CSHL.c **** *
 849:Generated_Source\PSoC4/CapSense_CSHL.c **** * Parameters:
 850:Generated_Source\PSoC4/CapSense_CSHL.c **** *  widget:  widget number.
 851:Generated_Source\PSoC4/CapSense_CSHL.c **** *
 852:Generated_Source\PSoC4/CapSense_CSHL.c **** * Return:
 853:Generated_Source\PSoC4/CapSense_CSHL.c **** *  This API returns the Hysteresis of the widget indicated by the argument.
 854:Generated_Source\PSoC4/CapSense_CSHL.c **** *
 855:Generated_Source\PSoC4/CapSense_CSHL.c **** * Global Variables:
 856:Generated_Source\PSoC4/CapSense_CSHL.c **** *  CapSense_hysteresis[] - This array contains the hysteresis value
 857:Generated_Source\PSoC4/CapSense_CSHL.c **** *   for each widget.
 858:Generated_Source\PSoC4/CapSense_CSHL.c **** *  CapSense_widgetNumberSld - structure with dynamic sliders' parameters.
 859:Generated_Source\PSoC4/CapSense_CSHL.c **** *
ARM GAS  C:\Users\poornima\AppData\Local\Temp\ccxTyVc8.s 			page 36


 860:Generated_Source\PSoC4/CapSense_CSHL.c **** * Side Effects:
 861:Generated_Source\PSoC4/CapSense_CSHL.c **** *  None
 862:Generated_Source\PSoC4/CapSense_CSHL.c **** *
 863:Generated_Source\PSoC4/CapSense_CSHL.c **** *******************************************************************************/
 864:Generated_Source\PSoC4/CapSense_CSHL.c **** uint8 CapSense_GetFingerHysteresis(uint32 widget)
 865:Generated_Source\PSoC4/CapSense_CSHL.c **** {
 1117              		.loc 1 865 0
 1118              		.cfi_startproc
 1119 0000 80B5     		push	{r7, lr}
 1120              		.cfi_def_cfa_offset 8
 1121              		.cfi_offset 7, -8
 1122              		.cfi_offset 14, -4
 1123 0002 82B0     		sub	sp, sp, #8
 1124              		.cfi_def_cfa_offset 16
 1125 0004 00AF     		add	r7, sp, #0
 1126              		.cfi_def_cfa_register 7
 1127 0006 7860     		str	r0, [r7, #4]
 866:Generated_Source\PSoC4/CapSense_CSHL.c ****     return(CapSense_hysteresis[widget]);
 1128              		.loc 1 866 0
 1129 0008 034A     		ldr	r2, .L68
 1130 000a 7B68     		ldr	r3, [r7, #4]
 1131 000c D318     		add	r3, r2, r3
 1132 000e 1B78     		ldrb	r3, [r3]
 867:Generated_Source\PSoC4/CapSense_CSHL.c **** }
 1133              		.loc 1 867 0
 1134 0010 181C     		mov	r0, r3
 1135 0012 BD46     		mov	sp, r7
 1136 0014 02B0     		add	sp, sp, #8
 1137              		@ sp needed
 1138 0016 80BD     		pop	{r7, pc}
 1139              	.L69:
 1140              		.align	2
 1141              	.L68:
 1142 0018 00000000 		.word	CapSense_hysteresis
 1143              		.cfi_endproc
 1144              	.LFE49:
 1145              		.size	CapSense_GetFingerHysteresis, .-CapSense_GetFingerHysteresis
 1146              		.section	.text.CapSense_GetNegativeNoiseThreshold,"ax",%progbits
 1147              		.align	2
 1148              		.global	CapSense_GetNegativeNoiseThreshold
 1149              		.code	16
 1150              		.thumb_func
 1151              		.type	CapSense_GetNegativeNoiseThreshold, %function
 1152              	CapSense_GetNegativeNoiseThreshold:
 1153              	.LFB50:
 868:Generated_Source\PSoC4/CapSense_CSHL.c **** 
 869:Generated_Source\PSoC4/CapSense_CSHL.c **** 
 870:Generated_Source\PSoC4/CapSense_CSHL.c **** /*******************************************************************************
 871:Generated_Source\PSoC4/CapSense_CSHL.c **** * Function Name: CapSense_GetNegativeNoiseThreshold
 872:Generated_Source\PSoC4/CapSense_CSHL.c **** ********************************************************************************
 873:Generated_Source\PSoC4/CapSense_CSHL.c **** *
 874:Generated_Source\PSoC4/CapSense_CSHL.c **** * Summary:
 875:Generated_Source\PSoC4/CapSense_CSHL.c **** *  This function reads the negative noise threshold from the component.
 876:Generated_Source\PSoC4/CapSense_CSHL.c **** *
 877:Generated_Source\PSoC4/CapSense_CSHL.c **** * Parameters:
 878:Generated_Source\PSoC4/CapSense_CSHL.c **** *  None.
 879:Generated_Source\PSoC4/CapSense_CSHL.c **** *
ARM GAS  C:\Users\poornima\AppData\Local\Temp\ccxTyVc8.s 			page 37


 880:Generated_Source\PSoC4/CapSense_CSHL.c **** * Return Value:
 881:Generated_Source\PSoC4/CapSense_CSHL.c **** *  This API returns the negative noise threshold
 882:Generated_Source\PSoC4/CapSense_CSHL.c **** *
 883:Generated_Source\PSoC4/CapSense_CSHL.c **** * Global Variables:
 884:Generated_Source\PSoC4/CapSense_CSHL.c **** *  CapSense_negativeNoiseThreshold - This variable specifies the negative
 885:Generated_Source\PSoC4/CapSense_CSHL.c **** *   difference between the raw count and baseline levels for Baseline resetting
 886:Generated_Source\PSoC4/CapSense_CSHL.c **** *   to the raw count level.
 887:Generated_Source\PSoC4/CapSense_CSHL.c **** *
 888:Generated_Source\PSoC4/CapSense_CSHL.c **** * Side Effects:
 889:Generated_Source\PSoC4/CapSense_CSHL.c **** *  None
 890:Generated_Source\PSoC4/CapSense_CSHL.c **** *
 891:Generated_Source\PSoC4/CapSense_CSHL.c **** *******************************************************************************/
 892:Generated_Source\PSoC4/CapSense_CSHL.c **** uint8 CapSense_GetNegativeNoiseThreshold(uint32 widget)
 893:Generated_Source\PSoC4/CapSense_CSHL.c **** {
 1154              		.loc 1 893 0
 1155              		.cfi_startproc
 1156 0000 80B5     		push	{r7, lr}
 1157              		.cfi_def_cfa_offset 8
 1158              		.cfi_offset 7, -8
 1159              		.cfi_offset 14, -4
 1160 0002 82B0     		sub	sp, sp, #8
 1161              		.cfi_def_cfa_offset 16
 1162 0004 00AF     		add	r7, sp, #0
 1163              		.cfi_def_cfa_register 7
 1164 0006 7860     		str	r0, [r7, #4]
 894:Generated_Source\PSoC4/CapSense_CSHL.c **** #if (CapSense_TUNING_METHOD != CapSense__TUNING_NONE)
 895:Generated_Source\PSoC4/CapSense_CSHL.c ****     return(CapSense_negativeNoiseThreshold[widget]);
 1165              		.loc 1 895 0
 1166 0008 034A     		ldr	r2, .L72
 1167 000a 7B68     		ldr	r3, [r7, #4]
 1168 000c D318     		add	r3, r2, r3
 1169 000e 1B78     		ldrb	r3, [r3]
 896:Generated_Source\PSoC4/CapSense_CSHL.c **** #else
 897:Generated_Source\PSoC4/CapSense_CSHL.c ****     return(CapSense_NEGATIVE_NOISE_THRESHOLD);
 898:Generated_Source\PSoC4/CapSense_CSHL.c **** #endif /* (CapSense_TUNING_METHOD != CapSense__TUNING_NONE) */
 899:Generated_Source\PSoC4/CapSense_CSHL.c **** }
 1170              		.loc 1 899 0
 1171 0010 181C     		mov	r0, r3
 1172 0012 BD46     		mov	sp, r7
 1173 0014 02B0     		add	sp, sp, #8
 1174              		@ sp needed
 1175 0016 80BD     		pop	{r7, pc}
 1176              	.L73:
 1177              		.align	2
 1178              	.L72:
 1179 0018 00000000 		.word	CapSense_negativeNoiseThreshold
 1180              		.cfi_endproc
 1181              	.LFE50:
 1182              		.size	CapSense_GetNegativeNoiseThreshold, .-CapSense_GetNegativeNoiseThreshold
 1183              		.section	.text.CapSense_SetFingerThreshold,"ax",%progbits
 1184              		.align	2
 1185              		.global	CapSense_SetFingerThreshold
 1186              		.code	16
 1187              		.thumb_func
 1188              		.type	CapSense_SetFingerThreshold, %function
 1189              	CapSense_SetFingerThreshold:
 1190              	.LFB51:
ARM GAS  C:\Users\poornima\AppData\Local\Temp\ccxTyVc8.s 			page 38


 900:Generated_Source\PSoC4/CapSense_CSHL.c **** 
 901:Generated_Source\PSoC4/CapSense_CSHL.c **** 
 902:Generated_Source\PSoC4/CapSense_CSHL.c **** #if(CapSense_TUNING_METHOD != CapSense__TUNING_NONE)
 903:Generated_Source\PSoC4/CapSense_CSHL.c ****     /*******************************************************************************
 904:Generated_Source\PSoC4/CapSense_CSHL.c ****     * Function Name: CapSense_SetFingerThreshold
 905:Generated_Source\PSoC4/CapSense_CSHL.c ****     ********************************************************************************
 906:Generated_Source\PSoC4/CapSense_CSHL.c ****     *
 907:Generated_Source\PSoC4/CapSense_CSHL.c ****     * Summary:
 908:Generated_Source\PSoC4/CapSense_CSHL.c ****     *  This API sets the finger threshold value for a widget.
 909:Generated_Source\PSoC4/CapSense_CSHL.c ****     *
 910:Generated_Source\PSoC4/CapSense_CSHL.c ****     * Parameters:
 911:Generated_Source\PSoC4/CapSense_CSHL.c ****     *  sensorNumber:  widget index.
 912:Generated_Source\PSoC4/CapSense_CSHL.c ****     *  value:  Finger threshold value for the widget.
 913:Generated_Source\PSoC4/CapSense_CSHL.c ****     *
 914:Generated_Source\PSoC4/CapSense_CSHL.c ****     * Return Value:
 915:Generated_Source\PSoC4/CapSense_CSHL.c ****     *  None
 916:Generated_Source\PSoC4/CapSense_CSHL.c ****     *
 917:Generated_Source\PSoC4/CapSense_CSHL.c ****     * Global Variables:
 918:Generated_Source\PSoC4/CapSense_CSHL.c ****     *  CapSense_fingerThreshold[] - This array contains the level of signal
 919:Generated_Source\PSoC4/CapSense_CSHL.c ****     *   for each widget that determines if a finger is present on the widget.
 920:Generated_Source\PSoC4/CapSense_CSHL.c ****     *
 921:Generated_Source\PSoC4/CapSense_CSHL.c ****     * Side Effects:
 922:Generated_Source\PSoC4/CapSense_CSHL.c ****     *  None
 923:Generated_Source\PSoC4/CapSense_CSHL.c ****     *
 924:Generated_Source\PSoC4/CapSense_CSHL.c ****     *******************************************************************************/
 925:Generated_Source\PSoC4/CapSense_CSHL.c ****     void CapSense_SetFingerThreshold(uint32 widget, uint8 value)
 926:Generated_Source\PSoC4/CapSense_CSHL.c ****     {
 1191              		.loc 1 926 0
 1192              		.cfi_startproc
 1193 0000 80B5     		push	{r7, lr}
 1194              		.cfi_def_cfa_offset 8
 1195              		.cfi_offset 7, -8
 1196              		.cfi_offset 14, -4
 1197 0002 82B0     		sub	sp, sp, #8
 1198              		.cfi_def_cfa_offset 16
 1199 0004 00AF     		add	r7, sp, #0
 1200              		.cfi_def_cfa_register 7
 1201 0006 7860     		str	r0, [r7, #4]
 1202 0008 0A1C     		mov	r2, r1
 1203 000a FB1C     		add	r3, r7, #3
 1204 000c 1A70     		strb	r2, [r3]
 927:Generated_Source\PSoC4/CapSense_CSHL.c ****         CapSense_fingerThreshold[widget] = value;
 1205              		.loc 1 927 0
 1206 000e 044A     		ldr	r2, .L75
 1207 0010 7B68     		ldr	r3, [r7, #4]
 1208 0012 D318     		add	r3, r2, r3
 1209 0014 FA1C     		add	r2, r7, #3
 1210 0016 1278     		ldrb	r2, [r2]
 1211 0018 1A70     		strb	r2, [r3]
 928:Generated_Source\PSoC4/CapSense_CSHL.c ****     }
 1212              		.loc 1 928 0
 1213 001a BD46     		mov	sp, r7
 1214 001c 02B0     		add	sp, sp, #8
 1215              		@ sp needed
 1216 001e 80BD     		pop	{r7, pc}
 1217              	.L76:
 1218              		.align	2
ARM GAS  C:\Users\poornima\AppData\Local\Temp\ccxTyVc8.s 			page 39


 1219              	.L75:
 1220 0020 00000000 		.word	CapSense_fingerThreshold
 1221              		.cfi_endproc
 1222              	.LFE51:
 1223              		.size	CapSense_SetFingerThreshold, .-CapSense_SetFingerThreshold
 1224              		.section	.text.CapSense_SetNoiseThreshold,"ax",%progbits
 1225              		.align	2
 1226              		.global	CapSense_SetNoiseThreshold
 1227              		.code	16
 1228              		.thumb_func
 1229              		.type	CapSense_SetNoiseThreshold, %function
 1230              	CapSense_SetNoiseThreshold:
 1231              	.LFB52:
 929:Generated_Source\PSoC4/CapSense_CSHL.c **** 
 930:Generated_Source\PSoC4/CapSense_CSHL.c **** 
 931:Generated_Source\PSoC4/CapSense_CSHL.c ****     /*******************************************************************************
 932:Generated_Source\PSoC4/CapSense_CSHL.c ****     * Function Name: CapSense_SetNoiseThreshold
 933:Generated_Source\PSoC4/CapSense_CSHL.c ****     ********************************************************************************
 934:Generated_Source\PSoC4/CapSense_CSHL.c ****     *
 935:Generated_Source\PSoC4/CapSense_CSHL.c ****     * Summary:
 936:Generated_Source\PSoC4/CapSense_CSHL.c ****     *  This API sets the Noise Threshold value for each widget.
 937:Generated_Source\PSoC4/CapSense_CSHL.c ****     *
 938:Generated_Source\PSoC4/CapSense_CSHL.c ****     * Parameters:
 939:Generated_Source\PSoC4/CapSense_CSHL.c ****     *  widget:  Sensor index number.
 940:Generated_Source\PSoC4/CapSense_CSHL.c ****     *  value:   Noise Threshold value for widget.
 941:Generated_Source\PSoC4/CapSense_CSHL.c ****     *
 942:Generated_Source\PSoC4/CapSense_CSHL.c ****     * Return Value:
 943:Generated_Source\PSoC4/CapSense_CSHL.c ****     *  None
 944:Generated_Source\PSoC4/CapSense_CSHL.c ****     *
 945:Generated_Source\PSoC4/CapSense_CSHL.c ****     * Global Variables:
 946:Generated_Source\PSoC4/CapSense_CSHL.c ****     *  CapSense_noiseThreshold[] - This array contains the level of signal
 947:Generated_Source\PSoC4/CapSense_CSHL.c ****     *   for each widget that determines the level of noise in the capacitive scan.
 948:Generated_Source\PSoC4/CapSense_CSHL.c ****     *
 949:Generated_Source\PSoC4/CapSense_CSHL.c ****     * Side Effects:
 950:Generated_Source\PSoC4/CapSense_CSHL.c ****     *  None
 951:Generated_Source\PSoC4/CapSense_CSHL.c ****     *
 952:Generated_Source\PSoC4/CapSense_CSHL.c ****     *******************************************************************************/
 953:Generated_Source\PSoC4/CapSense_CSHL.c ****     void CapSense_SetNoiseThreshold(uint32 widget, uint8 value)
 954:Generated_Source\PSoC4/CapSense_CSHL.c ****     {
 1232              		.loc 1 954 0
 1233              		.cfi_startproc
 1234 0000 80B5     		push	{r7, lr}
 1235              		.cfi_def_cfa_offset 8
 1236              		.cfi_offset 7, -8
 1237              		.cfi_offset 14, -4
 1238 0002 82B0     		sub	sp, sp, #8
 1239              		.cfi_def_cfa_offset 16
 1240 0004 00AF     		add	r7, sp, #0
 1241              		.cfi_def_cfa_register 7
 1242 0006 7860     		str	r0, [r7, #4]
 1243 0008 0A1C     		mov	r2, r1
 1244 000a FB1C     		add	r3, r7, #3
 1245 000c 1A70     		strb	r2, [r3]
 955:Generated_Source\PSoC4/CapSense_CSHL.c ****         CapSense_noiseThreshold[widget] = value;
 1246              		.loc 1 955 0
 1247 000e 044A     		ldr	r2, .L78
 1248 0010 7B68     		ldr	r3, [r7, #4]
ARM GAS  C:\Users\poornima\AppData\Local\Temp\ccxTyVc8.s 			page 40


 1249 0012 D318     		add	r3, r2, r3
 1250 0014 FA1C     		add	r2, r7, #3
 1251 0016 1278     		ldrb	r2, [r2]
 1252 0018 1A70     		strb	r2, [r3]
 956:Generated_Source\PSoC4/CapSense_CSHL.c ****     }
 1253              		.loc 1 956 0
 1254 001a BD46     		mov	sp, r7
 1255 001c 02B0     		add	sp, sp, #8
 1256              		@ sp needed
 1257 001e 80BD     		pop	{r7, pc}
 1258              	.L79:
 1259              		.align	2
 1260              	.L78:
 1261 0020 00000000 		.word	CapSense_noiseThreshold
 1262              		.cfi_endproc
 1263              	.LFE52:
 1264              		.size	CapSense_SetNoiseThreshold, .-CapSense_SetNoiseThreshold
 1265              		.section	.text.CapSense_SetFingerHysteresis,"ax",%progbits
 1266              		.align	2
 1267              		.global	CapSense_SetFingerHysteresis
 1268              		.code	16
 1269              		.thumb_func
 1270              		.type	CapSense_SetFingerHysteresis, %function
 1271              	CapSense_SetFingerHysteresis:
 1272              	.LFB53:
 957:Generated_Source\PSoC4/CapSense_CSHL.c **** 
 958:Generated_Source\PSoC4/CapSense_CSHL.c **** 
 959:Generated_Source\PSoC4/CapSense_CSHL.c ****     /*******************************************************************************
 960:Generated_Source\PSoC4/CapSense_CSHL.c ****     * Function Name: CapSense_SetFingerHysteresis
 961:Generated_Source\PSoC4/CapSense_CSHL.c ****     ********************************************************************************
 962:Generated_Source\PSoC4/CapSense_CSHL.c ****     *
 963:Generated_Source\PSoC4/CapSense_CSHL.c ****     * Summary:
 964:Generated_Source\PSoC4/CapSense_CSHL.c ****     *  This API sets the Hysteresis value of a widget
 965:Generated_Source\PSoC4/CapSense_CSHL.c ****     *
 966:Generated_Source\PSoC4/CapSense_CSHL.c ****     * Parameters:
 967:Generated_Source\PSoC4/CapSense_CSHL.c ****     *  value:  Hysteresis value for widgets.
 968:Generated_Source\PSoC4/CapSense_CSHL.c ****     *  widget:  widget number
 969:Generated_Source\PSoC4/CapSense_CSHL.c ****     *
 970:Generated_Source\PSoC4/CapSense_CSHL.c ****     * Return Value:
 971:Generated_Source\PSoC4/CapSense_CSHL.c ****     *  None
 972:Generated_Source\PSoC4/CapSense_CSHL.c ****     *
 973:Generated_Source\PSoC4/CapSense_CSHL.c ****     * Global Variables:
 974:Generated_Source\PSoC4/CapSense_CSHL.c ****     *  CapSense_hysteresis[] - This array contains the hysteresis value for each widget.
 975:Generated_Source\PSoC4/CapSense_CSHL.c ****     *  CapSense_widgetNumberSld - structure with dynamic sliders' parameters.
 976:Generated_Source\PSoC4/CapSense_CSHL.c ****     *
 977:Generated_Source\PSoC4/CapSense_CSHL.c ****     * Side Effects:
 978:Generated_Source\PSoC4/CapSense_CSHL.c ****     *  None
 979:Generated_Source\PSoC4/CapSense_CSHL.c ****     *
 980:Generated_Source\PSoC4/CapSense_CSHL.c ****     *******************************************************************************/
 981:Generated_Source\PSoC4/CapSense_CSHL.c ****     void CapSense_SetFingerHysteresis(uint32 widget, uint8 value)
 982:Generated_Source\PSoC4/CapSense_CSHL.c ****     {
 1273              		.loc 1 982 0
 1274              		.cfi_startproc
 1275 0000 80B5     		push	{r7, lr}
 1276              		.cfi_def_cfa_offset 8
 1277              		.cfi_offset 7, -8
 1278              		.cfi_offset 14, -4
ARM GAS  C:\Users\poornima\AppData\Local\Temp\ccxTyVc8.s 			page 41


 1279 0002 82B0     		sub	sp, sp, #8
 1280              		.cfi_def_cfa_offset 16
 1281 0004 00AF     		add	r7, sp, #0
 1282              		.cfi_def_cfa_register 7
 1283 0006 7860     		str	r0, [r7, #4]
 1284 0008 0A1C     		mov	r2, r1
 1285 000a FB1C     		add	r3, r7, #3
 1286 000c 1A70     		strb	r2, [r3]
 983:Generated_Source\PSoC4/CapSense_CSHL.c ****         CapSense_hysteresis[widget] = value;
 1287              		.loc 1 983 0
 1288 000e 044A     		ldr	r2, .L81
 1289 0010 7B68     		ldr	r3, [r7, #4]
 1290 0012 D318     		add	r3, r2, r3
 1291 0014 FA1C     		add	r2, r7, #3
 1292 0016 1278     		ldrb	r2, [r2]
 1293 0018 1A70     		strb	r2, [r3]
 984:Generated_Source\PSoC4/CapSense_CSHL.c ****     }
 1294              		.loc 1 984 0
 1295 001a BD46     		mov	sp, r7
 1296 001c 02B0     		add	sp, sp, #8
 1297              		@ sp needed
 1298 001e 80BD     		pop	{r7, pc}
 1299              	.L82:
 1300              		.align	2
 1301              	.L81:
 1302 0020 00000000 		.word	CapSense_hysteresis
 1303              		.cfi_endproc
 1304              	.LFE53:
 1305              		.size	CapSense_SetFingerHysteresis, .-CapSense_SetFingerHysteresis
 1306              		.section	.text.CapSense_SetNegativeNoiseThreshold,"ax",%progbits
 1307              		.align	2
 1308              		.global	CapSense_SetNegativeNoiseThreshold
 1309              		.code	16
 1310              		.thumb_func
 1311              		.type	CapSense_SetNegativeNoiseThreshold, %function
 1312              	CapSense_SetNegativeNoiseThreshold:
 1313              	.LFB54:
 985:Generated_Source\PSoC4/CapSense_CSHL.c **** 
 986:Generated_Source\PSoC4/CapSense_CSHL.c **** 
 987:Generated_Source\PSoC4/CapSense_CSHL.c ****     /*******************************************************************************
 988:Generated_Source\PSoC4/CapSense_CSHL.c ****     * Function Name: CapSense_SetNegativeNoiseThreshold
 989:Generated_Source\PSoC4/CapSense_CSHL.c ****     ********************************************************************************
 990:Generated_Source\PSoC4/CapSense_CSHL.c ****     *
 991:Generated_Source\PSoC4/CapSense_CSHL.c ****     * Summary:
 992:Generated_Source\PSoC4/CapSense_CSHL.c ****     *  This API sets the Negative Noise Threshold value of a widget
 993:Generated_Source\PSoC4/CapSense_CSHL.c ****     *
 994:Generated_Source\PSoC4/CapSense_CSHL.c ****     * Parameters:
 995:Generated_Source\PSoC4/CapSense_CSHL.c ****     *  value:  Negative Noise Threshold value for widgets.
 996:Generated_Source\PSoC4/CapSense_CSHL.c ****     *  widget: widget number
 997:Generated_Source\PSoC4/CapSense_CSHL.c ****     *
 998:Generated_Source\PSoC4/CapSense_CSHL.c ****     * Return Value:
 999:Generated_Source\PSoC4/CapSense_CSHL.c ****     *  None
1000:Generated_Source\PSoC4/CapSense_CSHL.c ****     *
1001:Generated_Source\PSoC4/CapSense_CSHL.c ****     * Global Variables:
1002:Generated_Source\PSoC4/CapSense_CSHL.c ****     *  CapSense_negativeNoiseThreshold  - This parameter specifies the negative
1003:Generated_Source\PSoC4/CapSense_CSHL.c ****     *   difference between the raw count and baseline levels for Baseline resetting to
1004:Generated_Source\PSoC4/CapSense_CSHL.c ****     *   the raw count level.
ARM GAS  C:\Users\poornima\AppData\Local\Temp\ccxTyVc8.s 			page 42


1005:Generated_Source\PSoC4/CapSense_CSHL.c ****     *
1006:Generated_Source\PSoC4/CapSense_CSHL.c ****     * Side Effects:
1007:Generated_Source\PSoC4/CapSense_CSHL.c ****     *  None
1008:Generated_Source\PSoC4/CapSense_CSHL.c ****     *
1009:Generated_Source\PSoC4/CapSense_CSHL.c ****     *******************************************************************************/
1010:Generated_Source\PSoC4/CapSense_CSHL.c ****     void CapSense_SetNegativeNoiseThreshold(uint32 widget, uint8 value)
1011:Generated_Source\PSoC4/CapSense_CSHL.c ****     {
 1314              		.loc 1 1011 0
 1315              		.cfi_startproc
 1316 0000 80B5     		push	{r7, lr}
 1317              		.cfi_def_cfa_offset 8
 1318              		.cfi_offset 7, -8
 1319              		.cfi_offset 14, -4
 1320 0002 82B0     		sub	sp, sp, #8
 1321              		.cfi_def_cfa_offset 16
 1322 0004 00AF     		add	r7, sp, #0
 1323              		.cfi_def_cfa_register 7
 1324 0006 7860     		str	r0, [r7, #4]
 1325 0008 0A1C     		mov	r2, r1
 1326 000a FB1C     		add	r3, r7, #3
 1327 000c 1A70     		strb	r2, [r3]
1012:Generated_Source\PSoC4/CapSense_CSHL.c ****         CapSense_negativeNoiseThreshold[widget] = value;
 1328              		.loc 1 1012 0
 1329 000e 044A     		ldr	r2, .L84
 1330 0010 7B68     		ldr	r3, [r7, #4]
 1331 0012 D318     		add	r3, r2, r3
 1332 0014 FA1C     		add	r2, r7, #3
 1333 0016 1278     		ldrb	r2, [r2]
 1334 0018 1A70     		strb	r2, [r3]
1013:Generated_Source\PSoC4/CapSense_CSHL.c ****     }
 1335              		.loc 1 1013 0
 1336 001a BD46     		mov	sp, r7
 1337 001c 02B0     		add	sp, sp, #8
 1338              		@ sp needed
 1339 001e 80BD     		pop	{r7, pc}
 1340              	.L85:
 1341              		.align	2
 1342              	.L84:
 1343 0020 00000000 		.word	CapSense_negativeNoiseThreshold
 1344              		.cfi_endproc
 1345              	.LFE54:
 1346              		.size	CapSense_SetNegativeNoiseThreshold, .-CapSense_SetNegativeNoiseThreshold
 1347              		.section	.text.CapSense_SetDebounce,"ax",%progbits
 1348              		.align	2
 1349              		.global	CapSense_SetDebounce
 1350              		.code	16
 1351              		.thumb_func
 1352              		.type	CapSense_SetDebounce, %function
 1353              	CapSense_SetDebounce:
 1354              	.LFB55:
1014:Generated_Source\PSoC4/CapSense_CSHL.c **** 
1015:Generated_Source\PSoC4/CapSense_CSHL.c **** 
1016:Generated_Source\PSoC4/CapSense_CSHL.c ****     /*******************************************************************************
1017:Generated_Source\PSoC4/CapSense_CSHL.c ****     * Function Name: CapSense_SetDebounce
1018:Generated_Source\PSoC4/CapSense_CSHL.c ****     ********************************************************************************
1019:Generated_Source\PSoC4/CapSense_CSHL.c ****     *
1020:Generated_Source\PSoC4/CapSense_CSHL.c ****     * Summary:
ARM GAS  C:\Users\poornima\AppData\Local\Temp\ccxTyVc8.s 			page 43


1021:Generated_Source\PSoC4/CapSense_CSHL.c ****     *  This API sets the debounce value for a widget.
1022:Generated_Source\PSoC4/CapSense_CSHL.c ****     *
1023:Generated_Source\PSoC4/CapSense_CSHL.c ****     * Parameters:
1024:Generated_Source\PSoC4/CapSense_CSHL.c ****     *  value:  Debounce value for widget.
1025:Generated_Source\PSoC4/CapSense_CSHL.c ****     *  widget: widget index.
1026:Generated_Source\PSoC4/CapSense_CSHL.c ****     *
1027:Generated_Source\PSoC4/CapSense_CSHL.c ****     * Return Value:
1028:Generated_Source\PSoC4/CapSense_CSHL.c ****     *  None
1029:Generated_Source\PSoC4/CapSense_CSHL.c ****     *
1030:Generated_Source\PSoC4/CapSense_CSHL.c ****     * Global Variables:
1031:Generated_Source\PSoC4/CapSense_CSHL.c ****     *  CapSense_debounce[] - This array contains the debounce value for each widget.
1032:Generated_Source\PSoC4/CapSense_CSHL.c ****     *  CapSense_widgetNumberSld - structure with dynamic sliders' parameters.
1033:Generated_Source\PSoC4/CapSense_CSHL.c ****     *
1034:Generated_Source\PSoC4/CapSense_CSHL.c ****     * Side Effects:
1035:Generated_Source\PSoC4/CapSense_CSHL.c ****     *  None
1036:Generated_Source\PSoC4/CapSense_CSHL.c ****     *
1037:Generated_Source\PSoC4/CapSense_CSHL.c ****     *******************************************************************************/
1038:Generated_Source\PSoC4/CapSense_CSHL.c ****     void CapSense_SetDebounce(uint32 widget, uint8 value)
1039:Generated_Source\PSoC4/CapSense_CSHL.c ****     {
 1355              		.loc 1 1039 0
 1356              		.cfi_startproc
 1357 0000 80B5     		push	{r7, lr}
 1358              		.cfi_def_cfa_offset 8
 1359              		.cfi_offset 7, -8
 1360              		.cfi_offset 14, -4
 1361 0002 82B0     		sub	sp, sp, #8
 1362              		.cfi_def_cfa_offset 16
 1363 0004 00AF     		add	r7, sp, #0
 1364              		.cfi_def_cfa_register 7
 1365 0006 7860     		str	r0, [r7, #4]
 1366 0008 0A1C     		mov	r2, r1
 1367 000a FB1C     		add	r3, r7, #3
 1368 000c 1A70     		strb	r2, [r3]
1040:Generated_Source\PSoC4/CapSense_CSHL.c ****         CapSense_debounce[widget] = value;
 1369              		.loc 1 1040 0
 1370 000e 044A     		ldr	r2, .L87
 1371 0010 7B68     		ldr	r3, [r7, #4]
 1372 0012 D318     		add	r3, r2, r3
 1373 0014 FA1C     		add	r2, r7, #3
 1374 0016 1278     		ldrb	r2, [r2]
 1375 0018 1A70     		strb	r2, [r3]
1041:Generated_Source\PSoC4/CapSense_CSHL.c ****     }
 1376              		.loc 1 1041 0
 1377 001a BD46     		mov	sp, r7
 1378 001c 02B0     		add	sp, sp, #8
 1379              		@ sp needed
 1380 001e 80BD     		pop	{r7, pc}
 1381              	.L88:
 1382              		.align	2
 1383              	.L87:
 1384 0020 00000000 		.word	CapSense_debounce
 1385              		.cfi_endproc
 1386              	.LFE55:
 1387              		.size	CapSense_SetDebounce, .-CapSense_SetDebounce
 1388              		.section	.text.CapSense_SetLowBaselineReset,"ax",%progbits
 1389              		.align	2
 1390              		.global	CapSense_SetLowBaselineReset
ARM GAS  C:\Users\poornima\AppData\Local\Temp\ccxTyVc8.s 			page 44


 1391              		.code	16
 1392              		.thumb_func
 1393              		.type	CapSense_SetLowBaselineReset, %function
 1394              	CapSense_SetLowBaselineReset:
 1395              	.LFB56:
1042:Generated_Source\PSoC4/CapSense_CSHL.c **** 
1043:Generated_Source\PSoC4/CapSense_CSHL.c **** 
1044:Generated_Source\PSoC4/CapSense_CSHL.c ****     /*******************************************************************************
1045:Generated_Source\PSoC4/CapSense_CSHL.c ****     * Function Name: CapSense_SetLowBaselineReset
1046:Generated_Source\PSoC4/CapSense_CSHL.c ****     ********************************************************************************
1047:Generated_Source\PSoC4/CapSense_CSHL.c ****     *
1048:Generated_Source\PSoC4/CapSense_CSHL.c ****     * Summary:
1049:Generated_Source\PSoC4/CapSense_CSHL.c ****     *  This API sets the low baseline reset threshold value for the sensor.
1050:Generated_Source\PSoC4/CapSense_CSHL.c ****     *
1051:Generated_Source\PSoC4/CapSense_CSHL.c ****     * Parameters:
1052:Generated_Source\PSoC4/CapSense_CSHL.c ****     *  value: low baseline reset threshold value.
1053:Generated_Source\PSoC4/CapSense_CSHL.c ****     *  sensor: Sensor index.
1054:Generated_Source\PSoC4/CapSense_CSHL.c ****     *
1055:Generated_Source\PSoC4/CapSense_CSHL.c ****     * Return Value:
1056:Generated_Source\PSoC4/CapSense_CSHL.c ****     *  None
1057:Generated_Source\PSoC4/CapSense_CSHL.c ****     *
1058:Generated_Source\PSoC4/CapSense_CSHL.c ****     * Global Variables:
1059:Generated_Source\PSoC4/CapSense_CSHL.c ****     *  CapSense_lowBaselineReset[] - This array contains the Baseline update
1060:Generated_Source\PSoC4/CapSense_CSHL.c ****     *  threshold value for each sensor.
1061:Generated_Source\PSoC4/CapSense_CSHL.c ****     *
1062:Generated_Source\PSoC4/CapSense_CSHL.c ****     * Side Effects:
1063:Generated_Source\PSoC4/CapSense_CSHL.c ****     *  None
1064:Generated_Source\PSoC4/CapSense_CSHL.c ****     *
1065:Generated_Source\PSoC4/CapSense_CSHL.c ****     *******************************************************************************/
1066:Generated_Source\PSoC4/CapSense_CSHL.c ****     void CapSense_SetLowBaselineReset(uint32 sensor, uint8 value)
1067:Generated_Source\PSoC4/CapSense_CSHL.c ****     {
 1396              		.loc 1 1067 0
 1397              		.cfi_startproc
 1398 0000 80B5     		push	{r7, lr}
 1399              		.cfi_def_cfa_offset 8
 1400              		.cfi_offset 7, -8
 1401              		.cfi_offset 14, -4
 1402 0002 82B0     		sub	sp, sp, #8
 1403              		.cfi_def_cfa_offset 16
 1404 0004 00AF     		add	r7, sp, #0
 1405              		.cfi_def_cfa_register 7
 1406 0006 7860     		str	r0, [r7, #4]
 1407 0008 0A1C     		mov	r2, r1
 1408 000a FB1C     		add	r3, r7, #3
 1409 000c 1A70     		strb	r2, [r3]
1068:Generated_Source\PSoC4/CapSense_CSHL.c ****         CapSense_lowBaselineReset[sensor] = value;
 1410              		.loc 1 1068 0
 1411 000e 044A     		ldr	r2, .L90
 1412 0010 7B68     		ldr	r3, [r7, #4]
 1413 0012 D318     		add	r3, r2, r3
 1414 0014 FA1C     		add	r2, r7, #3
 1415 0016 1278     		ldrb	r2, [r2]
 1416 0018 1A70     		strb	r2, [r3]
1069:Generated_Source\PSoC4/CapSense_CSHL.c ****     }
 1417              		.loc 1 1069 0
 1418 001a BD46     		mov	sp, r7
 1419 001c 02B0     		add	sp, sp, #8
ARM GAS  C:\Users\poornima\AppData\Local\Temp\ccxTyVc8.s 			page 45


 1420              		@ sp needed
 1421 001e 80BD     		pop	{r7, pc}
 1422              	.L91:
 1423              		.align	2
 1424              	.L90:
 1425 0020 00000000 		.word	CapSense_lowBaselineReset
 1426              		.cfi_endproc
 1427              	.LFE56:
 1428              		.size	CapSense_SetLowBaselineReset, .-CapSense_SetLowBaselineReset
 1429              		.section	.text.CapSense_CheckIsSensorActive,"ax",%progbits
 1430              		.align	2
 1431              		.global	CapSense_CheckIsSensorActive
 1432              		.code	16
 1433              		.thumb_func
 1434              		.type	CapSense_CheckIsSensorActive, %function
 1435              	CapSense_CheckIsSensorActive:
 1436              	.LFB57:
1070:Generated_Source\PSoC4/CapSense_CSHL.c **** #endif /* (CapSense_TUNING_METHOD != CapSense__TUNING_NONE) */
1071:Generated_Source\PSoC4/CapSense_CSHL.c **** 
1072:Generated_Source\PSoC4/CapSense_CSHL.c **** 
1073:Generated_Source\PSoC4/CapSense_CSHL.c **** /*******************************************************************************
1074:Generated_Source\PSoC4/CapSense_CSHL.c **** * Function Name: CapSense_CheckIsSensorActive
1075:Generated_Source\PSoC4/CapSense_CSHL.c **** ********************************************************************************
1076:Generated_Source\PSoC4/CapSense_CSHL.c **** *
1077:Generated_Source\PSoC4/CapSense_CSHL.c **** * Summary:
1078:Generated_Source\PSoC4/CapSense_CSHL.c **** *  Compares the CapSense_sensorSignal[sensor] array element to the finger
1079:Generated_Source\PSoC4/CapSense_CSHL.c **** *  threshold of the widget it belongs to. The hysteresis and debounce are taken into
1080:Generated_Source\PSoC4/CapSense_CSHL.c **** *  account. The hysteresis is added or subtracted from the finger threshold
1081:Generated_Source\PSoC4/CapSense_CSHL.c **** *  based on whether the sensor is currently active.
1082:Generated_Source\PSoC4/CapSense_CSHL.c **** *  If the sensor is active, the threshold is lowered by the hysteresis amount.
1083:Generated_Source\PSoC4/CapSense_CSHL.c **** *  If the sensor is inactive, the threshold is raised by the hysteresis amount.
1084:Generated_Source\PSoC4/CapSense_CSHL.c **** *  The debounce counter is added to the sensor active transition.
1085:Generated_Source\PSoC4/CapSense_CSHL.c **** *  This function updates the CapSense_sensorOnMask[] array element.
1086:Generated_Source\PSoC4/CapSense_CSHL.c **** *
1087:Generated_Source\PSoC4/CapSense_CSHL.c **** * Parameters:
1088:Generated_Source\PSoC4/CapSense_CSHL.c **** *  sensor:  Sensor number.
1089:Generated_Source\PSoC4/CapSense_CSHL.c **** *
1090:Generated_Source\PSoC4/CapSense_CSHL.c **** * Return:
1091:Generated_Source\PSoC4/CapSense_CSHL.c **** *  Returns sensor state 1 if active, 0 if not active.
1092:Generated_Source\PSoC4/CapSense_CSHL.c **** *
1093:Generated_Source\PSoC4/CapSense_CSHL.c **** * Global Variables:
1094:Generated_Source\PSoC4/CapSense_CSHL.c **** *  CapSense_sensorSignal[] - used to store the difference between
1095:Generated_Source\PSoC4/CapSense_CSHL.c **** *  the current value of raw data and a previous value of the baseline.
1096:Generated_Source\PSoC4/CapSense_CSHL.c **** *  CapSense_debounceCounter[]   - used to store the current debounce
1097:Generated_Source\PSoC4/CapSense_CSHL.c **** *  counter of the sensor. the widget which have this parameter are buttons, matrix
1098:Generated_Source\PSoC4/CapSense_CSHL.c **** *  buttons, proximity, and guard. All other widgets don't have the  debounce parameter
1099:Generated_Source\PSoC4/CapSense_CSHL.c **** *  and use the last element of this array with value 0 (it means no debounce).
1100:Generated_Source\PSoC4/CapSense_CSHL.c **** *  CapSense_sensorOnMask[] - used to store the sensors on/off state.
1101:Generated_Source\PSoC4/CapSense_CSHL.c **** *  CapSense_sensorOnMask[0] contains the masked bits for sensors
1102:Generated_Source\PSoC4/CapSense_CSHL.c **** *   0 through 7 (sensor 0 is bit 0, sensor 1 is bit 1).
1103:Generated_Source\PSoC4/CapSense_CSHL.c **** *  CapSense_sensorEnableMask[1] contains the masked bits for
1104:Generated_Source\PSoC4/CapSense_CSHL.c **** *  sensors 8 through 15 (if needed), and so on.
1105:Generated_Source\PSoC4/CapSense_CSHL.c **** *  0 - sensor is inactive.
1106:Generated_Source\PSoC4/CapSense_CSHL.c **** *  1 - sensor is active.
1107:Generated_Source\PSoC4/CapSense_CSHL.c **** *
1108:Generated_Source\PSoC4/CapSense_CSHL.c **** * Side Effects:
1109:Generated_Source\PSoC4/CapSense_CSHL.c **** *  None
ARM GAS  C:\Users\poornima\AppData\Local\Temp\ccxTyVc8.s 			page 46


1110:Generated_Source\PSoC4/CapSense_CSHL.c **** *
1111:Generated_Source\PSoC4/CapSense_CSHL.c **** *******************************************************************************/
1112:Generated_Source\PSoC4/CapSense_CSHL.c **** uint32 CapSense_CheckIsSensorActive(uint32 sensor)
1113:Generated_Source\PSoC4/CapSense_CSHL.c **** {
 1437              		.loc 1 1113 0
 1438              		.cfi_startproc
 1439 0000 80B5     		push	{r7, lr}
 1440              		.cfi_def_cfa_offset 8
 1441              		.cfi_offset 7, -8
 1442              		.cfi_offset 14, -4
 1443 0002 84B0     		sub	sp, sp, #16
 1444              		.cfi_def_cfa_offset 24
 1445 0004 00AF     		add	r7, sp, #0
 1446              		.cfi_def_cfa_register 7
 1447 0006 7860     		str	r0, [r7, #4]
1114:Generated_Source\PSoC4/CapSense_CSHL.c ****     uint8 widget;
1115:Generated_Source\PSoC4/CapSense_CSHL.c ****     uint8 debounce;
1116:Generated_Source\PSoC4/CapSense_CSHL.c ****     uint8 debounceIndex;
1117:Generated_Source\PSoC4/CapSense_CSHL.c **** 
1118:Generated_Source\PSoC4/CapSense_CSHL.c ****     uint8 fingerThreshold;
1119:Generated_Source\PSoC4/CapSense_CSHL.c ****     uint8 hysteresis;
1120:Generated_Source\PSoC4/CapSense_CSHL.c ****     
1121:Generated_Source\PSoC4/CapSense_CSHL.c **** 
1122:Generated_Source\PSoC4/CapSense_CSHL.c ****     /* Prepare to find debounce counter index */
1123:Generated_Source\PSoC4/CapSense_CSHL.c ****     widget = CapSense_widgetNumber[sensor];
 1448              		.loc 1 1123 0
 1449 0008 0F23     		mov	r3, #15
 1450 000a FB18     		add	r3, r7, r3
 1451 000c 4249     		ldr	r1, .L101
 1452 000e 7A68     		ldr	r2, [r7, #4]
 1453 0010 8A18     		add	r2, r1, r2
 1454 0012 1278     		ldrb	r2, [r2]
 1455 0014 1A70     		strb	r2, [r3]
1124:Generated_Source\PSoC4/CapSense_CSHL.c **** 
1125:Generated_Source\PSoC4/CapSense_CSHL.c ****     fingerThreshold = CapSense_fingerThreshold[widget];
 1456              		.loc 1 1125 0
 1457 0016 0F23     		mov	r3, #15
 1458 0018 FB18     		add	r3, r7, r3
 1459 001a 1A78     		ldrb	r2, [r3]
 1460 001c 0E23     		mov	r3, #14
 1461 001e FB18     		add	r3, r7, r3
 1462 0020 3E49     		ldr	r1, .L101+4
 1463 0022 8A5C     		ldrb	r2, [r1, r2]
 1464 0024 1A70     		strb	r2, [r3]
1126:Generated_Source\PSoC4/CapSense_CSHL.c ****     hysteresis = CapSense_hysteresis[widget];
 1465              		.loc 1 1126 0
 1466 0026 0F23     		mov	r3, #15
 1467 0028 FB18     		add	r3, r7, r3
 1468 002a 1A78     		ldrb	r2, [r3]
 1469 002c 0D23     		mov	r3, #13
 1470 002e FB18     		add	r3, r7, r3
 1471 0030 3B49     		ldr	r1, .L101+8
 1472 0032 8A5C     		ldrb	r2, [r1, r2]
 1473 0034 1A70     		strb	r2, [r3]
1127:Generated_Source\PSoC4/CapSense_CSHL.c ****     debounce = CapSense_debounce[widget];
 1474              		.loc 1 1127 0
 1475 0036 0F23     		mov	r3, #15
ARM GAS  C:\Users\poornima\AppData\Local\Temp\ccxTyVc8.s 			page 47


 1476 0038 FB18     		add	r3, r7, r3
 1477 003a 1A78     		ldrb	r2, [r3]
 1478 003c 0C23     		mov	r3, #12
 1479 003e FB18     		add	r3, r7, r3
 1480 0040 3849     		ldr	r1, .L101+12
 1481 0042 8A5C     		ldrb	r2, [r1, r2]
 1482 0044 1A70     		strb	r2, [r3]
1128:Generated_Source\PSoC4/CapSense_CSHL.c **** 
1129:Generated_Source\PSoC4/CapSense_CSHL.c ****         debounceIndex = widget;
 1483              		.loc 1 1129 0
 1484 0046 0B23     		mov	r3, #11
 1485 0048 FB18     		add	r3, r7, r3
 1486 004a 0F22     		mov	r2, #15
 1487 004c BA18     		add	r2, r7, r2
 1488 004e 1278     		ldrb	r2, [r2]
 1489 0050 1A70     		strb	r2, [r3]
1130:Generated_Source\PSoC4/CapSense_CSHL.c **** 
1131:Generated_Source\PSoC4/CapSense_CSHL.c **** 
1132:Generated_Source\PSoC4/CapSense_CSHL.c ****     /* Was on */
1133:Generated_Source\PSoC4/CapSense_CSHL.c ****     if (0u != CapSense_GetBitValue(CapSense_sensorOnMask, sensor))
 1490              		.loc 1 1133 0
 1491 0052 354A     		ldr	r2, .L101+16
 1492 0054 7B68     		ldr	r3, [r7, #4]
 1493 0056 101C     		mov	r0, r2
 1494 0058 191C     		mov	r1, r3
 1495 005a FFF7FEFF 		bl	CapSense_GetBitValue
 1496 005e 031E     		sub	r3, r0, #0
 1497 0060 1DD0     		beq	.L93
1134:Generated_Source\PSoC4/CapSense_CSHL.c ****     {
1135:Generated_Source\PSoC4/CapSense_CSHL.c ****         /* Hysteresis minus */
1136:Generated_Source\PSoC4/CapSense_CSHL.c ****         if (CapSense_sensorSignal[sensor] < (fingerThreshold - hysteresis))
 1498              		.loc 1 1136 0
 1499 0062 324A     		ldr	r2, .L101+20
 1500 0064 7B68     		ldr	r3, [r7, #4]
 1501 0066 D318     		add	r3, r2, r3
 1502 0068 1B78     		ldrb	r3, [r3]
 1503 006a 191C     		mov	r1, r3
 1504 006c 0E23     		mov	r3, #14
 1505 006e FB18     		add	r3, r7, r3
 1506 0070 1A78     		ldrb	r2, [r3]
 1507 0072 0D23     		mov	r3, #13
 1508 0074 FB18     		add	r3, r7, r3
 1509 0076 1B78     		ldrb	r3, [r3]
 1510 0078 D31A     		sub	r3, r2, r3
 1511 007a 9942     		cmp	r1, r3
 1512 007c 3DDA     		bge	.L95
1137:Generated_Source\PSoC4/CapSense_CSHL.c ****         {
1138:Generated_Source\PSoC4/CapSense_CSHL.c ****             CapSense_SetBitValue(CapSense_sensorOnMask, sensor, 0u);
 1513              		.loc 1 1138 0
 1514 007e 2A4A     		ldr	r2, .L101+16
 1515 0080 7B68     		ldr	r3, [r7, #4]
 1516 0082 101C     		mov	r0, r2
 1517 0084 191C     		mov	r1, r3
 1518 0086 0022     		mov	r2, #0
 1519 0088 FFF7FEFF 		bl	CapSense_SetBitValue
1139:Generated_Source\PSoC4/CapSense_CSHL.c ****             /* Sensor inactive - reset Debounce counter */
1140:Generated_Source\PSoC4/CapSense_CSHL.c ****             CapSense_debounceCounter[debounceIndex] = debounce;
ARM GAS  C:\Users\poornima\AppData\Local\Temp\ccxTyVc8.s 			page 48


 1520              		.loc 1 1140 0
 1521 008c 0B23     		mov	r3, #11
 1522 008e FB18     		add	r3, r7, r3
 1523 0090 1B78     		ldrb	r3, [r3]
 1524 0092 274A     		ldr	r2, .L101+24
 1525 0094 0C21     		mov	r1, #12
 1526 0096 7918     		add	r1, r7, r1
 1527 0098 0978     		ldrb	r1, [r1]
 1528 009a D154     		strb	r1, [r2, r3]
 1529 009c 2DE0     		b	.L95
 1530              	.L93:
1141:Generated_Source\PSoC4/CapSense_CSHL.c ****         }
1142:Generated_Source\PSoC4/CapSense_CSHL.c ****     }
1143:Generated_Source\PSoC4/CapSense_CSHL.c ****     else    /* Was off */
1144:Generated_Source\PSoC4/CapSense_CSHL.c ****     {
1145:Generated_Source\PSoC4/CapSense_CSHL.c ****         /* Hysteresis plus */
1146:Generated_Source\PSoC4/CapSense_CSHL.c ****         if (CapSense_sensorSignal[sensor] >= (fingerThreshold + hysteresis))
 1531              		.loc 1 1146 0
 1532 009e 234A     		ldr	r2, .L101+20
 1533 00a0 7B68     		ldr	r3, [r7, #4]
 1534 00a2 D318     		add	r3, r2, r3
 1535 00a4 1B78     		ldrb	r3, [r3]
 1536 00a6 191C     		mov	r1, r3
 1537 00a8 0E23     		mov	r3, #14
 1538 00aa FB18     		add	r3, r7, r3
 1539 00ac 1A78     		ldrb	r2, [r3]
 1540 00ae 0D23     		mov	r3, #13
 1541 00b0 FB18     		add	r3, r7, r3
 1542 00b2 1B78     		ldrb	r3, [r3]
 1543 00b4 D318     		add	r3, r2, r3
 1544 00b6 9942     		cmp	r1, r3
 1545 00b8 17DB     		blt	.L96
1147:Generated_Source\PSoC4/CapSense_CSHL.c ****         {
1148:Generated_Source\PSoC4/CapSense_CSHL.c ****             CapSense_debounceCounter[debounceIndex]--;
 1546              		.loc 1 1148 0
 1547 00ba 0B23     		mov	r3, #11
 1548 00bc FB18     		add	r3, r7, r3
 1549 00be 1B78     		ldrb	r3, [r3]
 1550 00c0 1B4A     		ldr	r2, .L101+24
 1551 00c2 D25C     		ldrb	r2, [r2, r3]
 1552 00c4 013A     		sub	r2, r2, #1
 1553 00c6 D1B2     		uxtb	r1, r2
 1554 00c8 194A     		ldr	r2, .L101+24
 1555 00ca D154     		strb	r1, [r2, r3]
1149:Generated_Source\PSoC4/CapSense_CSHL.c ****             /* Sensor active, decrement debounce counter */
1150:Generated_Source\PSoC4/CapSense_CSHL.c ****             if(CapSense_debounceCounter[debounceIndex] == 0u)
 1556              		.loc 1 1150 0
 1557 00cc 0B23     		mov	r3, #11
 1558 00ce FB18     		add	r3, r7, r3
 1559 00d0 1B78     		ldrb	r3, [r3]
 1560 00d2 174A     		ldr	r2, .L101+24
 1561 00d4 D35C     		ldrb	r3, [r2, r3]
 1562 00d6 002B     		cmp	r3, #0
 1563 00d8 0FD1     		bne	.L95
1151:Generated_Source\PSoC4/CapSense_CSHL.c ****             {
1152:Generated_Source\PSoC4/CapSense_CSHL.c ****                 CapSense_SetBitValue(CapSense_sensorOnMask, sensor, 1u);
 1564              		.loc 1 1152 0
ARM GAS  C:\Users\poornima\AppData\Local\Temp\ccxTyVc8.s 			page 49


 1565 00da 134A     		ldr	r2, .L101+16
 1566 00dc 7B68     		ldr	r3, [r7, #4]
 1567 00de 101C     		mov	r0, r2
 1568 00e0 191C     		mov	r1, r3
 1569 00e2 0122     		mov	r2, #1
 1570 00e4 FFF7FEFF 		bl	CapSense_SetBitValue
 1571 00e8 07E0     		b	.L95
 1572              	.L96:
1153:Generated_Source\PSoC4/CapSense_CSHL.c ****             }
1154:Generated_Source\PSoC4/CapSense_CSHL.c ****         }
1155:Generated_Source\PSoC4/CapSense_CSHL.c ****         else
1156:Generated_Source\PSoC4/CapSense_CSHL.c ****         {
1157:Generated_Source\PSoC4/CapSense_CSHL.c ****             /* Sensor inactive - reset Debounce counter */
1158:Generated_Source\PSoC4/CapSense_CSHL.c ****             CapSense_debounceCounter[debounceIndex] = debounce;
 1573              		.loc 1 1158 0
 1574 00ea 0B23     		mov	r3, #11
 1575 00ec FB18     		add	r3, r7, r3
 1576 00ee 1B78     		ldrb	r3, [r3]
 1577 00f0 0F4A     		ldr	r2, .L101+24
 1578 00f2 0C21     		mov	r1, #12
 1579 00f4 7918     		add	r1, r7, r1
 1580 00f6 0978     		ldrb	r1, [r1]
 1581 00f8 D154     		strb	r1, [r2, r3]
 1582              	.L95:
1159:Generated_Source\PSoC4/CapSense_CSHL.c ****         }
1160:Generated_Source\PSoC4/CapSense_CSHL.c ****     }
1161:Generated_Source\PSoC4/CapSense_CSHL.c **** 
1162:Generated_Source\PSoC4/CapSense_CSHL.c ****     return ((uint32)((0u != CapSense_GetBitValue(CapSense_sensorOnMask, sensor)) ? 1u : 0u));
 1583              		.loc 1 1162 0
 1584 00fa 0B4A     		ldr	r2, .L101+16
 1585 00fc 7B68     		ldr	r3, [r7, #4]
 1586 00fe 101C     		mov	r0, r2
 1587 0100 191C     		mov	r1, r3
 1588 0102 FFF7FEFF 		bl	CapSense_GetBitValue
 1589 0106 031E     		sub	r3, r0, #0
 1590 0108 01D0     		beq	.L98
 1591              		.loc 1 1162 0 is_stmt 0 discriminator 1
 1592 010a 0123     		mov	r3, #1
 1593 010c 00E0     		b	.L99
 1594              	.L98:
 1595              		.loc 1 1162 0 discriminator 2
 1596 010e 0023     		mov	r3, #0
 1597              	.L99:
1163:Generated_Source\PSoC4/CapSense_CSHL.c **** }
 1598              		.loc 1 1163 0 is_stmt 1 discriminator 4
 1599 0110 181C     		mov	r0, r3
 1600 0112 BD46     		mov	sp, r7
 1601 0114 04B0     		add	sp, sp, #16
 1602              		@ sp needed
 1603 0116 80BD     		pop	{r7, pc}
 1604              	.L102:
 1605              		.align	2
 1606              	.L101:
 1607 0118 00000000 		.word	CapSense_widgetNumber
 1608 011c 00000000 		.word	CapSense_fingerThreshold
 1609 0120 00000000 		.word	CapSense_hysteresis
 1610 0124 00000000 		.word	CapSense_debounce
ARM GAS  C:\Users\poornima\AppData\Local\Temp\ccxTyVc8.s 			page 50


 1611 0128 00000000 		.word	CapSense_sensorOnMask
 1612 012c 00000000 		.word	CapSense_sensorSignal
 1613 0130 24000000 		.word	CapSense_debounceCounter
 1614              		.cfi_endproc
 1615              	.LFE57:
 1616              		.size	CapSense_CheckIsSensorActive, .-CapSense_CheckIsSensorActive
 1617              		.section	.text.CapSense_CheckIsWidgetActive,"ax",%progbits
 1618              		.align	2
 1619              		.global	CapSense_CheckIsWidgetActive
 1620              		.code	16
 1621              		.thumb_func
 1622              		.type	CapSense_CheckIsWidgetActive, %function
 1623              	CapSense_CheckIsWidgetActive:
 1624              	.LFB58:
1164:Generated_Source\PSoC4/CapSense_CSHL.c **** 
1165:Generated_Source\PSoC4/CapSense_CSHL.c **** 
1166:Generated_Source\PSoC4/CapSense_CSHL.c **** /*******************************************************************************
1167:Generated_Source\PSoC4/CapSense_CSHL.c **** * Function Name: CapSense_CheckIsWidgetActive
1168:Generated_Source\PSoC4/CapSense_CSHL.c **** ********************************************************************************
1169:Generated_Source\PSoC4/CapSense_CSHL.c **** *
1170:Generated_Source\PSoC4/CapSense_CSHL.c **** * Summary:
1171:Generated_Source\PSoC4/CapSense_CSHL.c **** *  Compares the CapSense_sensorSignal[] array element to the finger threshold of
1172:Generated_Source\PSoC4/CapSense_CSHL.c **** * the widget it belongs to. The hysteresis and debounce are taken into account.
1173:Generated_Source\PSoC4/CapSense_CSHL.c **** * The hysteresis is added or subtracted from the finger threshold based on whether
1174:Generated_Source\PSoC4/CapSense_CSHL.c **** *  the sensor is currently active. If the sensor is active, the threshold is
1175:Generated_Source\PSoC4/CapSense_CSHL.c **** *  lowered by the hysteresis amount. If the sensor is inactive, the threshold
1176:Generated_Source\PSoC4/CapSense_CSHL.c **** *  is raised by the hysteresis amount.
1177:Generated_Source\PSoC4/CapSense_CSHL.c **** * The debounce counter added to the sensor active transition.
1178:Generated_Source\PSoC4/CapSense_CSHL.c **** * This function updates CapSense_sensorOnMask[] array element
1179:Generated_Source\PSoC4/CapSense_CSHL.c **** *
1180:Generated_Source\PSoC4/CapSense_CSHL.c **** * Parameters:
1181:Generated_Source\PSoC4/CapSense_CSHL.c **** *  widget:  widget number.
1182:Generated_Source\PSoC4/CapSense_CSHL.c **** *
1183:Generated_Source\PSoC4/CapSense_CSHL.c **** * Return:
1184:Generated_Source\PSoC4/CapSense_CSHL.c **** *  Returns widget sensor state 1 if one or more sensors within widget is/are
1185:Generated_Source\PSoC4/CapSense_CSHL.c **** *  active, 0 if all sensors within widget are inactive.
1186:Generated_Source\PSoC4/CapSense_CSHL.c **** *
1187:Generated_Source\PSoC4/CapSense_CSHL.c **** * Global Variables:
1188:Generated_Source\PSoC4/CapSense_CSHL.c **** *  rawDataIndex[]: Contains the  1st sensor position in the widget
1189:Generated_Source\PSoC4/CapSense_CSHL.c **** *
1190:Generated_Source\PSoC4/CapSense_CSHL.c **** * Side Effects:
1191:Generated_Source\PSoC4/CapSense_CSHL.c **** *  None
1192:Generated_Source\PSoC4/CapSense_CSHL.c **** *
1193:Generated_Source\PSoC4/CapSense_CSHL.c **** *******************************************************************************/
1194:Generated_Source\PSoC4/CapSense_CSHL.c **** uint32 CapSense_CheckIsWidgetActive(uint32 widget)
1195:Generated_Source\PSoC4/CapSense_CSHL.c **** {
 1625              		.loc 1 1195 0
 1626              		.cfi_startproc
 1627 0000 80B5     		push	{r7, lr}
 1628              		.cfi_def_cfa_offset 8
 1629              		.cfi_offset 7, -8
 1630              		.cfi_offset 14, -4
 1631 0002 86B0     		sub	sp, sp, #24
 1632              		.cfi_def_cfa_offset 32
 1633 0004 00AF     		add	r7, sp, #0
 1634              		.cfi_def_cfa_register 7
 1635 0006 7860     		str	r0, [r7, #4]
ARM GAS  C:\Users\poornima\AppData\Local\Temp\ccxTyVc8.s 			page 51


1196:Generated_Source\PSoC4/CapSense_CSHL.c ****     uint32 rawIndex = (uint32)CapSense_rawDataIndex[widget];
 1636              		.loc 1 1196 0
 1637 0008 114A     		ldr	r2, .L107
 1638 000a 7B68     		ldr	r3, [r7, #4]
 1639 000c D318     		add	r3, r2, r3
 1640 000e 1B78     		ldrb	r3, [r3]
 1641 0010 7B61     		str	r3, [r7, #20]
1197:Generated_Source\PSoC4/CapSense_CSHL.c ****     uint32 numOfSensors = (uint32)CapSense_numberOfSensors[widget] + rawIndex;
 1642              		.loc 1 1197 0
 1643 0012 104A     		ldr	r2, .L107+4
 1644 0014 7B68     		ldr	r3, [r7, #4]
 1645 0016 D318     		add	r3, r2, r3
 1646 0018 1B78     		ldrb	r3, [r3]
 1647 001a 1A1C     		mov	r2, r3
 1648 001c 7B69     		ldr	r3, [r7, #20]
 1649 001e D318     		add	r3, r2, r3
 1650 0020 FB60     		str	r3, [r7, #12]
1198:Generated_Source\PSoC4/CapSense_CSHL.c ****     uint32 state = 0u;
 1651              		.loc 1 1198 0
 1652 0022 0023     		mov	r3, #0
 1653 0024 3B61     		str	r3, [r7, #16]
 1654              	.L105:
1199:Generated_Source\PSoC4/CapSense_CSHL.c **** 
1200:Generated_Source\PSoC4/CapSense_CSHL.c ****     /* Check all sensors of widget */
1201:Generated_Source\PSoC4/CapSense_CSHL.c ****     do
1202:Generated_Source\PSoC4/CapSense_CSHL.c ****     {
1203:Generated_Source\PSoC4/CapSense_CSHL.c ****         if(CapSense_CheckIsSensorActive((uint32)rawIndex) != 0u)
 1655              		.loc 1 1203 0
 1656 0026 7B69     		ldr	r3, [r7, #20]
 1657 0028 181C     		mov	r0, r3
 1658 002a FFF7FEFF 		bl	CapSense_CheckIsSensorActive
 1659 002e 031E     		sub	r3, r0, #0
 1660 0030 01D0     		beq	.L104
1204:Generated_Source\PSoC4/CapSense_CSHL.c ****         {
1205:Generated_Source\PSoC4/CapSense_CSHL.c ****             state = CapSense_SENSOR_IS_ACTIVE;
 1661              		.loc 1 1205 0
 1662 0032 0123     		mov	r3, #1
 1663 0034 3B61     		str	r3, [r7, #16]
 1664              	.L104:
1206:Generated_Source\PSoC4/CapSense_CSHL.c ****         }
1207:Generated_Source\PSoC4/CapSense_CSHL.c ****         rawIndex++;
 1665              		.loc 1 1207 0
 1666 0036 7B69     		ldr	r3, [r7, #20]
 1667 0038 0133     		add	r3, r3, #1
 1668 003a 7B61     		str	r3, [r7, #20]
1208:Generated_Source\PSoC4/CapSense_CSHL.c ****     }
1209:Generated_Source\PSoC4/CapSense_CSHL.c ****     while(rawIndex < numOfSensors);
 1669              		.loc 1 1209 0
 1670 003c 7A69     		ldr	r2, [r7, #20]
 1671 003e FB68     		ldr	r3, [r7, #12]
 1672 0040 9A42     		cmp	r2, r3
 1673 0042 F0D3     		bcc	.L105
1210:Generated_Source\PSoC4/CapSense_CSHL.c **** 
1211:Generated_Source\PSoC4/CapSense_CSHL.c **** 
1212:Generated_Source\PSoC4/CapSense_CSHL.c **** 
1213:Generated_Source\PSoC4/CapSense_CSHL.c ****     return state;
 1674              		.loc 1 1213 0
ARM GAS  C:\Users\poornima\AppData\Local\Temp\ccxTyVc8.s 			page 52


 1675 0044 3B69     		ldr	r3, [r7, #16]
1214:Generated_Source\PSoC4/CapSense_CSHL.c **** }
 1676              		.loc 1 1214 0
 1677 0046 181C     		mov	r0, r3
 1678 0048 BD46     		mov	sp, r7
 1679 004a 06B0     		add	sp, sp, #24
 1680              		@ sp needed
 1681 004c 80BD     		pop	{r7, pc}
 1682              	.L108:
 1683 004e C046     		.align	2
 1684              	.L107:
 1685 0050 00000000 		.word	CapSense_rawDataIndex
 1686 0054 00000000 		.word	CapSense_numberOfSensors
 1687              		.cfi_endproc
 1688              	.LFE58:
 1689              		.size	CapSense_CheckIsWidgetActive, .-CapSense_CheckIsWidgetActive
 1690              		.section	.text.CapSense_CheckIsAnyWidgetActive,"ax",%progbits
 1691              		.align	2
 1692              		.global	CapSense_CheckIsAnyWidgetActive
 1693              		.code	16
 1694              		.thumb_func
 1695              		.type	CapSense_CheckIsAnyWidgetActive, %function
 1696              	CapSense_CheckIsAnyWidgetActive:
 1697              	.LFB59:
1215:Generated_Source\PSoC4/CapSense_CSHL.c **** 
1216:Generated_Source\PSoC4/CapSense_CSHL.c **** 
1217:Generated_Source\PSoC4/CapSense_CSHL.c **** /*******************************************************************************
1218:Generated_Source\PSoC4/CapSense_CSHL.c **** * Function Name: CapSense_CheckIsAnyWidgetActive
1219:Generated_Source\PSoC4/CapSense_CSHL.c **** ********************************************************************************
1220:Generated_Source\PSoC4/CapSense_CSHL.c **** *
1221:Generated_Source\PSoC4/CapSense_CSHL.c **** * Summary:
1222:Generated_Source\PSoC4/CapSense_CSHL.c **** *  Compares all the sensors of the CapSense_Signal[] array to their finger
1223:Generated_Source\PSoC4/CapSense_CSHL.c **** *  threshold. Calls CapSense_CheckIsWidgetActive() for each widget so
1224:Generated_Source\PSoC4/CapSense_CSHL.c **** *  the CapSense_sensorOnMask[] array is up to date after calling this
1225:Generated_Source\PSoC4/CapSense_CSHL.c **** *  function.
1226:Generated_Source\PSoC4/CapSense_CSHL.c **** *
1227:Generated_Source\PSoC4/CapSense_CSHL.c **** * Parameters:
1228:Generated_Source\PSoC4/CapSense_CSHL.c **** *  widget:  widget number.
1229:Generated_Source\PSoC4/CapSense_CSHL.c **** *
1230:Generated_Source\PSoC4/CapSense_CSHL.c **** * Return:
1231:Generated_Source\PSoC4/CapSense_CSHL.c **** *  Returns 1 if any widget is active, 0 none of widgets are active.
1232:Generated_Source\PSoC4/CapSense_CSHL.c **** *
1233:Generated_Source\PSoC4/CapSense_CSHL.c **** * Global Variables:
1234:Generated_Source\PSoC4/CapSense_CSHL.c **** *  None
1235:Generated_Source\PSoC4/CapSense_CSHL.c **** *
1236:Generated_Source\PSoC4/CapSense_CSHL.c **** * Side Effects:
1237:Generated_Source\PSoC4/CapSense_CSHL.c **** *  None
1238:Generated_Source\PSoC4/CapSense_CSHL.c **** *
1239:Generated_Source\PSoC4/CapSense_CSHL.c **** *******************************************************************************/
1240:Generated_Source\PSoC4/CapSense_CSHL.c **** uint32 CapSense_CheckIsAnyWidgetActive(void)
1241:Generated_Source\PSoC4/CapSense_CSHL.c **** {
 1698              		.loc 1 1241 0
 1699              		.cfi_startproc
 1700 0000 80B5     		push	{r7, lr}
 1701              		.cfi_def_cfa_offset 8
 1702              		.cfi_offset 7, -8
 1703              		.cfi_offset 14, -4
ARM GAS  C:\Users\poornima\AppData\Local\Temp\ccxTyVc8.s 			page 53


 1704 0002 82B0     		sub	sp, sp, #8
 1705              		.cfi_def_cfa_offset 16
 1706 0004 00AF     		add	r7, sp, #0
 1707              		.cfi_def_cfa_register 7
1242:Generated_Source\PSoC4/CapSense_CSHL.c **** 
1243:Generated_Source\PSoC4/CapSense_CSHL.c ****         uint32 i;
1244:Generated_Source\PSoC4/CapSense_CSHL.c ****     uint32 state = 0u;
 1708              		.loc 1 1244 0
 1709 0006 0023     		mov	r3, #0
 1710 0008 3B60     		str	r3, [r7]
1245:Generated_Source\PSoC4/CapSense_CSHL.c ****     
1246:Generated_Source\PSoC4/CapSense_CSHL.c ****     for(i = 0u; i < CapSense_TOTAL_WIDGET_COUNT; i++)
 1711              		.loc 1 1246 0
 1712 000a 0023     		mov	r3, #0
 1713 000c 7B60     		str	r3, [r7, #4]
 1714 000e 0AE0     		b	.L110
 1715              	.L112:
1247:Generated_Source\PSoC4/CapSense_CSHL.c ****     {
1248:Generated_Source\PSoC4/CapSense_CSHL.c ****         if (CapSense_CheckIsWidgetActive(i) != 0u)
 1716              		.loc 1 1248 0
 1717 0010 7B68     		ldr	r3, [r7, #4]
 1718 0012 181C     		mov	r0, r3
 1719 0014 FFF7FEFF 		bl	CapSense_CheckIsWidgetActive
 1720 0018 031E     		sub	r3, r0, #0
 1721 001a 01D0     		beq	.L111
1249:Generated_Source\PSoC4/CapSense_CSHL.c ****         {
1250:Generated_Source\PSoC4/CapSense_CSHL.c ****             state = CapSense_WIDGET_IS_ACTIVE;
 1722              		.loc 1 1250 0
 1723 001c 0123     		mov	r3, #1
 1724 001e 3B60     		str	r3, [r7]
 1725              	.L111:
1246:Generated_Source\PSoC4/CapSense_CSHL.c ****     {
 1726              		.loc 1 1246 0 discriminator 2
 1727 0020 7B68     		ldr	r3, [r7, #4]
 1728 0022 0133     		add	r3, r3, #1
 1729 0024 7B60     		str	r3, [r7, #4]
 1730              	.L110:
1246:Generated_Source\PSoC4/CapSense_CSHL.c ****     {
 1731              		.loc 1 1246 0 is_stmt 0 discriminator 1
 1732 0026 7B68     		ldr	r3, [r7, #4]
 1733 0028 072B     		cmp	r3, #7
 1734 002a F1D9     		bls	.L112
1251:Generated_Source\PSoC4/CapSense_CSHL.c ****         }
1252:Generated_Source\PSoC4/CapSense_CSHL.c ****     }
1253:Generated_Source\PSoC4/CapSense_CSHL.c ****     
1254:Generated_Source\PSoC4/CapSense_CSHL.c **** 
1255:Generated_Source\PSoC4/CapSense_CSHL.c **** 
1256:Generated_Source\PSoC4/CapSense_CSHL.c ****     return state;
 1735              		.loc 1 1256 0 is_stmt 1
 1736 002c 3B68     		ldr	r3, [r7]
1257:Generated_Source\PSoC4/CapSense_CSHL.c **** }
 1737              		.loc 1 1257 0
 1738 002e 181C     		mov	r0, r3
 1739 0030 BD46     		mov	sp, r7
 1740 0032 02B0     		add	sp, sp, #8
 1741              		@ sp needed
 1742 0034 80BD     		pop	{r7, pc}
ARM GAS  C:\Users\poornima\AppData\Local\Temp\ccxTyVc8.s 			page 54


 1743              		.cfi_endproc
 1744              	.LFE59:
 1745              		.size	CapSense_CheckIsAnyWidgetActive, .-CapSense_CheckIsAnyWidgetActive
 1746 0036 C046     		.section	.text.CapSense_EnableWidget,"ax",%progbits
 1747              		.align	2
 1748              		.global	CapSense_EnableWidget
 1749              		.code	16
 1750              		.thumb_func
 1751              		.type	CapSense_EnableWidget, %function
 1752              	CapSense_EnableWidget:
 1753              	.LFB60:
1258:Generated_Source\PSoC4/CapSense_CSHL.c **** 
1259:Generated_Source\PSoC4/CapSense_CSHL.c **** 
1260:Generated_Source\PSoC4/CapSense_CSHL.c **** /*******************************************************************************
1261:Generated_Source\PSoC4/CapSense_CSHL.c **** * Function Name: CapSense_EnableWidget
1262:Generated_Source\PSoC4/CapSense_CSHL.c **** ********************************************************************************
1263:Generated_Source\PSoC4/CapSense_CSHL.c **** *
1264:Generated_Source\PSoC4/CapSense_CSHL.c **** * Summary:
1265:Generated_Source\PSoC4/CapSense_CSHL.c **** *  Enables all the widget elements (sensors) to the scanning process.
1266:Generated_Source\PSoC4/CapSense_CSHL.c **** *
1267:Generated_Source\PSoC4/CapSense_CSHL.c **** * Parameters:
1268:Generated_Source\PSoC4/CapSense_CSHL.c **** *  widget:  widget number.
1269:Generated_Source\PSoC4/CapSense_CSHL.c **** *
1270:Generated_Source\PSoC4/CapSense_CSHL.c **** * Return:
1271:Generated_Source\PSoC4/CapSense_CSHL.c **** *  None
1272:Generated_Source\PSoC4/CapSense_CSHL.c **** *
1273:Generated_Source\PSoC4/CapSense_CSHL.c **** * Global Variables:
1274:Generated_Source\PSoC4/CapSense_CSHL.c **** *  CapSense_sensorEnableMask[] - used to store the sensor scanning
1275:Generated_Source\PSoC4/CapSense_CSHL.c **** *  state.
1276:Generated_Source\PSoC4/CapSense_CSHL.c **** *  CapSense_sensorEnableMask[0] contains the masked bits for sensors
1277:Generated_Source\PSoC4/CapSense_CSHL.c **** *  0 through 7 (sensor 0 is bit 0, sensor 1 is bit 1).
1278:Generated_Source\PSoC4/CapSense_CSHL.c **** *  CapSense_sensorEnableMask[1] contains the masked bits for
1279:Generated_Source\PSoC4/CapSense_CSHL.c **** *  sensors 8 through 15 (if needed), and so on.
1280:Generated_Source\PSoC4/CapSense_CSHL.c **** *  0 - sensor doesn't scan by CapSense_ScanEnabledWidgets().
1281:Generated_Source\PSoC4/CapSense_CSHL.c **** *  1 - sensor scans by CapSense_ScanEnabledWidgets().
1282:Generated_Source\PSoC4/CapSense_CSHL.c **** *
1283:Generated_Source\PSoC4/CapSense_CSHL.c **** * Side Effects:
1284:Generated_Source\PSoC4/CapSense_CSHL.c **** *  None
1285:Generated_Source\PSoC4/CapSense_CSHL.c **** *
1286:Generated_Source\PSoC4/CapSense_CSHL.c **** *******************************************************************************/
1287:Generated_Source\PSoC4/CapSense_CSHL.c **** void CapSense_EnableWidget(uint32 widget)
1288:Generated_Source\PSoC4/CapSense_CSHL.c **** {
 1754              		.loc 1 1288 0
 1755              		.cfi_startproc
 1756 0000 80B5     		push	{r7, lr}
 1757              		.cfi_def_cfa_offset 8
 1758              		.cfi_offset 7, -8
 1759              		.cfi_offset 14, -4
 1760 0002 84B0     		sub	sp, sp, #16
 1761              		.cfi_def_cfa_offset 24
 1762 0004 00AF     		add	r7, sp, #0
 1763              		.cfi_def_cfa_register 7
 1764 0006 7860     		str	r0, [r7, #4]
1289:Generated_Source\PSoC4/CapSense_CSHL.c **** 
1290:Generated_Source\PSoC4/CapSense_CSHL.c ****     uint8 rawIndex = CapSense_rawDataIndex[widget];
 1765              		.loc 1 1290 0
 1766 0008 0F23     		mov	r3, #15
ARM GAS  C:\Users\poornima\AppData\Local\Temp\ccxTyVc8.s 			page 55


 1767 000a FB18     		add	r3, r7, r3
 1768 000c 1549     		ldr	r1, .L116
 1769 000e 7A68     		ldr	r2, [r7, #4]
 1770 0010 8A18     		add	r2, r1, r2
 1771 0012 1278     		ldrb	r2, [r2]
 1772 0014 1A70     		strb	r2, [r3]
1291:Generated_Source\PSoC4/CapSense_CSHL.c ****     uint8 numOfSensors = CapSense_numberOfSensors[widget] + rawIndex;
 1773              		.loc 1 1291 0
 1774 0016 144A     		ldr	r2, .L116+4
 1775 0018 7B68     		ldr	r3, [r7, #4]
 1776 001a D318     		add	r3, r2, r3
 1777 001c 1978     		ldrb	r1, [r3]
 1778 001e 0E23     		mov	r3, #14
 1779 0020 FB18     		add	r3, r7, r3
 1780 0022 0F22     		mov	r2, #15
 1781 0024 BA18     		add	r2, r7, r2
 1782 0026 1278     		ldrb	r2, [r2]
 1783 0028 8A18     		add	r2, r1, r2
 1784 002a 1A70     		strb	r2, [r3]
 1785              	.L115:
1292:Generated_Source\PSoC4/CapSense_CSHL.c **** 
1293:Generated_Source\PSoC4/CapSense_CSHL.c ****     /* Enable all sensors of widget */
1294:Generated_Source\PSoC4/CapSense_CSHL.c ****     do
1295:Generated_Source\PSoC4/CapSense_CSHL.c ****     {
1296:Generated_Source\PSoC4/CapSense_CSHL.c ****         CapSense_SetBitValue(CapSense_sensorEnableMask, (uint32)rawIndex, 1u);
 1786              		.loc 1 1296 0 discriminator 1
 1787 002c 0F23     		mov	r3, #15
 1788 002e FB18     		add	r3, r7, r3
 1789 0030 1B78     		ldrb	r3, [r3]
 1790 0032 0E4A     		ldr	r2, .L116+8
 1791 0034 101C     		mov	r0, r2
 1792 0036 191C     		mov	r1, r3
 1793 0038 0122     		mov	r2, #1
 1794 003a FFF7FEFF 		bl	CapSense_SetBitValue
1297:Generated_Source\PSoC4/CapSense_CSHL.c ****         rawIndex++;
 1795              		.loc 1 1297 0 discriminator 1
 1796 003e 0F23     		mov	r3, #15
 1797 0040 FB18     		add	r3, r7, r3
 1798 0042 1A78     		ldrb	r2, [r3]
 1799 0044 0F23     		mov	r3, #15
 1800 0046 FB18     		add	r3, r7, r3
 1801 0048 0132     		add	r2, r2, #1
 1802 004a 1A70     		strb	r2, [r3]
1298:Generated_Source\PSoC4/CapSense_CSHL.c ****     }
1299:Generated_Source\PSoC4/CapSense_CSHL.c ****     while(rawIndex < numOfSensors);
 1803              		.loc 1 1299 0 discriminator 1
 1804 004c 0F23     		mov	r3, #15
 1805 004e FA18     		add	r2, r7, r3
 1806 0050 0E23     		mov	r3, #14
 1807 0052 FB18     		add	r3, r7, r3
 1808 0054 1278     		ldrb	r2, [r2]
 1809 0056 1B78     		ldrb	r3, [r3]
 1810 0058 9A42     		cmp	r2, r3
 1811 005a E7D3     		bcc	.L115
1300:Generated_Source\PSoC4/CapSense_CSHL.c **** }
 1812              		.loc 1 1300 0
 1813 005c BD46     		mov	sp, r7
ARM GAS  C:\Users\poornima\AppData\Local\Temp\ccxTyVc8.s 			page 56


 1814 005e 04B0     		add	sp, sp, #16
 1815              		@ sp needed
 1816 0060 80BD     		pop	{r7, pc}
 1817              	.L117:
 1818 0062 C046     		.align	2
 1819              	.L116:
 1820 0064 00000000 		.word	CapSense_rawDataIndex
 1821 0068 00000000 		.word	CapSense_numberOfSensors
 1822 006c 00000000 		.word	CapSense_sensorEnableMask
 1823              		.cfi_endproc
 1824              	.LFE60:
 1825              		.size	CapSense_EnableWidget, .-CapSense_EnableWidget
 1826              		.section	.text.CapSense_DisableWidget,"ax",%progbits
 1827              		.align	2
 1828              		.global	CapSense_DisableWidget
 1829              		.code	16
 1830              		.thumb_func
 1831              		.type	CapSense_DisableWidget, %function
 1832              	CapSense_DisableWidget:
 1833              	.LFB61:
1301:Generated_Source\PSoC4/CapSense_CSHL.c **** 
1302:Generated_Source\PSoC4/CapSense_CSHL.c **** 
1303:Generated_Source\PSoC4/CapSense_CSHL.c **** /*******************************************************************************
1304:Generated_Source\PSoC4/CapSense_CSHL.c **** * Function Name: CapSense_DisableWidget
1305:Generated_Source\PSoC4/CapSense_CSHL.c **** ********************************************************************************
1306:Generated_Source\PSoC4/CapSense_CSHL.c **** *
1307:Generated_Source\PSoC4/CapSense_CSHL.c **** * Summary:
1308:Generated_Source\PSoC4/CapSense_CSHL.c **** *  Disables all the widget elements (sensors) from the scanning process.
1309:Generated_Source\PSoC4/CapSense_CSHL.c **** *
1310:Generated_Source\PSoC4/CapSense_CSHL.c **** * Parameters:
1311:Generated_Source\PSoC4/CapSense_CSHL.c **** *  widget:  widget number.
1312:Generated_Source\PSoC4/CapSense_CSHL.c **** *
1313:Generated_Source\PSoC4/CapSense_CSHL.c **** * Return:
1314:Generated_Source\PSoC4/CapSense_CSHL.c **** *  None
1315:Generated_Source\PSoC4/CapSense_CSHL.c **** *
1316:Generated_Source\PSoC4/CapSense_CSHL.c **** * Global Variables:
1317:Generated_Source\PSoC4/CapSense_CSHL.c **** *  CapSense_sensorEnableMask[] - used to store the sensor scanning
1318:Generated_Source\PSoC4/CapSense_CSHL.c **** *  state.
1319:Generated_Source\PSoC4/CapSense_CSHL.c **** *  CapSense_sensorEnableMask[0] contains the masked bits for sensors
1320:Generated_Source\PSoC4/CapSense_CSHL.c **** *  0 through 7 (sensor 0 is bit 0, sensor 1 is bit 1).
1321:Generated_Source\PSoC4/CapSense_CSHL.c **** *  CapSense_sensorEnableMask[1] contains the masked bits for
1322:Generated_Source\PSoC4/CapSense_CSHL.c **** *  sensors 8 through 15 (if needed), and so on.
1323:Generated_Source\PSoC4/CapSense_CSHL.c **** *  0 - sensor isn't scanned by CapSense_ScanEnabledWidgets().
1324:Generated_Source\PSoC4/CapSense_CSHL.c **** *  1 - sensor is scanned by CapSense_ScanEnabledWidgets().
1325:Generated_Source\PSoC4/CapSense_CSHL.c **** *
1326:Generated_Source\PSoC4/CapSense_CSHL.c **** * Side Effects:
1327:Generated_Source\PSoC4/CapSense_CSHL.c **** *  None
1328:Generated_Source\PSoC4/CapSense_CSHL.c **** *
1329:Generated_Source\PSoC4/CapSense_CSHL.c **** *******************************************************************************/
1330:Generated_Source\PSoC4/CapSense_CSHL.c **** void CapSense_DisableWidget(uint32 widget)
1331:Generated_Source\PSoC4/CapSense_CSHL.c **** {
 1834              		.loc 1 1331 0
 1835              		.cfi_startproc
 1836 0000 80B5     		push	{r7, lr}
 1837              		.cfi_def_cfa_offset 8
 1838              		.cfi_offset 7, -8
 1839              		.cfi_offset 14, -4
ARM GAS  C:\Users\poornima\AppData\Local\Temp\ccxTyVc8.s 			page 57


 1840 0002 84B0     		sub	sp, sp, #16
 1841              		.cfi_def_cfa_offset 24
 1842 0004 00AF     		add	r7, sp, #0
 1843              		.cfi_def_cfa_register 7
 1844 0006 7860     		str	r0, [r7, #4]
1332:Generated_Source\PSoC4/CapSense_CSHL.c ****     uint8 rawIndex = CapSense_rawDataIndex[widget];
 1845              		.loc 1 1332 0
 1846 0008 0F23     		mov	r3, #15
 1847 000a FB18     		add	r3, r7, r3
 1848 000c 1549     		ldr	r1, .L120
 1849 000e 7A68     		ldr	r2, [r7, #4]
 1850 0010 8A18     		add	r2, r1, r2
 1851 0012 1278     		ldrb	r2, [r2]
 1852 0014 1A70     		strb	r2, [r3]
1333:Generated_Source\PSoC4/CapSense_CSHL.c ****     uint8 numOfSensors = CapSense_numberOfSensors[widget] + rawIndex;
 1853              		.loc 1 1333 0
 1854 0016 144A     		ldr	r2, .L120+4
 1855 0018 7B68     		ldr	r3, [r7, #4]
 1856 001a D318     		add	r3, r2, r3
 1857 001c 1978     		ldrb	r1, [r3]
 1858 001e 0E23     		mov	r3, #14
 1859 0020 FB18     		add	r3, r7, r3
 1860 0022 0F22     		mov	r2, #15
 1861 0024 BA18     		add	r2, r7, r2
 1862 0026 1278     		ldrb	r2, [r2]
 1863 0028 8A18     		add	r2, r1, r2
 1864 002a 1A70     		strb	r2, [r3]
 1865              	.L119:
1334:Generated_Source\PSoC4/CapSense_CSHL.c **** 
1335:Generated_Source\PSoC4/CapSense_CSHL.c ****     /* Disable all sensors of widget */
1336:Generated_Source\PSoC4/CapSense_CSHL.c ****     do
1337:Generated_Source\PSoC4/CapSense_CSHL.c ****     {
1338:Generated_Source\PSoC4/CapSense_CSHL.c **** 
1339:Generated_Source\PSoC4/CapSense_CSHL.c ****         CapSense_SetBitValue(CapSense_sensorEnableMask, (uint32)rawIndex, 0u);
 1866              		.loc 1 1339 0 discriminator 1
 1867 002c 0F23     		mov	r3, #15
 1868 002e FB18     		add	r3, r7, r3
 1869 0030 1B78     		ldrb	r3, [r3]
 1870 0032 0E4A     		ldr	r2, .L120+8
 1871 0034 101C     		mov	r0, r2
 1872 0036 191C     		mov	r1, r3
 1873 0038 0022     		mov	r2, #0
 1874 003a FFF7FEFF 		bl	CapSense_SetBitValue
1340:Generated_Source\PSoC4/CapSense_CSHL.c ****         rawIndex++;
 1875              		.loc 1 1340 0 discriminator 1
 1876 003e 0F23     		mov	r3, #15
 1877 0040 FB18     		add	r3, r7, r3
 1878 0042 1A78     		ldrb	r2, [r3]
 1879 0044 0F23     		mov	r3, #15
 1880 0046 FB18     		add	r3, r7, r3
 1881 0048 0132     		add	r2, r2, #1
 1882 004a 1A70     		strb	r2, [r3]
1341:Generated_Source\PSoC4/CapSense_CSHL.c ****     }
1342:Generated_Source\PSoC4/CapSense_CSHL.c ****     while(rawIndex < numOfSensors);
 1883              		.loc 1 1342 0 discriminator 1
 1884 004c 0F23     		mov	r3, #15
 1885 004e FA18     		add	r2, r7, r3
ARM GAS  C:\Users\poornima\AppData\Local\Temp\ccxTyVc8.s 			page 58


 1886 0050 0E23     		mov	r3, #14
 1887 0052 FB18     		add	r3, r7, r3
 1888 0054 1278     		ldrb	r2, [r2]
 1889 0056 1B78     		ldrb	r3, [r3]
 1890 0058 9A42     		cmp	r2, r3
 1891 005a E7D3     		bcc	.L119
1343:Generated_Source\PSoC4/CapSense_CSHL.c **** }
 1892              		.loc 1 1343 0
 1893 005c BD46     		mov	sp, r7
 1894 005e 04B0     		add	sp, sp, #16
 1895              		@ sp needed
 1896 0060 80BD     		pop	{r7, pc}
 1897              	.L121:
 1898 0062 C046     		.align	2
 1899              	.L120:
 1900 0064 00000000 		.word	CapSense_rawDataIndex
 1901 0068 00000000 		.word	CapSense_numberOfSensors
 1902 006c 00000000 		.word	CapSense_sensorEnableMask
 1903              		.cfi_endproc
 1904              	.LFE61:
 1905              		.size	CapSense_DisableWidget, .-CapSense_DisableWidget
 1906              		.section	.text.CapSense_MedianFilter,"ax",%progbits
 1907              		.align	2
 1908              		.global	CapSense_MedianFilter
 1909              		.code	16
 1910              		.thumb_func
 1911              		.type	CapSense_MedianFilter, %function
 1912              	CapSense_MedianFilter:
 1913              	.LFB62:
1344:Generated_Source\PSoC4/CapSense_CSHL.c **** 
1345:Generated_Source\PSoC4/CapSense_CSHL.c **** 
1346:Generated_Source\PSoC4/CapSense_CSHL.c **** #if(CapSense_TOTAL_CENTROIDS_BASIC_COUNT)
1347:Generated_Source\PSoC4/CapSense_CSHL.c ****     /*******************************************************************************
1348:Generated_Source\PSoC4/CapSense_CSHL.c ****     * Function Name: CapSense_FindMaximum
1349:Generated_Source\PSoC4/CapSense_CSHL.c ****     ********************************************************************************
1350:Generated_Source\PSoC4/CapSense_CSHL.c ****     *
1351:Generated_Source\PSoC4/CapSense_CSHL.c ****     * Summary:
1352:Generated_Source\PSoC4/CapSense_CSHL.c ****     *  Finds the index of the maximum element within a defined centroid. Checks
1353:Generated_Source\PSoC4/CapSense_CSHL.c ****     *  CapSense_sensorSignal[] within a defined centroid and
1354:Generated_Source\PSoC4/CapSense_CSHL.c ****     *  returns the index of the maximum element. The values below the finger threshold are
1355:Generated_Source\PSoC4/CapSense_CSHL.c ****     *  ignored.
1356:Generated_Source\PSoC4/CapSense_CSHL.c ****     *  The centroid is defined by offset of the first element and a number of elements - count.
1357:Generated_Source\PSoC4/CapSense_CSHL.c ****     *  The diplexed centroid requires at least two consecutive elements above
1358:Generated_Source\PSoC4/CapSense_CSHL.c ****     *  FingerThreshold to find the index of the maximum element.
1359:Generated_Source\PSoC4/CapSense_CSHL.c ****     *
1360:Generated_Source\PSoC4/CapSense_CSHL.c ****     * Parameters:
1361:Generated_Source\PSoC4/CapSense_CSHL.c ****     *  offset:  Start index of centroid in CapSense_sensorSignal[] array.
1362:Generated_Source\PSoC4/CapSense_CSHL.c ****     *  count:   number of elements within centroid.
1363:Generated_Source\PSoC4/CapSense_CSHL.c ****     *  fingerThreshold:  Finger threshold.
1364:Generated_Source\PSoC4/CapSense_CSHL.c ****     *  diplex:   pointer to diplex table.
1365:Generated_Source\PSoC4/CapSense_CSHL.c ****     *
1366:Generated_Source\PSoC4/CapSense_CSHL.c ****     * Return:
1367:Generated_Source\PSoC4/CapSense_CSHL.c ****     *  Returns the index of the maximum element within a defined centroid.
1368:Generated_Source\PSoC4/CapSense_CSHL.c ****     *  If the index of the maximum element isn't found it returns 0xFF.
1369:Generated_Source\PSoC4/CapSense_CSHL.c ****     *
1370:Generated_Source\PSoC4/CapSense_CSHL.c ****     * Global Variables:
1371:Generated_Source\PSoC4/CapSense_CSHL.c ****     *  CapSense_startOfSlider[] - contains the index of the first slider element
ARM GAS  C:\Users\poornima\AppData\Local\Temp\ccxTyVc8.s 			page 59


1372:Generated_Source\PSoC4/CapSense_CSHL.c ****     *
1373:Generated_Source\PSoC4/CapSense_CSHL.c ****     * Side Effects:
1374:Generated_Source\PSoC4/CapSense_CSHL.c ****     *  None
1375:Generated_Source\PSoC4/CapSense_CSHL.c ****     *
1376:Generated_Source\PSoC4/CapSense_CSHL.c ****     *******************************************************************************/
1377:Generated_Source\PSoC4/CapSense_CSHL.c ****     #if (CapSense_IS_DIPLEX_SLIDER)
1378:Generated_Source\PSoC4/CapSense_CSHL.c ****         uint8 CapSense_FindMaximum(uint8 offset, uint8 count, uint8 fingerThreshold, const uint8 *d
1379:Generated_Source\PSoC4/CapSense_CSHL.c ****     #else
1380:Generated_Source\PSoC4/CapSense_CSHL.c ****         uint8 CapSense_FindMaximum(uint8 offset, uint8 count, uint8 fingerThreshold)
1381:Generated_Source\PSoC4/CapSense_CSHL.c ****     #endif /* (CapSense_IS_DIPLEX_SLIDER) */
1382:Generated_Source\PSoC4/CapSense_CSHL.c ****     {
1383:Generated_Source\PSoC4/CapSense_CSHL.c ****         uint8 i;
1384:Generated_Source\PSoC4/CapSense_CSHL.c ****         #if (CapSense_IS_DIPLEX_SLIDER)
1385:Generated_Source\PSoC4/CapSense_CSHL.c ****             uint8 curPos = 0u;
1386:Generated_Source\PSoC4/CapSense_CSHL.c ****             /* No centroid at Start */
1387:Generated_Source\PSoC4/CapSense_CSHL.c ****             uint8 curCntrdSize = 0u;
1388:Generated_Source\PSoC4/CapSense_CSHL.c ****             uint8 curCtrdStartPos = CapSense_MAXIMUM_CENTROID;
1389:Generated_Source\PSoC4/CapSense_CSHL.c ****             /* Biggest centroid is zero */
1390:Generated_Source\PSoC4/CapSense_CSHL.c ****             uint8 biggestCtrdSize = 0u;
1391:Generated_Source\PSoC4/CapSense_CSHL.c ****             uint8 biggestCtrdStartPos = 0u;
1392:Generated_Source\PSoC4/CapSense_CSHL.c ****         #endif /* (CapSense_IS_DIPLEX_SLIDER) */
1393:Generated_Source\PSoC4/CapSense_CSHL.c ****         uint8 maximum = CapSense_MAXIMUM_CENTROID;
1394:Generated_Source\PSoC4/CapSense_CSHL.c **** 
1395:Generated_Source\PSoC4/CapSense_CSHL.c ****         uint8 temp = 0u;
1396:Generated_Source\PSoC4/CapSense_CSHL.c ****         uint8 *startOfSlider = &CapSense_sensorSignal[offset];
1397:Generated_Source\PSoC4/CapSense_CSHL.c **** 
1398:Generated_Source\PSoC4/CapSense_CSHL.c ****         #if (CapSense_IS_DIPLEX_SLIDER)
1399:Generated_Source\PSoC4/CapSense_CSHL.c ****             if(diplex != 0u)
1400:Generated_Source\PSoC4/CapSense_CSHL.c ****             {
1401:Generated_Source\PSoC4/CapSense_CSHL.c ****                 /* Initialize */
1402:Generated_Source\PSoC4/CapSense_CSHL.c ****                 i = 0u;
1403:Generated_Source\PSoC4/CapSense_CSHL.c **** 
1404:Generated_Source\PSoC4/CapSense_CSHL.c ****                 /* Make slider x2 as Diplexed */
1405:Generated_Source\PSoC4/CapSense_CSHL.c ****                 count <<= 1u;
1406:Generated_Source\PSoC4/CapSense_CSHL.c ****                 while(1u)
1407:Generated_Source\PSoC4/CapSense_CSHL.c ****                 {
1408:Generated_Source\PSoC4/CapSense_CSHL.c ****                     if (startOfSlider[curPos] > 0u)    /* Looking for centroids */
1409:Generated_Source\PSoC4/CapSense_CSHL.c ****                     {
1410:Generated_Source\PSoC4/CapSense_CSHL.c ****                         if (curCtrdStartPos == CapSense_MAXIMUM_CENTROID)
1411:Generated_Source\PSoC4/CapSense_CSHL.c ****                         {
1412:Generated_Source\PSoC4/CapSense_CSHL.c ****                             /* Start of centroid */
1413:Generated_Source\PSoC4/CapSense_CSHL.c ****                             curCtrdStartPos = i;
1414:Generated_Source\PSoC4/CapSense_CSHL.c ****                             curCntrdSize++;
1415:Generated_Source\PSoC4/CapSense_CSHL.c ****                         }
1416:Generated_Source\PSoC4/CapSense_CSHL.c ****                         else
1417:Generated_Source\PSoC4/CapSense_CSHL.c ****                         {
1418:Generated_Source\PSoC4/CapSense_CSHL.c ****                             curCntrdSize++;
1419:Generated_Source\PSoC4/CapSense_CSHL.c ****                         }
1420:Generated_Source\PSoC4/CapSense_CSHL.c ****                     }
1421:Generated_Source\PSoC4/CapSense_CSHL.c ****                     else   /* Select biggest and indicate zero start */
1422:Generated_Source\PSoC4/CapSense_CSHL.c ****                     {
1423:Generated_Source\PSoC4/CapSense_CSHL.c ****                         if(curCntrdSize > 0u)
1424:Generated_Source\PSoC4/CapSense_CSHL.c ****                         {
1425:Generated_Source\PSoC4/CapSense_CSHL.c ****                             /* We are at the end of current */
1426:Generated_Source\PSoC4/CapSense_CSHL.c ****                             if(curCntrdSize > biggestCtrdSize)
1427:Generated_Source\PSoC4/CapSense_CSHL.c ****                             {
1428:Generated_Source\PSoC4/CapSense_CSHL.c ****                                 biggestCtrdSize = curCntrdSize;
ARM GAS  C:\Users\poornima\AppData\Local\Temp\ccxTyVc8.s 			page 60


1429:Generated_Source\PSoC4/CapSense_CSHL.c ****                                 biggestCtrdStartPos = curCtrdStartPos;
1430:Generated_Source\PSoC4/CapSense_CSHL.c ****                             }
1431:Generated_Source\PSoC4/CapSense_CSHL.c **** 
1432:Generated_Source\PSoC4/CapSense_CSHL.c ****                             curCntrdSize = 0u;
1433:Generated_Source\PSoC4/CapSense_CSHL.c ****                             curCtrdStartPos = CapSense_MAXIMUM_CENTROID;
1434:Generated_Source\PSoC4/CapSense_CSHL.c ****                         }
1435:Generated_Source\PSoC4/CapSense_CSHL.c ****                     }
1436:Generated_Source\PSoC4/CapSense_CSHL.c **** 
1437:Generated_Source\PSoC4/CapSense_CSHL.c ****                     i++;
1438:Generated_Source\PSoC4/CapSense_CSHL.c ****                     curPos = diplex[i];
1439:Generated_Source\PSoC4/CapSense_CSHL.c ****                     if(i == count)
1440:Generated_Source\PSoC4/CapSense_CSHL.c ****                     {
1441:Generated_Source\PSoC4/CapSense_CSHL.c ****                         break;
1442:Generated_Source\PSoC4/CapSense_CSHL.c ****                     }
1443:Generated_Source\PSoC4/CapSense_CSHL.c ****                 }
1444:Generated_Source\PSoC4/CapSense_CSHL.c **** 
1445:Generated_Source\PSoC4/CapSense_CSHL.c ****                     /* Find biggest centroid if two are same size, last one wins
1446:Generated_Source\PSoC4/CapSense_CSHL.c ****                        We are at the end of current */
1447:Generated_Source\PSoC4/CapSense_CSHL.c ****                 if (curCntrdSize >= biggestCtrdSize)
1448:Generated_Source\PSoC4/CapSense_CSHL.c ****                 {
1449:Generated_Source\PSoC4/CapSense_CSHL.c ****                     biggestCtrdSize = curCntrdSize;
1450:Generated_Source\PSoC4/CapSense_CSHL.c ****                     biggestCtrdStartPos = curCtrdStartPos;
1451:Generated_Source\PSoC4/CapSense_CSHL.c ****                 }
1452:Generated_Source\PSoC4/CapSense_CSHL.c ****             }
1453:Generated_Source\PSoC4/CapSense_CSHL.c ****             else
1454:Generated_Source\PSoC4/CapSense_CSHL.c ****             {
1455:Generated_Source\PSoC4/CapSense_CSHL.c ****                 /* Without diplexing */
1456:Generated_Source\PSoC4/CapSense_CSHL.c ****                 biggestCtrdSize = count;
1457:Generated_Source\PSoC4/CapSense_CSHL.c ****             }
1458:Generated_Source\PSoC4/CapSense_CSHL.c **** 
1459:Generated_Source\PSoC4/CapSense_CSHL.c **** 
1460:Generated_Source\PSoC4/CapSense_CSHL.c ****             /* Check centroid size */
1461:Generated_Source\PSoC4/CapSense_CSHL.c ****             #if (CapSense_IS_NON_DIPLEX_SLIDER)
1462:Generated_Source\PSoC4/CapSense_CSHL.c ****                 if((biggestCtrdSize >= 2u) || ((biggestCtrdSize == 1u) && (diplex == 0u)))
1463:Generated_Source\PSoC4/CapSense_CSHL.c ****             #else
1464:Generated_Source\PSoC4/CapSense_CSHL.c ****                 if(biggestCtrdSize >= 2u)
1465:Generated_Source\PSoC4/CapSense_CSHL.c ****             #endif /* (CapSense_IS_NON_DIPLEX_SLIDER) */
1466:Generated_Source\PSoC4/CapSense_CSHL.c ****                 {
1467:Generated_Source\PSoC4/CapSense_CSHL.c ****                     for (i = biggestCtrdStartPos; i < (biggestCtrdStartPos + biggestCtrdSize); i++)
1468:Generated_Source\PSoC4/CapSense_CSHL.c ****                     {
1469:Generated_Source\PSoC4/CapSense_CSHL.c ****                         #if (CapSense_IS_DIPLEX_SLIDER && CapSense_IS_NON_DIPLEX_SLIDER)
1470:Generated_Source\PSoC4/CapSense_CSHL.c ****                             if (diplex == 0u)
1471:Generated_Source\PSoC4/CapSense_CSHL.c ****                             {
1472:Generated_Source\PSoC4/CapSense_CSHL.c ****                                 curPos = i;
1473:Generated_Source\PSoC4/CapSense_CSHL.c ****                             }
1474:Generated_Source\PSoC4/CapSense_CSHL.c ****                             else
1475:Generated_Source\PSoC4/CapSense_CSHL.c ****                             {
1476:Generated_Source\PSoC4/CapSense_CSHL.c ****                                 curPos = diplex[i];
1477:Generated_Source\PSoC4/CapSense_CSHL.c ****                             }
1478:Generated_Source\PSoC4/CapSense_CSHL.c ****                         #elif (CapSense_IS_DIPLEX_SLIDER)
1479:Generated_Source\PSoC4/CapSense_CSHL.c ****                             curPos = diplex[i];
1480:Generated_Source\PSoC4/CapSense_CSHL.c ****                         #endif /* (CapSense_IS_DIPLEX_SLIDER && CapSense_IS_NON_DIPLEX_SLIDER) */
1481:Generated_Source\PSoC4/CapSense_CSHL.c ****                         /* Looking for greater element within centroid */
1482:Generated_Source\PSoC4/CapSense_CSHL.c ****                         if(startOfSlider[curPos] > fingerThreshold)
1483:Generated_Source\PSoC4/CapSense_CSHL.c ****                         {
1484:Generated_Source\PSoC4/CapSense_CSHL.c ****                             if(startOfSlider[curPos] > temp)
1485:Generated_Source\PSoC4/CapSense_CSHL.c ****                             {
ARM GAS  C:\Users\poornima\AppData\Local\Temp\ccxTyVc8.s 			page 61


1486:Generated_Source\PSoC4/CapSense_CSHL.c ****                                 maximum = i;
1487:Generated_Source\PSoC4/CapSense_CSHL.c ****                                 temp = startOfSlider[curPos];
1488:Generated_Source\PSoC4/CapSense_CSHL.c ****                             }
1489:Generated_Source\PSoC4/CapSense_CSHL.c ****                         }
1490:Generated_Source\PSoC4/CapSense_CSHL.c ****                     }
1491:Generated_Source\PSoC4/CapSense_CSHL.c ****                 }
1492:Generated_Source\PSoC4/CapSense_CSHL.c ****         #else
1493:Generated_Source\PSoC4/CapSense_CSHL.c ****             for (i = 0u; i < count; i++)
1494:Generated_Source\PSoC4/CapSense_CSHL.c ****             {
1495:Generated_Source\PSoC4/CapSense_CSHL.c ****                 /* Looking for greater element within centroid */
1496:Generated_Source\PSoC4/CapSense_CSHL.c ****                 if(startOfSlider[i] > fingerThreshold)
1497:Generated_Source\PSoC4/CapSense_CSHL.c ****                 {
1498:Generated_Source\PSoC4/CapSense_CSHL.c ****                     if(startOfSlider[i] > temp)
1499:Generated_Source\PSoC4/CapSense_CSHL.c ****                     {
1500:Generated_Source\PSoC4/CapSense_CSHL.c ****                         maximum = i;
1501:Generated_Source\PSoC4/CapSense_CSHL.c ****                         temp = startOfSlider[i];
1502:Generated_Source\PSoC4/CapSense_CSHL.c ****                     }
1503:Generated_Source\PSoC4/CapSense_CSHL.c ****                 }
1504:Generated_Source\PSoC4/CapSense_CSHL.c ****             }
1505:Generated_Source\PSoC4/CapSense_CSHL.c ****         #endif /* (CapSense_IS_DIPLEX_SLIDER) */
1506:Generated_Source\PSoC4/CapSense_CSHL.c ****         return (maximum);
1507:Generated_Source\PSoC4/CapSense_CSHL.c ****     }
1508:Generated_Source\PSoC4/CapSense_CSHL.c **** 
1509:Generated_Source\PSoC4/CapSense_CSHL.c **** 
1510:Generated_Source\PSoC4/CapSense_CSHL.c ****     /*******************************************************************************
1511:Generated_Source\PSoC4/CapSense_CSHL.c ****     * Function Name: CapSense_CalcCentroid
1512:Generated_Source\PSoC4/CapSense_CSHL.c ****     ********************************************************************************
1513:Generated_Source\PSoC4/CapSense_CSHL.c ****     *
1514:Generated_Source\PSoC4/CapSense_CSHL.c ****     * Summary:
1515:Generated_Source\PSoC4/CapSense_CSHL.c ****     *  Returns a position value calculated according to the index of the maximum element and API
1516:Generated_Source\PSoC4/CapSense_CSHL.c ****     *  resolution.
1517:Generated_Source\PSoC4/CapSense_CSHL.c ****     *
1518:Generated_Source\PSoC4/CapSense_CSHL.c ****     * Parameters:
1519:Generated_Source\PSoC4/CapSense_CSHL.c ****     *  type:  widget type.
1520:Generated_Source\PSoC4/CapSense_CSHL.c ****     *  diplex:  pointer to diplex table.
1521:Generated_Source\PSoC4/CapSense_CSHL.c ****     *  maximum:  Index of maximum element within centroid.
1522:Generated_Source\PSoC4/CapSense_CSHL.c ****     *  offset:   Start index of centroid in CapSense_sensorSignal[] array.
1523:Generated_Source\PSoC4/CapSense_CSHL.c ****     *  count:    Number of elements within centroid.
1524:Generated_Source\PSoC4/CapSense_CSHL.c ****     *  resolution:  multiplicator calculated according to centroid type and
1525:Generated_Source\PSoC4/CapSense_CSHL.c ****     *  API resolution.
1526:Generated_Source\PSoC4/CapSense_CSHL.c ****     *  noiseThreshold:  Noise threshold.
1527:Generated_Source\PSoC4/CapSense_CSHL.c ****     *
1528:Generated_Source\PSoC4/CapSense_CSHL.c ****     * Return:
1529:Generated_Source\PSoC4/CapSense_CSHL.c ****     *  Returns a position value of the slider.
1530:Generated_Source\PSoC4/CapSense_CSHL.c ****     *
1531:Generated_Source\PSoC4/CapSense_CSHL.c ****     * Side Effects:
1532:Generated_Source\PSoC4/CapSense_CSHL.c ****     *  None
1533:Generated_Source\PSoC4/CapSense_CSHL.c ****     *
1534:Generated_Source\PSoC4/CapSense_CSHL.c ****     *******************************************************************************/
1535:Generated_Source\PSoC4/CapSense_CSHL.c **** #if (CapSense_TOTAL_TRACKPAD_GESTURES_COUNT > 0u)
1536:Generated_Source\PSoC4/CapSense_CSHL.c ****     uint8 CapSense_CalcCentroid(uint8 maximum, uint8 offset,
1537:Generated_Source\PSoC4/CapSense_CSHL.c ****                                         uint8 count, uint32 resolution, uint8 noiseThreshold)
1538:Generated_Source\PSoC4/CapSense_CSHL.c **** #else
1539:Generated_Source\PSoC4/CapSense_CSHL.c ****     uint8 CapSense_CalcCentroid(uint8 maximum, uint8 offset,
1540:Generated_Source\PSoC4/CapSense_CSHL.c ****                                         uint8 count, uint16 resolution, uint8 noiseThreshold)
1541:Generated_Source\PSoC4/CapSense_CSHL.c **** #endif /* (CapSense_TOTAL_TRACKPAD_GESTURES_COUNT > 0u) */
1542:Generated_Source\PSoC4/CapSense_CSHL.c ****     {
ARM GAS  C:\Users\poornima\AppData\Local\Temp\ccxTyVc8.s 			page 62


1543:Generated_Source\PSoC4/CapSense_CSHL.c ****         #if ((CapSense_TOTAL_LINEAR_SLIDERS_COUNT > 0u) || (CapSense_TOTAL_TOUCH_PADS_BASIC_COUNT >
1544:Generated_Source\PSoC4/CapSense_CSHL.c ****             uint8 posPrev;
1545:Generated_Source\PSoC4/CapSense_CSHL.c ****             uint8 posNext;
1546:Generated_Source\PSoC4/CapSense_CSHL.c ****         #endif /* ((CapSense_TOTAL_LINEAR_SLIDERS_COUNT>0u) || (CapSense_TOTAL_TOUCH_PADS_BASIC_COU
1547:Generated_Source\PSoC4/CapSense_CSHL.c **** 
1548:Generated_Source\PSoC4/CapSense_CSHL.c ****         /* Helps during centroid calculation */
1549:Generated_Source\PSoC4/CapSense_CSHL.c ****         #if (CapSense_TOTAL_CENTROIDS_BASIC_COUNT)
1550:Generated_Source\PSoC4/CapSense_CSHL.c ****             static uint8 CapSense_centroid[3u];
1551:Generated_Source\PSoC4/CapSense_CSHL.c ****         #endif  /* (CapSense_TOTAL_CENTROIDS_BASIC_COUNT) */
1552:Generated_Source\PSoC4/CapSense_CSHL.c **** 
1553:Generated_Source\PSoC4/CapSense_CSHL.c ****         #if (CapSense_IS_DIPLEX_SLIDER)
1554:Generated_Source\PSoC4/CapSense_CSHL.c ****             uint8 pos;
1555:Generated_Source\PSoC4/CapSense_CSHL.c ****         #endif /* (CapSense_IS_DIPLEX_SLIDER) */
1556:Generated_Source\PSoC4/CapSense_CSHL.c **** 
1557:Generated_Source\PSoC4/CapSense_CSHL.c ****         uint8 position;
1558:Generated_Source\PSoC4/CapSense_CSHL.c ****         uint32 numerator;
1559:Generated_Source\PSoC4/CapSense_CSHL.c ****         int32 denominator;
1560:Generated_Source\PSoC4/CapSense_CSHL.c **** 
1561:Generated_Source\PSoC4/CapSense_CSHL.c ****         uint8  *startOfSlider = &CapSense_sensorSignal[offset];
1562:Generated_Source\PSoC4/CapSense_CSHL.c **** 
1563:Generated_Source\PSoC4/CapSense_CSHL.c ****         #if ((CapSense_TOTAL_LINEAR_SLIDERS_COUNT > 0u) || (CapSense_TOTAL_TOUCH_PADS_BASIC_COUNT >
1564:Generated_Source\PSoC4/CapSense_CSHL.c ****             posPrev = 0u;
1565:Generated_Source\PSoC4/CapSense_CSHL.c ****         #endif /* ((CapSense_TOTAL_LINEAR_SLIDERS_COUNT>0u) || (CapSense_TOTAL_TOUCH_PADS_BASIC_COU
1566:Generated_Source\PSoC4/CapSense_CSHL.c **** 
1567:Generated_Source\PSoC4/CapSense_CSHL.c ****         #if (CapSense_ADD_SLIDER_TYPE)
1568:Generated_Source\PSoC4/CapSense_CSHL.c ****             if(type == CapSense_TYPE_RADIAL_SLIDER)
1569:Generated_Source\PSoC4/CapSense_CSHL.c ****             {
1570:Generated_Source\PSoC4/CapSense_CSHL.c ****         #endif /* (CapSense_ADD_SLIDER_TYPE) */
1571:Generated_Source\PSoC4/CapSense_CSHL.c **** 
1572:Generated_Source\PSoC4/CapSense_CSHL.c ****             #if (CapSense_TOTAL_RADIAL_SLIDERS_COUNT > 0u)
1573:Generated_Source\PSoC4/CapSense_CSHL.c ****                 /* Copy Signal to the centroid array */
1574:Generated_Source\PSoC4/CapSense_CSHL.c ****                 CapSense_centroid[CapSense_POS] = startOfSlider[maximum];
1575:Generated_Source\PSoC4/CapSense_CSHL.c **** 
1576:Generated_Source\PSoC4/CapSense_CSHL.c ****                 /* Check borders for ROTARY Slider */
1577:Generated_Source\PSoC4/CapSense_CSHL.c ****                 if (maximum == 0u)                   /* Start of centroid */
1578:Generated_Source\PSoC4/CapSense_CSHL.c ****                 {
1579:Generated_Source\PSoC4/CapSense_CSHL.c ****                     CapSense_centroid[CapSense_POS_PREV] = startOfSlider[count - 1u];
1580:Generated_Source\PSoC4/CapSense_CSHL.c ****                     CapSense_centroid[CapSense_POS_NEXT] = startOfSlider[1u];
1581:Generated_Source\PSoC4/CapSense_CSHL.c ****                 }
1582:Generated_Source\PSoC4/CapSense_CSHL.c ****                 else if (maximum == (count - 1u))    /* End of centroid */
1583:Generated_Source\PSoC4/CapSense_CSHL.c ****                 {
1584:Generated_Source\PSoC4/CapSense_CSHL.c ****                     CapSense_centroid[CapSense_POS_PREV] = startOfSlider[maximum - 1u];
1585:Generated_Source\PSoC4/CapSense_CSHL.c ****                     CapSense_centroid[CapSense_POS_NEXT] = startOfSlider[0u];
1586:Generated_Source\PSoC4/CapSense_CSHL.c ****                 }
1587:Generated_Source\PSoC4/CapSense_CSHL.c ****                 else                                /* Not first Not last */
1588:Generated_Source\PSoC4/CapSense_CSHL.c ****                 {
1589:Generated_Source\PSoC4/CapSense_CSHL.c ****                     CapSense_centroid[CapSense_POS_PREV] = startOfSlider[maximum - 1u];
1590:Generated_Source\PSoC4/CapSense_CSHL.c ****                     CapSense_centroid[CapSense_POS_NEXT] = startOfSlider[maximum + 1u];
1591:Generated_Source\PSoC4/CapSense_CSHL.c ****                 }
1592:Generated_Source\PSoC4/CapSense_CSHL.c ****             #endif /* (CapSense_TOTAL_RADIAL_SLIDERS_COUNT > 0u) */
1593:Generated_Source\PSoC4/CapSense_CSHL.c **** 
1594:Generated_Source\PSoC4/CapSense_CSHL.c ****         #if (CapSense_ADD_SLIDER_TYPE)
1595:Generated_Source\PSoC4/CapSense_CSHL.c ****             }
1596:Generated_Source\PSoC4/CapSense_CSHL.c ****             else
1597:Generated_Source\PSoC4/CapSense_CSHL.c ****             {
1598:Generated_Source\PSoC4/CapSense_CSHL.c ****         #endif /* (CapSense_ADD_SLIDER_TYPE) */
1599:Generated_Source\PSoC4/CapSense_CSHL.c **** 
ARM GAS  C:\Users\poornima\AppData\Local\Temp\ccxTyVc8.s 			page 63


1600:Generated_Source\PSoC4/CapSense_CSHL.c ****             #if ((CapSense_TOTAL_LINEAR_SLIDERS_COUNT > 0u) || (CapSense_TOTAL_TOUCH_PADS_BASIC_COU
1601:Generated_Source\PSoC4/CapSense_CSHL.c ****                 #if (CapSense_IS_DIPLEX_SLIDER && CapSense_IS_NON_DIPLEX_SLIDER)
1602:Generated_Source\PSoC4/CapSense_CSHL.c ****                     /* Calculate next and previous near to maximum */
1603:Generated_Source\PSoC4/CapSense_CSHL.c ****                     if(diplex == 0u)
1604:Generated_Source\PSoC4/CapSense_CSHL.c ****                     {
1605:Generated_Source\PSoC4/CapSense_CSHL.c ****                         pos     = maximum;
1606:Generated_Source\PSoC4/CapSense_CSHL.c ****                         posPrev = maximum - 1u;
1607:Generated_Source\PSoC4/CapSense_CSHL.c ****                         posNext = maximum + 1u;
1608:Generated_Source\PSoC4/CapSense_CSHL.c ****                     }
1609:Generated_Source\PSoC4/CapSense_CSHL.c ****                     else
1610:Generated_Source\PSoC4/CapSense_CSHL.c ****                     {
1611:Generated_Source\PSoC4/CapSense_CSHL.c ****                         pos     = diplex[maximum];
1612:Generated_Source\PSoC4/CapSense_CSHL.c ****                         posPrev = diplex[maximum - 1u];
1613:Generated_Source\PSoC4/CapSense_CSHL.c ****                         posNext = diplex[maximum + 1u];
1614:Generated_Source\PSoC4/CapSense_CSHL.c ****                         count <<= 1u;
1615:Generated_Source\PSoC4/CapSense_CSHL.c ****                     }
1616:Generated_Source\PSoC4/CapSense_CSHL.c ****                 #elif (CapSense_IS_DIPLEX_SLIDER)
1617:Generated_Source\PSoC4/CapSense_CSHL.c ****                     /* Calculate next and previous near to maximum */
1618:Generated_Source\PSoC4/CapSense_CSHL.c ****                     pos     = diplex[maximum];
1619:Generated_Source\PSoC4/CapSense_CSHL.c ****                     posPrev = diplex[maximum - 1u];
1620:Generated_Source\PSoC4/CapSense_CSHL.c ****                     posNext = diplex[maximum + 1u];
1621:Generated_Source\PSoC4/CapSense_CSHL.c ****                     count <<= 1u;
1622:Generated_Source\PSoC4/CapSense_CSHL.c ****                 #else
1623:Generated_Source\PSoC4/CapSense_CSHL.c ****                     /* Calculate next and previous near to maximum */
1624:Generated_Source\PSoC4/CapSense_CSHL.c ****                     if (maximum >= 1u)
1625:Generated_Source\PSoC4/CapSense_CSHL.c ****                     {
1626:Generated_Source\PSoC4/CapSense_CSHL.c ****                         posPrev = maximum - 1u;
1627:Generated_Source\PSoC4/CapSense_CSHL.c ****                     }
1628:Generated_Source\PSoC4/CapSense_CSHL.c ****                     posNext = maximum + 1u;
1629:Generated_Source\PSoC4/CapSense_CSHL.c ****                 #endif /* (CapSense_IS_DIPLEX_SLIDER && CapSense_IS_NON_DIPLEX_SLIDER) */
1630:Generated_Source\PSoC4/CapSense_CSHL.c **** 
1631:Generated_Source\PSoC4/CapSense_CSHL.c ****                 /* Copy Signal to the centroid array */
1632:Generated_Source\PSoC4/CapSense_CSHL.c ****                 #if (CapSense_IS_DIPLEX_SLIDER)
1633:Generated_Source\PSoC4/CapSense_CSHL.c ****                     CapSense_centroid[CapSense_POS] = startOfSlider[pos];
1634:Generated_Source\PSoC4/CapSense_CSHL.c ****                 #else
1635:Generated_Source\PSoC4/CapSense_CSHL.c ****                     CapSense_centroid[CapSense_POS] = startOfSlider[maximum];
1636:Generated_Source\PSoC4/CapSense_CSHL.c ****                 #endif /* (CapSense_IS_DIPLEX_SLIDER) */
1637:Generated_Source\PSoC4/CapSense_CSHL.c **** 
1638:Generated_Source\PSoC4/CapSense_CSHL.c ****                 /* Check borders for LINEAR Slider */
1639:Generated_Source\PSoC4/CapSense_CSHL.c ****                 if (maximum == 0u)                   /* Start of centroid */
1640:Generated_Source\PSoC4/CapSense_CSHL.c ****                 {
1641:Generated_Source\PSoC4/CapSense_CSHL.c ****                     CapSense_centroid[CapSense_POS_PREV] = 0u;
1642:Generated_Source\PSoC4/CapSense_CSHL.c ****                     CapSense_centroid[CapSense_POS_NEXT] = startOfSlider[posNext];
1643:Generated_Source\PSoC4/CapSense_CSHL.c ****                 }
1644:Generated_Source\PSoC4/CapSense_CSHL.c ****                 else if (maximum == ((count) - 1u)) /* End of centroid */
1645:Generated_Source\PSoC4/CapSense_CSHL.c ****                 {
1646:Generated_Source\PSoC4/CapSense_CSHL.c ****                     CapSense_centroid[CapSense_POS_PREV] = startOfSlider[posPrev];
1647:Generated_Source\PSoC4/CapSense_CSHL.c ****                     CapSense_centroid[CapSense_POS_NEXT] = 0u;
1648:Generated_Source\PSoC4/CapSense_CSHL.c ****                 }
1649:Generated_Source\PSoC4/CapSense_CSHL.c ****                 else                                /* Not first Not last */
1650:Generated_Source\PSoC4/CapSense_CSHL.c ****                 {
1651:Generated_Source\PSoC4/CapSense_CSHL.c ****                     CapSense_centroid[CapSense_POS_PREV] = startOfSlider[posPrev];
1652:Generated_Source\PSoC4/CapSense_CSHL.c ****                     CapSense_centroid[CapSense_POS_NEXT] = startOfSlider[posNext];
1653:Generated_Source\PSoC4/CapSense_CSHL.c ****                 }
1654:Generated_Source\PSoC4/CapSense_CSHL.c ****             #endif /* ((CapSense_TOTAL_LINEAR_SLIDERS_COUNT>0u)||(CapSense_TOTAL_TOUCH_PADS_BASIC_C
1655:Generated_Source\PSoC4/CapSense_CSHL.c **** 
1656:Generated_Source\PSoC4/CapSense_CSHL.c ****         #if (CapSense_ADD_SLIDER_TYPE)
ARM GAS  C:\Users\poornima\AppData\Local\Temp\ccxTyVc8.s 			page 64


1657:Generated_Source\PSoC4/CapSense_CSHL.c ****             }
1658:Generated_Source\PSoC4/CapSense_CSHL.c ****         #endif /* (CapSense_ADD_SLIDER_TYPE) */
1659:Generated_Source\PSoC4/CapSense_CSHL.c **** 
1660:Generated_Source\PSoC4/CapSense_CSHL.c ****         /* Subtract noiseThreshold */
1661:Generated_Source\PSoC4/CapSense_CSHL.c ****         if(CapSense_centroid[CapSense_POS_PREV] > noiseThreshold)
1662:Generated_Source\PSoC4/CapSense_CSHL.c ****         {
1663:Generated_Source\PSoC4/CapSense_CSHL.c ****             CapSense_centroid[CapSense_POS_PREV] -= noiseThreshold;
1664:Generated_Source\PSoC4/CapSense_CSHL.c ****         }
1665:Generated_Source\PSoC4/CapSense_CSHL.c ****         else
1666:Generated_Source\PSoC4/CapSense_CSHL.c ****         {
1667:Generated_Source\PSoC4/CapSense_CSHL.c ****             CapSense_centroid[CapSense_POS_PREV] = 0u;
1668:Generated_Source\PSoC4/CapSense_CSHL.c ****         }
1669:Generated_Source\PSoC4/CapSense_CSHL.c **** 
1670:Generated_Source\PSoC4/CapSense_CSHL.c ****         /* Maximum always greater than fingerThreshold, so greater than noiseThreshold */
1671:Generated_Source\PSoC4/CapSense_CSHL.c ****         CapSense_centroid[CapSense_POS] -= noiseThreshold;
1672:Generated_Source\PSoC4/CapSense_CSHL.c **** 
1673:Generated_Source\PSoC4/CapSense_CSHL.c ****         /* Subtract noiseThreshold */
1674:Generated_Source\PSoC4/CapSense_CSHL.c ****         if(CapSense_centroid[CapSense_POS_NEXT] > noiseThreshold)
1675:Generated_Source\PSoC4/CapSense_CSHL.c ****         {
1676:Generated_Source\PSoC4/CapSense_CSHL.c ****             CapSense_centroid[CapSense_POS_NEXT] -= noiseThreshold;
1677:Generated_Source\PSoC4/CapSense_CSHL.c ****         }
1678:Generated_Source\PSoC4/CapSense_CSHL.c ****         else
1679:Generated_Source\PSoC4/CapSense_CSHL.c ****         {
1680:Generated_Source\PSoC4/CapSense_CSHL.c ****             CapSense_centroid[CapSense_POS_NEXT] = 0u;
1681:Generated_Source\PSoC4/CapSense_CSHL.c ****         }
1682:Generated_Source\PSoC4/CapSense_CSHL.c **** 
1683:Generated_Source\PSoC4/CapSense_CSHL.c **** 
1684:Generated_Source\PSoC4/CapSense_CSHL.c ****         /* Si+1 - Si-1 */
1685:Generated_Source\PSoC4/CapSense_CSHL.c ****         numerator = (uint32) CapSense_centroid[CapSense_POS_NEXT] -
1686:Generated_Source\PSoC4/CapSense_CSHL.c ****                     (uint32) CapSense_centroid[CapSense_POS_PREV];
1687:Generated_Source\PSoC4/CapSense_CSHL.c **** 
1688:Generated_Source\PSoC4/CapSense_CSHL.c ****         /* Si+1 + Si + Si-1 */
1689:Generated_Source\PSoC4/CapSense_CSHL.c ****         denominator = (int32) CapSense_centroid[CapSense_POS_PREV] +
1690:Generated_Source\PSoC4/CapSense_CSHL.c ****                       (int32) CapSense_centroid[CapSense_POS] +
1691:Generated_Source\PSoC4/CapSense_CSHL.c ****                       (int32) CapSense_centroid[CapSense_POS_NEXT];
1692:Generated_Source\PSoC4/CapSense_CSHL.c **** 
1693:Generated_Source\PSoC4/CapSense_CSHL.c ****         /* (numerator/denominator) + maximum */
1694:Generated_Source\PSoC4/CapSense_CSHL.c ****         denominator = (((int32)(uint32)((uint32)numerator << 8u)/denominator) + (int32)(uint32)((ui
1695:Generated_Source\PSoC4/CapSense_CSHL.c **** 
1696:Generated_Source\PSoC4/CapSense_CSHL.c ****         #if(CapSense_TOTAL_RADIAL_SLIDERS_COUNT > 0u)
1697:Generated_Source\PSoC4/CapSense_CSHL.c ****             /* Only required for RADIAL Slider */
1698:Generated_Source\PSoC4/CapSense_CSHL.c ****             if(denominator < 0)
1699:Generated_Source\PSoC4/CapSense_CSHL.c ****             {
1700:Generated_Source\PSoC4/CapSense_CSHL.c ****                 denominator += (int32)((uint16)((uint16) count << 8u));
1701:Generated_Source\PSoC4/CapSense_CSHL.c ****             }
1702:Generated_Source\PSoC4/CapSense_CSHL.c ****         #endif /* (CapSense_TOTAL_RADIAL_SLIDERS_COUNT > 0u) */
1703:Generated_Source\PSoC4/CapSense_CSHL.c **** 
1704:Generated_Source\PSoC4/CapSense_CSHL.c ****         denominator *= (int16)resolution;
1705:Generated_Source\PSoC4/CapSense_CSHL.c **** 
1706:Generated_Source\PSoC4/CapSense_CSHL.c ****         /* Round result and put it to uint8 */
1707:Generated_Source\PSoC4/CapSense_CSHL.c ****         position = ((uint8) HI16((uint32)denominator + CapSense_CENTROID_ROUND_VALUE));
1708:Generated_Source\PSoC4/CapSense_CSHL.c **** 
1709:Generated_Source\PSoC4/CapSense_CSHL.c ****         return (position);
1710:Generated_Source\PSoC4/CapSense_CSHL.c ****     }
1711:Generated_Source\PSoC4/CapSense_CSHL.c **** #endif /* (CapSense_TOTAL_CENTROIDS_BASIC_COUNT) */
1712:Generated_Source\PSoC4/CapSense_CSHL.c **** 
1713:Generated_Source\PSoC4/CapSense_CSHL.c **** 
ARM GAS  C:\Users\poornima\AppData\Local\Temp\ccxTyVc8.s 			page 65


1714:Generated_Source\PSoC4/CapSense_CSHL.c **** #if((CapSense_TOTAL_RADIAL_SLIDERS_COUNT > 0u) || (CapSense_TOTAL_LINEAR_SLIDERS_COUNT > 0u))
1715:Generated_Source\PSoC4/CapSense_CSHL.c ****     /*******************************************************************************
1716:Generated_Source\PSoC4/CapSense_CSHL.c ****     * Function Name: CapSense_GetCentroidPos
1717:Generated_Source\PSoC4/CapSense_CSHL.c ****     ********************************************************************************
1718:Generated_Source\PSoC4/CapSense_CSHL.c ****     *
1719:Generated_Source\PSoC4/CapSense_CSHL.c ****     * Summary:
1720:Generated_Source\PSoC4/CapSense_CSHL.c ****     *  Checks the CapSense_Signal[ ] array for a centroid within
1721:Generated_Source\PSoC4/CapSense_CSHL.c ****     *  a slider specified range. The centroid position is calculated according to the resolution
1722:Generated_Source\PSoC4/CapSense_CSHL.c ****     *  specified in the CapSense customizer. The position filters are applied to the
1723:Generated_Source\PSoC4/CapSense_CSHL.c ****     *  result if enabled.
1724:Generated_Source\PSoC4/CapSense_CSHL.c ****     *
1725:Generated_Source\PSoC4/CapSense_CSHL.c ****     * Parameters:
1726:Generated_Source\PSoC4/CapSense_CSHL.c ****     *  widget:  Widget number.
1727:Generated_Source\PSoC4/CapSense_CSHL.c ****     *  For every linear slider widget there are defines in this format:
1728:Generated_Source\PSoC4/CapSense_CSHL.c ****     *  #define CapSense_"widget_name"__LS           5
1729:Generated_Source\PSoC4/CapSense_CSHL.c ****     *
1730:Generated_Source\PSoC4/CapSense_CSHL.c ****     * Return:
1731:Generated_Source\PSoC4/CapSense_CSHL.c ****     *  Returns a position value of the linear slider.
1732:Generated_Source\PSoC4/CapSense_CSHL.c ****     *
1733:Generated_Source\PSoC4/CapSense_CSHL.c ****     * Global Variables:
1734:Generated_Source\PSoC4/CapSense_CSHL.c ****     *  None
1735:Generated_Source\PSoC4/CapSense_CSHL.c ****     *
1736:Generated_Source\PSoC4/CapSense_CSHL.c ****     * Side Effects:
1737:Generated_Source\PSoC4/CapSense_CSHL.c ****     *  If any sensor within the slider widget is active, the function returns values
1738:Generated_Source\PSoC4/CapSense_CSHL.c ****     *  from zero to the API resolution value set in the CapSense customizer. If no
1739:Generated_Source\PSoC4/CapSense_CSHL.c ****     *  sensors are active, the function returns 0xFFFF. If an error occurs during
1740:Generated_Source\PSoC4/CapSense_CSHL.c ****     *  execution of the centroid/diplexing algorithm, the function returns 0xFFFF.
1741:Generated_Source\PSoC4/CapSense_CSHL.c ****     *  There are no checks of the widget type argument provided to this function.
1742:Generated_Source\PSoC4/CapSense_CSHL.c ****     *  The unproper widget type provided will cause unexpected position calculations.
1743:Generated_Source\PSoC4/CapSense_CSHL.c ****     *
1744:Generated_Source\PSoC4/CapSense_CSHL.c ****     * Note:
1745:Generated_Source\PSoC4/CapSense_CSHL.c ****     *  If noise counts on the slider segments are greater than the noise
1746:Generated_Source\PSoC4/CapSense_CSHL.c ****     *  threshold, this subroutine may generate a false centroid result. The noise
1747:Generated_Source\PSoC4/CapSense_CSHL.c ****     *  threshold should be set carefully (high enough above the noise level) so
1748:Generated_Source\PSoC4/CapSense_CSHL.c ****     *  that noise will not generate a false centroid.
1749:Generated_Source\PSoC4/CapSense_CSHL.c ****     *******************************************************************************/
1750:Generated_Source\PSoC4/CapSense_CSHL.c ****     uint16 CapSense_GetCentroidPos(uint32 widget)
1751:Generated_Source\PSoC4/CapSense_CSHL.c ****     {
1752:Generated_Source\PSoC4/CapSense_CSHL.c ****         #if (CapSense_IS_DIPLEX_SLIDER)
1753:Generated_Source\PSoC4/CapSense_CSHL.c ****             const uint8 *diplex;
1754:Generated_Source\PSoC4/CapSense_CSHL.c ****         #endif /* (CapSense_IS_DIPLEX_SLIDER) */
1755:Generated_Source\PSoC4/CapSense_CSHL.c **** 
1756:Generated_Source\PSoC4/CapSense_CSHL.c ****         #if (0u != CapSense_LINEAR_SLIDERS_POS_FILTERS_MASK)
1757:Generated_Source\PSoC4/CapSense_CSHL.c ****             uint8 posIndex;
1758:Generated_Source\PSoC4/CapSense_CSHL.c ****             uint8 firstTimeIndex = CapSense_posFiltersData[widget];
1759:Generated_Source\PSoC4/CapSense_CSHL.c ****             uint8 posFiltersMask = CapSense_posFiltersMask[widget];
1760:Generated_Source\PSoC4/CapSense_CSHL.c ****         #endif /* (0u != CapSense_LINEAR_SLIDERS_POS_FILTERS_MASK) */
1761:Generated_Source\PSoC4/CapSense_CSHL.c **** 
1762:Generated_Source\PSoC4/CapSense_CSHL.c ****         #if ((0u != (CapSense_MEDIAN_FILTER & CapSense_LINEAR_SLIDERS_POS_FILTERS_MASK)) || \
1763:Generated_Source\PSoC4/CapSense_CSHL.c ****              (0u != (CapSense_AVERAGING_FILTER & CapSense_LINEAR_SLIDERS_POS_FILTERS_MASK)))
1764:Generated_Source\PSoC4/CapSense_CSHL.c ****             uint8 tempPos;
1765:Generated_Source\PSoC4/CapSense_CSHL.c ****         #endif /* ((0u != (CapSense_MEDIAN_FILTER & CapSense_LINEAR_SLIDERS_POS_FILTERS_MASK)) || \
1766:Generated_Source\PSoC4/CapSense_CSHL.c ****                *   (0u != (CapSense_AVERAGING_FILTER & CapSense_LINEAR_SLIDERS_POS_FILTERS_MASK)))
1767:Generated_Source\PSoC4/CapSense_CSHL.c ****                */
1768:Generated_Source\PSoC4/CapSense_CSHL.c **** 
1769:Generated_Source\PSoC4/CapSense_CSHL.c ****         uint8 maximum;
1770:Generated_Source\PSoC4/CapSense_CSHL.c ****         uint16 position;
ARM GAS  C:\Users\poornima\AppData\Local\Temp\ccxTyVc8.s 			page 66


1771:Generated_Source\PSoC4/CapSense_CSHL.c ****         uint8 offset = CapSense_rawDataIndex[widget];
1772:Generated_Source\PSoC4/CapSense_CSHL.c ****         uint8 count = CapSense_numberOfSensors[widget];
1773:Generated_Source\PSoC4/CapSense_CSHL.c **** 
1774:Generated_Source\PSoC4/CapSense_CSHL.c ****         #if (CapSense_IS_DIPLEX_SLIDER)
1775:Generated_Source\PSoC4/CapSense_CSHL.c ****             if(widget < CapSense_TOTAL_DIPLEXED_SLIDERS_COUNT)
1776:Generated_Source\PSoC4/CapSense_CSHL.c ****             {
1777:Generated_Source\PSoC4/CapSense_CSHL.c ****                 maximum = CapSense_diplexTable[widget];
1778:Generated_Source\PSoC4/CapSense_CSHL.c ****                 diplex = &CapSense_diplexTable[maximum];
1779:Generated_Source\PSoC4/CapSense_CSHL.c ****             }
1780:Generated_Source\PSoC4/CapSense_CSHL.c ****             else
1781:Generated_Source\PSoC4/CapSense_CSHL.c ****             {
1782:Generated_Source\PSoC4/CapSense_CSHL.c ****                 diplex = 0u;
1783:Generated_Source\PSoC4/CapSense_CSHL.c ****             }
1784:Generated_Source\PSoC4/CapSense_CSHL.c ****         #endif /* (CapSense_IS_DIPLEX_SLIDER) */
1785:Generated_Source\PSoC4/CapSense_CSHL.c **** 
1786:Generated_Source\PSoC4/CapSense_CSHL.c ****         /* Find Maximum within centroid */
1787:Generated_Source\PSoC4/CapSense_CSHL.c ****         #if (CapSense_IS_DIPLEX_SLIDER)
1788:Generated_Source\PSoC4/CapSense_CSHL.c ****             maximum = CapSense_FindMaximum(offset, count, (uint8)CapSense_fingerThreshold[widget], 
1789:Generated_Source\PSoC4/CapSense_CSHL.c ****         #else
1790:Generated_Source\PSoC4/CapSense_CSHL.c ****             maximum = CapSense_FindMaximum(offset, count, (uint8)CapSense_fingerThreshold[widget]);
1791:Generated_Source\PSoC4/CapSense_CSHL.c ****         #endif /* (CapSense_IS_DIPLEX_SLIDER) */
1792:Generated_Source\PSoC4/CapSense_CSHL.c **** 
1793:Generated_Source\PSoC4/CapSense_CSHL.c ****         if (maximum != 0xFFu)
1794:Generated_Source\PSoC4/CapSense_CSHL.c ****         {
1795:Generated_Source\PSoC4/CapSense_CSHL.c ****             /* Calculate centroid */
1796:Generated_Source\PSoC4/CapSense_CSHL.c ****             position = (uint16) CapSense_CalcCentroid(maximum,
1797:Generated_Source\PSoC4/CapSense_CSHL.c ****                          offset, count, CapSense_centroidMult[widget], CapSense_noiseThreshold[widg
1798:Generated_Source\PSoC4/CapSense_CSHL.c **** 
1799:Generated_Source\PSoC4/CapSense_CSHL.c ****             #if (0u != CapSense_LINEAR_SLIDERS_POS_FILTERS_MASK)
1800:Generated_Source\PSoC4/CapSense_CSHL.c ****                 /* Check if this linear slider has enabled filters */
1801:Generated_Source\PSoC4/CapSense_CSHL.c ****                 if (0u != (posFiltersMask & CapSense_ANY_POS_FILTER))
1802:Generated_Source\PSoC4/CapSense_CSHL.c ****                 {
1803:Generated_Source\PSoC4/CapSense_CSHL.c ****                     /* Calculate position to store filters data */
1804:Generated_Source\PSoC4/CapSense_CSHL.c ****                     posIndex  = firstTimeIndex + 1u;
1805:Generated_Source\PSoC4/CapSense_CSHL.c **** 
1806:Generated_Source\PSoC4/CapSense_CSHL.c ****                     if (0u == CapSense_posFiltersData[firstTimeIndex])
1807:Generated_Source\PSoC4/CapSense_CSHL.c ****                     {
1808:Generated_Source\PSoC4/CapSense_CSHL.c ****                         /* Init filters */
1809:Generated_Source\PSoC4/CapSense_CSHL.c ****                         CapSense_posFiltersData[posIndex] = (uint8) position;
1810:Generated_Source\PSoC4/CapSense_CSHL.c ****                         #if ((0u != (CapSense_MEDIAN_FILTER & \
1811:Generated_Source\PSoC4/CapSense_CSHL.c ****                                      CapSense_LINEAR_SLIDERS_POS_FILTERS_MASK)) || \
1812:Generated_Source\PSoC4/CapSense_CSHL.c ****                              (0u != (CapSense_AVERAGING_FILTER & \
1813:Generated_Source\PSoC4/CapSense_CSHL.c ****                                      CapSense_LINEAR_SLIDERS_POS_FILTERS_MASK)))
1814:Generated_Source\PSoC4/CapSense_CSHL.c **** 
1815:Generated_Source\PSoC4/CapSense_CSHL.c ****                             if ( (0u != (posFiltersMask & CapSense_MEDIAN_FILTER)) ||
1816:Generated_Source\PSoC4/CapSense_CSHL.c ****                                  (0u != (posFiltersMask & CapSense_AVERAGING_FILTER)) )
1817:Generated_Source\PSoC4/CapSense_CSHL.c ****                             {
1818:Generated_Source\PSoC4/CapSense_CSHL.c ****                                 CapSense_posFiltersData[posIndex + 1u] = (uint8) position;
1819:Generated_Source\PSoC4/CapSense_CSHL.c ****                             }
1820:Generated_Source\PSoC4/CapSense_CSHL.c ****                         #endif /* ((0u != (CapSense_MEDIAN_FILTER & \
1821:Generated_Source\PSoC4/CapSense_CSHL.c ****                                *           CapSense_LINEAR_SLIDERS_POS_FILTERS_MASK)) || \
1822:Generated_Source\PSoC4/CapSense_CSHL.c ****                                *   (0u != (CapSense_AVERAGING_FILTER & \
1823:Generated_Source\PSoC4/CapSense_CSHL.c ****                                *           CapSense_LINEAR_SLIDERS_POS_FILTERS_MASK)))
1824:Generated_Source\PSoC4/CapSense_CSHL.c ****                                */
1825:Generated_Source\PSoC4/CapSense_CSHL.c **** 
1826:Generated_Source\PSoC4/CapSense_CSHL.c ****                         CapSense_posFiltersData[firstTimeIndex] = 1u;
1827:Generated_Source\PSoC4/CapSense_CSHL.c ****                     }
ARM GAS  C:\Users\poornima\AppData\Local\Temp\ccxTyVc8.s 			page 67


1828:Generated_Source\PSoC4/CapSense_CSHL.c ****                     else
1829:Generated_Source\PSoC4/CapSense_CSHL.c ****                     {
1830:Generated_Source\PSoC4/CapSense_CSHL.c ****                         /* Do filtering */
1831:Generated_Source\PSoC4/CapSense_CSHL.c ****                         #if (0u != (CapSense_MEDIAN_FILTER & CapSense_LINEAR_SLIDERS_POS_FILTERS_MA
1832:Generated_Source\PSoC4/CapSense_CSHL.c ****                             if (0u != (posFiltersMask & CapSense_MEDIAN_FILTER))
1833:Generated_Source\PSoC4/CapSense_CSHL.c ****                             {
1834:Generated_Source\PSoC4/CapSense_CSHL.c ****                                 tempPos = (uint8) position;
1835:Generated_Source\PSoC4/CapSense_CSHL.c ****                                 position = CapSense_MedianFilter(position,
1836:Generated_Source\PSoC4/CapSense_CSHL.c ****                                                                 (uint16)CapSense_posFiltersData[pos
1837:Generated_Source\PSoC4/CapSense_CSHL.c ****                                                                 (uint16)CapSense_posFiltersData[pos
1838:Generated_Source\PSoC4/CapSense_CSHL.c ****                                 CapSense_posFiltersData[posIndex + 1u] =
1839:Generated_Source\PSoC4/CapSense_CSHL.c ****                                                                              CapSense_posFiltersDat
1840:Generated_Source\PSoC4/CapSense_CSHL.c ****                                 CapSense_posFiltersData[posIndex] = tempPos;
1841:Generated_Source\PSoC4/CapSense_CSHL.c ****                             }
1842:Generated_Source\PSoC4/CapSense_CSHL.c ****                         #endif /*(0u != (CapSense_MEDIAN_FILTER &
1843:Generated_Source\PSoC4/CapSense_CSHL.c ****                                *         CapSense_LINEAR_SLIDERS_POS_FILTERS_MASK))
1844:Generated_Source\PSoC4/CapSense_CSHL.c ****                                */
1845:Generated_Source\PSoC4/CapSense_CSHL.c **** 
1846:Generated_Source\PSoC4/CapSense_CSHL.c ****                         #if(0u!=(CapSense_AVERAGING_FILTER & CapSense_LINEAR_SLIDERS_POS_FILTERS_MA
1847:Generated_Source\PSoC4/CapSense_CSHL.c ****                             if (0u != (posFiltersMask & CapSense_AVERAGING_FILTER))
1848:Generated_Source\PSoC4/CapSense_CSHL.c ****                             {
1849:Generated_Source\PSoC4/CapSense_CSHL.c ****                                 tempPos = (uint8) position;
1850:Generated_Source\PSoC4/CapSense_CSHL.c ****                                 position = CapSense_AveragingFilter(position,
1851:Generated_Source\PSoC4/CapSense_CSHL.c ****                                                                 (uint16)CapSense_posFiltersData[pos
1852:Generated_Source\PSoC4/CapSense_CSHL.c ****                                                                 (uint16)CapSense_posFiltersData[pos
1853:Generated_Source\PSoC4/CapSense_CSHL.c ****                                 CapSense_posFiltersData[posIndex+1u]=CapSense_posFiltersData[posInd
1854:Generated_Source\PSoC4/CapSense_CSHL.c ****                                 CapSense_posFiltersData[posIndex] = tempPos;
1855:Generated_Source\PSoC4/CapSense_CSHL.c ****                             }
1856:Generated_Source\PSoC4/CapSense_CSHL.c ****                         #endif /* (0u != (CapSense_AVERAGING_FILTER & \
1857:Generated_Source\PSoC4/CapSense_CSHL.c ****                                *           CapSense_LINEAR_SLIDERS_POS_FILTERS_MASK))
1858:Generated_Source\PSoC4/CapSense_CSHL.c ****                                */
1859:Generated_Source\PSoC4/CapSense_CSHL.c **** 
1860:Generated_Source\PSoC4/CapSense_CSHL.c ****                         #if (0u != (CapSense_IIR2_FILTER & CapSense_LINEAR_SLIDERS_POS_FILTERS_MASK
1861:Generated_Source\PSoC4/CapSense_CSHL.c ****                             if (0u != (posFiltersMask & CapSense_IIR2_FILTER))
1862:Generated_Source\PSoC4/CapSense_CSHL.c ****                             {
1863:Generated_Source\PSoC4/CapSense_CSHL.c ****                                 position = CapSense_IIR2Filter(position,
1864:Generated_Source\PSoC4/CapSense_CSHL.c ****                                                                     (uint16)CapSense_posFiltersData
1865:Generated_Source\PSoC4/CapSense_CSHL.c ****                                 CapSense_posFiltersData[posIndex] = (uint8) position;
1866:Generated_Source\PSoC4/CapSense_CSHL.c ****                             }
1867:Generated_Source\PSoC4/CapSense_CSHL.c ****                         #endif /* (0u != (CapSense_IIR2_FILTER & \
1868:Generated_Source\PSoC4/CapSense_CSHL.c ****                                *          CapSense_LINEAR_SLIDERS_POS_FILTERS_MASK))
1869:Generated_Source\PSoC4/CapSense_CSHL.c ****                                */
1870:Generated_Source\PSoC4/CapSense_CSHL.c **** 
1871:Generated_Source\PSoC4/CapSense_CSHL.c ****                         #if (0u != (CapSense_IIR4_FILTER & CapSense_LINEAR_SLIDERS_POS_FILTERS_MASK
1872:Generated_Source\PSoC4/CapSense_CSHL.c ****                             if (0u != (posFiltersMask & CapSense_IIR4_FILTER))
1873:Generated_Source\PSoC4/CapSense_CSHL.c ****                             {
1874:Generated_Source\PSoC4/CapSense_CSHL.c ****                                 position = CapSense_IIR4Filter(position,
1875:Generated_Source\PSoC4/CapSense_CSHL.c ****                                                                     (uint16)CapSense_posFiltersData
1876:Generated_Source\PSoC4/CapSense_CSHL.c ****                                 CapSense_posFiltersData[posIndex] = (uint8) position;
1877:Generated_Source\PSoC4/CapSense_CSHL.c ****                             }
1878:Generated_Source\PSoC4/CapSense_CSHL.c ****                         #endif /* (0u != (CapSense_IIR4_FILTER & \
1879:Generated_Source\PSoC4/CapSense_CSHL.c ****                                *          CapSense_LINEAR_SLIDERS_POS_FILTERS_MASK))
1880:Generated_Source\PSoC4/CapSense_CSHL.c ****                                */
1881:Generated_Source\PSoC4/CapSense_CSHL.c **** 
1882:Generated_Source\PSoC4/CapSense_CSHL.c ****                         #if (0u != (CapSense_JITTER_FILTER & CapSense_LINEAR_SLIDERS_POS_FILTERS_MA
1883:Generated_Source\PSoC4/CapSense_CSHL.c ****                             if (0u != (posFiltersMask & CapSense_JITTER_FILTER))
1884:Generated_Source\PSoC4/CapSense_CSHL.c ****                             {
ARM GAS  C:\Users\poornima\AppData\Local\Temp\ccxTyVc8.s 			page 68


1885:Generated_Source\PSoC4/CapSense_CSHL.c ****                                 position = CapSense_JitterFilter(position,
1886:Generated_Source\PSoC4/CapSense_CSHL.c ****                                                                     (uint16)CapSense_posFiltersData
1887:Generated_Source\PSoC4/CapSense_CSHL.c ****                                 CapSense_posFiltersData[posIndex] = (uint8) position;
1888:Generated_Source\PSoC4/CapSense_CSHL.c ****                             }
1889:Generated_Source\PSoC4/CapSense_CSHL.c ****                         #endif /* (0u != (CapSense_JITTER_FILTER & \
1890:Generated_Source\PSoC4/CapSense_CSHL.c ****                                *           CapSense_LINEAR_SLIDERS_POS_FILTERS_MASK))
1891:Generated_Source\PSoC4/CapSense_CSHL.c ****                                */
1892:Generated_Source\PSoC4/CapSense_CSHL.c ****                     }
1893:Generated_Source\PSoC4/CapSense_CSHL.c ****                 }
1894:Generated_Source\PSoC4/CapSense_CSHL.c ****             #endif /* (0u != CapSense_LINEAR_SLIDERS_POS_FILTERS_MASK) */
1895:Generated_Source\PSoC4/CapSense_CSHL.c **** 
1896:Generated_Source\PSoC4/CapSense_CSHL.c ****         }
1897:Generated_Source\PSoC4/CapSense_CSHL.c ****         else
1898:Generated_Source\PSoC4/CapSense_CSHL.c ****         {
1899:Generated_Source\PSoC4/CapSense_CSHL.c ****             /* Maximum wasn't found */
1900:Generated_Source\PSoC4/CapSense_CSHL.c ****             position = 0xFFFFu;
1901:Generated_Source\PSoC4/CapSense_CSHL.c **** 
1902:Generated_Source\PSoC4/CapSense_CSHL.c ****             #if(0u != CapSense_LINEAR_SLIDERS_POS_FILTERS_MASK)
1903:Generated_Source\PSoC4/CapSense_CSHL.c ****                 /* Reset filters */
1904:Generated_Source\PSoC4/CapSense_CSHL.c ****                 if(0u != (posFiltersMask & CapSense_ANY_POS_FILTER))
1905:Generated_Source\PSoC4/CapSense_CSHL.c ****                 {
1906:Generated_Source\PSoC4/CapSense_CSHL.c ****                     CapSense_posFiltersData[firstTimeIndex] = 0u;
1907:Generated_Source\PSoC4/CapSense_CSHL.c ****                 }
1908:Generated_Source\PSoC4/CapSense_CSHL.c ****             #endif /* (0u != CapSense_LINEAR_SLIDERS_POS_FILTERS_MASK) */
1909:Generated_Source\PSoC4/CapSense_CSHL.c ****         }
1910:Generated_Source\PSoC4/CapSense_CSHL.c **** 
1911:Generated_Source\PSoC4/CapSense_CSHL.c **** 
1912:Generated_Source\PSoC4/CapSense_CSHL.c ****         return (position);
1913:Generated_Source\PSoC4/CapSense_CSHL.c ****     }
1914:Generated_Source\PSoC4/CapSense_CSHL.c **** #endif /* ((CapSense_TOTAL_RADIAL_SLIDERS_COUNT > 0u) || (CapSense_TOTAL_LINEAR_SLIDERS_COUNT > 0u)
1915:Generated_Source\PSoC4/CapSense_CSHL.c **** 
1916:Generated_Source\PSoC4/CapSense_CSHL.c **** 
1917:Generated_Source\PSoC4/CapSense_CSHL.c **** #if((CapSense_TOTAL_RADIAL_SLIDERS_COUNT > 0u) || (CapSense_TOTAL_LINEAR_SLIDERS_COUNT > 0u))
1918:Generated_Source\PSoC4/CapSense_CSHL.c ****     /*******************************************************************************
1919:Generated_Source\PSoC4/CapSense_CSHL.c ****     * Function Name: CapSense_GetRadialCentroidPos
1920:Generated_Source\PSoC4/CapSense_CSHL.c ****     ********************************************************************************
1921:Generated_Source\PSoC4/CapSense_CSHL.c ****     *
1922:Generated_Source\PSoC4/CapSense_CSHL.c ****     * Summary:
1923:Generated_Source\PSoC4/CapSense_CSHL.c ****     *  Checks the CapSense_Signal[ ] array for a centroid within
1924:Generated_Source\PSoC4/CapSense_CSHL.c ****     *  a slider specified range. The centroid position is calculated according to the resolution
1925:Generated_Source\PSoC4/CapSense_CSHL.c ****     *  specified in the CapSense customizer. The position filters are applied to the
1926:Generated_Source\PSoC4/CapSense_CSHL.c ****     *  result if enabled.
1927:Generated_Source\PSoC4/CapSense_CSHL.c ****     *
1928:Generated_Source\PSoC4/CapSense_CSHL.c ****     * Parameters:
1929:Generated_Source\PSoC4/CapSense_CSHL.c ****     *  widget:  Widget number.
1930:Generated_Source\PSoC4/CapSense_CSHL.c ****     *  For every radial slider widget there are defines in this format:
1931:Generated_Source\PSoC4/CapSense_CSHL.c ****     *  #define CapSense_"widget_name"__RS           5
1932:Generated_Source\PSoC4/CapSense_CSHL.c ****     *
1933:Generated_Source\PSoC4/CapSense_CSHL.c ****     * Return:
1934:Generated_Source\PSoC4/CapSense_CSHL.c ****     *  Returns a position value of the radial slider.
1935:Generated_Source\PSoC4/CapSense_CSHL.c ****     *
1936:Generated_Source\PSoC4/CapSense_CSHL.c ****     * Global Variables:
1937:Generated_Source\PSoC4/CapSense_CSHL.c ****     *  None.
1938:Generated_Source\PSoC4/CapSense_CSHL.c ****     *
1939:Generated_Source\PSoC4/CapSense_CSHL.c ****     * Side Effects:
1940:Generated_Source\PSoC4/CapSense_CSHL.c ****     *  If any sensor within the slider widget is active, the function returns values
1941:Generated_Source\PSoC4/CapSense_CSHL.c ****     *  from zero to the API resolution value set in the CapSense customizer. If no
ARM GAS  C:\Users\poornima\AppData\Local\Temp\ccxTyVc8.s 			page 69


1942:Generated_Source\PSoC4/CapSense_CSHL.c ****     *  sensors are active, the function returns 0xFFFF.
1943:Generated_Source\PSoC4/CapSense_CSHL.c ****     *  There are no checks of the widget type argument provided to this function.
1944:Generated_Source\PSoC4/CapSense_CSHL.c ****     *  The unproper widget type provided will cause unexpected position calculations.
1945:Generated_Source\PSoC4/CapSense_CSHL.c ****     *
1946:Generated_Source\PSoC4/CapSense_CSHL.c ****     * Note:
1947:Generated_Source\PSoC4/CapSense_CSHL.c ****     *  If noise counts on the slider segments are greater than the noise
1948:Generated_Source\PSoC4/CapSense_CSHL.c ****     *  threshold, this subroutine may generate a false centroid result. The noise
1949:Generated_Source\PSoC4/CapSense_CSHL.c ****     *  threshold should be set carefully (high enough above the noise level) so
1950:Generated_Source\PSoC4/CapSense_CSHL.c ****     *  that noise will not generate a false centroid.
1951:Generated_Source\PSoC4/CapSense_CSHL.c ****     *
1952:Generated_Source\PSoC4/CapSense_CSHL.c ****     *******************************************************************************/
1953:Generated_Source\PSoC4/CapSense_CSHL.c ****      uint16 CapSense_GetRadialCentroidPos(uint32 widget)
1954:Generated_Source\PSoC4/CapSense_CSHL.c ****     {
1955:Generated_Source\PSoC4/CapSense_CSHL.c ****         #if (0u != CapSense_RADIAL_SLIDERS_POS_FILTERS_MASK)
1956:Generated_Source\PSoC4/CapSense_CSHL.c ****             uint8 posIndex;
1957:Generated_Source\PSoC4/CapSense_CSHL.c ****             uint8 firstTimeIndex = CapSense_posFiltersData[widget];
1958:Generated_Source\PSoC4/CapSense_CSHL.c ****             uint8 posFiltersMask = CapSense_posFiltersMask[widget];
1959:Generated_Source\PSoC4/CapSense_CSHL.c ****         #endif /* (0u != CapSense_RADIAL_SLIDERS_POS_FILTERS_MASK) */
1960:Generated_Source\PSoC4/CapSense_CSHL.c **** 
1961:Generated_Source\PSoC4/CapSense_CSHL.c ****         #if ((0u != (CapSense_MEDIAN_FILTER & CapSense_RADIAL_SLIDERS_POS_FILTERS_MASK)) || \
1962:Generated_Source\PSoC4/CapSense_CSHL.c ****              (0u != (CapSense_AVERAGING_FILTER & CapSense_RADIAL_SLIDERS_POS_FILTERS_MASK)))
1963:Generated_Source\PSoC4/CapSense_CSHL.c ****             uint8 tempPos;
1964:Generated_Source\PSoC4/CapSense_CSHL.c ****         #endif /* ((0u != (CapSense_MEDIAN_FILTER & CapSense_RADIAL_SLIDERS_POS_FILTERS_MASK)) || \
1965:Generated_Source\PSoC4/CapSense_CSHL.c ****                *   (0u != (CapSense_AVERAGING_FILTER & CapSense_RADIAL_SLIDERS_POS_FILTERS_MASK)))
1966:Generated_Source\PSoC4/CapSense_CSHL.c ****                */
1967:Generated_Source\PSoC4/CapSense_CSHL.c **** 
1968:Generated_Source\PSoC4/CapSense_CSHL.c ****         uint8 maximum;
1969:Generated_Source\PSoC4/CapSense_CSHL.c ****         uint16 position;
1970:Generated_Source\PSoC4/CapSense_CSHL.c ****         uint8 offset = CapSense_rawDataIndex[widget];
1971:Generated_Source\PSoC4/CapSense_CSHL.c ****         uint8 count = CapSense_numberOfSensors[widget];
1972:Generated_Source\PSoC4/CapSense_CSHL.c **** 
1973:Generated_Source\PSoC4/CapSense_CSHL.c ****         /* Find Maximum within centroid */
1974:Generated_Source\PSoC4/CapSense_CSHL.c ****         #if (CapSense_IS_DIPLEX_SLIDER)
1975:Generated_Source\PSoC4/CapSense_CSHL.c ****             maximum = CapSense_FindMaximum(offset, count, (uint8)CapSense_fingerThreshold[widget], 
1976:Generated_Source\PSoC4/CapSense_CSHL.c ****         #else
1977:Generated_Source\PSoC4/CapSense_CSHL.c ****             maximum = CapSense_FindMaximum(offset, count, (uint8)CapSense_fingerThreshold[widget]);
1978:Generated_Source\PSoC4/CapSense_CSHL.c ****         #endif /* (CapSense_IS_DIPLEX_SLIDER) */
1979:Generated_Source\PSoC4/CapSense_CSHL.c **** 
1980:Generated_Source\PSoC4/CapSense_CSHL.c ****         if (maximum != CapSense_MAXIMUM_CENTROID)
1981:Generated_Source\PSoC4/CapSense_CSHL.c ****         {
1982:Generated_Source\PSoC4/CapSense_CSHL.c ****             /* Calculate centroid */
1983:Generated_Source\PSoC4/CapSense_CSHL.c ****             position = (uint16) CapSense_CalcCentroid(maximum,
1984:Generated_Source\PSoC4/CapSense_CSHL.c ****                          offset, count, CapSense_centroidMult[widget], CapSense_noiseThreshold[widg
1985:Generated_Source\PSoC4/CapSense_CSHL.c **** 
1986:Generated_Source\PSoC4/CapSense_CSHL.c ****             #if (0u != CapSense_RADIAL_SLIDERS_POS_FILTERS_MASK)
1987:Generated_Source\PSoC4/CapSense_CSHL.c ****                 /* Check if this Radial slider has enabled filters */
1988:Generated_Source\PSoC4/CapSense_CSHL.c ****                 if (0u != (posFiltersMask & CapSense_ANY_POS_FILTER))
1989:Generated_Source\PSoC4/CapSense_CSHL.c ****                 {
1990:Generated_Source\PSoC4/CapSense_CSHL.c ****                     /* Calculate position to store filters data */
1991:Generated_Source\PSoC4/CapSense_CSHL.c ****                     posIndex  = firstTimeIndex + 1u;
1992:Generated_Source\PSoC4/CapSense_CSHL.c **** 
1993:Generated_Source\PSoC4/CapSense_CSHL.c ****                     if (0u == CapSense_posFiltersData[firstTimeIndex])
1994:Generated_Source\PSoC4/CapSense_CSHL.c ****                     {
1995:Generated_Source\PSoC4/CapSense_CSHL.c ****                         /* Init filters */
