ARM GAS  C:\Users\poornima\AppData\Local\Temp\cc7A4hnM.s 			page 1


   1              		.cpu cortex-m0
   2              		.fpu softvfp
   3              		.eabi_attribute 20, 1
   4              		.eabi_attribute 21, 1
   5              		.eabi_attribute 23, 3
   6              		.eabi_attribute 24, 1
   7              		.eabi_attribute 25, 1
   8              		.eabi_attribute 26, 1
   9              		.eabi_attribute 30, 6
  10              		.eabi_attribute 34, 0
  11              		.eabi_attribute 18, 4
  12              		.code	16
  13              		.file	"I2C_Slave_I2C.c"
  14              		.text
  15              	.Ltext0:
  16              		.cfi_sections	.debug_frame
  17              		.comm	I2C_Slave_state,1,1
  18              		.section	.text.I2C_Slave_I2CInit,"ax",%progbits
  19              		.align	2
  20              		.global	I2C_Slave_I2CInit
  21              		.code	16
  22              		.thumb_func
  23              		.type	I2C_Slave_I2CInit, %function
  24              	I2C_Slave_I2CInit:
  25              	.LFB1:
  26              		.file 1 "Generated_Source\\PSoC4\\I2C_Slave_I2C.c"
   1:Generated_Source\PSoC4/I2C_Slave_I2C.c **** /*******************************************************************************
   2:Generated_Source\PSoC4/I2C_Slave_I2C.c **** * File Name: I2C_Slave_I2C.c
   3:Generated_Source\PSoC4/I2C_Slave_I2C.c **** * Version 3.10
   4:Generated_Source\PSoC4/I2C_Slave_I2C.c **** *
   5:Generated_Source\PSoC4/I2C_Slave_I2C.c **** * Description:
   6:Generated_Source\PSoC4/I2C_Slave_I2C.c **** *  This file provides the source code to the API for the SCB Component in
   7:Generated_Source\PSoC4/I2C_Slave_I2C.c **** *  I2C mode.
   8:Generated_Source\PSoC4/I2C_Slave_I2C.c **** *
   9:Generated_Source\PSoC4/I2C_Slave_I2C.c **** * Note:
  10:Generated_Source\PSoC4/I2C_Slave_I2C.c **** *
  11:Generated_Source\PSoC4/I2C_Slave_I2C.c **** *******************************************************************************
  12:Generated_Source\PSoC4/I2C_Slave_I2C.c **** * Copyright 2013-2015, Cypress Semiconductor Corporation.  All rights reserved.
  13:Generated_Source\PSoC4/I2C_Slave_I2C.c **** * You may use this file only in accordance with the license, terms, conditions,
  14:Generated_Source\PSoC4/I2C_Slave_I2C.c **** * disclaimers, and limitations in the end user license agreement accompanying
  15:Generated_Source\PSoC4/I2C_Slave_I2C.c **** * the software package with which this file was provided.
  16:Generated_Source\PSoC4/I2C_Slave_I2C.c **** *******************************************************************************/
  17:Generated_Source\PSoC4/I2C_Slave_I2C.c **** 
  18:Generated_Source\PSoC4/I2C_Slave_I2C.c **** #include "I2C_Slave_PVT.h"
  19:Generated_Source\PSoC4/I2C_Slave_I2C.c **** #include "I2C_Slave_I2C_PVT.h"
  20:Generated_Source\PSoC4/I2C_Slave_I2C.c **** 
  21:Generated_Source\PSoC4/I2C_Slave_I2C.c **** 
  22:Generated_Source\PSoC4/I2C_Slave_I2C.c **** /***************************************
  23:Generated_Source\PSoC4/I2C_Slave_I2C.c **** *      I2C Private Vars
  24:Generated_Source\PSoC4/I2C_Slave_I2C.c **** ***************************************/
  25:Generated_Source\PSoC4/I2C_Slave_I2C.c **** 
  26:Generated_Source\PSoC4/I2C_Slave_I2C.c **** volatile uint8 I2C_Slave_state;  /* Current state of I2C FSM */
  27:Generated_Source\PSoC4/I2C_Slave_I2C.c **** 
  28:Generated_Source\PSoC4/I2C_Slave_I2C.c **** #if(I2C_Slave_SCB_MODE_UNCONFIG_CONST_CFG)
  29:Generated_Source\PSoC4/I2C_Slave_I2C.c **** 
  30:Generated_Source\PSoC4/I2C_Slave_I2C.c ****     /***************************************
  31:Generated_Source\PSoC4/I2C_Slave_I2C.c ****     *  Configuration Structure Initialization
ARM GAS  C:\Users\poornima\AppData\Local\Temp\cc7A4hnM.s 			page 2


  32:Generated_Source\PSoC4/I2C_Slave_I2C.c ****     ***************************************/
  33:Generated_Source\PSoC4/I2C_Slave_I2C.c **** 
  34:Generated_Source\PSoC4/I2C_Slave_I2C.c ****     /* Constant configuration of I2C */
  35:Generated_Source\PSoC4/I2C_Slave_I2C.c ****     const I2C_Slave_I2C_INIT_STRUCT I2C_Slave_configI2C =
  36:Generated_Source\PSoC4/I2C_Slave_I2C.c ****     {
  37:Generated_Source\PSoC4/I2C_Slave_I2C.c ****         I2C_Slave_I2C_MODE,
  38:Generated_Source\PSoC4/I2C_Slave_I2C.c ****         I2C_Slave_I2C_OVS_FACTOR_LOW,
  39:Generated_Source\PSoC4/I2C_Slave_I2C.c ****         I2C_Slave_I2C_OVS_FACTOR_HIGH,
  40:Generated_Source\PSoC4/I2C_Slave_I2C.c ****         I2C_Slave_I2C_MEDIAN_FILTER_ENABLE,
  41:Generated_Source\PSoC4/I2C_Slave_I2C.c ****         I2C_Slave_I2C_SLAVE_ADDRESS,
  42:Generated_Source\PSoC4/I2C_Slave_I2C.c ****         I2C_Slave_I2C_SLAVE_ADDRESS_MASK,
  43:Generated_Source\PSoC4/I2C_Slave_I2C.c ****         I2C_Slave_I2C_ACCEPT_ADDRESS,
  44:Generated_Source\PSoC4/I2C_Slave_I2C.c ****         I2C_Slave_I2C_WAKE_ENABLE,
  45:Generated_Source\PSoC4/I2C_Slave_I2C.c ****         I2C_Slave_I2C_BYTE_MODE_ENABLE,
  46:Generated_Source\PSoC4/I2C_Slave_I2C.c ****         I2C_Slave_I2C_DATA_RATE,
  47:Generated_Source\PSoC4/I2C_Slave_I2C.c ****         I2C_Slave_I2C_ACCEPT_GENERAL_CALL,
  48:Generated_Source\PSoC4/I2C_Slave_I2C.c ****     };
  49:Generated_Source\PSoC4/I2C_Slave_I2C.c **** 
  50:Generated_Source\PSoC4/I2C_Slave_I2C.c ****     /*******************************************************************************
  51:Generated_Source\PSoC4/I2C_Slave_I2C.c ****     * Function Name: I2C_Slave_I2CInit
  52:Generated_Source\PSoC4/I2C_Slave_I2C.c ****     ********************************************************************************
  53:Generated_Source\PSoC4/I2C_Slave_I2C.c ****     *
  54:Generated_Source\PSoC4/I2C_Slave_I2C.c ****     * Summary:
  55:Generated_Source\PSoC4/I2C_Slave_I2C.c ****     *  Configures the SCB for I2C operation.
  56:Generated_Source\PSoC4/I2C_Slave_I2C.c ****     *
  57:Generated_Source\PSoC4/I2C_Slave_I2C.c ****     * Parameters:
  58:Generated_Source\PSoC4/I2C_Slave_I2C.c ****     *  config:  Pointer to a structure that contains the following ordered list of
  59:Generated_Source\PSoC4/I2C_Slave_I2C.c ****     *           fields. These fields match the selections available in the
  60:Generated_Source\PSoC4/I2C_Slave_I2C.c ****     *           customizer.
  61:Generated_Source\PSoC4/I2C_Slave_I2C.c ****     *
  62:Generated_Source\PSoC4/I2C_Slave_I2C.c ****     * Return:
  63:Generated_Source\PSoC4/I2C_Slave_I2C.c ****     *  None
  64:Generated_Source\PSoC4/I2C_Slave_I2C.c ****     *
  65:Generated_Source\PSoC4/I2C_Slave_I2C.c ****     *******************************************************************************/
  66:Generated_Source\PSoC4/I2C_Slave_I2C.c ****     void I2C_Slave_I2CInit(const I2C_Slave_I2C_INIT_STRUCT *config)
  67:Generated_Source\PSoC4/I2C_Slave_I2C.c ****     {
  68:Generated_Source\PSoC4/I2C_Slave_I2C.c ****         uint32 medianFilter;
  69:Generated_Source\PSoC4/I2C_Slave_I2C.c ****         uint32 locEnableWake;
  70:Generated_Source\PSoC4/I2C_Slave_I2C.c **** 
  71:Generated_Source\PSoC4/I2C_Slave_I2C.c ****         if(NULL == config)
  72:Generated_Source\PSoC4/I2C_Slave_I2C.c ****         {
  73:Generated_Source\PSoC4/I2C_Slave_I2C.c ****             CYASSERT(0u != 0u); /* Halt execution due to bad function parameter */
  74:Generated_Source\PSoC4/I2C_Slave_I2C.c ****         }
  75:Generated_Source\PSoC4/I2C_Slave_I2C.c ****         else
  76:Generated_Source\PSoC4/I2C_Slave_I2C.c ****         {
  77:Generated_Source\PSoC4/I2C_Slave_I2C.c ****             /* Configure pins */
  78:Generated_Source\PSoC4/I2C_Slave_I2C.c ****             I2C_Slave_SetPins(I2C_Slave_SCB_MODE_I2C, I2C_Slave_DUMMY_PARAM,
  79:Generated_Source\PSoC4/I2C_Slave_I2C.c ****                                      I2C_Slave_DUMMY_PARAM);
  80:Generated_Source\PSoC4/I2C_Slave_I2C.c **** 
  81:Generated_Source\PSoC4/I2C_Slave_I2C.c ****             /* Store internal configuration */
  82:Generated_Source\PSoC4/I2C_Slave_I2C.c ****             I2C_Slave_scbMode       = (uint8) I2C_Slave_SCB_MODE_I2C;
  83:Generated_Source\PSoC4/I2C_Slave_I2C.c ****             I2C_Slave_scbEnableWake = (uint8) config->enableWake;
  84:Generated_Source\PSoC4/I2C_Slave_I2C.c ****             I2C_Slave_scbEnableIntr = (uint8) I2C_Slave_SCB_IRQ_INTERNAL;
  85:Generated_Source\PSoC4/I2C_Slave_I2C.c **** 
  86:Generated_Source\PSoC4/I2C_Slave_I2C.c ****             I2C_Slave_mode          = (uint8) config->mode;
  87:Generated_Source\PSoC4/I2C_Slave_I2C.c ****             I2C_Slave_acceptAddr    = (uint8) config->acceptAddr;
  88:Generated_Source\PSoC4/I2C_Slave_I2C.c **** 
ARM GAS  C:\Users\poornima\AppData\Local\Temp\cc7A4hnM.s 			page 3


  89:Generated_Source\PSoC4/I2C_Slave_I2C.c ****         #if (I2C_Slave_CY_SCBIP_V0)
  90:Generated_Source\PSoC4/I2C_Slave_I2C.c ****             /* Adjust SDA filter settings. Ticket ID#150521 */
  91:Generated_Source\PSoC4/I2C_Slave_I2C.c ****             I2C_Slave_SET_I2C_CFG_SDA_FILT_TRIM(I2C_Slave_EC_AM_I2C_CFG_SDA_FILT_TRIM);
  92:Generated_Source\PSoC4/I2C_Slave_I2C.c ****         #endif /* (I2C_Slave_CY_SCBIP_V0) */
  93:Generated_Source\PSoC4/I2C_Slave_I2C.c **** 
  94:Generated_Source\PSoC4/I2C_Slave_I2C.c ****             /* Adjust AF and DF filter settings. Ticket ID#176179 */
  95:Generated_Source\PSoC4/I2C_Slave_I2C.c ****             if (((I2C_Slave_I2C_MODE_SLAVE != config->mode) &&
  96:Generated_Source\PSoC4/I2C_Slave_I2C.c ****                  (config->dataRate <= I2C_Slave_I2C_DATA_RATE_FS_MODE_MAX)) ||
  97:Generated_Source\PSoC4/I2C_Slave_I2C.c ****                  (I2C_Slave_I2C_MODE_SLAVE == config->mode))
  98:Generated_Source\PSoC4/I2C_Slave_I2C.c ****             {
  99:Generated_Source\PSoC4/I2C_Slave_I2C.c ****                 /* AF = 1, DF = 0 */
 100:Generated_Source\PSoC4/I2C_Slave_I2C.c ****                 I2C_Slave_I2C_CFG_ANALOG_FITER_ENABLE;
 101:Generated_Source\PSoC4/I2C_Slave_I2C.c ****                 medianFilter = I2C_Slave_DIGITAL_FILTER_DISABLE;
 102:Generated_Source\PSoC4/I2C_Slave_I2C.c ****             }
 103:Generated_Source\PSoC4/I2C_Slave_I2C.c ****             else
 104:Generated_Source\PSoC4/I2C_Slave_I2C.c ****             {
 105:Generated_Source\PSoC4/I2C_Slave_I2C.c ****                 /* AF = 0, DF = 1 */
 106:Generated_Source\PSoC4/I2C_Slave_I2C.c ****                 I2C_Slave_I2C_CFG_ANALOG_FITER_DISABLE;
 107:Generated_Source\PSoC4/I2C_Slave_I2C.c ****                 medianFilter = I2C_Slave_DIGITAL_FILTER_ENABLE;
 108:Generated_Source\PSoC4/I2C_Slave_I2C.c ****             }
 109:Generated_Source\PSoC4/I2C_Slave_I2C.c **** 
 110:Generated_Source\PSoC4/I2C_Slave_I2C.c ****         #if (!I2C_Slave_CY_SCBIP_V0)
 111:Generated_Source\PSoC4/I2C_Slave_I2C.c ****             locEnableWake = (I2C_Slave_I2C_MULTI_MASTER_SLAVE) ? (0u) : (config->enableWake);
 112:Generated_Source\PSoC4/I2C_Slave_I2C.c ****         #else
 113:Generated_Source\PSoC4/I2C_Slave_I2C.c ****             locEnableWake = config->enableWake;
 114:Generated_Source\PSoC4/I2C_Slave_I2C.c ****         #endif /* (!I2C_Slave_CY_SCBIP_V0) */
 115:Generated_Source\PSoC4/I2C_Slave_I2C.c **** 
 116:Generated_Source\PSoC4/I2C_Slave_I2C.c ****             /* Configure I2C interface */
 117:Generated_Source\PSoC4/I2C_Slave_I2C.c ****             I2C_Slave_CTRL_REG     = I2C_Slave_GET_CTRL_BYTE_MODE  (config->enableByteMode) |
 118:Generated_Source\PSoC4/I2C_Slave_I2C.c ****                                             I2C_Slave_GET_CTRL_ADDR_ACCEPT(config->acceptAddr)     
 119:Generated_Source\PSoC4/I2C_Slave_I2C.c ****                                             I2C_Slave_GET_CTRL_EC_AM_MODE (locEnableWake);
 120:Generated_Source\PSoC4/I2C_Slave_I2C.c **** 
 121:Generated_Source\PSoC4/I2C_Slave_I2C.c ****             I2C_Slave_I2C_CTRL_REG = I2C_Slave_GET_I2C_CTRL_HIGH_PHASE_OVS(config->oversampleHigh) 
 122:Generated_Source\PSoC4/I2C_Slave_I2C.c ****                     I2C_Slave_GET_I2C_CTRL_LOW_PHASE_OVS (config->oversampleLow)                   
 123:Generated_Source\PSoC4/I2C_Slave_I2C.c ****                     I2C_Slave_GET_I2C_CTRL_S_GENERAL_IGNORE((uint32)(0u == config->acceptGeneralAdd
 124:Generated_Source\PSoC4/I2C_Slave_I2C.c ****                     I2C_Slave_GET_I2C_CTRL_SL_MSTR_MODE  (config->mode);
 125:Generated_Source\PSoC4/I2C_Slave_I2C.c **** 
 126:Generated_Source\PSoC4/I2C_Slave_I2C.c ****             /* Configure RX direction */
 127:Generated_Source\PSoC4/I2C_Slave_I2C.c ****             I2C_Slave_RX_CTRL_REG      = I2C_Slave_GET_RX_CTRL_MEDIAN(medianFilter) |
 128:Generated_Source\PSoC4/I2C_Slave_I2C.c ****                                                 I2C_Slave_I2C_RX_CTRL;
 129:Generated_Source\PSoC4/I2C_Slave_I2C.c ****             I2C_Slave_RX_FIFO_CTRL_REG = I2C_Slave_CLEAR_REG;
 130:Generated_Source\PSoC4/I2C_Slave_I2C.c **** 
 131:Generated_Source\PSoC4/I2C_Slave_I2C.c ****             /* Set default address and mask */
 132:Generated_Source\PSoC4/I2C_Slave_I2C.c ****             I2C_Slave_RX_MATCH_REG    = ((I2C_Slave_I2C_SLAVE) ?
 133:Generated_Source\PSoC4/I2C_Slave_I2C.c ****                                                 (I2C_Slave_GET_I2C_8BIT_ADDRESS(config->slaveAddr) 
 134:Generated_Source\PSoC4/I2C_Slave_I2C.c ****                                                  I2C_Slave_GET_RX_MATCH_MASK(config->slaveAddrMask)
 135:Generated_Source\PSoC4/I2C_Slave_I2C.c ****                                                 (I2C_Slave_CLEAR_REG));
 136:Generated_Source\PSoC4/I2C_Slave_I2C.c **** 
 137:Generated_Source\PSoC4/I2C_Slave_I2C.c **** 
 138:Generated_Source\PSoC4/I2C_Slave_I2C.c ****             /* Configure TX direction */
 139:Generated_Source\PSoC4/I2C_Slave_I2C.c ****             I2C_Slave_TX_CTRL_REG      = I2C_Slave_I2C_TX_CTRL;
 140:Generated_Source\PSoC4/I2C_Slave_I2C.c ****             I2C_Slave_TX_FIFO_CTRL_REG = I2C_Slave_CLEAR_REG;
 141:Generated_Source\PSoC4/I2C_Slave_I2C.c **** 
 142:Generated_Source\PSoC4/I2C_Slave_I2C.c ****             /* Configure interrupt with I2C handler but do not enable it */
 143:Generated_Source\PSoC4/I2C_Slave_I2C.c ****             CyIntDisable    (I2C_Slave_ISR_NUMBER);
 144:Generated_Source\PSoC4/I2C_Slave_I2C.c ****             CyIntSetPriority(I2C_Slave_ISR_NUMBER, I2C_Slave_ISR_PRIORITY);
 145:Generated_Source\PSoC4/I2C_Slave_I2C.c ****             (void) CyIntSetVector(I2C_Slave_ISR_NUMBER, &I2C_Slave_I2C_ISR);
ARM GAS  C:\Users\poornima\AppData\Local\Temp\cc7A4hnM.s 			page 4


 146:Generated_Source\PSoC4/I2C_Slave_I2C.c **** 
 147:Generated_Source\PSoC4/I2C_Slave_I2C.c ****             /* Configure interrupt sources */
 148:Generated_Source\PSoC4/I2C_Slave_I2C.c ****         #if(!I2C_Slave_CY_SCBIP_V1)
 149:Generated_Source\PSoC4/I2C_Slave_I2C.c ****             I2C_Slave_INTR_SPI_EC_MASK_REG = I2C_Slave_NO_INTR_SOURCES;
 150:Generated_Source\PSoC4/I2C_Slave_I2C.c ****         #endif /* (!I2C_Slave_CY_SCBIP_V1) */
 151:Generated_Source\PSoC4/I2C_Slave_I2C.c **** 
 152:Generated_Source\PSoC4/I2C_Slave_I2C.c ****             I2C_Slave_INTR_I2C_EC_MASK_REG = I2C_Slave_NO_INTR_SOURCES;
 153:Generated_Source\PSoC4/I2C_Slave_I2C.c ****             I2C_Slave_INTR_RX_MASK_REG     = I2C_Slave_NO_INTR_SOURCES;
 154:Generated_Source\PSoC4/I2C_Slave_I2C.c ****             I2C_Slave_INTR_TX_MASK_REG     = I2C_Slave_NO_INTR_SOURCES;
 155:Generated_Source\PSoC4/I2C_Slave_I2C.c **** 
 156:Generated_Source\PSoC4/I2C_Slave_I2C.c ****             I2C_Slave_INTR_SLAVE_MASK_REG  = ((I2C_Slave_I2C_SLAVE) ?
 157:Generated_Source\PSoC4/I2C_Slave_I2C.c ****                             (I2C_Slave_GET_INTR_SLAVE_I2C_GENERAL(config->acceptGeneralAddr) |
 158:Generated_Source\PSoC4/I2C_Slave_I2C.c ****                              I2C_Slave_I2C_INTR_SLAVE_MASK) : (I2C_Slave_CLEAR_REG));
 159:Generated_Source\PSoC4/I2C_Slave_I2C.c **** 
 160:Generated_Source\PSoC4/I2C_Slave_I2C.c ****             I2C_Slave_INTR_MASTER_MASK_REG = ((I2C_Slave_I2C_MASTER) ?
 161:Generated_Source\PSoC4/I2C_Slave_I2C.c ****                                                      (I2C_Slave_I2C_INTR_MASTER_MASK) :
 162:Generated_Source\PSoC4/I2C_Slave_I2C.c ****                                                      (I2C_Slave_CLEAR_REG));
 163:Generated_Source\PSoC4/I2C_Slave_I2C.c **** 
 164:Generated_Source\PSoC4/I2C_Slave_I2C.c ****             /* Configure global variables */
 165:Generated_Source\PSoC4/I2C_Slave_I2C.c ****             I2C_Slave_state = I2C_Slave_I2C_FSM_IDLE;
 166:Generated_Source\PSoC4/I2C_Slave_I2C.c **** 
 167:Generated_Source\PSoC4/I2C_Slave_I2C.c ****             /* Internal slave variables */
 168:Generated_Source\PSoC4/I2C_Slave_I2C.c ****             I2C_Slave_slStatus        = 0u;
 169:Generated_Source\PSoC4/I2C_Slave_I2C.c ****             I2C_Slave_slRdBufIndex    = 0u;
 170:Generated_Source\PSoC4/I2C_Slave_I2C.c ****             I2C_Slave_slWrBufIndex    = 0u;
 171:Generated_Source\PSoC4/I2C_Slave_I2C.c ****             I2C_Slave_slOverFlowCount = 0u;
 172:Generated_Source\PSoC4/I2C_Slave_I2C.c **** 
 173:Generated_Source\PSoC4/I2C_Slave_I2C.c ****             /* Internal master variables */
 174:Generated_Source\PSoC4/I2C_Slave_I2C.c ****             I2C_Slave_mstrStatus     = 0u;
 175:Generated_Source\PSoC4/I2C_Slave_I2C.c ****             I2C_Slave_mstrRdBufIndex = 0u;
 176:Generated_Source\PSoC4/I2C_Slave_I2C.c ****             I2C_Slave_mstrWrBufIndex = 0u;
 177:Generated_Source\PSoC4/I2C_Slave_I2C.c ****         }
 178:Generated_Source\PSoC4/I2C_Slave_I2C.c ****     }
 179:Generated_Source\PSoC4/I2C_Slave_I2C.c **** 
 180:Generated_Source\PSoC4/I2C_Slave_I2C.c **** #else
 181:Generated_Source\PSoC4/I2C_Slave_I2C.c **** 
 182:Generated_Source\PSoC4/I2C_Slave_I2C.c ****     /*******************************************************************************
 183:Generated_Source\PSoC4/I2C_Slave_I2C.c ****     * Function Name: I2C_Slave_I2CInit
 184:Generated_Source\PSoC4/I2C_Slave_I2C.c ****     ********************************************************************************
 185:Generated_Source\PSoC4/I2C_Slave_I2C.c ****     *
 186:Generated_Source\PSoC4/I2C_Slave_I2C.c ****     * Summary:
 187:Generated_Source\PSoC4/I2C_Slave_I2C.c ****     *  Configures the SCB for the I2C operation.
 188:Generated_Source\PSoC4/I2C_Slave_I2C.c ****     *
 189:Generated_Source\PSoC4/I2C_Slave_I2C.c ****     * Parameters:
 190:Generated_Source\PSoC4/I2C_Slave_I2C.c ****     *  None
 191:Generated_Source\PSoC4/I2C_Slave_I2C.c ****     *
 192:Generated_Source\PSoC4/I2C_Slave_I2C.c ****     * Return:
 193:Generated_Source\PSoC4/I2C_Slave_I2C.c ****     *  None
 194:Generated_Source\PSoC4/I2C_Slave_I2C.c ****     *
 195:Generated_Source\PSoC4/I2C_Slave_I2C.c ****     *******************************************************************************/
 196:Generated_Source\PSoC4/I2C_Slave_I2C.c ****     void I2C_Slave_I2CInit(void)
 197:Generated_Source\PSoC4/I2C_Slave_I2C.c ****     {
  27              		.loc 1 197 0
  28              		.cfi_startproc
  29 0000 80B5     		push	{r7, lr}
  30              		.cfi_def_cfa_offset 8
  31              		.cfi_offset 7, -8
ARM GAS  C:\Users\poornima\AppData\Local\Temp\cc7A4hnM.s 			page 5


  32              		.cfi_offset 14, -4
  33 0002 00AF     		add	r7, sp, #0
  34              		.cfi_def_cfa_register 7
 198:Generated_Source\PSoC4/I2C_Slave_I2C.c ****     #if(I2C_Slave_CY_SCBIP_V0)
 199:Generated_Source\PSoC4/I2C_Slave_I2C.c ****         /* Adjust SDA filter settings. Ticket ID#150521 */
 200:Generated_Source\PSoC4/I2C_Slave_I2C.c ****         I2C_Slave_SET_I2C_CFG_SDA_FILT_TRIM(I2C_Slave_EC_AM_I2C_CFG_SDA_FILT_TRIM);
 201:Generated_Source\PSoC4/I2C_Slave_I2C.c ****     #endif /* (I2C_Slave_CY_SCBIP_V0) */
 202:Generated_Source\PSoC4/I2C_Slave_I2C.c **** 
 203:Generated_Source\PSoC4/I2C_Slave_I2C.c ****         /* Adjust AF and DF filter settings. Ticket ID#176179 */
 204:Generated_Source\PSoC4/I2C_Slave_I2C.c ****         I2C_Slave_I2C_CFG_ANALOG_FITER_ENABLE_ADJ;
 205:Generated_Source\PSoC4/I2C_Slave_I2C.c **** 
 206:Generated_Source\PSoC4/I2C_Slave_I2C.c ****         /* Configure I2C interface */
 207:Generated_Source\PSoC4/I2C_Slave_I2C.c ****         I2C_Slave_CTRL_REG     = I2C_Slave_I2C_DEFAULT_CTRL;
  35              		.loc 1 207 0
  36 0004 224B     		ldr	r3, .L2
  37 0006 0022     		mov	r2, #0
  38 0008 1A60     		str	r2, [r3]
 208:Generated_Source\PSoC4/I2C_Slave_I2C.c ****         I2C_Slave_I2C_CTRL_REG = I2C_Slave_I2C_DEFAULT_I2C_CTRL;
  39              		.loc 1 208 0
  40 000a 224B     		ldr	r3, .L2+4
  41 000c 224A     		ldr	r2, .L2+8
  42 000e 1A60     		str	r2, [r3]
 209:Generated_Source\PSoC4/I2C_Slave_I2C.c **** 
 210:Generated_Source\PSoC4/I2C_Slave_I2C.c ****         /* Configure RX direction */
 211:Generated_Source\PSoC4/I2C_Slave_I2C.c ****         I2C_Slave_RX_CTRL_REG      = I2C_Slave_I2C_DEFAULT_RX_CTRL;
  43              		.loc 1 211 0
  44 0010 224B     		ldr	r3, .L2+12
  45 0012 234A     		ldr	r2, .L2+16
  46 0014 1A60     		str	r2, [r3]
 212:Generated_Source\PSoC4/I2C_Slave_I2C.c ****         I2C_Slave_RX_FIFO_CTRL_REG = I2C_Slave_I2C_DEFAULT_RX_FIFO_CTRL;
  47              		.loc 1 212 0
  48 0016 234B     		ldr	r3, .L2+20
  49 0018 0022     		mov	r2, #0
  50 001a 1A60     		str	r2, [r3]
 213:Generated_Source\PSoC4/I2C_Slave_I2C.c **** 
 214:Generated_Source\PSoC4/I2C_Slave_I2C.c ****         /* Set default address and mask */
 215:Generated_Source\PSoC4/I2C_Slave_I2C.c ****         I2C_Slave_RX_MATCH_REG     = I2C_Slave_I2C_DEFAULT_RX_MATCH;
  51              		.loc 1 215 0
  52 001c 224B     		ldr	r3, .L2+24
  53 001e 234A     		ldr	r2, .L2+28
  54 0020 1A60     		str	r2, [r3]
 216:Generated_Source\PSoC4/I2C_Slave_I2C.c **** 
 217:Generated_Source\PSoC4/I2C_Slave_I2C.c ****         /* Configure TX direction */
 218:Generated_Source\PSoC4/I2C_Slave_I2C.c ****         I2C_Slave_TX_CTRL_REG      = I2C_Slave_I2C_DEFAULT_TX_CTRL;
  55              		.loc 1 218 0
  56 0022 234B     		ldr	r3, .L2+32
  57 0024 1E4A     		ldr	r2, .L2+16
  58 0026 1A60     		str	r2, [r3]
 219:Generated_Source\PSoC4/I2C_Slave_I2C.c ****         I2C_Slave_TX_FIFO_CTRL_REG = I2C_Slave_I2C_DEFAULT_TX_FIFO_CTRL;
  59              		.loc 1 219 0
  60 0028 224B     		ldr	r3, .L2+36
  61 002a 0022     		mov	r2, #0
  62 002c 1A60     		str	r2, [r3]
 220:Generated_Source\PSoC4/I2C_Slave_I2C.c **** 
 221:Generated_Source\PSoC4/I2C_Slave_I2C.c ****         /* Configure interrupt with I2C handler but do not enable it */
 222:Generated_Source\PSoC4/I2C_Slave_I2C.c ****         CyIntDisable    (I2C_Slave_ISR_NUMBER);
  63              		.loc 1 222 0
ARM GAS  C:\Users\poornima\AppData\Local\Temp\cc7A4hnM.s 			page 6


  64 002e 0820     		mov	r0, #8
  65 0030 FFF7FEFF 		bl	CyIntDisable
 223:Generated_Source\PSoC4/I2C_Slave_I2C.c ****         CyIntSetPriority(I2C_Slave_ISR_NUMBER, I2C_Slave_ISR_PRIORITY);
  66              		.loc 1 223 0
  67 0034 0820     		mov	r0, #8
  68 0036 0321     		mov	r1, #3
  69 0038 FFF7FEFF 		bl	CyIntSetPriority
 224:Generated_Source\PSoC4/I2C_Slave_I2C.c ****     #if(!I2C_Slave_I2C_EXTERN_INTR_HANDLER)
 225:Generated_Source\PSoC4/I2C_Slave_I2C.c ****         (void) CyIntSetVector(I2C_Slave_ISR_NUMBER, &I2C_Slave_I2C_ISR);
  70              		.loc 1 225 0
  71 003c 1E4B     		ldr	r3, .L2+40
  72 003e 0820     		mov	r0, #8
  73 0040 191C     		mov	r1, r3
  74 0042 FFF7FEFF 		bl	CyIntSetVector
 226:Generated_Source\PSoC4/I2C_Slave_I2C.c ****     #endif /* (I2C_Slave_I2C_EXTERN_INTR_HANDLER) */
 227:Generated_Source\PSoC4/I2C_Slave_I2C.c **** 
 228:Generated_Source\PSoC4/I2C_Slave_I2C.c ****         /* Configure interrupt sources */
 229:Generated_Source\PSoC4/I2C_Slave_I2C.c ****     #if(!I2C_Slave_CY_SCBIP_V1)
 230:Generated_Source\PSoC4/I2C_Slave_I2C.c ****         I2C_Slave_INTR_SPI_EC_MASK_REG = I2C_Slave_I2C_DEFAULT_INTR_SPI_EC_MASK;
  75              		.loc 1 230 0
  76 0046 1D4B     		ldr	r3, .L2+44
  77 0048 0022     		mov	r2, #0
  78 004a 1A60     		str	r2, [r3]
 231:Generated_Source\PSoC4/I2C_Slave_I2C.c ****     #endif /* (!I2C_Slave_CY_SCBIP_V1) */
 232:Generated_Source\PSoC4/I2C_Slave_I2C.c **** 
 233:Generated_Source\PSoC4/I2C_Slave_I2C.c ****         I2C_Slave_INTR_I2C_EC_MASK_REG = I2C_Slave_I2C_DEFAULT_INTR_I2C_EC_MASK;
  79              		.loc 1 233 0
  80 004c 1C4B     		ldr	r3, .L2+48
  81 004e 0022     		mov	r2, #0
  82 0050 1A60     		str	r2, [r3]
 234:Generated_Source\PSoC4/I2C_Slave_I2C.c ****         I2C_Slave_INTR_SLAVE_MASK_REG  = I2C_Slave_I2C_DEFAULT_INTR_SLAVE_MASK;
  83              		.loc 1 234 0
  84 0052 1C4B     		ldr	r3, .L2+52
  85 0054 4C22     		mov	r2, #76
  86 0056 FF32     		add	r2, r2, #255
  87 0058 1A60     		str	r2, [r3]
 235:Generated_Source\PSoC4/I2C_Slave_I2C.c ****         I2C_Slave_INTR_MASTER_MASK_REG = I2C_Slave_I2C_DEFAULT_INTR_MASTER_MASK;
  88              		.loc 1 235 0
  89 005a 1B4B     		ldr	r3, .L2+56
  90 005c 0022     		mov	r2, #0
  91 005e 1A60     		str	r2, [r3]
 236:Generated_Source\PSoC4/I2C_Slave_I2C.c ****         I2C_Slave_INTR_RX_MASK_REG     = I2C_Slave_I2C_DEFAULT_INTR_RX_MASK;
  92              		.loc 1 236 0
  93 0060 1A4B     		ldr	r3, .L2+60
  94 0062 0022     		mov	r2, #0
  95 0064 1A60     		str	r2, [r3]
 237:Generated_Source\PSoC4/I2C_Slave_I2C.c ****         I2C_Slave_INTR_TX_MASK_REG     = I2C_Slave_I2C_DEFAULT_INTR_TX_MASK;
  96              		.loc 1 237 0
  97 0066 1A4B     		ldr	r3, .L2+64
  98 0068 0022     		mov	r2, #0
  99 006a 1A60     		str	r2, [r3]
 238:Generated_Source\PSoC4/I2C_Slave_I2C.c **** 
 239:Generated_Source\PSoC4/I2C_Slave_I2C.c ****         /* Configure global variables */
 240:Generated_Source\PSoC4/I2C_Slave_I2C.c ****         I2C_Slave_state = I2C_Slave_I2C_FSM_IDLE;
 100              		.loc 1 240 0
 101 006c 194B     		ldr	r3, .L2+68
 102 006e 1022     		mov	r2, #16
ARM GAS  C:\Users\poornima\AppData\Local\Temp\cc7A4hnM.s 			page 7


 103 0070 1A70     		strb	r2, [r3]
 241:Generated_Source\PSoC4/I2C_Slave_I2C.c **** 
 242:Generated_Source\PSoC4/I2C_Slave_I2C.c ****     #if(I2C_Slave_I2C_SLAVE)
 243:Generated_Source\PSoC4/I2C_Slave_I2C.c ****         /* Internal slave variable */
 244:Generated_Source\PSoC4/I2C_Slave_I2C.c ****         I2C_Slave_slStatus        = 0u;
 104              		.loc 1 244 0
 105 0072 194B     		ldr	r3, .L2+72
 106 0074 0022     		mov	r2, #0
 107 0076 1A70     		strb	r2, [r3]
 245:Generated_Source\PSoC4/I2C_Slave_I2C.c ****         I2C_Slave_slRdBufIndex    = 0u;
 108              		.loc 1 245 0
 109 0078 184B     		ldr	r3, .L2+76
 110 007a 0022     		mov	r2, #0
 111 007c 1A60     		str	r2, [r3]
 246:Generated_Source\PSoC4/I2C_Slave_I2C.c ****         I2C_Slave_slWrBufIndex    = 0u;
 112              		.loc 1 246 0
 113 007e 184B     		ldr	r3, .L2+80
 114 0080 0022     		mov	r2, #0
 115 0082 1A60     		str	r2, [r3]
 247:Generated_Source\PSoC4/I2C_Slave_I2C.c ****         I2C_Slave_slOverFlowCount = 0u;
 116              		.loc 1 247 0
 117 0084 174B     		ldr	r3, .L2+84
 118 0086 0022     		mov	r2, #0
 119 0088 1A70     		strb	r2, [r3]
 248:Generated_Source\PSoC4/I2C_Slave_I2C.c ****     #endif /* (I2C_Slave_I2C_SLAVE) */
 249:Generated_Source\PSoC4/I2C_Slave_I2C.c **** 
 250:Generated_Source\PSoC4/I2C_Slave_I2C.c ****     #if(I2C_Slave_I2C_MASTER)
 251:Generated_Source\PSoC4/I2C_Slave_I2C.c ****     /* Internal master variable */
 252:Generated_Source\PSoC4/I2C_Slave_I2C.c ****         I2C_Slave_mstrStatus     = 0u;
 253:Generated_Source\PSoC4/I2C_Slave_I2C.c ****         I2C_Slave_mstrRdBufIndex = 0u;
 254:Generated_Source\PSoC4/I2C_Slave_I2C.c ****         I2C_Slave_mstrWrBufIndex = 0u;
 255:Generated_Source\PSoC4/I2C_Slave_I2C.c ****     #endif /* (I2C_Slave_I2C_MASTER) */
 256:Generated_Source\PSoC4/I2C_Slave_I2C.c ****     }
 120              		.loc 1 256 0
 121 008a BD46     		mov	sp, r7
 122              		@ sp needed
 123 008c 80BD     		pop	{r7, pc}
 124              	.L3:
 125 008e C046     		.align	2
 126              	.L2:
 127 0090 00002440 		.word	1076101120
 128 0094 60002440 		.word	1076101216
 129 0098 77080040 		.word	1073743991
 130 009c 00032440 		.word	1076101888
 131 00a0 07010080 		.word	-2147483385
 132 00a4 04032440 		.word	1076101892
 133 00a8 10032440 		.word	1076101904
 134 00ac 1000FE00 		.word	16646160
 135 00b0 00022440 		.word	1076101632
 136 00b4 04022440 		.word	1076101636
 137 00b8 00000000 		.word	I2C_Slave_I2C_ISR
 138 00bc C80E2440 		.word	1076104904
 139 00c0 880E2440 		.word	1076104840
 140 00c4 480F2440 		.word	1076105032
 141 00c8 080F2440 		.word	1076104968
 142 00cc C80F2440 		.word	1076105160
 143 00d0 880F2440 		.word	1076105096
ARM GAS  C:\Users\poornima\AppData\Local\Temp\cc7A4hnM.s 			page 8


 144 00d4 00000000 		.word	I2C_Slave_state
 145 00d8 00000000 		.word	I2C_Slave_slStatus
 146 00dc 00000000 		.word	I2C_Slave_slRdBufIndex
 147 00e0 00000000 		.word	I2C_Slave_slWrBufIndex
 148 00e4 00000000 		.word	I2C_Slave_slOverFlowCount
 149              		.cfi_endproc
 150              	.LFE1:
 151              		.size	I2C_Slave_I2CInit, .-I2C_Slave_I2CInit
 152              		.section	.text.I2C_Slave_I2CStop,"ax",%progbits
 153              		.align	2
 154              		.global	I2C_Slave_I2CStop
 155              		.code	16
 156              		.thumb_func
 157              		.type	I2C_Slave_I2CStop, %function
 158              	I2C_Slave_I2CStop:
 159              	.LFB2:
 257:Generated_Source\PSoC4/I2C_Slave_I2C.c **** #endif /* (I2C_Slave_SCB_MODE_UNCONFIG_CONST_CFG) */
 258:Generated_Source\PSoC4/I2C_Slave_I2C.c **** 
 259:Generated_Source\PSoC4/I2C_Slave_I2C.c **** 
 260:Generated_Source\PSoC4/I2C_Slave_I2C.c **** /*******************************************************************************
 261:Generated_Source\PSoC4/I2C_Slave_I2C.c **** * Function Name: I2C_Slave_I2CStop
 262:Generated_Source\PSoC4/I2C_Slave_I2C.c **** ********************************************************************************
 263:Generated_Source\PSoC4/I2C_Slave_I2C.c **** *
 264:Generated_Source\PSoC4/I2C_Slave_I2C.c **** * Summary:
 265:Generated_Source\PSoC4/I2C_Slave_I2C.c **** *  Resets the I2C FSM into the default state.
 266:Generated_Source\PSoC4/I2C_Slave_I2C.c **** *
 267:Generated_Source\PSoC4/I2C_Slave_I2C.c **** * Parameters:
 268:Generated_Source\PSoC4/I2C_Slave_I2C.c **** *  None
 269:Generated_Source\PSoC4/I2C_Slave_I2C.c **** *
 270:Generated_Source\PSoC4/I2C_Slave_I2C.c **** * Return:
 271:Generated_Source\PSoC4/I2C_Slave_I2C.c **** *  None
 272:Generated_Source\PSoC4/I2C_Slave_I2C.c **** *
 273:Generated_Source\PSoC4/I2C_Slave_I2C.c **** *******************************************************************************/
 274:Generated_Source\PSoC4/I2C_Slave_I2C.c **** void I2C_Slave_I2CStop(void)
 275:Generated_Source\PSoC4/I2C_Slave_I2C.c **** {
 160              		.loc 1 275 0
 161              		.cfi_startproc
 162 0000 80B5     		push	{r7, lr}
 163              		.cfi_def_cfa_offset 8
 164              		.cfi_offset 7, -8
 165              		.cfi_offset 14, -4
 166 0002 00AF     		add	r7, sp, #0
 167              		.cfi_def_cfa_register 7
 276:Generated_Source\PSoC4/I2C_Slave_I2C.c ****     I2C_Slave_state = I2C_Slave_I2C_FSM_IDLE;
 168              		.loc 1 276 0
 169 0004 024B     		ldr	r3, .L5
 170 0006 1022     		mov	r2, #16
 171 0008 1A70     		strb	r2, [r3]
 277:Generated_Source\PSoC4/I2C_Slave_I2C.c **** }
 172              		.loc 1 277 0
 173 000a BD46     		mov	sp, r7
 174              		@ sp needed
 175 000c 80BD     		pop	{r7, pc}
 176              	.L6:
 177 000e C046     		.align	2
 178              	.L5:
 179 0010 00000000 		.word	I2C_Slave_state
ARM GAS  C:\Users\poornima\AppData\Local\Temp\cc7A4hnM.s 			page 9


 180              		.cfi_endproc
 181              	.LFE2:
 182              		.size	I2C_Slave_I2CStop, .-I2C_Slave_I2CStop
 183              		.text
 184              	.Letext0:
 185              		.file 2 "Generated_Source\\PSoC4/cytypes.h"
 186              		.file 3 "Generated_Source\\PSoC4\\I2C_Slave_I2C_PVT.h"