ARM GAS  C:\Users\poornima\AppData\Local\Temp\cc8JrzsS.s 			page 1


   1              		.cpu cortex-m0
   2              		.fpu softvfp
   3              		.eabi_attribute 20, 1
   4              		.eabi_attribute 21, 1
   5              		.eabi_attribute 23, 3
   6              		.eabi_attribute 24, 1
   7              		.eabi_attribute 25, 1
   8              		.eabi_attribute 26, 1
   9              		.eabi_attribute 30, 6
  10              		.eabi_attribute 34, 0
  11              		.eabi_attribute 18, 4
  12              		.code	16
  13              		.file	"main.c"
  14              		.text
  15              	.Ltext0:
  16              		.cfi_sections	.debug_frame
  17              		.global	cache
  18              		.bss
  19              		.align	2
  20              		.type	cache, %object
  21              		.size	cache, 128
  22              	cache:
  23 0000 00000000 		.space	128
  23      00000000 
  23      00000000 
  23      00000000 
  23      00000000 
  24              		.global	update
  25              		.align	2
  26              		.type	update, %object
  27              		.size	update, 128
  28              	update:
  29 0080 00000000 		.space	128
  29      00000000 
  29      00000000 
  29      00000000 
  29      00000000 
  30              		.comm	but1,4,4
  31              		.comm	but2,4,4
  32              		.comm	but3,4,4
  33              		.comm	but4,4,4
  34              		.comm	but5,4,4
  35              		.comm	but6,4,4
  36              		.comm	but7,4,4
  37              		.comm	but8,4,4
  38              		.comm	oldBut1,4,4
  39              		.comm	oldBut2,4,4
  40              		.comm	oldBut3,4,4
  41              		.comm	oldBut4,4,4
  42              		.comm	oldBut5,4,4
  43              		.comm	oldBut6,4,4
  44              		.comm	oldBut7,4,4
  45              		.comm	oldBut8,4,4
  46              		.comm	temp1,1,1
  47              		.comm	temp2,1,1
  48              		.comm	temp3,1,1
  49              		.comm	temp4,1,1
ARM GAS  C:\Users\poornima\AppData\Local\Temp\cc8JrzsS.s 			page 2


  50              		.comm	temp5,1,1
  51              		.comm	temp6,1,1
  52              		.comm	temp7,1,1
  53              		.comm	temp8,1,1
  54              		.global	compare
  55              		.data
  56              		.align	2
  57              		.type	compare, %object
  58              		.size	compare, 2
  59              	compare:
  60 0000 52       		.byte	82
  61 0001 44       		.byte	68
  62              		.comm	i2cReadBuffer,2,4
  63              		.comm	i2cWriteBuffer,4,4
  64 0002 0000     		.section	.rodata
  65              		.align	2
  66              	.LC3:
  67 0000 4D61696E 		.ascii	"Main Loop Started \012\000"
  67      204C6F6F 
  67      70205374 
  67      61727465 
  67      64200A00 
  68              		.align	2
  69              	.LC5:
  70 0014 696E7369 		.ascii	"inside I2C_Slave_I2CSlaveStatus \012\000"
  70      64652049 
  70      32435F53 
  70      6C617665 
  70      5F493243 
  71 0036 0000     		.align	2
  72              	.LC7:
  73 0038 696E7369 		.ascii	"inside I2C_Slave_I2CSlaveGetWriteBufSize \012\000"
  73      64652049 
  73      32435F53 
  73      6C617665 
  73      5F493243 
  74              		.section	.text.main,"ax",%progbits
  75              		.align	2
  76              		.global	main
  77              		.code	16
  78              		.thumb_func
  79              		.type	main, %function
  80              	main:
  81              	.LFB36:
  82              		.file 1 "main.c"
   1:main.c        **** /*******************************************************************************
   2:main.c        **** * File Name: main.c
   3:main.c        **** *
   4:main.c        **** * Version: 1.30
   5:main.c        **** *
   6:main.c        **** * Description:
   7:main.c        **** *  The project explains the usage of CapSense CSD component. The 2 buttons and
   8:main.c        **** *  linear sliders are used as sensing elements. LED displays buttons active
   9:main.c        **** *  state and slider position is shown on LCD.
  10:main.c        **** *
  11:main.c        **** ********************************************************************************
  12:main.c        **** * Copyright 2013, Cypress Semiconductor Corporation. All rights reserved.
ARM GAS  C:\Users\poornima\AppData\Local\Temp\cc8JrzsS.s 			page 3


  13:main.c        **** * This software is owned by Cypress Semiconductor Corporation and is protected
  14:main.c        **** * by and subject to worldwide patent and copyright laws and treaties.
  15:main.c        **** * Therefore, you may use this software only as provided in the license agreement
  16:main.c        **** * accompanying the software package from which you obtained this software.
  17:main.c        **** * CYPRESS AND ITS SUPPLIERS MAKE NO WARRANTY OF ANY KIND, EXPRESS OR IMPLIED,
  18:main.c        **** * WITH REGARD TO THIS SOFTWARE, INCLUDING, BUT NOT LIMITED TO, NONINFRINGEMENT,
  19:main.c        **** * IMPLIED WARRANTIES OF MERCHANTABILITY AND FITNESS FOR A PARTICULAR PURPOSE.
  20:main.c        **** *******************************************************************************/
  21:main.c        **** 
  22:main.c        **** #include <main.h>
  23:main.c        **** #include <CyFlash.h>
  24:main.c        **** 
  25:main.c        **** #define SLIDER_POS_TO_COMPARE_SHIFT    (9u)
  26:main.c        **** 
  27:main.c        **** /* WDT counter configuration */
  28:main.c        **** #define WDT_COUNT0_MATCH    (0x0FFFu)
  29:main.c        **** #define WDT_COUNT1_MATCH    (0x0008u)
  30:main.c        **** 
  31:main.c        **** /* Prototype of WDT ISR */
  32:main.c        **** CY_ISR_PROTO(WdtIsrHandler);
  33:main.c        **** 
  34:main.c        **** 
  35:main.c        **** /*Defining a Flash Row ,that is to be used for caching the latest status*/
  36:main.c        **** /* Defines second ROW from the last ROW */
  37:main.c        **** #define CY_TEST_FLASH_ROW       (CY_FLASH_NUMBER_ROWS - 2u)
  38:main.c        **** 
  39:main.c        **** /* Defines absolut address of ROW */
  40:main.c        **** #define CY_TEST_FLASH_ADDR      (CY_TEST_FLASH_ROW * CY_FLASH_SIZEOF_ROW)
  41:main.c        **** 
  42:main.c        **** /* Defines ID of the array to write */
  43:main.c        **** #define ARRAY_ID                ((uint8)(CY_TEST_FLASH_ROW / CY_FLASH_SIZEOF_ROW))
  44:main.c        **** 
  45:main.c        **** /* Defines second ROW from the last ROW in the defined array */
  46:main.c        **** #define ARRAY_ID_ROW_ADDR   ((uint16)(CY_FLASH_SIZEOF_ROW - 2u))
  47:main.c        **** 
  48:main.c        **** uint8 cache[CY_FLASH_SIZEOF_ROW]={0};
  49:main.c        **** uint8 update[CY_FLASH_SIZEOF_ROW]={0};
  50:main.c        **** 
  51:main.c        **** uint32 but1, but2, but3, but4, but5, but6, but7, but8, oldBut1, oldBut2, oldBut3, oldBut4, oldBut5,
  52:main.c        **** uint8 temp1,temp2,temp3,temp4,temp5,temp6,temp7,temp8;
  53:main.c        **** 
  54:main.c        **** uint8 compare[2]={0x52,0x44};
  55:main.c        ****                   /*R ,D*/
  56:main.c        **** 
  57:main.c        **** /* I2C slave read and write buffers */
  58:main.c        **** //uint8 i2cReadBuffer [BUFFER_SIZE] = {PACKET_SOP, STS_CMD_FAIL, PACKET_EOP};
  59:main.c        **** uint8 i2cReadBuffer [READ_BUFFER_SIZE]; // we need to change this value according to our pwm buffer
  60:main.c        **** uint8 i2cWriteBuffer[BUFFER_SIZE];
  61:main.c        **** 
  62:main.c        **** int main()
  63:main.c        **** {   uint8 i;
  83              		.loc 1 63 0
  84              		.cfi_startproc
  85 0000 80B5     		push	{r7, lr}
  86              		.cfi_def_cfa_offset 8
  87              		.cfi_offset 7, -8
  88              		.cfi_offset 14, -4
ARM GAS  C:\Users\poornima\AppData\Local\Temp\cc8JrzsS.s 			page 4


  89 0002 82B0     		sub	sp, sp, #8
  90              		.cfi_def_cfa_offset 16
  91 0004 00AF     		add	r7, sp, #0
  92              		.cfi_def_cfa_register 7
  64:main.c        ****     
  65:main.c        ****     /* Start UART(SCB mode)*/ 
  66:main.c        ****     UART_Start();
  93              		.loc 1 66 0
  94 0006 FFF7FEFF 		bl	UART_Start
  67:main.c        ****     
  68:main.c        ****     /* Start I2C slave (SCB mode) */
  69:main.c        ****     I2C_Slave_I2CSlaveInitReadBuf(i2cReadBuffer,  3);
  95              		.loc 1 69 0
  96 000a 924B     		ldr	r3, .L24
  97 000c 181C     		mov	r0, r3
  98 000e 0321     		mov	r1, #3
  99 0010 FFF7FEFF 		bl	I2C_Slave_I2CSlaveInitReadBuf
  70:main.c        ****     I2C_Slave_I2CSlaveInitWriteBuf(i2cWriteBuffer, BUFFER_SIZE);
 100              		.loc 1 70 0
 101 0014 904B     		ldr	r3, .L24+4
 102 0016 181C     		mov	r0, r3
 103 0018 0421     		mov	r1, #4
 104 001a FFF7FEFF 		bl	I2C_Slave_I2CSlaveInitWriteBuf
  71:main.c        ****     I2C_Slave_Start();
 105              		.loc 1 71 0
 106 001e FFF7FEFF 		bl	I2C_Slave_Start
  72:main.c        ****    
  73:main.c        ****     /* Enable global interrupts */
  74:main.c        ****     CyGlobalIntEnable;
 107              		.loc 1 74 0
 108              	@ 74 "main.c" 1
 109 0022 62B6     		CPSIE   i
 110              	@ 0 "" 2
  75:main.c        ****     
  76:main.c        ****     CapSense_Start();
 111              		.loc 1 76 0
 112              		.code	16
 113 0024 FFF7FEFF 		bl	CapSense_Start
  77:main.c        **** 
  78:main.c        ****     /* Initialize baselines */
  79:main.c        ****     CapSense_InitializeAllBaselines();
 114              		.loc 1 79 0
 115 0028 FFF7FEFF 		bl	CapSense_InitializeAllBaselines
  80:main.c        ****     
  81:main.c        ****     //UART_UartPutString("UPDATING THE STATUS \n\r");
  82:main.c        ****     
  83:main.c        ****     /* Reading from the Flash memory and setting up the widgets to previous status(status before th
  84:main.c        ****     for(i=0;i<8;i++){
 116              		.loc 1 84 0
 117 002c FB1D     		add	r3, r7, #7
 118 002e 0022     		mov	r2, #0
 119 0030 1A70     		strb	r2, [r3]
 120 0032 0EE0     		b	.L2
 121              	.L3:
  85:main.c        ****         update[i]=(*((uint8 *) (CY_TEST_FLASH_ADDR + i)));
 122              		.loc 1 85 0 discriminator 3
 123 0034 FB1D     		add	r3, r7, #7
ARM GAS  C:\Users\poornima\AppData\Local\Temp\cc8JrzsS.s 			page 5


 124 0036 1B78     		ldrb	r3, [r3]
 125 0038 FA1D     		add	r2, r7, #7
 126 003a 1278     		ldrb	r2, [r2]
 127 003c 8749     		ldr	r1, .L24+8
 128 003e 8C46     		mov	ip, r1
 129 0040 6244     		add	r2, r2, ip
 130 0042 1178     		ldrb	r1, [r2]
 131 0044 864A     		ldr	r2, .L24+12
 132 0046 D154     		strb	r1, [r2, r3]
  84:main.c        ****         update[i]=(*((uint8 *) (CY_TEST_FLASH_ADDR + i)));
 133              		.loc 1 84 0 discriminator 3
 134 0048 FB1D     		add	r3, r7, #7
 135 004a 1A78     		ldrb	r2, [r3]
 136 004c FB1D     		add	r3, r7, #7
 137 004e 0132     		add	r2, r2, #1
 138 0050 1A70     		strb	r2, [r3]
 139              	.L2:
  84:main.c        ****         update[i]=(*((uint8 *) (CY_TEST_FLASH_ADDR + i)));
 140              		.loc 1 84 0 is_stmt 0 discriminator 1
 141 0052 FB1D     		add	r3, r7, #7
 142 0054 1B78     		ldrb	r3, [r3]
 143 0056 072B     		cmp	r3, #7
 144 0058 ECD9     		bls	.L3
  86:main.c        ****     }
  87:main.c        ****       
  88:main.c        ****     for(i=0;i<8;i++){
 145              		.loc 1 88 0 is_stmt 1
 146 005a FB1D     		add	r3, r7, #7
 147 005c 0022     		mov	r2, #0
 148 005e 1A70     		strb	r2, [r3]
 149 0060 11E0     		b	.L4
 150              	.L5:
  89:main.c        ****        //UART_UartPutChar(update[i]); 
  90:main.c        ****        //UART_UartPutString("\n\r");
  91:main.c        ****        ExecuteCommand(i,update[i]);
 151              		.loc 1 91 0 discriminator 3
 152 0062 FB1D     		add	r3, r7, #7
 153 0064 1978     		ldrb	r1, [r3]
 154 0066 FB1D     		add	r3, r7, #7
 155 0068 1B78     		ldrb	r3, [r3]
 156 006a 7D4A     		ldr	r2, .L24+12
 157 006c D35C     		ldrb	r3, [r2, r3]
 158 006e 081C     		mov	r0, r1
 159 0070 191C     		mov	r1, r3
 160 0072 FFF7FEFF 		bl	ExecuteCommand
  92:main.c        ****        CyDelay(50);
 161              		.loc 1 92 0 discriminator 3
 162 0076 3220     		mov	r0, #50
 163 0078 FFF7FEFF 		bl	CyDelay
  88:main.c        ****        //UART_UartPutChar(update[i]); 
 164              		.loc 1 88 0 discriminator 3
 165 007c FB1D     		add	r3, r7, #7
 166 007e 1A78     		ldrb	r2, [r3]
 167 0080 FB1D     		add	r3, r7, #7
 168 0082 0132     		add	r2, r2, #1
 169 0084 1A70     		strb	r2, [r3]
 170              	.L4:
ARM GAS  C:\Users\poornima\AppData\Local\Temp\cc8JrzsS.s 			page 6


  88:main.c        ****        //UART_UartPutChar(update[i]); 
 171              		.loc 1 88 0 is_stmt 0 discriminator 1
 172 0086 FB1D     		add	r3, r7, #7
 173 0088 1B78     		ldrb	r3, [r3]
 174 008a 072B     		cmp	r3, #7
 175 008c E9D9     		bls	.L5
  93:main.c        ****     }
  94:main.c        ****     //UART_UartPutString("update finihsed \n\r");
  95:main.c        ****     
  96:main.c        ****     
  97:main.c        ****     //Capsense Loop
  98:main.c        ****     UART_UartPutString("Main Loop Started \n");
 176              		.loc 1 98 0 is_stmt 1
 177 008e 754B     		ldr	r3, .L24+16
 178 0090 181C     		mov	r0, r3
 179 0092 FFF7FEFF 		bl	UART_UartPutString
 180              	.L23:
  99:main.c        ****     while(1u)
 100:main.c        ****     {
 101:main.c        ****         CyDelay(100);
 181              		.loc 1 101 0
 182 0096 6420     		mov	r0, #100
 183 0098 FFF7FEFF 		bl	CyDelay
 102:main.c        ****         
 103:main.c        ****           /* Write complete: parse command packet */
 104:main.c        ****         if (0u != (I2C_Slave_I2CSlaveStatus() & I2C_Slave_I2C_SSTAT_WR_CMPLT))
 184              		.loc 1 104 0
 185 009c FFF7FEFF 		bl	I2C_Slave_I2CSlaveStatus
 186 00a0 021C     		mov	r2, r0
 187 00a2 1023     		mov	r3, #16
 188 00a4 1340     		and	r3, r2
 189 00a6 00D1     		bne	.LCB94
 190 00a8 BEE0     		b	.L6	@long jump
 191              	.LCB94:
 105:main.c        ****         {
 106:main.c        ****             UART_UartPutString("inside I2C_Slave_I2CSlaveStatus \n");
 192              		.loc 1 106 0
 193 00aa 6F4B     		ldr	r3, .L24+20
 194 00ac 181C     		mov	r0, r3
 195 00ae FFF7FEFF 		bl	UART_UartPutString
 107:main.c        ****             /* Check packet length */
 108:main.c        ****             if (1u <= I2C_Slave_I2CSlaveGetWriteBufSize())
 196              		.loc 1 108 0
 197 00b2 FFF7FEFF 		bl	I2C_Slave_I2CSlaveGetWriteBufSize
 198 00b6 031E     		sub	r3, r0, #0
 199 00b8 00D1     		bne	.LCB101
 200 00ba B1E0     		b	.L7	@long jump
 201              	.LCB101:
 109:main.c        ****             {
 110:main.c        ****                 UART_UartPutString("inside I2C_Slave_I2CSlaveGetWriteBufSize \n");
 202              		.loc 1 110 0
 203 00bc 6B4B     		ldr	r3, .L24+24
 204 00be 181C     		mov	r0, r3
 205 00c0 FFF7FEFF 		bl	UART_UartPutString
 111:main.c        ****                 //UART_UartPutString("before ExecuteCommand \n");
 112:main.c        ****                 //UART_UartPutString("String cmp pass \n");
 113:main.c        ****                 
ARM GAS  C:\Users\poornima\AppData\Local\Temp\cc8JrzsS.s 			page 7


 114:main.c        ****                     if(i2cWriteBuffer[0]==0x52 && i2cWriteBuffer[1]==0x53 )
 206              		.loc 1 114 0
 207 00c4 644B     		ldr	r3, .L24+4
 208 00c6 1B78     		ldrb	r3, [r3]
 209 00c8 522B     		cmp	r3, #82
 210 00ca 31D1     		bne	.L8
 211              		.loc 1 114 0 is_stmt 0 discriminator 1
 212 00cc 624B     		ldr	r3, .L24+4
 213 00ce 5B78     		ldrb	r3, [r3, #1]
 214 00d0 532B     		cmp	r3, #83
 215 00d2 2DD1     		bne	.L8
 115:main.c        ****                 {   
 116:main.c        ****                    // UART_UartPutString("reset\r\n");
 117:main.c        ****                    /* Setup ISR for interrupts at WDT counter 0 events. */
 118:main.c        ****                     WdtIsr_StartEx(WdtIsrHandler);
 216              		.loc 1 118 0 is_stmt 1
 217 00d4 664B     		ldr	r3, .L24+28
 218 00d6 181C     		mov	r0, r3
 219 00d8 FFF7FEFF 		bl	WdtIsr_StartEx
 119:main.c        **** 
 120:main.c        **** 	                /* Set WDT counter 0 to generate interrupt on match */
 121:main.c        **** 	                CySysWdtWriteMode(CY_SYS_WDT_COUNTER0, CY_SYS_WDT_MODE_INT);
 220              		.loc 1 121 0
 221 00dc 0020     		mov	r0, #0
 222 00de 0121     		mov	r1, #1
 223 00e0 FFF7FEFF 		bl	CySysWdtSetMode
 122:main.c        **** 	                CySysWdtWriteMatch(CY_SYS_WDT_COUNTER0, WDT_COUNT0_MATCH);
 224              		.loc 1 122 0
 225 00e4 634B     		ldr	r3, .L24+32
 226 00e6 0020     		mov	r0, #0
 227 00e8 191C     		mov	r1, r3
 228 00ea FFF7FEFF 		bl	CySysWdtSetMatch
 123:main.c        **** 	                CySysWdtWriteClearOnMatch(CY_SYS_WDT_COUNTER0, 1u);
 229              		.loc 1 123 0
 230 00ee 0020     		mov	r0, #0
 231 00f0 0121     		mov	r1, #1
 232 00f2 FFF7FEFF 		bl	CySysWdtSetClearOnMatch
 124:main.c        **** 	
 125:main.c        **** 	                /* Enable WDT counters 0 and 1 cascade */
 126:main.c        **** 	                CySysWdtWriteCascade(CY_SYS_WDT_CASCADE_01);
 233              		.loc 1 126 0
 234 00f6 0820     		mov	r0, #8
 235 00f8 FFF7FEFF 		bl	CySysWdtSetCascade
 127:main.c        ****     
 128:main.c        **** 	                /* Set WDT counter 1 to generate reset on match */
 129:main.c        **** 	                CySysWdtWriteMatch(CY_SYS_WDT_COUNTER1, WDT_COUNT1_MATCH);
 236              		.loc 1 129 0
 237 00fc 0120     		mov	r0, #1
 238 00fe 0821     		mov	r1, #8
 239 0100 FFF7FEFF 		bl	CySysWdtSetMatch
 130:main.c        **** 	                CySysWdtWriteMode(CY_SYS_WDT_COUNTER1, CY_SYS_WDT_MODE_RESET);
 240              		.loc 1 130 0
 241 0104 0120     		mov	r0, #1
 242 0106 0221     		mov	r1, #2
 243 0108 FFF7FEFF 		bl	CySysWdtSetMode
 131:main.c        ****                     CySysWdtWriteClearOnMatch(CY_SYS_WDT_COUNTER1, 1u);
 244              		.loc 1 131 0
ARM GAS  C:\Users\poornima\AppData\Local\Temp\cc8JrzsS.s 			page 8


 245 010c 0120     		mov	r0, #1
 246 010e 0121     		mov	r1, #1
 247 0110 FFF7FEFF 		bl	CySysWdtSetClearOnMatch
 132:main.c        **** 	
 133:main.c        **** 	                /* Enable WDT counters 0 and 1 */
 134:main.c        **** 	                CySysWdtEnable(CY_SYS_WDT_COUNTER0_MASK | CY_SYS_WDT_COUNTER1_MASK);
 248              		.loc 1 134 0
 249 0114 0223     		mov	r3, #2
 250 0116 FF33     		add	r3, r3, #255
 251 0118 181C     		mov	r0, r3
 252 011a FFF7FEFF 		bl	CySysWdtEnable
 135:main.c        **** 	
 136:main.c        **** 	                /* Lock WDT registers and try to disable WDT counters 0 and 1 */
 137:main.c        **** 	                CySysWdtLock();
 253              		.loc 1 137 0
 254 011e FFF7FEFF 		bl	CySysWdtLock
 138:main.c        **** 	                CySysWdtDisable(CY_SYS_WDT_COUNTER1_MASK);
 255              		.loc 1 138 0
 256 0122 8023     		mov	r3, #128
 257 0124 5B00     		lsl	r3, r3, #1
 258 0126 181C     		mov	r0, r3
 259 0128 FFF7FEFF 		bl	CySysWdtDisable
 139:main.c        **** 	                CySysWdtUnlock();
 260              		.loc 1 139 0
 261 012c FFF7FEFF 		bl	CySysWdtUnlock
 262              	.L8:
 140:main.c        ****                     
 141:main.c        ****                 }
 142:main.c        ****                 /*Sendind master a ready ack*/
 143:main.c        ****                 if(i2cWriteBuffer[0]==0x52 && i2cWriteBuffer[1]==0x44 )
 263              		.loc 1 143 0
 264 0130 494B     		ldr	r3, .L24+4
 265 0132 1B78     		ldrb	r3, [r3]
 266 0134 522B     		cmp	r3, #82
 267 0136 1DD1     		bne	.L9
 268              		.loc 1 143 0 is_stmt 0 discriminator 1
 269 0138 474B     		ldr	r3, .L24+4
 270 013a 5B78     		ldrb	r3, [r3, #1]
 271 013c 442B     		cmp	r3, #68
 272 013e 19D1     		bne	.L9
 144:main.c        ****                 {   
 145:main.c        ****                     //UART_UartPutString("ready ack sent \n\r");
 146:main.c        ****                     
 147:main.c        ****                     i2cReadBuffer[0] = 0x52;
 273              		.loc 1 147 0 is_stmt 1
 274 0140 444B     		ldr	r3, .L24
 275 0142 5222     		mov	r2, #82
 276 0144 1A70     		strb	r2, [r3]
 148:main.c        ****                     i2cReadBuffer[1] = 0x44;
 277              		.loc 1 148 0
 278 0146 434B     		ldr	r3, .L24
 279 0148 4422     		mov	r2, #68
 280 014a 5A70     		strb	r2, [r3, #1]
 149:main.c        ****                     
 150:main.c        ****                     InterPin_Write(~InterPin_Read());
 281              		.loc 1 150 0
 282 014c FFF7FEFF 		bl	InterPin_Read
ARM GAS  C:\Users\poornima\AppData\Local\Temp\cc8JrzsS.s 			page 9


 283 0150 031C     		mov	r3, r0
 284 0152 DB43     		mvn	r3, r3
 285 0154 DBB2     		uxtb	r3, r3
 286 0156 181C     		mov	r0, r3
 287 0158 FFF7FEFF 		bl	InterPin_Write
 151:main.c        ****                     CyDelay(100);
 288              		.loc 1 151 0
 289 015c 6420     		mov	r0, #100
 290 015e FFF7FEFF 		bl	CyDelay
 152:main.c        ****                     InterPin_Write(~InterPin_Read());
 291              		.loc 1 152 0
 292 0162 FFF7FEFF 		bl	InterPin_Read
 293 0166 031C     		mov	r3, r0
 294 0168 DB43     		mvn	r3, r3
 295 016a DBB2     		uxtb	r3, r3
 296 016c 181C     		mov	r0, r3
 297 016e FFF7FEFF 		bl	InterPin_Write
 298 0172 55E0     		b	.L7
 299              	.L9:
 153:main.c        ****                     
 154:main.c        ****                 }
 155:main.c        ****                 /*Sending data according to master request*/
 156:main.c        ****                 else if( i2cWriteBuffer[1]==0x72)
 300              		.loc 1 156 0
 301 0174 384B     		ldr	r3, .L24+4
 302 0176 5B78     		ldrb	r3, [r3, #1]
 303 0178 722B     		cmp	r3, #114
 304 017a 48D1     		bne	.L10
 157:main.c        ****                 {   i2cReadBuffer[0] = i2cWriteBuffer[0];
 305              		.loc 1 157 0
 306 017c 364B     		ldr	r3, .L24+4
 307 017e 1A78     		ldrb	r2, [r3]
 308 0180 344B     		ldr	r3, .L24
 309 0182 1A70     		strb	r2, [r3]
 158:main.c        ****                     switch(i2cWriteBuffer[1])
 310              		.loc 1 158 0
 311 0184 344B     		ldr	r3, .L24+4
 312 0186 5B78     		ldrb	r3, [r3, #1]
 313 0188 072B     		cmp	r3, #7
 314 018a 2CD8     		bhi	.L11
 315 018c 9A00     		lsl	r2, r3, #2
 316 018e 3A4B     		ldr	r3, .L24+36
 317 0190 D318     		add	r3, r2, r3
 318 0192 1B68     		ldr	r3, [r3]
 319 0194 9F46     		mov	pc, r3
 320              		.section	.rodata
 321 0063 00       		.align	2
 322              	.L13:
 323 0064 96010000 		.word	.L12
 324 0068 A0010000 		.word	.L14
 325 006c AA010000 		.word	.L15
 326 0070 B4010000 		.word	.L16
 327 0074 BE010000 		.word	.L17
 328 0078 C8010000 		.word	.L18
 329 007c D2010000 		.word	.L19
 330 0080 DC010000 		.word	.L20
 331              		.section	.text.main
ARM GAS  C:\Users\poornima\AppData\Local\Temp\cc8JrzsS.s 			page 10


 332              	.L12:
 159:main.c        ****                     {
 160:main.c        ****                         case SWITCH1:i2cReadBuffer[1]=update[SWITCH1];
 333              		.loc 1 160 0
 334 0196 324B     		ldr	r3, .L24+12
 335 0198 1A78     		ldrb	r2, [r3]
 336 019a 2E4B     		ldr	r3, .L24
 337 019c 5A70     		strb	r2, [r3, #1]
 161:main.c        ****                                     break;
 338              		.loc 1 161 0
 339 019e 22E0     		b	.L11
 340              	.L14:
 162:main.c        ****                         case SWITCH2:i2cReadBuffer[1]=update[SWITCH2];
 341              		.loc 1 162 0
 342 01a0 2F4B     		ldr	r3, .L24+12
 343 01a2 5A78     		ldrb	r2, [r3, #1]
 344 01a4 2B4B     		ldr	r3, .L24
 345 01a6 5A70     		strb	r2, [r3, #1]
 163:main.c        ****                                     break;
 346              		.loc 1 163 0
 347 01a8 1DE0     		b	.L11
 348              	.L15:
 164:main.c        ****                         case SWITCH3:i2cReadBuffer[1]=update[SWITCH3];
 349              		.loc 1 164 0
 350 01aa 2D4B     		ldr	r3, .L24+12
 351 01ac 9A78     		ldrb	r2, [r3, #2]
 352 01ae 294B     		ldr	r3, .L24
 353 01b0 5A70     		strb	r2, [r3, #1]
 165:main.c        ****                                     break;
 354              		.loc 1 165 0
 355 01b2 18E0     		b	.L11
 356              	.L16:
 166:main.c        ****                         case SWITCH4:i2cReadBuffer[1]=update[SWITCH4];
 357              		.loc 1 166 0
 358 01b4 2A4B     		ldr	r3, .L24+12
 359 01b6 DA78     		ldrb	r2, [r3, #3]
 360 01b8 264B     		ldr	r3, .L24
 361 01ba 5A70     		strb	r2, [r3, #1]
 167:main.c        ****                                     break;
 362              		.loc 1 167 0
 363 01bc 13E0     		b	.L11
 364              	.L17:
 168:main.c        ****                         case SWITCH5:i2cReadBuffer[1]=update[SWITCH5];
 365              		.loc 1 168 0
 366 01be 284B     		ldr	r3, .L24+12
 367 01c0 1A79     		ldrb	r2, [r3, #4]
 368 01c2 244B     		ldr	r3, .L24
 369 01c4 5A70     		strb	r2, [r3, #1]
 169:main.c        ****                                     break;
 370              		.loc 1 169 0
 371 01c6 0EE0     		b	.L11
 372              	.L18:
 170:main.c        ****                         case SWITCH6:i2cReadBuffer[1]=update[SWITCH6];
 373              		.loc 1 170 0
 374 01c8 254B     		ldr	r3, .L24+12
 375 01ca 5A79     		ldrb	r2, [r3, #5]
 376 01cc 214B     		ldr	r3, .L24
ARM GAS  C:\Users\poornima\AppData\Local\Temp\cc8JrzsS.s 			page 11


 377 01ce 5A70     		strb	r2, [r3, #1]
 171:main.c        ****                                     break;
 378              		.loc 1 171 0
 379 01d0 09E0     		b	.L11
 380              	.L19:
 172:main.c        ****                         case SWITCH7:i2cReadBuffer[1]=update[SWITCH7];
 381              		.loc 1 172 0
 382 01d2 234B     		ldr	r3, .L24+12
 383 01d4 9A79     		ldrb	r2, [r3, #6]
 384 01d6 1F4B     		ldr	r3, .L24
 385 01d8 5A70     		strb	r2, [r3, #1]
 173:main.c        ****                                     break;
 386              		.loc 1 173 0
 387 01da 04E0     		b	.L11
 388              	.L20:
 174:main.c        ****                         case SWITCH8:i2cReadBuffer[1]=update[SWITCH8];
 389              		.loc 1 174 0
 390 01dc 204B     		ldr	r3, .L24+12
 391 01de DA79     		ldrb	r2, [r3, #7]
 392 01e0 1C4B     		ldr	r3, .L24
 393 01e2 5A70     		strb	r2, [r3, #1]
 175:main.c        ****                                     break;
 394              		.loc 1 175 0
 395 01e4 C046     		mov	r8, r8
 396              	.L11:
 176:main.c        ****                     }
 177:main.c        ****                     InterPin_Write(~InterPin_Read());
 397              		.loc 1 177 0
 398 01e6 FFF7FEFF 		bl	InterPin_Read
 399 01ea 031C     		mov	r3, r0
 400 01ec DB43     		mvn	r3, r3
 401 01ee DBB2     		uxtb	r3, r3
 402 01f0 181C     		mov	r0, r3
 403 01f2 FFF7FEFF 		bl	InterPin_Write
 178:main.c        ****                     CyDelay(50);
 404              		.loc 1 178 0
 405 01f6 3220     		mov	r0, #50
 406 01f8 FFF7FEFF 		bl	CyDelay
 179:main.c        ****                     InterPin_Write(~InterPin_Read());
 407              		.loc 1 179 0
 408 01fc FFF7FEFF 		bl	InterPin_Read
 409 0200 031C     		mov	r3, r0
 410 0202 DB43     		mvn	r3, r3
 411 0204 DBB2     		uxtb	r3, r3
 412 0206 181C     		mov	r0, r3
 413 0208 FFF7FEFF 		bl	InterPin_Write
 414 020c 08E0     		b	.L7
 415              	.L10:
 180:main.c        ****                     
 181:main.c        ****                 }
 182:main.c        ****                else
 183:main.c        ****                 {
 184:main.c        ****                 //UART_UartPutString("excecuting the master commands \n\r");
 185:main.c        ****                 ExecuteCommand(i2cWriteBuffer[0], i2cWriteBuffer[1]);
 416              		.loc 1 185 0
 417 020e 124B     		ldr	r3, .L24+4
 418 0210 1B78     		ldrb	r3, [r3]
ARM GAS  C:\Users\poornima\AppData\Local\Temp\cc8JrzsS.s 			page 12


 419 0212 1A1C     		mov	r2, r3
 420 0214 104B     		ldr	r3, .L24+4
 421 0216 5B78     		ldrb	r3, [r3, #1]
 422 0218 101C     		mov	r0, r2
 423 021a 191C     		mov	r1, r3
 424 021c FFF7FEFF 		bl	ExecuteCommand
 425              	.L7:
 186:main.c        ****                 }
 187:main.c        ****             }
 188:main.c        **** 
 189:main.c        ****             /* Clear slave write buffer and status */
 190:main.c        ****             I2C_Slave_I2CSlaveClearWriteBuf();
 426              		.loc 1 190 0
 427 0220 FFF7FEFF 		bl	I2C_Slave_I2CSlaveClearWriteBuf
 191:main.c        ****             (void) I2C_Slave_I2CSlaveClearWriteStatus();
 428              		.loc 1 191 0
 429 0224 FFF7FEFF 		bl	I2C_Slave_I2CSlaveClearWriteStatus
 430              	.L6:
 192:main.c        ****         }
 193:main.c        **** 
 194:main.c        **** 
 195:main.c        ****         /* Read complete: expose buffer to master */
 196:main.c        ****         if (0u != (I2C_Slave_I2CSlaveStatus() & I2C_Slave_I2C_SSTAT_RD_CMPLT))
 431              		.loc 1 196 0
 432 0228 FFF7FEFF 		bl	I2C_Slave_I2CSlaveStatus
 433 022c 021C     		mov	r2, r0
 434 022e 0123     		mov	r3, #1
 435 0230 1340     		and	r3, r2
 436 0232 03D0     		beq	.L21
 197:main.c        ****         {
 198:main.c        ****             /* Clear slave read buffer and status */
 199:main.c        ****             I2C_Slave_I2CSlaveClearReadBuf();
 437              		.loc 1 199 0
 438 0234 FFF7FEFF 		bl	I2C_Slave_I2CSlaveClearReadBuf
 200:main.c        ****             (void) I2C_Slave_I2CSlaveClearReadStatus();
 439              		.loc 1 200 0
 440 0238 FFF7FEFF 		bl	I2C_Slave_I2CSlaveClearReadStatus
 441              	.L21:
 201:main.c        ****         }
 202:main.c        ****         
 203:main.c        ****         /* Check whether the scanning of all enabled widgets is completed. */
 204:main.c        ****         if(0u == CapSense_IsBusy())
 442              		.loc 1 204 0
 443 023c FFF7FEFF 		bl	CapSense_IsBusy
 444 0240 031E     		sub	r3, r0, #0
 445 0242 03D1     		bne	.L22
 205:main.c        ****         {
 206:main.c        ****             /* Update all baselines */
 207:main.c        ****             CapSense_UpdateEnabledBaselines();
 446              		.loc 1 207 0
 447 0244 FFF7FEFF 		bl	CapSense_UpdateEnabledBaselines
 208:main.c        **** 
 209:main.c        ****             /* Start scanning all enabled sensors */
 210:main.c        ****             CapSense_ScanEnabledWidgets();
 448              		.loc 1 210 0
 449 0248 FFF7FEFF 		bl	CapSense_ScanEnabledWidgets
 450              	.L22:
ARM GAS  C:\Users\poornima\AppData\Local\Temp\cc8JrzsS.s 			page 13


 211:main.c        ****         }
 212:main.c        **** 
 213:main.c        ****         /* Display CapSense state using LEDs */
 214:main.c        ****         CapSense_DisplayState();
 451              		.loc 1 214 0
 452 024c FFF7FEFF 		bl	CapSense_DisplayState
 215:main.c        ****     }
 453              		.loc 1 215 0
 454 0250 21E7     		b	.L23
 455              	.L25:
 456 0252 C046     		.align	2
 457              	.L24:
 458 0254 00000000 		.word	i2cReadBuffer
 459 0258 00000000 		.word	i2cWriteBuffer
 460 025c 00FF0100 		.word	130816
 461 0260 00000000 		.word	update
 462 0264 00000000 		.word	.LC3
 463 0268 14000000 		.word	.LC5
 464 026c 38000000 		.word	.LC7
 465 0270 00000000 		.word	WdtIsrHandler
 466 0274 FF0F0000 		.word	4095
 467 0278 64000000 		.word	.L13
 468              		.cfi_endproc
 469              	.LFE36:
 470              		.size	main, .-main
 471              		.section	.text.ExecuteCommand,"ax",%progbits
 472              		.align	2
 473              		.global	ExecuteCommand
 474              		.code	16
 475              		.thumb_func
 476              		.type	ExecuteCommand, %function
 477              	ExecuteCommand:
 478              	.LFB37:
 216:main.c        **** }
 217:main.c        **** 
 218:main.c        **** 
 219:main.c        **** uint8 ExecuteCommand(uint32 cmd, uint32 value)
 220:main.c        **** {
 479              		.loc 1 220 0
 480              		.cfi_startproc
 481 0000 80B5     		push	{r7, lr}
 482              		.cfi_def_cfa_offset 8
 483              		.cfi_offset 7, -8
 484              		.cfi_offset 14, -4
 485 0002 84B0     		sub	sp, sp, #16
 486              		.cfi_def_cfa_offset 24
 487 0004 00AF     		add	r7, sp, #0
 488              		.cfi_def_cfa_register 7
 489 0006 7860     		str	r0, [r7, #4]
 490 0008 3960     		str	r1, [r7]
 221:main.c        ****    // UART_UartPutString("in ExecuteCommand \n");
 222:main.c        ****     uint8 status;
 223:main.c        ****     status = STS_CMD_DONE;
 491              		.loc 1 223 0
 492 000a 0F23     		mov	r3, #15
 493 000c FB18     		add	r3, r7, r3
 494 000e 0022     		mov	r2, #0
ARM GAS  C:\Users\poornima\AppData\Local\Temp\cc8JrzsS.s 			page 14


 495 0010 1A70     		strb	r2, [r3]
 224:main.c        **** 
 225:main.c        ****     /* Execute received command */
 226:main.c        ****     if(cmd)
 496              		.loc 1 226 0
 497 0012 7B68     		ldr	r3, [r7, #4]
 498 0014 002B     		cmp	r3, #0
 499 0016 08D0     		beq	.L27
 227:main.c        ****     {
 228:main.c        ****        UpdateSwitchLeds(cmd,value);
 500              		.loc 1 228 0
 501 0018 7B68     		ldr	r3, [r7, #4]
 502 001a 9AB2     		uxth	r2, r3
 503 001c 3B68     		ldr	r3, [r7]
 504 001e 9BB2     		uxth	r3, r3
 505 0020 101C     		mov	r0, r2
 506 0022 191C     		mov	r1, r3
 507 0024 FFF7FEFF 		bl	UpdateSwitchLeds
 508 0028 03E0     		b	.L28
 509              	.L27:
 229:main.c        ****         
 230:main.c        ****     }
 231:main.c        ****     else
 232:main.c        ****     {
 233:main.c        ****         // UART_UartPutString("in ExecuteCommand :: default\n");
 234:main.c        ****         status = STS_CMD_FAIL;
 510              		.loc 1 234 0
 511 002a 0F23     		mov	r3, #15
 512 002c FB18     		add	r3, r7, r3
 513 002e FF22     		mov	r2, #255
 514 0030 1A70     		strb	r2, [r3]
 515              	.L28:
 235:main.c        ****            
 236:main.c        ****     }
 237:main.c        **** 
 238:main.c        ****     return (status);
 516              		.loc 1 238 0
 517 0032 0F23     		mov	r3, #15
 518 0034 FB18     		add	r3, r7, r3
 519 0036 1B78     		ldrb	r3, [r3]
 239:main.c        **** }
 520              		.loc 1 239 0
 521 0038 181C     		mov	r0, r3
 522 003a BD46     		mov	sp, r7
 523 003c 04B0     		add	sp, sp, #16
 524              		@ sp needed
 525 003e 80BD     		pop	{r7, pc}
 526              		.cfi_endproc
 527              	.LFE37:
 528              		.size	ExecuteCommand, .-ExecuteCommand
 529              		.section	.text.CapSense_DisplayState,"ax",%progbits
 530              		.align	2
 531              		.global	CapSense_DisplayState
 532              		.code	16
 533              		.thumb_func
 534              		.type	CapSense_DisplayState, %function
 535              	CapSense_DisplayState:
ARM GAS  C:\Users\poornima\AppData\Local\Temp\cc8JrzsS.s 			page 15


 536              	.LFB38:
 240:main.c        **** 
 241:main.c        **** 
 242:main.c        **** 
 243:main.c        **** void CapSense_DisplayState(void)
 244:main.c        **** {
 537              		.loc 1 244 0
 538              		.cfi_startproc
 539 0000 80B5     		push	{r7, lr}
 540              		.cfi_def_cfa_offset 8
 541              		.cfi_offset 7, -8
 542              		.cfi_offset 14, -4
 543 0002 00AF     		add	r7, sp, #0
 544              		.cfi_def_cfa_register 7
 245:main.c        ****     //UART_UartPutString("inside capsense display\n\r");
 246:main.c        ****     /* Switch 1 - 8 */
 247:main.c        ****     but1 = CapSense_CheckIsSensorActive(CapSense_BUTTON0__BTN);
 545              		.loc 1 247 0
 546 0004 0020     		mov	r0, #0
 547 0006 FFF7FEFF 		bl	CapSense_CheckIsSensorActive
 548 000a 021C     		mov	r2, r0
 549 000c D84B     		ldr	r3, .L63
 550 000e 1A60     		str	r2, [r3]
 248:main.c        ****     but2 = CapSense_CheckIsWidgetActive(CapSense_BUTTON1__BTN);
 551              		.loc 1 248 0
 552 0010 0120     		mov	r0, #1
 553 0012 FFF7FEFF 		bl	CapSense_CheckIsWidgetActive
 554 0016 021C     		mov	r2, r0
 555 0018 D64B     		ldr	r3, .L63+4
 556 001a 1A60     		str	r2, [r3]
 249:main.c        ****     but3 = CapSense_CheckIsWidgetActive(CapSense_BUTTON2__BTN);
 557              		.loc 1 249 0
 558 001c 0220     		mov	r0, #2
 559 001e FFF7FEFF 		bl	CapSense_CheckIsWidgetActive
 560 0022 021C     		mov	r2, r0
 561 0024 D44B     		ldr	r3, .L63+8
 562 0026 1A60     		str	r2, [r3]
 250:main.c        ****     but4 = CapSense_CheckIsWidgetActive(CapSense_BUTTON3__BTN);
 563              		.loc 1 250 0
 564 0028 0320     		mov	r0, #3
 565 002a FFF7FEFF 		bl	CapSense_CheckIsWidgetActive
 566 002e 021C     		mov	r2, r0
 567 0030 D24B     		ldr	r3, .L63+12
 568 0032 1A60     		str	r2, [r3]
 251:main.c        ****     but5 = CapSense_CheckIsWidgetActive(CapSense_BUTTON4__BTN);
 569              		.loc 1 251 0
 570 0034 0420     		mov	r0, #4
 571 0036 FFF7FEFF 		bl	CapSense_CheckIsWidgetActive
 572 003a 021C     		mov	r2, r0
 573 003c D04B     		ldr	r3, .L63+16
 574 003e 1A60     		str	r2, [r3]
 252:main.c        ****     but6 = CapSense_CheckIsWidgetActive(CapSense_BUTTON5__BTN);
 575              		.loc 1 252 0
 576 0040 0520     		mov	r0, #5
 577 0042 FFF7FEFF 		bl	CapSense_CheckIsWidgetActive
 578 0046 021C     		mov	r2, r0
 579 0048 CE4B     		ldr	r3, .L63+20
ARM GAS  C:\Users\poornima\AppData\Local\Temp\cc8JrzsS.s 			page 16


 580 004a 1A60     		str	r2, [r3]
 253:main.c        ****     but7 = CapSense_CheckIsWidgetActive(CapSense_BUTTON6__BTN);
 581              		.loc 1 253 0
 582 004c 0620     		mov	r0, #6
 583 004e FFF7FEFF 		bl	CapSense_CheckIsWidgetActive
 584 0052 021C     		mov	r2, r0
 585 0054 CC4B     		ldr	r3, .L63+24
 586 0056 1A60     		str	r2, [r3]
 254:main.c        ****     but8 = CapSense_CheckIsWidgetActive(CapSense_BUTTON7__BTN);
 587              		.loc 1 254 0
 588 0058 0720     		mov	r0, #7
 589 005a FFF7FEFF 		bl	CapSense_CheckIsWidgetActive
 590 005e 021C     		mov	r2, r0
 591 0060 CA4B     		ldr	r3, .L63+28
 592 0062 1A60     		str	r2, [r3]
 255:main.c        ****        
 256:main.c        ****     //CyDelay(50);
 257:main.c        ****     
 258:main.c        ****     /* Switch 1 Control Code */
 259:main.c        ****   if(but1==1 && temp1==1)
 593              		.loc 1 259 0
 594 0064 C24B     		ldr	r3, .L63
 595 0066 1B68     		ldr	r3, [r3]
 596 0068 012B     		cmp	r3, #1
 597 006a 36D1     		bne	.L31
 598              		.loc 1 259 0 is_stmt 0 discriminator 1
 599 006c C84B     		ldr	r3, .L63+32
 600 006e 1B78     		ldrb	r3, [r3]
 601 0070 012B     		cmp	r3, #1
 602 0072 32D1     		bne	.L31
 260:main.c        ****     {
 261:main.c        ****             if(oldBut1==0)
 603              		.loc 1 261 0 is_stmt 1
 604 0074 C74B     		ldr	r3, .L63+36
 605 0076 1B68     		ldr	r3, [r3]
 606 0078 002B     		cmp	r3, #0
 607 007a 0AD1     		bne	.L32
 262:main.c        ****             {
 263:main.c        ****                // UART_UartPutString("in CapSense_DisplayState :: Switch 1, value 100 \n\r");
 264:main.c        ****                 UpdateSwitchLeds(SWITCH1, 100);
 608              		.loc 1 264 0
 609 007c 0020     		mov	r0, #0
 610 007e 6421     		mov	r1, #100
 611 0080 FFF7FEFF 		bl	UpdateSwitchLeds
 265:main.c        ****                 i2cReadBuffer[1] = 100u;
 612              		.loc 1 265 0
 613 0084 C44B     		ldr	r3, .L63+40
 614 0086 6422     		mov	r2, #100
 615 0088 5A70     		strb	r2, [r3, #1]
 266:main.c        ****                 oldBut1=1;
 616              		.loc 1 266 0
 617 008a C24B     		ldr	r3, .L63+36
 618 008c 0122     		mov	r2, #1
 619 008e 1A60     		str	r2, [r3]
 620 0090 09E0     		b	.L33
 621              	.L32:
 267:main.c        ****             }
ARM GAS  C:\Users\poornima\AppData\Local\Temp\cc8JrzsS.s 			page 17


 268:main.c        ****             
 269:main.c        ****             else
 270:main.c        ****             {
 271:main.c        ****                 //UART_UartPutString("in CapSense_DisplayState :: Switch 1, value 0  \n\r");
 272:main.c        ****                 UpdateSwitchLeds(SWITCH1, 0);
 622              		.loc 1 272 0
 623 0092 0020     		mov	r0, #0
 624 0094 0021     		mov	r1, #0
 625 0096 FFF7FEFF 		bl	UpdateSwitchLeds
 273:main.c        ****                 i2cReadBuffer[1] = 0u;
 626              		.loc 1 273 0
 627 009a BF4B     		ldr	r3, .L63+40
 628 009c 0022     		mov	r2, #0
 629 009e 5A70     		strb	r2, [r3, #1]
 274:main.c        ****                 oldBut1=0;
 630              		.loc 1 274 0
 631 00a0 BC4B     		ldr	r3, .L63+36
 632 00a2 0022     		mov	r2, #0
 633 00a4 1A60     		str	r2, [r3]
 634              	.L33:
 275:main.c        ****             }
 276:main.c        ****         temp1=0;
 635              		.loc 1 276 0
 636 00a6 BA4B     		ldr	r3, .L63+32
 637 00a8 0022     		mov	r2, #0
 638 00aa 1A70     		strb	r2, [r3]
 277:main.c        ****         i2cReadBuffer[0] = SWITCH1;
 639              		.loc 1 277 0
 640 00ac BA4B     		ldr	r3, .L63+40
 641 00ae 0022     		mov	r2, #0
 642 00b0 1A70     		strb	r2, [r3]
 278:main.c        ****        
 279:main.c        ****         InterPin_Write(~InterPin_Read());
 643              		.loc 1 279 0
 644 00b2 FFF7FEFF 		bl	InterPin_Read
 645 00b6 031C     		mov	r3, r0
 646 00b8 DB43     		mvn	r3, r3
 647 00ba DBB2     		uxtb	r3, r3
 648 00bc 181C     		mov	r0, r3
 649 00be FFF7FEFF 		bl	InterPin_Write
 280:main.c        ****         CyDelay(50);
 650              		.loc 1 280 0
 651 00c2 3220     		mov	r0, #50
 652 00c4 FFF7FEFF 		bl	CyDelay
 281:main.c        ****         InterPin_Write(~InterPin_Read());
 653              		.loc 1 281 0
 654 00c8 FFF7FEFF 		bl	InterPin_Read
 655 00cc 031C     		mov	r3, r0
 656 00ce DB43     		mvn	r3, r3
 657 00d0 DBB2     		uxtb	r3, r3
 658 00d2 181C     		mov	r0, r3
 659 00d4 FFF7FEFF 		bl	InterPin_Write
 660 00d8 06E0     		b	.L34
 661              	.L31:
 282:main.c        ****             
 283:main.c        ****     }          
 284:main.c        ****     else if (but1==0)
ARM GAS  C:\Users\poornima\AppData\Local\Temp\cc8JrzsS.s 			page 18


 662              		.loc 1 284 0
 663 00da A54B     		ldr	r3, .L63
 664 00dc 1B68     		ldr	r3, [r3]
 665 00de 002B     		cmp	r3, #0
 666 00e0 02D1     		bne	.L34
 285:main.c        ****     {
 286:main.c        ****         temp1=1;   
 667              		.loc 1 286 0
 668 00e2 AB4B     		ldr	r3, .L63+32
 669 00e4 0122     		mov	r2, #1
 670 00e6 1A70     		strb	r2, [r3]
 671              	.L34:
 287:main.c        ****     }
 288:main.c        ****   
 289:main.c        ****     // Switch 2 Control Code  
 290:main.c        ****     if(but2==1 && temp2==1)
 672              		.loc 1 290 0
 673 00e8 A24B     		ldr	r3, .L63+4
 674 00ea 1B68     		ldr	r3, [r3]
 675 00ec 012B     		cmp	r3, #1
 676 00ee 36D1     		bne	.L35
 677              		.loc 1 290 0 is_stmt 0 discriminator 1
 678 00f0 AA4B     		ldr	r3, .L63+44
 679 00f2 1B78     		ldrb	r3, [r3]
 680 00f4 012B     		cmp	r3, #1
 681 00f6 32D1     		bne	.L35
 291:main.c        ****    {
 292:main.c        ****             if(oldBut2==0)
 682              		.loc 1 292 0 is_stmt 1
 683 00f8 A94B     		ldr	r3, .L63+48
 684 00fa 1B68     		ldr	r3, [r3]
 685 00fc 002B     		cmp	r3, #0
 686 00fe 0AD1     		bne	.L36
 293:main.c        ****             {
 294:main.c        ****                 //UART_UartPutString("in CapSense_DisplayState :: Switch 2, value 100  \n\r");
 295:main.c        ****                 UpdateSwitchLeds(SWITCH2, 100);
 687              		.loc 1 295 0
 688 0100 0120     		mov	r0, #1
 689 0102 6421     		mov	r1, #100
 690 0104 FFF7FEFF 		bl	UpdateSwitchLeds
 296:main.c        ****                 i2cReadBuffer[1] = 100u;
 691              		.loc 1 296 0
 692 0108 A34B     		ldr	r3, .L63+40
 693 010a 6422     		mov	r2, #100
 694 010c 5A70     		strb	r2, [r3, #1]
 297:main.c        ****                 oldBut2=1;
 695              		.loc 1 297 0
 696 010e A44B     		ldr	r3, .L63+48
 697 0110 0122     		mov	r2, #1
 698 0112 1A60     		str	r2, [r3]
 699 0114 09E0     		b	.L37
 700              	.L36:
 298:main.c        ****             }
 299:main.c        ****             else
 300:main.c        ****             {
 301:main.c        ****                 //UART_UartPutString("in CapSense_DisplayState :: Switch 2, value 0  \n\r");
 302:main.c        ****                 UpdateSwitchLeds(SWITCH2, 0);
ARM GAS  C:\Users\poornima\AppData\Local\Temp\cc8JrzsS.s 			page 19


 701              		.loc 1 302 0
 702 0116 0120     		mov	r0, #1
 703 0118 0021     		mov	r1, #0
 704 011a FFF7FEFF 		bl	UpdateSwitchLeds
 303:main.c        ****                 i2cReadBuffer[1] = 0u;
 705              		.loc 1 303 0
 706 011e 9E4B     		ldr	r3, .L63+40
 707 0120 0022     		mov	r2, #0
 708 0122 5A70     		strb	r2, [r3, #1]
 304:main.c        ****                 oldBut2=0;
 709              		.loc 1 304 0
 710 0124 9E4B     		ldr	r3, .L63+48
 711 0126 0022     		mov	r2, #0
 712 0128 1A60     		str	r2, [r3]
 713              	.L37:
 305:main.c        ****                 
 306:main.c        ****             }
 307:main.c        ****              
 308:main.c        ****         temp2=0;
 714              		.loc 1 308 0
 715 012a 9C4B     		ldr	r3, .L63+44
 716 012c 0022     		mov	r2, #0
 717 012e 1A70     		strb	r2, [r3]
 309:main.c        ****         i2cReadBuffer[0] = SWITCH2;
 718              		.loc 1 309 0
 719 0130 994B     		ldr	r3, .L63+40
 720 0132 0122     		mov	r2, #1
 721 0134 1A70     		strb	r2, [r3]
 310:main.c        ****        
 311:main.c        ****         InterPin_Write(~InterPin_Read());
 722              		.loc 1 311 0
 723 0136 FFF7FEFF 		bl	InterPin_Read
 724 013a 031C     		mov	r3, r0
 725 013c DB43     		mvn	r3, r3
 726 013e DBB2     		uxtb	r3, r3
 727 0140 181C     		mov	r0, r3
 728 0142 FFF7FEFF 		bl	InterPin_Write
 312:main.c        ****         CyDelay(50);
 729              		.loc 1 312 0
 730 0146 3220     		mov	r0, #50
 731 0148 FFF7FEFF 		bl	CyDelay
 313:main.c        ****         InterPin_Write(~InterPin_Read());
 732              		.loc 1 313 0
 733 014c FFF7FEFF 		bl	InterPin_Read
 734 0150 031C     		mov	r3, r0
 735 0152 DB43     		mvn	r3, r3
 736 0154 DBB2     		uxtb	r3, r3
 737 0156 181C     		mov	r0, r3
 738 0158 FFF7FEFF 		bl	InterPin_Write
 739 015c 06E0     		b	.L38
 740              	.L35:
 314:main.c        ****     }          
 315:main.c        ****     else if (but2==0)
 741              		.loc 1 315 0
 742 015e 854B     		ldr	r3, .L63+4
 743 0160 1B68     		ldr	r3, [r3]
 744 0162 002B     		cmp	r3, #0
ARM GAS  C:\Users\poornima\AppData\Local\Temp\cc8JrzsS.s 			page 20


 745 0164 02D1     		bne	.L38
 316:main.c        ****     {
 317:main.c        ****         temp2=1;   
 746              		.loc 1 317 0
 747 0166 8D4B     		ldr	r3, .L63+44
 748 0168 0122     		mov	r2, #1
 749 016a 1A70     		strb	r2, [r3]
 750              	.L38:
 318:main.c        ****     }
 319:main.c        ****     
 320:main.c        ****     // Switch 3 Control Code 
 321:main.c        ****    if(but3==1 && temp3==1)
 751              		.loc 1 321 0
 752 016c 824B     		ldr	r3, .L63+8
 753 016e 1B68     		ldr	r3, [r3]
 754 0170 012B     		cmp	r3, #1
 755 0172 36D1     		bne	.L39
 756              		.loc 1 321 0 is_stmt 0 discriminator 1
 757 0174 8B4B     		ldr	r3, .L63+52
 758 0176 1B78     		ldrb	r3, [r3]
 759 0178 012B     		cmp	r3, #1
 760 017a 32D1     		bne	.L39
 322:main.c        ****         {
 323:main.c        ****             if(oldBut3==0)
 761              		.loc 1 323 0 is_stmt 1
 762 017c 8A4B     		ldr	r3, .L63+56
 763 017e 1B68     		ldr	r3, [r3]
 764 0180 002B     		cmp	r3, #0
 765 0182 0AD1     		bne	.L40
 324:main.c        ****             {
 325:main.c        ****                 //UART_UartPutString("in CapSense_DisplayState :: Switch 3, value 100   A\n\r");
 326:main.c        ****                 UpdateSwitchLeds(SWITCH3, 100);
 766              		.loc 1 326 0
 767 0184 0220     		mov	r0, #2
 768 0186 6421     		mov	r1, #100
 769 0188 FFF7FEFF 		bl	UpdateSwitchLeds
 327:main.c        ****                 i2cReadBuffer[1] = 1u;
 770              		.loc 1 327 0
 771 018c 824B     		ldr	r3, .L63+40
 772 018e 0122     		mov	r2, #1
 773 0190 5A70     		strb	r2, [r3, #1]
 328:main.c        ****                 oldBut3=1;
 774              		.loc 1 328 0
 775 0192 854B     		ldr	r3, .L63+56
 776 0194 0122     		mov	r2, #1
 777 0196 1A60     		str	r2, [r3]
 778 0198 09E0     		b	.L41
 779              	.L40:
 329:main.c        ****             }
 330:main.c        ****             
 331:main.c        ****             else
 332:main.c        ****             {
 333:main.c        ****                //UART_UartPutString("in CapSense_DisplayState :: Switch 3, value 0   A\n\r");
 334:main.c        ****                 UpdateSwitchLeds(SWITCH3, 0);
 780              		.loc 1 334 0
 781 019a 0220     		mov	r0, #2
 782 019c 0021     		mov	r1, #0
ARM GAS  C:\Users\poornima\AppData\Local\Temp\cc8JrzsS.s 			page 21


 783 019e FFF7FEFF 		bl	UpdateSwitchLeds
 335:main.c        ****                 i2cReadBuffer[1] = 0u;
 784              		.loc 1 335 0
 785 01a2 7D4B     		ldr	r3, .L63+40
 786 01a4 0022     		mov	r2, #0
 787 01a6 5A70     		strb	r2, [r3, #1]
 336:main.c        ****                 oldBut3=0;
 788              		.loc 1 336 0
 789 01a8 7F4B     		ldr	r3, .L63+56
 790 01aa 0022     		mov	r2, #0
 791 01ac 1A60     		str	r2, [r3]
 792              	.L41:
 337:main.c        ****                 
 338:main.c        ****             }
 339:main.c        ****         temp3=0;
 793              		.loc 1 339 0
 794 01ae 7D4B     		ldr	r3, .L63+52
 795 01b0 0022     		mov	r2, #0
 796 01b2 1A70     		strb	r2, [r3]
 340:main.c        ****         i2cReadBuffer[0] = SWITCH3;
 797              		.loc 1 340 0
 798 01b4 784B     		ldr	r3, .L63+40
 799 01b6 0222     		mov	r2, #2
 800 01b8 1A70     		strb	r2, [r3]
 341:main.c        ****        
 342:main.c        ****         InterPin_Write(~InterPin_Read());
 801              		.loc 1 342 0
 802 01ba FFF7FEFF 		bl	InterPin_Read
 803 01be 031C     		mov	r3, r0
 804 01c0 DB43     		mvn	r3, r3
 805 01c2 DBB2     		uxtb	r3, r3
 806 01c4 181C     		mov	r0, r3
 807 01c6 FFF7FEFF 		bl	InterPin_Write
 343:main.c        ****         CyDelay(50);
 808              		.loc 1 343 0
 809 01ca 3220     		mov	r0, #50
 810 01cc FFF7FEFF 		bl	CyDelay
 344:main.c        ****         InterPin_Write(~InterPin_Read());
 811              		.loc 1 344 0
 812 01d0 FFF7FEFF 		bl	InterPin_Read
 813 01d4 031C     		mov	r3, r0
 814 01d6 DB43     		mvn	r3, r3
 815 01d8 DBB2     		uxtb	r3, r3
 816 01da 181C     		mov	r0, r3
 817 01dc FFF7FEFF 		bl	InterPin_Write
 818 01e0 06E0     		b	.L42
 819              	.L39:
 345:main.c        ****         }          
 346:main.c        ****    else if (but3==0)
 820              		.loc 1 346 0
 821 01e2 654B     		ldr	r3, .L63+8
 822 01e4 1B68     		ldr	r3, [r3]
 823 01e6 002B     		cmp	r3, #0
 824 01e8 02D1     		bne	.L42
 347:main.c        ****    {
 348:main.c        ****     temp3=1;   
 825              		.loc 1 348 0
ARM GAS  C:\Users\poornima\AppData\Local\Temp\cc8JrzsS.s 			page 22


 826 01ea 6E4B     		ldr	r3, .L63+52
 827 01ec 0122     		mov	r2, #1
 828 01ee 1A70     		strb	r2, [r3]
 829              	.L42:
 349:main.c        ****    }
 350:main.c        ****         
 351:main.c        ****    // Switch 4 Control Code     
 352:main.c        ****   if(but4==1 && temp4==1)
 830              		.loc 1 352 0
 831 01f0 624B     		ldr	r3, .L63+12
 832 01f2 1B68     		ldr	r3, [r3]
 833 01f4 012B     		cmp	r3, #1
 834 01f6 36D1     		bne	.L43
 835              		.loc 1 352 0 is_stmt 0 discriminator 1
 836 01f8 6C4B     		ldr	r3, .L63+60
 837 01fa 1B78     		ldrb	r3, [r3]
 838 01fc 012B     		cmp	r3, #1
 839 01fe 32D1     		bne	.L43
 353:main.c        ****         {
 354:main.c        ****             if(oldBut4==0)
 840              		.loc 1 354 0 is_stmt 1
 841 0200 6B4B     		ldr	r3, .L63+64
 842 0202 1B68     		ldr	r3, [r3]
 843 0204 002B     		cmp	r3, #0
 844 0206 0AD1     		bne	.L44
 355:main.c        ****             {
 356:main.c        ****                 //UART_UartPutString("in CapSense_DisplayState :: Switch 4, value 100 \n\r");
 357:main.c        ****                 UpdateSwitchLeds(SWITCH4, 100);
 845              		.loc 1 357 0
 846 0208 0320     		mov	r0, #3
 847 020a 6421     		mov	r1, #100
 848 020c FFF7FEFF 		bl	UpdateSwitchLeds
 358:main.c        ****                 i2cReadBuffer[1] = 100u;
 849              		.loc 1 358 0
 850 0210 614B     		ldr	r3, .L63+40
 851 0212 6422     		mov	r2, #100
 852 0214 5A70     		strb	r2, [r3, #1]
 359:main.c        ****                 oldBut4=1;
 853              		.loc 1 359 0
 854 0216 664B     		ldr	r3, .L63+64
 855 0218 0122     		mov	r2, #1
 856 021a 1A60     		str	r2, [r3]
 857 021c 09E0     		b	.L45
 858              	.L44:
 360:main.c        ****             }
 361:main.c        ****             
 362:main.c        ****             else
 363:main.c        ****             {
 364:main.c        ****                 //UART_UartPutString("in CapSense_DisplayState :: Switch 4, value 0  \n\r");
 365:main.c        ****                 UpdateSwitchLeds(SWITCH4, 0);
 859              		.loc 1 365 0
 860 021e 0320     		mov	r0, #3
 861 0220 0021     		mov	r1, #0
 862 0222 FFF7FEFF 		bl	UpdateSwitchLeds
 366:main.c        ****                 i2cReadBuffer[1] = 0u;
 863              		.loc 1 366 0
 864 0226 5C4B     		ldr	r3, .L63+40
ARM GAS  C:\Users\poornima\AppData\Local\Temp\cc8JrzsS.s 			page 23


 865 0228 0022     		mov	r2, #0
 866 022a 5A70     		strb	r2, [r3, #1]
 367:main.c        ****                 oldBut4=0;
 867              		.loc 1 367 0
 868 022c 604B     		ldr	r3, .L63+64
 869 022e 0022     		mov	r2, #0
 870 0230 1A60     		str	r2, [r3]
 871              	.L45:
 368:main.c        ****                 
 369:main.c        ****             }
 370:main.c        ****         temp4=0;
 872              		.loc 1 370 0
 873 0232 5E4B     		ldr	r3, .L63+60
 874 0234 0022     		mov	r2, #0
 875 0236 1A70     		strb	r2, [r3]
 371:main.c        ****         i2cReadBuffer[0] = SWITCH4;
 876              		.loc 1 371 0
 877 0238 574B     		ldr	r3, .L63+40
 878 023a 0322     		mov	r2, #3
 879 023c 1A70     		strb	r2, [r3]
 372:main.c        ****     
 373:main.c        ****         InterPin_Write(~InterPin_Read());
 880              		.loc 1 373 0
 881 023e FFF7FEFF 		bl	InterPin_Read
 882 0242 031C     		mov	r3, r0
 883 0244 DB43     		mvn	r3, r3
 884 0246 DBB2     		uxtb	r3, r3
 885 0248 181C     		mov	r0, r3
 886 024a FFF7FEFF 		bl	InterPin_Write
 374:main.c        ****         CyDelay(200);
 887              		.loc 1 374 0
 888 024e C820     		mov	r0, #200
 889 0250 FFF7FEFF 		bl	CyDelay
 375:main.c        ****         InterPin_Write(~InterPin_Read());
 890              		.loc 1 375 0
 891 0254 FFF7FEFF 		bl	InterPin_Read
 892 0258 031C     		mov	r3, r0
 893 025a DB43     		mvn	r3, r3
 894 025c DBB2     		uxtb	r3, r3
 895 025e 181C     		mov	r0, r3
 896 0260 FFF7FEFF 		bl	InterPin_Write
 897 0264 06E0     		b	.L46
 898              	.L43:
 376:main.c        ****          
 377:main.c        ****         }          
 378:main.c        ****    else if (but4==0)
 899              		.loc 1 378 0
 900 0266 454B     		ldr	r3, .L63+12
 901 0268 1B68     		ldr	r3, [r3]
 902 026a 002B     		cmp	r3, #0
 903 026c 02D1     		bne	.L46
 379:main.c        ****     {
 380:main.c        ****       temp4=1;   
 904              		.loc 1 380 0
 905 026e 4F4B     		ldr	r3, .L63+60
 906 0270 0122     		mov	r2, #1
 907 0272 1A70     		strb	r2, [r3]
ARM GAS  C:\Users\poornima\AppData\Local\Temp\cc8JrzsS.s 			page 24


 908              	.L46:
 381:main.c        ****     }
 382:main.c        **** 
 383:main.c        ****     //Switch 5 Control Code 
 384:main.c        ****     
 385:main.c        ****    if(but5==1 && temp5==1)
 909              		.loc 1 385 0
 910 0274 424B     		ldr	r3, .L63+16
 911 0276 1B68     		ldr	r3, [r3]
 912 0278 012B     		cmp	r3, #1
 913 027a 36D1     		bne	.L47
 914              		.loc 1 385 0 is_stmt 0 discriminator 1
 915 027c 4D4B     		ldr	r3, .L63+68
 916 027e 1B78     		ldrb	r3, [r3]
 917 0280 012B     		cmp	r3, #1
 918 0282 32D1     		bne	.L47
 386:main.c        ****    {
 387:main.c        ****             if(oldBut5==0)
 919              		.loc 1 387 0 is_stmt 1
 920 0284 4C4B     		ldr	r3, .L63+72
 921 0286 1B68     		ldr	r3, [r3]
 922 0288 002B     		cmp	r3, #0
 923 028a 0AD1     		bne	.L48
 388:main.c        ****             {
 389:main.c        ****                 //UART_UartPutString("in CapSense_DisplayState :: Switch 5, value 0  \n\r");
 390:main.c        ****                 UpdateSwitchLeds(SWITCH5, 100);
 924              		.loc 1 390 0
 925 028c 0420     		mov	r0, #4
 926 028e 6421     		mov	r1, #100
 927 0290 FFF7FEFF 		bl	UpdateSwitchLeds
 391:main.c        ****                 i2cReadBuffer[1] = 100u;
 928              		.loc 1 391 0
 929 0294 404B     		ldr	r3, .L63+40
 930 0296 6422     		mov	r2, #100
 931 0298 5A70     		strb	r2, [r3, #1]
 392:main.c        ****                 oldBut5=1;
 932              		.loc 1 392 0
 933 029a 474B     		ldr	r3, .L63+72
 934 029c 0122     		mov	r2, #1
 935 029e 1A60     		str	r2, [r3]
 936 02a0 09E0     		b	.L49
 937              	.L48:
 393:main.c        ****             }
 394:main.c        ****             
 395:main.c        ****             else
 396:main.c        ****             {
 397:main.c        ****                 //UART_UartPutString("in CapSense_DisplayState :: Switch 5, value 0  \n\r");
 398:main.c        ****                 UpdateSwitchLeds(SWITCH5, 0);
 938              		.loc 1 398 0
 939 02a2 0420     		mov	r0, #4
 940 02a4 0021     		mov	r1, #0
 941 02a6 FFF7FEFF 		bl	UpdateSwitchLeds
 399:main.c        ****                 i2cReadBuffer[1] = 0u;
 942              		.loc 1 399 0
 943 02aa 3B4B     		ldr	r3, .L63+40
 944 02ac 0022     		mov	r2, #0
 945 02ae 5A70     		strb	r2, [r3, #1]
ARM GAS  C:\Users\poornima\AppData\Local\Temp\cc8JrzsS.s 			page 25


 400:main.c        ****                 oldBut5=0;
 946              		.loc 1 400 0
 947 02b0 414B     		ldr	r3, .L63+72
 948 02b2 0022     		mov	r2, #0
 949 02b4 1A60     		str	r2, [r3]
 950              	.L49:
 401:main.c        ****                 
 402:main.c        ****             }
 403:main.c        ****         temp5=0;
 951              		.loc 1 403 0
 952 02b6 3F4B     		ldr	r3, .L63+68
 953 02b8 0022     		mov	r2, #0
 954 02ba 1A70     		strb	r2, [r3]
 404:main.c        ****         i2cReadBuffer[0] = SWITCH5;
 955              		.loc 1 404 0
 956 02bc 364B     		ldr	r3, .L63+40
 957 02be 0422     		mov	r2, #4
 958 02c0 1A70     		strb	r2, [r3]
 405:main.c        ****         
 406:main.c        ****         InterPin_Write(~InterPin_Read());
 959              		.loc 1 406 0
 960 02c2 FFF7FEFF 		bl	InterPin_Read
 961 02c6 031C     		mov	r3, r0
 962 02c8 DB43     		mvn	r3, r3
 963 02ca DBB2     		uxtb	r3, r3
 964 02cc 181C     		mov	r0, r3
 965 02ce FFF7FEFF 		bl	InterPin_Write
 407:main.c        ****         CyDelay(50);
 966              		.loc 1 407 0
 967 02d2 3220     		mov	r0, #50
 968 02d4 FFF7FEFF 		bl	CyDelay
 408:main.c        ****         InterPin_Write(~InterPin_Read());
 969              		.loc 1 408 0
 970 02d8 FFF7FEFF 		bl	InterPin_Read
 971 02dc 031C     		mov	r3, r0
 972 02de DB43     		mvn	r3, r3
 973 02e0 DBB2     		uxtb	r3, r3
 974 02e2 181C     		mov	r0, r3
 975 02e4 FFF7FEFF 		bl	InterPin_Write
 976 02e8 06E0     		b	.L50
 977              	.L47:
 409:main.c        ****         }          
 410:main.c        ****    else if (but5==0)
 978              		.loc 1 410 0
 979 02ea 254B     		ldr	r3, .L63+16
 980 02ec 1B68     		ldr	r3, [r3]
 981 02ee 002B     		cmp	r3, #0
 982 02f0 02D1     		bne	.L50
 411:main.c        ****    {
 412:main.c        ****          temp5=1;   
 983              		.loc 1 412 0
 984 02f2 304B     		ldr	r3, .L63+68
 985 02f4 0122     		mov	r2, #1
 986 02f6 1A70     		strb	r2, [r3]
 987              	.L50:
 413:main.c        ****    }
 414:main.c        **** 
ARM GAS  C:\Users\poornima\AppData\Local\Temp\cc8JrzsS.s 			page 26


 415:main.c        **** //Switch 6 Control Code 
 416:main.c        ****     if(but6==1 && temp6==1)
 988              		.loc 1 416 0
 989 02f8 224B     		ldr	r3, .L63+20
 990 02fa 1B68     		ldr	r3, [r3]
 991 02fc 012B     		cmp	r3, #1
 992 02fe 61D1     		bne	.L51
 993              		.loc 1 416 0 is_stmt 0 discriminator 1
 994 0300 2E4B     		ldr	r3, .L63+76
 995 0302 1B78     		ldrb	r3, [r3]
 996 0304 012B     		cmp	r3, #1
 997 0306 5DD1     		bne	.L51
 417:main.c        ****    {
 418:main.c        ****             if(oldBut6==0)
 998              		.loc 1 418 0 is_stmt 1
 999 0308 2D4B     		ldr	r3, .L63+80
 1000 030a 1B68     		ldr	r3, [r3]
 1001 030c 002B     		cmp	r3, #0
 1002 030e 0AD1     		bne	.L52
 419:main.c        ****             {
 420:main.c        ****                 //UART_UartPutString("in CapSense_DisplayState :: Switch 5, value 0  \n\r");
 421:main.c        ****                 UpdateSwitchLeds(SWITCH6, 100);
 1003              		.loc 1 421 0
 1004 0310 0520     		mov	r0, #5
 1005 0312 6421     		mov	r1, #100
 1006 0314 FFF7FEFF 		bl	UpdateSwitchLeds
 422:main.c        ****                 i2cReadBuffer[1] = 100u;
 1007              		.loc 1 422 0
 1008 0318 1F4B     		ldr	r3, .L63+40
 1009 031a 6422     		mov	r2, #100
 1010 031c 5A70     		strb	r2, [r3, #1]
 423:main.c        ****                 oldBut6=1;
 1011              		.loc 1 423 0
 1012 031e 284B     		ldr	r3, .L63+80
 1013 0320 0122     		mov	r2, #1
 1014 0322 1A60     		str	r2, [r3]
 1015 0324 09E0     		b	.L53
 1016              	.L52:
 424:main.c        ****             }
 425:main.c        ****             
 426:main.c        ****             else
 427:main.c        ****             {
 428:main.c        ****                 //UART_UartPutString("in CapSense_DisplayState :: Switch 5, value 0  \n\r");
 429:main.c        ****                 UpdateSwitchLeds(SWITCH6, 0);
 1017              		.loc 1 429 0
 1018 0326 0520     		mov	r0, #5
 1019 0328 0021     		mov	r1, #0
 1020 032a FFF7FEFF 		bl	UpdateSwitchLeds
 430:main.c        ****                 i2cReadBuffer[1] = 0u;
 1021              		.loc 1 430 0
 1022 032e 1A4B     		ldr	r3, .L63+40
 1023 0330 0022     		mov	r2, #0
 1024 0332 5A70     		strb	r2, [r3, #1]
 431:main.c        ****                 oldBut6=0;
 1025              		.loc 1 431 0
 1026 0334 224B     		ldr	r3, .L63+80
 1027 0336 0022     		mov	r2, #0
ARM GAS  C:\Users\poornima\AppData\Local\Temp\cc8JrzsS.s 			page 27


 1028 0338 1A60     		str	r2, [r3]
 1029              	.L53:
 432:main.c        ****                 
 433:main.c        ****             }
 434:main.c        ****         temp6=0;
 1030              		.loc 1 434 0
 1031 033a 204B     		ldr	r3, .L63+76
 1032 033c 0022     		mov	r2, #0
 1033 033e 1A70     		strb	r2, [r3]
 435:main.c        ****         i2cReadBuffer[0] = SWITCH6;
 1034              		.loc 1 435 0
 1035 0340 154B     		ldr	r3, .L63+40
 1036 0342 0522     		mov	r2, #5
 1037 0344 1A70     		strb	r2, [r3]
 436:main.c        ****         
 437:main.c        ****         InterPin_Write(~InterPin_Read());
 1038              		.loc 1 437 0
 1039 0346 FFF7FEFF 		bl	InterPin_Read
 1040 034a 031C     		mov	r3, r0
 1041 034c DB43     		mvn	r3, r3
 1042 034e DBB2     		uxtb	r3, r3
 1043 0350 181C     		mov	r0, r3
 1044 0352 FFF7FEFF 		bl	InterPin_Write
 438:main.c        ****         CyDelay(50);
 1045              		.loc 1 438 0
 1046 0356 3220     		mov	r0, #50
 1047 0358 FFF7FEFF 		bl	CyDelay
 439:main.c        ****         InterPin_Write(~InterPin_Read());
 1048              		.loc 1 439 0
 1049 035c FFF7FEFF 		bl	InterPin_Read
 1050 0360 031C     		mov	r3, r0
 1051 0362 DB43     		mvn	r3, r3
 1052 0364 DBB2     		uxtb	r3, r3
 1053 0366 181C     		mov	r0, r3
 1054 0368 FFF7FEFF 		bl	InterPin_Write
 1055 036c 31E0     		b	.L54
 1056              	.L64:
 1057 036e C046     		.align	2
 1058              	.L63:
 1059 0370 00000000 		.word	but1
 1060 0374 00000000 		.word	but2
 1061 0378 00000000 		.word	but3
 1062 037c 00000000 		.word	but4
 1063 0380 00000000 		.word	but5
 1064 0384 00000000 		.word	but6
 1065 0388 00000000 		.word	but7
 1066 038c 00000000 		.word	but8
 1067 0390 00000000 		.word	temp1
 1068 0394 00000000 		.word	oldBut1
 1069 0398 00000000 		.word	i2cReadBuffer
 1070 039c 00000000 		.word	temp2
 1071 03a0 00000000 		.word	oldBut2
 1072 03a4 00000000 		.word	temp3
 1073 03a8 00000000 		.word	oldBut3
 1074 03ac 00000000 		.word	temp4
 1075 03b0 00000000 		.word	oldBut4
 1076 03b4 00000000 		.word	temp5
ARM GAS  C:\Users\poornima\AppData\Local\Temp\cc8JrzsS.s 			page 28


 1077 03b8 00000000 		.word	oldBut5
 1078 03bc 00000000 		.word	temp6
 1079 03c0 00000000 		.word	oldBut6
 1080              	.L51:
 440:main.c        ****         }          
 441:main.c        ****    else if (but6==0)
 1081              		.loc 1 441 0
 1082 03c4 464B     		ldr	r3, .L65
 1083 03c6 1B68     		ldr	r3, [r3]
 1084 03c8 002B     		cmp	r3, #0
 1085 03ca 02D1     		bne	.L54
 442:main.c        ****    {
 443:main.c        ****          temp6=1;   
 1086              		.loc 1 443 0
 1087 03cc 454B     		ldr	r3, .L65+4
 1088 03ce 0122     		mov	r2, #1
 1089 03d0 1A70     		strb	r2, [r3]
 1090              	.L54:
 444:main.c        ****    }
 445:main.c        **** 
 446:main.c        **** // Switch 7 Control Code 
 447:main.c        ****     if(but7==1 && temp7==1)
 1091              		.loc 1 447 0
 1092 03d2 454B     		ldr	r3, .L65+8
 1093 03d4 1B68     		ldr	r3, [r3]
 1094 03d6 012B     		cmp	r3, #1
 1095 03d8 36D1     		bne	.L55
 1096              		.loc 1 447 0 is_stmt 0 discriminator 1
 1097 03da 444B     		ldr	r3, .L65+12
 1098 03dc 1B78     		ldrb	r3, [r3]
 1099 03de 012B     		cmp	r3, #1
 1100 03e0 32D1     		bne	.L55
 448:main.c        ****    {
 449:main.c        ****             if(oldBut7==0)
 1101              		.loc 1 449 0 is_stmt 1
 1102 03e2 434B     		ldr	r3, .L65+16
 1103 03e4 1B68     		ldr	r3, [r3]
 1104 03e6 002B     		cmp	r3, #0
 1105 03e8 0AD1     		bne	.L56
 450:main.c        ****             {
 451:main.c        ****                 //UART_UartPutString("in CapSense_DisplayState :: Switch 5, value 0  \n\r");
 452:main.c        ****                 UpdateSwitchLeds(SWITCH7, 100);
 1106              		.loc 1 452 0
 1107 03ea 0620     		mov	r0, #6
 1108 03ec 6421     		mov	r1, #100
 1109 03ee FFF7FEFF 		bl	UpdateSwitchLeds
 453:main.c        ****                 i2cReadBuffer[1] = 100u;
 1110              		.loc 1 453 0
 1111 03f2 404B     		ldr	r3, .L65+20
 1112 03f4 6422     		mov	r2, #100
 1113 03f6 5A70     		strb	r2, [r3, #1]
 454:main.c        ****                 oldBut7=1;
 1114              		.loc 1 454 0
 1115 03f8 3D4B     		ldr	r3, .L65+16
 1116 03fa 0122     		mov	r2, #1
 1117 03fc 1A60     		str	r2, [r3]
 1118 03fe 09E0     		b	.L57
ARM GAS  C:\Users\poornima\AppData\Local\Temp\cc8JrzsS.s 			page 29


 1119              	.L56:
 455:main.c        ****             }
 456:main.c        ****             
 457:main.c        ****             else
 458:main.c        ****             {
 459:main.c        ****                 //UART_UartPutString("in CapSense_DisplayState :: Switch 5, value 0  \n\r");
 460:main.c        ****                 UpdateSwitchLeds(SWITCH7, 0);
 1120              		.loc 1 460 0
 1121 0400 0620     		mov	r0, #6
 1122 0402 0021     		mov	r1, #0
 1123 0404 FFF7FEFF 		bl	UpdateSwitchLeds
 461:main.c        ****                 i2cReadBuffer[1] = 0u;
 1124              		.loc 1 461 0
 1125 0408 3A4B     		ldr	r3, .L65+20
 1126 040a 0022     		mov	r2, #0
 1127 040c 5A70     		strb	r2, [r3, #1]
 462:main.c        ****                 oldBut7=0;
 1128              		.loc 1 462 0
 1129 040e 384B     		ldr	r3, .L65+16
 1130 0410 0022     		mov	r2, #0
 1131 0412 1A60     		str	r2, [r3]
 1132              	.L57:
 463:main.c        ****                 
 464:main.c        ****             }
 465:main.c        ****         temp7=0;
 1133              		.loc 1 465 0
 1134 0414 354B     		ldr	r3, .L65+12
 1135 0416 0022     		mov	r2, #0
 1136 0418 1A70     		strb	r2, [r3]
 466:main.c        ****         i2cReadBuffer[0] = SWITCH7;
 1137              		.loc 1 466 0
 1138 041a 364B     		ldr	r3, .L65+20
 1139 041c 0622     		mov	r2, #6
 1140 041e 1A70     		strb	r2, [r3]
 467:main.c        ****         
 468:main.c        ****         InterPin_Write(~InterPin_Read());
 1141              		.loc 1 468 0
 1142 0420 FFF7FEFF 		bl	InterPin_Read
 1143 0424 031C     		mov	r3, r0
 1144 0426 DB43     		mvn	r3, r3
 1145 0428 DBB2     		uxtb	r3, r3
 1146 042a 181C     		mov	r0, r3
 1147 042c FFF7FEFF 		bl	InterPin_Write
 469:main.c        ****         CyDelay(50);
 1148              		.loc 1 469 0
 1149 0430 3220     		mov	r0, #50
 1150 0432 FFF7FEFF 		bl	CyDelay
 470:main.c        ****         InterPin_Write(~InterPin_Read());
 1151              		.loc 1 470 0
 1152 0436 FFF7FEFF 		bl	InterPin_Read
 1153 043a 031C     		mov	r3, r0
 1154 043c DB43     		mvn	r3, r3
 1155 043e DBB2     		uxtb	r3, r3
 1156 0440 181C     		mov	r0, r3
 1157 0442 FFF7FEFF 		bl	InterPin_Write
 1158 0446 06E0     		b	.L58
 1159              	.L55:
ARM GAS  C:\Users\poornima\AppData\Local\Temp\cc8JrzsS.s 			page 30


 471:main.c        ****         }          
 472:main.c        ****    else if (but7==0)
 1160              		.loc 1 472 0
 1161 0448 274B     		ldr	r3, .L65+8
 1162 044a 1B68     		ldr	r3, [r3]
 1163 044c 002B     		cmp	r3, #0
 1164 044e 02D1     		bne	.L58
 473:main.c        ****    {
 474:main.c        ****          temp7=1;   
 1165              		.loc 1 474 0
 1166 0450 264B     		ldr	r3, .L65+12
 1167 0452 0122     		mov	r2, #1
 1168 0454 1A70     		strb	r2, [r3]
 1169              	.L58:
 475:main.c        ****    }
 476:main.c        ****     
 477:main.c        **** // Switch 8 Control Code 
 478:main.c        **** if(but5==8 && temp8==1)
 1170              		.loc 1 478 0
 1171 0456 284B     		ldr	r3, .L65+24
 1172 0458 1B68     		ldr	r3, [r3]
 1173 045a 082B     		cmp	r3, #8
 1174 045c 36D1     		bne	.L59
 1175              		.loc 1 478 0 is_stmt 0 discriminator 1
 1176 045e 274B     		ldr	r3, .L65+28
 1177 0460 1B78     		ldrb	r3, [r3]
 1178 0462 012B     		cmp	r3, #1
 1179 0464 32D1     		bne	.L59
 479:main.c        ****    {
 480:main.c        ****             if(oldBut8==0)
 1180              		.loc 1 480 0 is_stmt 1
 1181 0466 264B     		ldr	r3, .L65+32
 1182 0468 1B68     		ldr	r3, [r3]
 1183 046a 002B     		cmp	r3, #0
 1184 046c 0AD1     		bne	.L60
 481:main.c        ****             {
 482:main.c        ****                 //UART_UartPutString("in CapSense_DisplayState :: Switch 5, value 0  \n\r");
 483:main.c        ****                 UpdateSwitchLeds(SWITCH8, 100);
 1185              		.loc 1 483 0
 1186 046e 0720     		mov	r0, #7
 1187 0470 6421     		mov	r1, #100
 1188 0472 FFF7FEFF 		bl	UpdateSwitchLeds
 484:main.c        ****                 i2cReadBuffer[1] = 100u;
 1189              		.loc 1 484 0
 1190 0476 1F4B     		ldr	r3, .L65+20
 1191 0478 6422     		mov	r2, #100
 1192 047a 5A70     		strb	r2, [r3, #1]
 485:main.c        ****                 oldBut8=1;
 1193              		.loc 1 485 0
 1194 047c 204B     		ldr	r3, .L65+32
 1195 047e 0122     		mov	r2, #1
 1196 0480 1A60     		str	r2, [r3]
 1197 0482 09E0     		b	.L61
 1198              	.L60:
 486:main.c        ****             }
 487:main.c        ****             
 488:main.c        ****             else
ARM GAS  C:\Users\poornima\AppData\Local\Temp\cc8JrzsS.s 			page 31


 489:main.c        ****             {
 490:main.c        ****                 //UART_UartPutString("in CapSense_DisplayState :: Switch 5, value 0  \n\r");
 491:main.c        ****                 UpdateSwitchLeds(SWITCH8, 0);
 1199              		.loc 1 491 0
 1200 0484 0720     		mov	r0, #7
 1201 0486 0021     		mov	r1, #0
 1202 0488 FFF7FEFF 		bl	UpdateSwitchLeds
 492:main.c        ****                 i2cReadBuffer[1] = 0u;
 1203              		.loc 1 492 0
 1204 048c 194B     		ldr	r3, .L65+20
 1205 048e 0022     		mov	r2, #0
 1206 0490 5A70     		strb	r2, [r3, #1]
 493:main.c        ****                 oldBut8=0;
 1207              		.loc 1 493 0
 1208 0492 1B4B     		ldr	r3, .L65+32
 1209 0494 0022     		mov	r2, #0
 1210 0496 1A60     		str	r2, [r3]
 1211              	.L61:
 494:main.c        ****                 
 495:main.c        ****             }
 496:main.c        ****         temp8=0;
 1212              		.loc 1 496 0
 1213 0498 184B     		ldr	r3, .L65+28
 1214 049a 0022     		mov	r2, #0
 1215 049c 1A70     		strb	r2, [r3]
 497:main.c        ****         i2cReadBuffer[0] = SWITCH8;
 1216              		.loc 1 497 0
 1217 049e 154B     		ldr	r3, .L65+20
 1218 04a0 0722     		mov	r2, #7
 1219 04a2 1A70     		strb	r2, [r3]
 498:main.c        ****         
 499:main.c        ****         InterPin_Write(~InterPin_Read());
 1220              		.loc 1 499 0
 1221 04a4 FFF7FEFF 		bl	InterPin_Read
 1222 04a8 031C     		mov	r3, r0
 1223 04aa DB43     		mvn	r3, r3
 1224 04ac DBB2     		uxtb	r3, r3
 1225 04ae 181C     		mov	r0, r3
 1226 04b0 FFF7FEFF 		bl	InterPin_Write
 500:main.c        ****         CyDelay(50);
 1227              		.loc 1 500 0
 1228 04b4 3220     		mov	r0, #50
 1229 04b6 FFF7FEFF 		bl	CyDelay
 501:main.c        ****         InterPin_Write(~InterPin_Read());
 1230              		.loc 1 501 0
 1231 04ba FFF7FEFF 		bl	InterPin_Read
 1232 04be 031C     		mov	r3, r0
 1233 04c0 DB43     		mvn	r3, r3
 1234 04c2 DBB2     		uxtb	r3, r3
 1235 04c4 181C     		mov	r0, r3
 1236 04c6 FFF7FEFF 		bl	InterPin_Write
 1237 04ca 06E0     		b	.L30
 1238              	.L59:
 502:main.c        ****         }          
 503:main.c        ****    else if (but8==0)
 1239              		.loc 1 503 0
 1240 04cc 0D4B     		ldr	r3, .L65+36
ARM GAS  C:\Users\poornima\AppData\Local\Temp\cc8JrzsS.s 			page 32


 1241 04ce 1B68     		ldr	r3, [r3]
 1242 04d0 002B     		cmp	r3, #0
 1243 04d2 02D1     		bne	.L30
 504:main.c        ****    {
 505:main.c        ****          temp8=1;   
 1244              		.loc 1 505 0
 1245 04d4 094B     		ldr	r3, .L65+28
 1246 04d6 0122     		mov	r2, #1
 1247 04d8 1A70     		strb	r2, [r3]
 1248              	.L30:
 506:main.c        ****    }
 507:main.c        ****     
 508:main.c        ****     
 509:main.c        ****     }
 1249              		.loc 1 509 0
 1250 04da BD46     		mov	sp, r7
 1251              		@ sp needed
 1252 04dc 80BD     		pop	{r7, pc}
 1253              	.L66:
 1254 04de C046     		.align	2
 1255              	.L65:
 1256 04e0 00000000 		.word	but6
 1257 04e4 00000000 		.word	temp6
 1258 04e8 00000000 		.word	but7
 1259 04ec 00000000 		.word	temp7
 1260 04f0 00000000 		.word	oldBut7
 1261 04f4 00000000 		.word	i2cReadBuffer
 1262 04f8 00000000 		.word	but5
 1263 04fc 00000000 		.word	temp8
 1264 0500 00000000 		.word	oldBut8
 1265 0504 00000000 		.word	but8
 1266              		.cfi_endproc
 1267              	.LFE38:
 1268              		.size	CapSense_DisplayState, .-CapSense_DisplayState
 1269              		.section	.text.UpdateSwitchLeds,"ax",%progbits
 1270              		.align	2
 1271              		.global	UpdateSwitchLeds
 1272              		.code	16
 1273              		.thumb_func
 1274              		.type	UpdateSwitchLeds, %function
 1275              	UpdateSwitchLeds:
 1276              	.LFB39:
 510:main.c        **** 
 511:main.c        ****    
 512:main.c        **** void UpdateSwitchLeds(uint16 res, uint16 curPos)
 513:main.c        **** {
 1277              		.loc 1 513 0
 1278              		.cfi_startproc
 1279 0000 80B5     		push	{r7, lr}
 1280              		.cfi_def_cfa_offset 8
 1281              		.cfi_offset 7, -8
 1282              		.cfi_offset 14, -4
 1283 0002 82B0     		sub	sp, sp, #8
 1284              		.cfi_def_cfa_offset 16
 1285 0004 00AF     		add	r7, sp, #0
 1286              		.cfi_def_cfa_register 7
 1287 0006 021C     		mov	r2, r0
ARM GAS  C:\Users\poornima\AppData\Local\Temp\cc8JrzsS.s 			page 33


 1288 0008 BB1D     		add	r3, r7, #6
 1289 000a 1A80     		strh	r2, [r3]
 1290 000c 3B1D     		add	r3, r7, #4
 1291 000e 0A1C     		add	r2, r1, #0
 1292 0010 1A80     		strh	r2, [r3]
 514:main.c        ****     /* Turn of all LEDs first */
 515:main.c        ****     
 516:main.c        ****     //UART_UartPutString("in UpdateSwitchLeds\n");
 517:main.c        ****     
 518:main.c        ****     
 519:main.c        ****     switch(res)
 1293              		.loc 1 519 0
 1294 0012 BB1D     		add	r3, r7, #6
 1295 0014 1B88     		ldrh	r3, [r3]
 1296 0016 072B     		cmp	r3, #7
 1297 0018 00D9     		bls	.LCB1059
 1298 001a 44E1     		b	.L68	@long jump
 1299              	.LCB1059:
 1300 001c 9A00     		lsl	r2, r3, #2
 1301 001e BC4B     		ldr	r3, .L95
 1302 0020 D318     		add	r3, r2, r3
 1303 0022 1B68     		ldr	r3, [r3]
 1304 0024 9F46     		mov	pc, r3
 1305              		.section	.rodata
 1306              		.align	2
 1307              	.L70:
 1308 0084 26000000 		.word	.L69
 1309 0088 76000000 		.word	.L71
 1310 008c C6000000 		.word	.L72
 1311 0090 16010000 		.word	.L73
 1312 0094 66010000 		.word	.L74
 1313 0098 B6010000 		.word	.L75
 1314 009c 06020000 		.word	.L76
 1315 00a0 56020000 		.word	.L77
 1316              		.section	.text.UpdateSwitchLeds
 1317              	.L69:
 520:main.c        ****     {
 521:main.c        ****             case SWITCH1:
 522:main.c        ****                 if(curPos == 100)
 1318              		.loc 1 522 0
 1319 0026 3B1D     		add	r3, r7, #4
 1320 0028 1B88     		ldrh	r3, [r3]
 1321 002a 642B     		cmp	r3, #100
 1322 002c 11D1     		bne	.L78
 523:main.c        ****                 {
 524:main.c        ****                     //UART_UartPutString("in UpdateSwitchLeds :: switch1 :: on \n");
 525:main.c        ****                     LED1_Write(1);
 1323              		.loc 1 525 0
 1324 002e 0120     		mov	r0, #1
 1325 0030 FFF7FEFF 		bl	LED1_Write
 526:main.c        ****                     Triac1_Write(1);
 1326              		.loc 1 526 0
 1327 0034 0120     		mov	r0, #1
 1328 0036 FFF7FEFF 		bl	Triac1_Write
 527:main.c        ****                     cache[0]=curPos;
 1329              		.loc 1 527 0
 1330 003a 3B1D     		add	r3, r7, #4
ARM GAS  C:\Users\poornima\AppData\Local\Temp\cc8JrzsS.s 			page 34


 1331 003c 1B88     		ldrh	r3, [r3]
 1332 003e DAB2     		uxtb	r2, r3
 1333 0040 B44B     		ldr	r3, .L95+4
 1334 0042 1A70     		strb	r2, [r3]
 528:main.c        ****                     CySysFlashWriteRow(CY_TEST_FLASH_ROW, cache);
 1335              		.loc 1 528 0
 1336 0044 B44A     		ldr	r2, .L95+8
 1337 0046 B34B     		ldr	r3, .L95+4
 1338 0048 101C     		mov	r0, r2
 1339 004a 191C     		mov	r1, r3
 1340 004c FFF7FEFF 		bl	CySysFlashWriteRow
 529:main.c        ****                     
 530:main.c        ****                 }
 531:main.c        ****                 else
 532:main.c        ****                 {
 533:main.c        ****                     //UART_UartPutString("in UpdateSwitchLeds :: switch1 :: off \n");
 534:main.c        ****                     LED1_Write(0);
 535:main.c        ****                     Triac1_Write(0);
 536:main.c        ****                     cache[0]=curPos;
 537:main.c        ****                     CySysFlashWriteRow(CY_TEST_FLASH_ROW, cache);
 538:main.c        ****                     
 539:main.c        ****                 }
 540:main.c        ****                 break;
 1341              		.loc 1 540 0
 1342 0050 5AE1     		b	.L67
 1343              	.L78:
 534:main.c        ****                     Triac1_Write(0);
 1344              		.loc 1 534 0
 1345 0052 0020     		mov	r0, #0
 1346 0054 FFF7FEFF 		bl	LED1_Write
 535:main.c        ****                     cache[0]=curPos;
 1347              		.loc 1 535 0
 1348 0058 0020     		mov	r0, #0
 1349 005a FFF7FEFF 		bl	Triac1_Write
 536:main.c        ****                     CySysFlashWriteRow(CY_TEST_FLASH_ROW, cache);
 1350              		.loc 1 536 0
 1351 005e 3B1D     		add	r3, r7, #4
 1352 0060 1B88     		ldrh	r3, [r3]
 1353 0062 DAB2     		uxtb	r2, r3
 1354 0064 AB4B     		ldr	r3, .L95+4
 1355 0066 1A70     		strb	r2, [r3]
 537:main.c        ****                     
 1356              		.loc 1 537 0
 1357 0068 AB4A     		ldr	r2, .L95+8
 1358 006a AA4B     		ldr	r3, .L95+4
 1359 006c 101C     		mov	r0, r2
 1360 006e 191C     		mov	r1, r3
 1361 0070 FFF7FEFF 		bl	CySysFlashWriteRow
 1362              		.loc 1 540 0
 1363 0074 48E1     		b	.L67
 1364              	.L71:
 541:main.c        ****             case SWITCH2:
 542:main.c        ****                 if(curPos == 100 )
 1365              		.loc 1 542 0
 1366 0076 3B1D     		add	r3, r7, #4
 1367 0078 1B88     		ldrh	r3, [r3]
 1368 007a 642B     		cmp	r3, #100
ARM GAS  C:\Users\poornima\AppData\Local\Temp\cc8JrzsS.s 			page 35


 1369 007c 11D1     		bne	.L81
 543:main.c        ****                 {
 544:main.c        ****                     //UART_UartPutString("in UpdateSwitchLeds :: switch2 :: on \n");
 545:main.c        ****                     LED2_Write(1);
 1370              		.loc 1 545 0
 1371 007e 0120     		mov	r0, #1
 1372 0080 FFF7FEFF 		bl	LED2_Write
 546:main.c        ****                     Triac2_Write(1);
 1373              		.loc 1 546 0
 1374 0084 0120     		mov	r0, #1
 1375 0086 FFF7FEFF 		bl	Triac2_Write
 547:main.c        ****                     cache[1]=curPos;
 1376              		.loc 1 547 0
 1377 008a 3B1D     		add	r3, r7, #4
 1378 008c 1B88     		ldrh	r3, [r3]
 1379 008e DAB2     		uxtb	r2, r3
 1380 0090 A04B     		ldr	r3, .L95+4
 1381 0092 5A70     		strb	r2, [r3, #1]
 548:main.c        ****                     CySysFlashWriteRow(CY_TEST_FLASH_ROW, cache);
 1382              		.loc 1 548 0
 1383 0094 A04A     		ldr	r2, .L95+8
 1384 0096 9F4B     		ldr	r3, .L95+4
 1385 0098 101C     		mov	r0, r2
 1386 009a 191C     		mov	r1, r3
 1387 009c FFF7FEFF 		bl	CySysFlashWriteRow
 549:main.c        ****                   
 550:main.c        ****                 }
 551:main.c        ****                 else
 552:main.c        ****                 {
 553:main.c        ****                     //UART_UartPutString("in UpdateSwitchLeds :: switch2 :: off \n");
 554:main.c        ****                     LED2_Write(0);
 555:main.c        ****                     Triac2_Write(0);
 556:main.c        ****                     cache[1]=curPos;
 557:main.c        ****                     CySysFlashWriteRow(CY_TEST_FLASH_ROW, cache);                   
 558:main.c        ****                 }
 559:main.c        ****                 break;
 1388              		.loc 1 559 0
 1389 00a0 32E1     		b	.L67
 1390              	.L81:
 554:main.c        ****                     Triac2_Write(0);
 1391              		.loc 1 554 0
 1392 00a2 0020     		mov	r0, #0
 1393 00a4 FFF7FEFF 		bl	LED2_Write
 555:main.c        ****                     cache[1]=curPos;
 1394              		.loc 1 555 0
 1395 00a8 0020     		mov	r0, #0
 1396 00aa FFF7FEFF 		bl	Triac2_Write
 556:main.c        ****                     CySysFlashWriteRow(CY_TEST_FLASH_ROW, cache);                   
 1397              		.loc 1 556 0
 1398 00ae 3B1D     		add	r3, r7, #4
 1399 00b0 1B88     		ldrh	r3, [r3]
 1400 00b2 DAB2     		uxtb	r2, r3
 1401 00b4 974B     		ldr	r3, .L95+4
 1402 00b6 5A70     		strb	r2, [r3, #1]
 557:main.c        ****                 }
 1403              		.loc 1 557 0
 1404 00b8 974A     		ldr	r2, .L95+8
ARM GAS  C:\Users\poornima\AppData\Local\Temp\cc8JrzsS.s 			page 36


 1405 00ba 964B     		ldr	r3, .L95+4
 1406 00bc 101C     		mov	r0, r2
 1407 00be 191C     		mov	r1, r3
 1408 00c0 FFF7FEFF 		bl	CySysFlashWriteRow
 1409              		.loc 1 559 0
 1410 00c4 20E1     		b	.L67
 1411              	.L72:
 560:main.c        ****             case SWITCH3:
 561:main.c        ****                 if(curPos == 100 )
 1412              		.loc 1 561 0
 1413 00c6 3B1D     		add	r3, r7, #4
 1414 00c8 1B88     		ldrh	r3, [r3]
 1415 00ca 642B     		cmp	r3, #100
 1416 00cc 11D1     		bne	.L83
 562:main.c        ****                 {
 563:main.c        ****                     //UART_UartPutString("in UpdateSwitchLeds :: switch3 :: on \n");
 564:main.c        ****                     LED3_Write(1);
 1417              		.loc 1 564 0
 1418 00ce 0120     		mov	r0, #1
 1419 00d0 FFF7FEFF 		bl	LED3_Write
 565:main.c        ****                     Triac3_Write(1);
 1420              		.loc 1 565 0
 1421 00d4 0120     		mov	r0, #1
 1422 00d6 FFF7FEFF 		bl	Triac3_Write
 566:main.c        ****                     cache[2]=curPos;
 1423              		.loc 1 566 0
 1424 00da 3B1D     		add	r3, r7, #4
 1425 00dc 1B88     		ldrh	r3, [r3]
 1426 00de DAB2     		uxtb	r2, r3
 1427 00e0 8C4B     		ldr	r3, .L95+4
 1428 00e2 9A70     		strb	r2, [r3, #2]
 567:main.c        ****                     CySysFlashWriteRow(CY_TEST_FLASH_ROW, cache);
 1429              		.loc 1 567 0
 1430 00e4 8C4A     		ldr	r2, .L95+8
 1431 00e6 8B4B     		ldr	r3, .L95+4
 1432 00e8 101C     		mov	r0, r2
 1433 00ea 191C     		mov	r1, r3
 1434 00ec FFF7FEFF 		bl	CySysFlashWriteRow
 568:main.c        ****                 }
 569:main.c        ****                 else
 570:main.c        ****                 {
 571:main.c        ****                     //UART_UartPutString("in UpdateSwitchLeds :: switch3 :: off \n");
 572:main.c        ****                     LED3_Write(0);
 573:main.c        ****                     Triac3_Write(0);
 574:main.c        ****                     cache[2]=curPos;
 575:main.c        ****                     CySysFlashWriteRow(CY_TEST_FLASH_ROW, cache);
 576:main.c        ****                 }
 577:main.c        ****                 break;
 1435              		.loc 1 577 0
 1436 00f0 0AE1     		b	.L67
 1437              	.L83:
 572:main.c        ****                     Triac3_Write(0);
 1438              		.loc 1 572 0
 1439 00f2 0020     		mov	r0, #0
 1440 00f4 FFF7FEFF 		bl	LED3_Write
 573:main.c        ****                     cache[2]=curPos;
 1441              		.loc 1 573 0
ARM GAS  C:\Users\poornima\AppData\Local\Temp\cc8JrzsS.s 			page 37


 1442 00f8 0020     		mov	r0, #0
 1443 00fa FFF7FEFF 		bl	Triac3_Write
 574:main.c        ****                     CySysFlashWriteRow(CY_TEST_FLASH_ROW, cache);
 1444              		.loc 1 574 0
 1445 00fe 3B1D     		add	r3, r7, #4
 1446 0100 1B88     		ldrh	r3, [r3]
 1447 0102 DAB2     		uxtb	r2, r3
 1448 0104 834B     		ldr	r3, .L95+4
 1449 0106 9A70     		strb	r2, [r3, #2]
 575:main.c        ****                 }
 1450              		.loc 1 575 0
 1451 0108 834A     		ldr	r2, .L95+8
 1452 010a 824B     		ldr	r3, .L95+4
 1453 010c 101C     		mov	r0, r2
 1454 010e 191C     		mov	r1, r3
 1455 0110 FFF7FEFF 		bl	CySysFlashWriteRow
 1456              		.loc 1 577 0
 1457 0114 F8E0     		b	.L67
 1458              	.L73:
 578:main.c        ****             case SWITCH4:
 579:main.c        ****                 if(curPos == 100 )
 1459              		.loc 1 579 0
 1460 0116 3B1D     		add	r3, r7, #4
 1461 0118 1B88     		ldrh	r3, [r3]
 1462 011a 642B     		cmp	r3, #100
 1463 011c 11D1     		bne	.L85
 580:main.c        ****                 {
 581:main.c        ****                     //UART_UartPutString("in UpdateSwitchLeds :: switch4 :: on \n");
 582:main.c        ****                     LED4_Write(1);
 1464              		.loc 1 582 0
 1465 011e 0120     		mov	r0, #1
 1466 0120 FFF7FEFF 		bl	LED4_Write
 583:main.c        ****                     Triac4_Write(1);
 1467              		.loc 1 583 0
 1468 0124 0120     		mov	r0, #1
 1469 0126 FFF7FEFF 		bl	Triac4_Write
 584:main.c        ****                     cache[3]=curPos;
 1470              		.loc 1 584 0
 1471 012a 3B1D     		add	r3, r7, #4
 1472 012c 1B88     		ldrh	r3, [r3]
 1473 012e DAB2     		uxtb	r2, r3
 1474 0130 784B     		ldr	r3, .L95+4
 1475 0132 DA70     		strb	r2, [r3, #3]
 585:main.c        ****                     CySysFlashWriteRow(CY_TEST_FLASH_ROW, cache);
 1476              		.loc 1 585 0
 1477 0134 784A     		ldr	r2, .L95+8
 1478 0136 774B     		ldr	r3, .L95+4
 1479 0138 101C     		mov	r0, r2
 1480 013a 191C     		mov	r1, r3
 1481 013c FFF7FEFF 		bl	CySysFlashWriteRow
 586:main.c        ****                 }
 587:main.c        ****                 else
 588:main.c        ****                 {
 589:main.c        ****                     //UART_UartPutString("in UpdateSwitchLeds :: switch4 :: off \n");
 590:main.c        ****                     LED4_Write(0);
 591:main.c        ****                     Triac4_Write(0);
 592:main.c        ****                     cache[3]=curPos;
ARM GAS  C:\Users\poornima\AppData\Local\Temp\cc8JrzsS.s 			page 38


 593:main.c        ****                     CySysFlashWriteRow(CY_TEST_FLASH_ROW, cache);
 594:main.c        ****                 }
 595:main.c        ****                 break;
 1482              		.loc 1 595 0
 1483 0140 E2E0     		b	.L67
 1484              	.L85:
 590:main.c        ****                     Triac4_Write(0);
 1485              		.loc 1 590 0
 1486 0142 0020     		mov	r0, #0
 1487 0144 FFF7FEFF 		bl	LED4_Write
 591:main.c        ****                     cache[3]=curPos;
 1488              		.loc 1 591 0
 1489 0148 0020     		mov	r0, #0
 1490 014a FFF7FEFF 		bl	Triac4_Write
 592:main.c        ****                     CySysFlashWriteRow(CY_TEST_FLASH_ROW, cache);
 1491              		.loc 1 592 0
 1492 014e 3B1D     		add	r3, r7, #4
 1493 0150 1B88     		ldrh	r3, [r3]
 1494 0152 DAB2     		uxtb	r2, r3
 1495 0154 6F4B     		ldr	r3, .L95+4
 1496 0156 DA70     		strb	r2, [r3, #3]
 593:main.c        ****                 }
 1497              		.loc 1 593 0
 1498 0158 6F4A     		ldr	r2, .L95+8
 1499 015a 6E4B     		ldr	r3, .L95+4
 1500 015c 101C     		mov	r0, r2
 1501 015e 191C     		mov	r1, r3
 1502 0160 FFF7FEFF 		bl	CySysFlashWriteRow
 1503              		.loc 1 595 0
 1504 0164 D0E0     		b	.L67
 1505              	.L74:
 596:main.c        ****             case SWITCH5:
 597:main.c        ****                 if(curPos == 100 )
 1506              		.loc 1 597 0
 1507 0166 3B1D     		add	r3, r7, #4
 1508 0168 1B88     		ldrh	r3, [r3]
 1509 016a 642B     		cmp	r3, #100
 1510 016c 11D1     		bne	.L87
 598:main.c        ****                 {
 599:main.c        ****                     //UART_UartPutString("in UpdateSwitchLeds :: switch5 :: on \n");
 600:main.c        ****                     LED5_Write(1);
 1511              		.loc 1 600 0
 1512 016e 0120     		mov	r0, #1
 1513 0170 FFF7FEFF 		bl	LED5_Write
 601:main.c        ****                     Triac5_Write(1);
 1514              		.loc 1 601 0
 1515 0174 0120     		mov	r0, #1
 1516 0176 FFF7FEFF 		bl	Triac5_Write
 602:main.c        ****                     cache[4]=curPos;
 1517              		.loc 1 602 0
 1518 017a 3B1D     		add	r3, r7, #4
 1519 017c 1B88     		ldrh	r3, [r3]
 1520 017e DAB2     		uxtb	r2, r3
 1521 0180 644B     		ldr	r3, .L95+4
 1522 0182 1A71     		strb	r2, [r3, #4]
 603:main.c        ****                     CySysFlashWriteRow(CY_TEST_FLASH_ROW, cache);
 1523              		.loc 1 603 0
ARM GAS  C:\Users\poornima\AppData\Local\Temp\cc8JrzsS.s 			page 39


 1524 0184 644A     		ldr	r2, .L95+8
 1525 0186 634B     		ldr	r3, .L95+4
 1526 0188 101C     		mov	r0, r2
 1527 018a 191C     		mov	r1, r3
 1528 018c FFF7FEFF 		bl	CySysFlashWriteRow
 604:main.c        ****                     
 605:main.c        ****                 }
 606:main.c        ****                 else
 607:main.c        ****                 {
 608:main.c        ****                     //UART_UartPutString("in UpdateSwitchLeds :: switch5 :: off \n");
 609:main.c        ****                     LED5_Write(0);
 610:main.c        ****                     Triac5_Write(0);
 611:main.c        ****                     cache[4]=curPos;
 612:main.c        ****                     CySysFlashWriteRow(CY_TEST_FLASH_ROW, cache);
 613:main.c        ****                     
 614:main.c        ****                 }
 615:main.c        ****                 break;
 1529              		.loc 1 615 0
 1530 0190 BAE0     		b	.L67
 1531              	.L87:
 609:main.c        ****                     Triac5_Write(0);
 1532              		.loc 1 609 0
 1533 0192 0020     		mov	r0, #0
 1534 0194 FFF7FEFF 		bl	LED5_Write
 610:main.c        ****                     cache[4]=curPos;
 1535              		.loc 1 610 0
 1536 0198 0020     		mov	r0, #0
 1537 019a FFF7FEFF 		bl	Triac5_Write
 611:main.c        ****                     CySysFlashWriteRow(CY_TEST_FLASH_ROW, cache);
 1538              		.loc 1 611 0
 1539 019e 3B1D     		add	r3, r7, #4
 1540 01a0 1B88     		ldrh	r3, [r3]
 1541 01a2 DAB2     		uxtb	r2, r3
 1542 01a4 5B4B     		ldr	r3, .L95+4
 1543 01a6 1A71     		strb	r2, [r3, #4]
 612:main.c        ****                     
 1544              		.loc 1 612 0
 1545 01a8 5B4A     		ldr	r2, .L95+8
 1546 01aa 5A4B     		ldr	r3, .L95+4
 1547 01ac 101C     		mov	r0, r2
 1548 01ae 191C     		mov	r1, r3
 1549 01b0 FFF7FEFF 		bl	CySysFlashWriteRow
 1550              		.loc 1 615 0
 1551 01b4 A8E0     		b	.L67
 1552              	.L75:
 616:main.c        ****                 
 617:main.c        ****              case SWITCH6:
 618:main.c        ****                 if(curPos == 100 )
 1553              		.loc 1 618 0
 1554 01b6 3B1D     		add	r3, r7, #4
 1555 01b8 1B88     		ldrh	r3, [r3]
 1556 01ba 642B     		cmp	r3, #100
 1557 01bc 11D1     		bne	.L89
 619:main.c        ****                 {
 620:main.c        ****                     //UART_UartPutString("in UpdateSwitchLeds :: switch1 :: on \n");
 621:main.c        ****                     LED6_Write(1);
 1558              		.loc 1 621 0
ARM GAS  C:\Users\poornima\AppData\Local\Temp\cc8JrzsS.s 			page 40


 1559 01be 0120     		mov	r0, #1
 1560 01c0 FFF7FEFF 		bl	LED6_Write
 622:main.c        ****                     Triac6_Write(1);
 1561              		.loc 1 622 0
 1562 01c4 0120     		mov	r0, #1
 1563 01c6 FFF7FEFF 		bl	Triac6_Write
 623:main.c        ****                     cache[5]=curPos;
 1564              		.loc 1 623 0
 1565 01ca 3B1D     		add	r3, r7, #4
 1566 01cc 1B88     		ldrh	r3, [r3]
 1567 01ce DAB2     		uxtb	r2, r3
 1568 01d0 504B     		ldr	r3, .L95+4
 1569 01d2 5A71     		strb	r2, [r3, #5]
 624:main.c        ****                     CySysFlashWriteRow(CY_TEST_FLASH_ROW, cache);
 1570              		.loc 1 624 0
 1571 01d4 504A     		ldr	r2, .L95+8
 1572 01d6 4F4B     		ldr	r3, .L95+4
 1573 01d8 101C     		mov	r0, r2
 1574 01da 191C     		mov	r1, r3
 1575 01dc FFF7FEFF 		bl	CySysFlashWriteRow
 625:main.c        ****                    
 626:main.c        ****                 }
 627:main.c        ****                 else
 628:main.c        ****                 {
 629:main.c        ****                     //UART_UartPutString("in UpdateSwitchLeds :: switch1 :: off \n");
 630:main.c        ****                     LED6_Write(0);
 631:main.c        ****                     Triac6_Write(0);
 632:main.c        ****                     cache[5]=curPos;
 633:main.c        ****                     CySysFlashWriteRow(CY_TEST_FLASH_ROW, cache);
 634:main.c        ****                   
 635:main.c        ****                 }
 636:main.c        ****                 break;
 1576              		.loc 1 636 0
 1577 01e0 92E0     		b	.L67
 1578              	.L89:
 630:main.c        ****                     Triac6_Write(0);
 1579              		.loc 1 630 0
 1580 01e2 0020     		mov	r0, #0
 1581 01e4 FFF7FEFF 		bl	LED6_Write
 631:main.c        ****                     cache[5]=curPos;
 1582              		.loc 1 631 0
 1583 01e8 0020     		mov	r0, #0
 1584 01ea FFF7FEFF 		bl	Triac6_Write
 632:main.c        ****                     CySysFlashWriteRow(CY_TEST_FLASH_ROW, cache);
 1585              		.loc 1 632 0
 1586 01ee 3B1D     		add	r3, r7, #4
 1587 01f0 1B88     		ldrh	r3, [r3]
 1588 01f2 DAB2     		uxtb	r2, r3
 1589 01f4 474B     		ldr	r3, .L95+4
 1590 01f6 5A71     		strb	r2, [r3, #5]
 633:main.c        ****                   
 1591              		.loc 1 633 0
 1592 01f8 474A     		ldr	r2, .L95+8
 1593 01fa 464B     		ldr	r3, .L95+4
 1594 01fc 101C     		mov	r0, r2
 1595 01fe 191C     		mov	r1, r3
 1596 0200 FFF7FEFF 		bl	CySysFlashWriteRow
ARM GAS  C:\Users\poornima\AppData\Local\Temp\cc8JrzsS.s 			page 41


 1597              		.loc 1 636 0
 1598 0204 80E0     		b	.L67
 1599              	.L76:
 637:main.c        ****             case SWITCH7:
 638:main.c        ****                 if(curPos == 100)
 1600              		.loc 1 638 0
 1601 0206 3B1D     		add	r3, r7, #4
 1602 0208 1B88     		ldrh	r3, [r3]
 1603 020a 642B     		cmp	r3, #100
 1604 020c 11D1     		bne	.L91
 639:main.c        ****                 {
 640:main.c        ****                     //UART_UartPutString("in UpdateSwitchLeds :: switch2 :: on \n");
 641:main.c        ****                     LED7_Write(1);
 1605              		.loc 1 641 0
 1606 020e 0120     		mov	r0, #1
 1607 0210 FFF7FEFF 		bl	LED7_Write
 642:main.c        ****                     Triac7_Write(1);
 1608              		.loc 1 642 0
 1609 0214 0120     		mov	r0, #1
 1610 0216 FFF7FEFF 		bl	Triac7_Write
 643:main.c        ****                     cache[6]=curPos;
 1611              		.loc 1 643 0
 1612 021a 3B1D     		add	r3, r7, #4
 1613 021c 1B88     		ldrh	r3, [r3]
 1614 021e DAB2     		uxtb	r2, r3
 1615 0220 3C4B     		ldr	r3, .L95+4
 1616 0222 9A71     		strb	r2, [r3, #6]
 644:main.c        ****                     CySysFlashWriteRow(CY_TEST_FLASH_ROW, cache);
 1617              		.loc 1 644 0
 1618 0224 3C4A     		ldr	r2, .L95+8
 1619 0226 3B4B     		ldr	r3, .L95+4
 1620 0228 101C     		mov	r0, r2
 1621 022a 191C     		mov	r1, r3
 1622 022c FFF7FEFF 		bl	CySysFlashWriteRow
 645:main.c        ****                    
 646:main.c        ****                 }
 647:main.c        ****                 else
 648:main.c        ****                 {
 649:main.c        ****                     //UART_UartPutString("in UpdateSwitchLeds :: switch2 :: off \n");
 650:main.c        ****                     LED7_Write(0);
 651:main.c        ****                     Triac7_Write(0);
 652:main.c        ****                     cache[6]=curPos;
 653:main.c        ****                     CySysFlashWriteRow(CY_TEST_FLASH_ROW, cache);
 654:main.c        ****                    
 655:main.c        ****                 }
 656:main.c        ****                 break; 
 1623              		.loc 1 656 0
 1624 0230 6AE0     		b	.L67
 1625              	.L91:
 650:main.c        ****                     Triac7_Write(0);
 1626              		.loc 1 650 0
 1627 0232 0020     		mov	r0, #0
 1628 0234 FFF7FEFF 		bl	LED7_Write
 651:main.c        ****                     cache[6]=curPos;
 1629              		.loc 1 651 0
 1630 0238 0020     		mov	r0, #0
 1631 023a FFF7FEFF 		bl	Triac7_Write
ARM GAS  C:\Users\poornima\AppData\Local\Temp\cc8JrzsS.s 			page 42


 652:main.c        ****                     CySysFlashWriteRow(CY_TEST_FLASH_ROW, cache);
 1632              		.loc 1 652 0
 1633 023e 3B1D     		add	r3, r7, #4
 1634 0240 1B88     		ldrh	r3, [r3]
 1635 0242 DAB2     		uxtb	r2, r3
 1636 0244 334B     		ldr	r3, .L95+4
 1637 0246 9A71     		strb	r2, [r3, #6]
 653:main.c        ****                    
 1638              		.loc 1 653 0
 1639 0248 334A     		ldr	r2, .L95+8
 1640 024a 324B     		ldr	r3, .L95+4
 1641 024c 101C     		mov	r0, r2
 1642 024e 191C     		mov	r1, r3
 1643 0250 FFF7FEFF 		bl	CySysFlashWriteRow
 1644              		.loc 1 656 0
 1645 0254 58E0     		b	.L67
 1646              	.L77:
 657:main.c        ****                
 658:main.c        ****             case SWITCH8:
 659:main.c        ****                 if(curPos == 100)
 1647              		.loc 1 659 0
 1648 0256 3B1D     		add	r3, r7, #4
 1649 0258 1B88     		ldrh	r3, [r3]
 1650 025a 642B     		cmp	r3, #100
 1651 025c 11D1     		bne	.L93
 660:main.c        ****                 {
 661:main.c        ****                     //UART_UartPutString("in UpdateSwitchLeds :: switch2 :: on \n");
 662:main.c        ****                     LED8_Write(1);
 1652              		.loc 1 662 0
 1653 025e 0120     		mov	r0, #1
 1654 0260 FFF7FEFF 		bl	LED8_Write
 663:main.c        ****                     Triac8_Write(1);
 1655              		.loc 1 663 0
 1656 0264 0120     		mov	r0, #1
 1657 0266 FFF7FEFF 		bl	Triac8_Write
 664:main.c        ****                     cache[7]=curPos;
 1658              		.loc 1 664 0
 1659 026a 3B1D     		add	r3, r7, #4
 1660 026c 1B88     		ldrh	r3, [r3]
 1661 026e DAB2     		uxtb	r2, r3
 1662 0270 284B     		ldr	r3, .L95+4
 1663 0272 DA71     		strb	r2, [r3, #7]
 665:main.c        ****                     CySysFlashWriteRow(CY_TEST_FLASH_ROW, cache);
 1664              		.loc 1 665 0
 1665 0274 284A     		ldr	r2, .L95+8
 1666 0276 274B     		ldr	r3, .L95+4
 1667 0278 101C     		mov	r0, r2
 1668 027a 191C     		mov	r1, r3
 1669 027c FFF7FEFF 		bl	CySysFlashWriteRow
 666:main.c        ****                    
 667:main.c        ****                 }
 668:main.c        ****                 else
 669:main.c        ****                 {
 670:main.c        ****                     //UART_UartPutString("in UpdateSwitchLeds :: switch2 :: off \n");
 671:main.c        ****                     LED8_Write(0);
 672:main.c        ****                     Triac8_Write(0);
 673:main.c        ****                     cache[7]=curPos;
ARM GAS  C:\Users\poornima\AppData\Local\Temp\cc8JrzsS.s 			page 43


 674:main.c        ****                     CySysFlashWriteRow(CY_TEST_FLASH_ROW, cache);
 675:main.c        ****                     
 676:main.c        ****                 }
 677:main.c        ****                 break;
 1670              		.loc 1 677 0
 1671 0280 42E0     		b	.L67
 1672              	.L93:
 671:main.c        ****                     Triac8_Write(0);
 1673              		.loc 1 671 0
 1674 0282 0020     		mov	r0, #0
 1675 0284 FFF7FEFF 		bl	LED8_Write
 672:main.c        ****                     cache[7]=curPos;
 1676              		.loc 1 672 0
 1677 0288 0020     		mov	r0, #0
 1678 028a FFF7FEFF 		bl	Triac8_Write
 673:main.c        ****                     CySysFlashWriteRow(CY_TEST_FLASH_ROW, cache);
 1679              		.loc 1 673 0
 1680 028e 3B1D     		add	r3, r7, #4
 1681 0290 1B88     		ldrh	r3, [r3]
 1682 0292 DAB2     		uxtb	r2, r3
 1683 0294 1F4B     		ldr	r3, .L95+4
 1684 0296 DA71     		strb	r2, [r3, #7]
 674:main.c        ****                     
 1685              		.loc 1 674 0
 1686 0298 1F4A     		ldr	r2, .L95+8
 1687 029a 1E4B     		ldr	r3, .L95+4
 1688 029c 101C     		mov	r0, r2
 1689 029e 191C     		mov	r1, r3
 1690 02a0 FFF7FEFF 		bl	CySysFlashWriteRow
 1691              		.loc 1 677 0
 1692 02a4 30E0     		b	.L67
 1693              	.L68:
 678:main.c        ****            
 679:main.c        ****             default:
 680:main.c        ****                // UART_UartPutString("in UpdateSwitchLeds :: All :: on \n");
 681:main.c        ****                 LED1_Write(1);
 1694              		.loc 1 681 0
 1695 02a6 0120     		mov	r0, #1
 1696 02a8 FFF7FEFF 		bl	LED1_Write
 682:main.c        ****                 LED2_Write(1);
 1697              		.loc 1 682 0
 1698 02ac 0120     		mov	r0, #1
 1699 02ae FFF7FEFF 		bl	LED2_Write
 683:main.c        ****                 LED3_Write(1);
 1700              		.loc 1 683 0
 1701 02b2 0120     		mov	r0, #1
 1702 02b4 FFF7FEFF 		bl	LED3_Write
 684:main.c        ****                 LED4_Write(1);
 1703              		.loc 1 684 0
 1704 02b8 0120     		mov	r0, #1
 1705 02ba FFF7FEFF 		bl	LED4_Write
 685:main.c        ****                 LED5_Write(1);
 1706              		.loc 1 685 0
 1707 02be 0120     		mov	r0, #1
 1708 02c0 FFF7FEFF 		bl	LED5_Write
 686:main.c        ****                 LED6_Write(1);
 1709              		.loc 1 686 0
ARM GAS  C:\Users\poornima\AppData\Local\Temp\cc8JrzsS.s 			page 44


 1710 02c4 0120     		mov	r0, #1
 1711 02c6 FFF7FEFF 		bl	LED6_Write
 687:main.c        ****                 LED7_Write(1);
 1712              		.loc 1 687 0
 1713 02ca 0120     		mov	r0, #1
 1714 02cc FFF7FEFF 		bl	LED7_Write
 688:main.c        ****                 LED8_Write(1);
 1715              		.loc 1 688 0
 1716 02d0 0120     		mov	r0, #1
 1717 02d2 FFF7FEFF 		bl	LED8_Write
 689:main.c        ****                 Triac1_Write(1);
 1718              		.loc 1 689 0
 1719 02d6 0120     		mov	r0, #1
 1720 02d8 FFF7FEFF 		bl	Triac1_Write
 690:main.c        ****                 Triac2_Write(1);
 1721              		.loc 1 690 0
 1722 02dc 0120     		mov	r0, #1
 1723 02de FFF7FEFF 		bl	Triac2_Write
 691:main.c        ****                 Triac3_Write(1);
 1724              		.loc 1 691 0
 1725 02e2 0120     		mov	r0, #1
 1726 02e4 FFF7FEFF 		bl	Triac3_Write
 692:main.c        ****                 Triac4_Write(1);
 1727              		.loc 1 692 0
 1728 02e8 0120     		mov	r0, #1
 1729 02ea FFF7FEFF 		bl	Triac4_Write
 693:main.c        ****                 Triac5_Write(1);
 1730              		.loc 1 693 0
 1731 02ee 0120     		mov	r0, #1
 1732 02f0 FFF7FEFF 		bl	Triac5_Write
 694:main.c        ****                 Triac6_Write(1);
 1733              		.loc 1 694 0
 1734 02f4 0120     		mov	r0, #1
 1735 02f6 FFF7FEFF 		bl	Triac6_Write
 695:main.c        ****                 Triac7_Write(1);
 1736              		.loc 1 695 0
 1737 02fa 0120     		mov	r0, #1
 1738 02fc FFF7FEFF 		bl	Triac7_Write
 696:main.c        ****                 Triac8_Write(1);
 1739              		.loc 1 696 0
 1740 0300 0120     		mov	r0, #1
 1741 0302 FFF7FEFF 		bl	Triac8_Write
 697:main.c        ****                 break;
 1742              		.loc 1 697 0
 1743 0306 C046     		mov	r8, r8
 1744              	.L67:
 698:main.c        ****     }
 699:main.c        **** }
 1745              		.loc 1 699 0
 1746 0308 BD46     		mov	sp, r7
 1747 030a 02B0     		add	sp, sp, #8
 1748              		@ sp needed
 1749 030c 80BD     		pop	{r7, pc}
 1750              	.L96:
 1751 030e C046     		.align	2
 1752              	.L95:
 1753 0310 84000000 		.word	.L70
ARM GAS  C:\Users\poornima\AppData\Local\Temp\cc8JrzsS.s 			page 45


 1754 0314 00000000 		.word	cache
 1755 0318 FE030000 		.word	1022
 1756              		.cfi_endproc
 1757              	.LFE39:
 1758              		.size	UpdateSwitchLeds, .-UpdateSwitchLeds
 1759              		.section	.rodata
 1760              		.align	2
 1761              	.LC38:
 1762 00a4 696E2057 		.ascii	"in WDT ISR\012\015\000"
 1762      44542049 
 1762      53520A0D 
 1762      00
 1763 00b1 000000   		.section	.text.WdtIsrHandler,"ax",%progbits
 1764              		.align	2
 1765              		.global	WdtIsrHandler
 1766              		.code	16
 1767              		.thumb_func
 1768              		.type	WdtIsrHandler, %function
 1769              	WdtIsrHandler:
 1770              	.LFB40:
 700:main.c        **** 
 701:main.c        **** 
 702:main.c        **** CY_ISR(WdtIsrHandler)
 703:main.c        **** { 
 1771              		.loc 1 703 0
 1772              		.cfi_startproc
 1773 0000 80B5     		push	{r7, lr}
 1774              		.cfi_def_cfa_offset 8
 1775              		.cfi_offset 7, -8
 1776              		.cfi_offset 14, -4
 1777 0002 00AF     		add	r7, sp, #0
 1778              		.cfi_def_cfa_register 7
 704:main.c        ****     UART_UartPutString("in WDT ISR\n\r");
 1779              		.loc 1 704 0
 1780 0004 054B     		ldr	r3, .L98
 1781 0006 181C     		mov	r0, r3
 1782 0008 FFF7FEFF 		bl	UART_UartPutString
 705:main.c        ****     /* Clear interrupts state */
 706:main.c        **** 	CySysWdtClearInterrupt(CY_SYS_WDT_COUNTER0_INT);
 1783              		.loc 1 706 0
 1784 000c 0420     		mov	r0, #4
 1785 000e FFF7FEFF 		bl	CySysWdtClearInterrupt
 707:main.c        ****     WdtIsr_ClearPending();
 1786              		.loc 1 707 0
 1787 0012 FFF7FEFF 		bl	WdtIsr_ClearPending
 708:main.c        **** }
 1788              		.loc 1 708 0
 1789 0016 BD46     		mov	sp, r7
 1790              		@ sp needed
 1791 0018 80BD     		pop	{r7, pc}
 1792              	.L99:
 1793 001a C046     		.align	2
 1794              	.L98:
 1795 001c A4000000 		.word	.LC38
 1796              		.cfi_endproc
 1797              	.LFE40:
 1798              		.size	WdtIsrHandler, .-WdtIsrHandler
ARM GAS  C:\Users\poornima\AppData\Local\Temp\cc8JrzsS.s 			page 46


 1799              		.text
 1800              	.Letext0:
 1801              		.file 2 "Generated_Source\\PSoC4/cytypes.h"
 1802              		.section	.debug_info,"",%progbits
 1803              	.Ldebug_info0:
 1804 0000 87030000 		.4byte	0x387
 1805 0004 0400     		.2byte	0x4
 1806 0006 00000000 		.4byte	.Ldebug_abbrev0
 1807 000a 04       		.byte	0x4
 1808 000b 01       		.uleb128 0x1
 1809 000c EE000000 		.4byte	.LASF52
 1810 0010 01       		.byte	0x1
 1811 0011 3E020000 		.4byte	.LASF53
 1812 0015 DC010000 		.4byte	.LASF54
 1813 0019 00000000 		.4byte	.Ldebug_ranges0+0
 1814 001d 00000000 		.4byte	0
 1815 0021 00000000 		.4byte	.Ldebug_line0
 1816 0025 02       		.uleb128 0x2
 1817 0026 01       		.byte	0x1
 1818 0027 06       		.byte	0x6
 1819 0028 83020000 		.4byte	.LASF0
 1820 002c 02       		.uleb128 0x2
 1821 002d 01       		.byte	0x1
 1822 002e 08       		.byte	0x8
 1823 002f 3E000000 		.4byte	.LASF1
 1824 0033 02       		.uleb128 0x2
 1825 0034 02       		.byte	0x2
 1826 0035 05       		.byte	0x5
 1827 0036 E4000000 		.4byte	.LASF2
 1828 003a 02       		.uleb128 0x2
 1829 003b 02       		.byte	0x2
 1830 003c 07       		.byte	0x7
 1831 003d 7B000000 		.4byte	.LASF3
 1832 0041 02       		.uleb128 0x2
 1833 0042 04       		.byte	0x4
 1834 0043 05       		.byte	0x5
 1835 0044 7A020000 		.4byte	.LASF4
 1836 0048 02       		.uleb128 0x2
 1837 0049 04       		.byte	0x4
 1838 004a 07       		.byte	0x7
 1839 004b 69000000 		.4byte	.LASF5
 1840 004f 02       		.uleb128 0x2
 1841 0050 08       		.byte	0x8
 1842 0051 05       		.byte	0x5
 1843 0052 30020000 		.4byte	.LASF6
 1844 0056 02       		.uleb128 0x2
 1845 0057 08       		.byte	0x8
 1846 0058 07       		.byte	0x7
 1847 0059 27000000 		.4byte	.LASF7
 1848 005d 03       		.uleb128 0x3
 1849 005e 04       		.byte	0x4
 1850 005f 05       		.byte	0x5
 1851 0060 696E7400 		.ascii	"int\000"
 1852 0064 02       		.uleb128 0x2
 1853 0065 04       		.byte	0x4
 1854 0066 07       		.byte	0x7
 1855 0067 8F010000 		.4byte	.LASF8
ARM GAS  C:\Users\poornima\AppData\Local\Temp\cc8JrzsS.s 			page 47


 1856 006b 04       		.uleb128 0x4
 1857 006c 74020000 		.4byte	.LASF9
 1858 0070 02       		.byte	0x2
 1859 0071 3801     		.2byte	0x138
 1860 0073 2C000000 		.4byte	0x2c
 1861 0077 04       		.uleb128 0x4
 1862 0078 7C010000 		.4byte	.LASF10
 1863 007c 02       		.byte	0x2
 1864 007d 3901     		.2byte	0x139
 1865 007f 3A000000 		.4byte	0x3a
 1866 0083 04       		.uleb128 0x4
 1867 0084 83010000 		.4byte	.LASF11
 1868 0088 02       		.byte	0x2
 1869 0089 3A01     		.2byte	0x13a
 1870 008b 48000000 		.4byte	0x48
 1871 008f 02       		.uleb128 0x2
 1872 0090 04       		.byte	0x4
 1873 0091 04       		.byte	0x4
 1874 0092 21000000 		.4byte	.LASF12
 1875 0096 02       		.uleb128 0x2
 1876 0097 08       		.byte	0x8
 1877 0098 04       		.byte	0x4
 1878 0099 0C000000 		.4byte	.LASF13
 1879 009d 02       		.uleb128 0x2
 1880 009e 01       		.byte	0x1
 1881 009f 08       		.byte	0x8
 1882 00a0 45020000 		.4byte	.LASF14
 1883 00a4 02       		.uleb128 0x2
 1884 00a5 04       		.byte	0x4
 1885 00a6 07       		.byte	0x7
 1886 00a7 27020000 		.4byte	.LASF15
 1887 00ab 05       		.uleb128 0x5
 1888 00ac 8A010000 		.4byte	.LASF18
 1889 00b0 01       		.byte	0x1
 1890 00b1 3E       		.byte	0x3e
 1891 00b2 5D000000 		.4byte	0x5d
 1892 00b6 00000000 		.4byte	.LFB36
 1893 00ba 7C020000 		.4byte	.LFE36-.LFB36
 1894 00be 01       		.uleb128 0x1
 1895 00bf 9C       		.byte	0x9c
 1896 00c0 D1000000 		.4byte	0xd1
 1897 00c4 06       		.uleb128 0x6
 1898 00c5 6900     		.ascii	"i\000"
 1899 00c7 01       		.byte	0x1
 1900 00c8 3F       		.byte	0x3f
 1901 00c9 6B000000 		.4byte	0x6b
 1902 00cd 02       		.uleb128 0x2
 1903 00ce 91       		.byte	0x91
 1904 00cf 77       		.sleb128 -9
 1905 00d0 00       		.byte	0
 1906 00d1 07       		.uleb128 0x7
 1907 00d2 4C000000 		.4byte	.LASF55
 1908 00d6 01       		.byte	0x1
 1909 00d7 DB       		.byte	0xdb
 1910 00d8 6B000000 		.4byte	0x6b
 1911 00dc 00000000 		.4byte	.LFB37
 1912 00e0 40000000 		.4byte	.LFE37-.LFB37
ARM GAS  C:\Users\poornima\AppData\Local\Temp\cc8JrzsS.s 			page 48


 1913 00e4 01       		.uleb128 0x1
 1914 00e5 9C       		.byte	0x9c
 1915 00e6 15010000 		.4byte	0x115
 1916 00ea 08       		.uleb128 0x8
 1917 00eb 636D6400 		.ascii	"cmd\000"
 1918 00ef 01       		.byte	0x1
 1919 00f0 DB       		.byte	0xdb
 1920 00f1 83000000 		.4byte	0x83
 1921 00f5 02       		.uleb128 0x2
 1922 00f6 91       		.byte	0x91
 1923 00f7 6C       		.sleb128 -20
 1924 00f8 09       		.uleb128 0x9
 1925 00f9 06000000 		.4byte	.LASF16
 1926 00fd 01       		.byte	0x1
 1927 00fe DB       		.byte	0xdb
 1928 00ff 83000000 		.4byte	0x83
 1929 0103 02       		.uleb128 0x2
 1930 0104 91       		.byte	0x91
 1931 0105 68       		.sleb128 -24
 1932 0106 0A       		.uleb128 0xa
 1933 0107 13000000 		.4byte	.LASF17
 1934 010b 01       		.byte	0x1
 1935 010c DE       		.byte	0xde
 1936 010d 6B000000 		.4byte	0x6b
 1937 0111 02       		.uleb128 0x2
 1938 0112 91       		.byte	0x91
 1939 0113 77       		.sleb128 -9
 1940 0114 00       		.byte	0
 1941 0115 0B       		.uleb128 0xb
 1942 0116 BD000000 		.4byte	.LASF21
 1943 011a 01       		.byte	0x1
 1944 011b F3       		.byte	0xf3
 1945 011c 00000000 		.4byte	.LFB38
 1946 0120 08050000 		.4byte	.LFE38-.LFB38
 1947 0124 01       		.uleb128 0x1
 1948 0125 9C       		.byte	0x9c
 1949 0126 0C       		.uleb128 0xc
 1950 0127 D3000000 		.4byte	.LASF19
 1951 012b 01       		.byte	0x1
 1952 012c 0002     		.2byte	0x200
 1953 012e 00000000 		.4byte	.LFB39
 1954 0132 1C030000 		.4byte	.LFE39-.LFB39
 1955 0136 01       		.uleb128 0x1
 1956 0137 9C       		.byte	0x9c
 1957 0138 5B010000 		.4byte	0x15b
 1958 013c 0D       		.uleb128 0xd
 1959 013d 72657300 		.ascii	"res\000"
 1960 0141 01       		.byte	0x1
 1961 0142 0002     		.2byte	0x200
 1962 0144 77000000 		.4byte	0x77
 1963 0148 02       		.uleb128 0x2
 1964 0149 91       		.byte	0x91
 1965 014a 76       		.sleb128 -10
 1966 014b 0E       		.uleb128 0xe
 1967 014c 8E000000 		.4byte	.LASF20
 1968 0150 01       		.byte	0x1
 1969 0151 0002     		.2byte	0x200
ARM GAS  C:\Users\poornima\AppData\Local\Temp\cc8JrzsS.s 			page 49


 1970 0153 77000000 		.4byte	0x77
 1971 0157 02       		.uleb128 0x2
 1972 0158 91       		.byte	0x91
 1973 0159 74       		.sleb128 -12
 1974 015a 00       		.byte	0
 1975 015b 0F       		.uleb128 0xf
 1976 015c 13020000 		.4byte	.LASF22
 1977 0160 01       		.byte	0x1
 1978 0161 BE02     		.2byte	0x2be
 1979 0163 00000000 		.4byte	.LFB40
 1980 0167 20000000 		.4byte	.LFE40-.LFB40
 1981 016b 01       		.uleb128 0x1
 1982 016c 9C       		.byte	0x9c
 1983 016d 10       		.uleb128 0x10
 1984 016e 6B000000 		.4byte	0x6b
 1985 0172 7D010000 		.4byte	0x17d
 1986 0176 11       		.uleb128 0x11
 1987 0177 A4000000 		.4byte	0xa4
 1988 017b 7F       		.byte	0x7f
 1989 017c 00       		.byte	0
 1990 017d 12       		.uleb128 0x12
 1991 017e 00000000 		.4byte	.LASF23
 1992 0182 01       		.byte	0x1
 1993 0183 30       		.byte	0x30
 1994 0184 6D010000 		.4byte	0x16d
 1995 0188 05       		.uleb128 0x5
 1996 0189 03       		.byte	0x3
 1997 018a 00000000 		.4byte	cache
 1998 018e 12       		.uleb128 0x12
 1999 018f 1A000000 		.4byte	.LASF24
 2000 0193 01       		.byte	0x1
 2001 0194 31       		.byte	0x31
 2002 0195 6D010000 		.4byte	0x16d
 2003 0199 05       		.uleb128 0x5
 2004 019a 03       		.byte	0x3
 2005 019b 00000000 		.4byte	update
 2006 019f 12       		.uleb128 0x12
 2007 01a0 95000000 		.4byte	.LASF25
 2008 01a4 01       		.byte	0x1
 2009 01a5 33       		.byte	0x33
 2010 01a6 83000000 		.4byte	0x83
 2011 01aa 05       		.uleb128 0x5
 2012 01ab 03       		.byte	0x3
 2013 01ac 00000000 		.4byte	but1
 2014 01b0 12       		.uleb128 0x12
 2015 01b1 9A000000 		.4byte	.LASF26
 2016 01b5 01       		.byte	0x1
 2017 01b6 33       		.byte	0x33
 2018 01b7 83000000 		.4byte	0x83
 2019 01bb 05       		.uleb128 0x5
 2020 01bc 03       		.byte	0x3
 2021 01bd 00000000 		.4byte	but2
 2022 01c1 12       		.uleb128 0x12
 2023 01c2 9F000000 		.4byte	.LASF27
 2024 01c6 01       		.byte	0x1
 2025 01c7 33       		.byte	0x33
 2026 01c8 83000000 		.4byte	0x83
ARM GAS  C:\Users\poornima\AppData\Local\Temp\cc8JrzsS.s 			page 50


 2027 01cc 05       		.uleb128 0x5
 2028 01cd 03       		.byte	0x3
 2029 01ce 00000000 		.4byte	but3
 2030 01d2 12       		.uleb128 0x12
 2031 01d3 A4000000 		.4byte	.LASF28
 2032 01d7 01       		.byte	0x1
 2033 01d8 33       		.byte	0x33
 2034 01d9 83000000 		.4byte	0x83
 2035 01dd 05       		.uleb128 0x5
 2036 01de 03       		.byte	0x3
 2037 01df 00000000 		.4byte	but4
 2038 01e3 12       		.uleb128 0x12
 2039 01e4 A9000000 		.4byte	.LASF29
 2040 01e8 01       		.byte	0x1
 2041 01e9 33       		.byte	0x33
 2042 01ea 83000000 		.4byte	0x83
 2043 01ee 05       		.uleb128 0x5
 2044 01ef 03       		.byte	0x3
 2045 01f0 00000000 		.4byte	but5
 2046 01f4 12       		.uleb128 0x12
 2047 01f5 AE000000 		.4byte	.LASF30
 2048 01f9 01       		.byte	0x1
 2049 01fa 33       		.byte	0x33
 2050 01fb 83000000 		.4byte	0x83
 2051 01ff 05       		.uleb128 0x5
 2052 0200 03       		.byte	0x3
 2053 0201 00000000 		.4byte	but6
 2054 0205 12       		.uleb128 0x12
 2055 0206 B3000000 		.4byte	.LASF31
 2056 020a 01       		.byte	0x1
 2057 020b 33       		.byte	0x33
 2058 020c 83000000 		.4byte	0x83
 2059 0210 05       		.uleb128 0x5
 2060 0211 03       		.byte	0x3
 2061 0212 00000000 		.4byte	but7
 2062 0216 12       		.uleb128 0x12
 2063 0217 B8000000 		.4byte	.LASF32
 2064 021b 01       		.byte	0x1
 2065 021c 33       		.byte	0x33
 2066 021d 83000000 		.4byte	0x83
 2067 0221 05       		.uleb128 0x5
 2068 0222 03       		.byte	0x3
 2069 0223 00000000 		.4byte	but8
 2070 0227 12       		.uleb128 0x12
 2071 0228 9C010000 		.4byte	.LASF33
 2072 022c 01       		.byte	0x1
 2073 022d 33       		.byte	0x33
 2074 022e 83000000 		.4byte	0x83
 2075 0232 05       		.uleb128 0x5
 2076 0233 03       		.byte	0x3
 2077 0234 00000000 		.4byte	oldBut1
 2078 0238 12       		.uleb128 0x12
 2079 0239 A4010000 		.4byte	.LASF34
 2080 023d 01       		.byte	0x1
 2081 023e 33       		.byte	0x33
 2082 023f 83000000 		.4byte	0x83
 2083 0243 05       		.uleb128 0x5
ARM GAS  C:\Users\poornima\AppData\Local\Temp\cc8JrzsS.s 			page 51


 2084 0244 03       		.byte	0x3
 2085 0245 00000000 		.4byte	oldBut2
 2086 0249 12       		.uleb128 0x12
 2087 024a AC010000 		.4byte	.LASF35
 2088 024e 01       		.byte	0x1
 2089 024f 33       		.byte	0x33
 2090 0250 83000000 		.4byte	0x83
 2091 0254 05       		.uleb128 0x5
 2092 0255 03       		.byte	0x3
 2093 0256 00000000 		.4byte	oldBut3
 2094 025a 12       		.uleb128 0x12
 2095 025b B4010000 		.4byte	.LASF36
 2096 025f 01       		.byte	0x1
 2097 0260 33       		.byte	0x33
 2098 0261 83000000 		.4byte	0x83
 2099 0265 05       		.uleb128 0x5
 2100 0266 03       		.byte	0x3
 2101 0267 00000000 		.4byte	oldBut4
 2102 026b 12       		.uleb128 0x12
 2103 026c BC010000 		.4byte	.LASF37
 2104 0270 01       		.byte	0x1
 2105 0271 33       		.byte	0x33
 2106 0272 83000000 		.4byte	0x83
 2107 0276 05       		.uleb128 0x5
 2108 0277 03       		.byte	0x3
 2109 0278 00000000 		.4byte	oldBut5
 2110 027c 12       		.uleb128 0x12
 2111 027d C4010000 		.4byte	.LASF38
 2112 0281 01       		.byte	0x1
 2113 0282 33       		.byte	0x33
 2114 0283 83000000 		.4byte	0x83
 2115 0287 05       		.uleb128 0x5
 2116 0288 03       		.byte	0x3
 2117 0289 00000000 		.4byte	oldBut6
 2118 028d 12       		.uleb128 0x12
 2119 028e CC010000 		.4byte	.LASF39
 2120 0292 01       		.byte	0x1
 2121 0293 33       		.byte	0x33
 2122 0294 83000000 		.4byte	0x83
 2123 0298 05       		.uleb128 0x5
 2124 0299 03       		.byte	0x3
 2125 029a 00000000 		.4byte	oldBut7
 2126 029e 12       		.uleb128 0x12
 2127 029f D4010000 		.4byte	.LASF40
 2128 02a3 01       		.byte	0x1
 2129 02a4 33       		.byte	0x33
 2130 02a5 83000000 		.4byte	0x83
 2131 02a9 05       		.uleb128 0x5
 2132 02aa 03       		.byte	0x3
 2133 02ab 00000000 		.4byte	oldBut8
 2134 02af 12       		.uleb128 0x12
 2135 02b0 4A020000 		.4byte	.LASF41
 2136 02b4 01       		.byte	0x1
 2137 02b5 34       		.byte	0x34
 2138 02b6 6B000000 		.4byte	0x6b
 2139 02ba 05       		.uleb128 0x5
 2140 02bb 03       		.byte	0x3
ARM GAS  C:\Users\poornima\AppData\Local\Temp\cc8JrzsS.s 			page 52


 2141 02bc 00000000 		.4byte	temp1
 2142 02c0 12       		.uleb128 0x12
 2143 02c1 21020000 		.4byte	.LASF42
 2144 02c5 01       		.byte	0x1
 2145 02c6 34       		.byte	0x34
 2146 02c7 6B000000 		.4byte	0x6b
 2147 02cb 05       		.uleb128 0x5
 2148 02cc 03       		.byte	0x3
 2149 02cd 00000000 		.4byte	temp2
 2150 02d1 12       		.uleb128 0x12
 2151 02d2 50020000 		.4byte	.LASF43
 2152 02d6 01       		.byte	0x1
 2153 02d7 34       		.byte	0x34
 2154 02d8 6B000000 		.4byte	0x6b
 2155 02dc 05       		.uleb128 0x5
 2156 02dd 03       		.byte	0x3
 2157 02de 00000000 		.4byte	temp3
 2158 02e2 12       		.uleb128 0x12
 2159 02e3 56020000 		.4byte	.LASF44
 2160 02e7 01       		.byte	0x1
 2161 02e8 34       		.byte	0x34
 2162 02e9 6B000000 		.4byte	0x6b
 2163 02ed 05       		.uleb128 0x5
 2164 02ee 03       		.byte	0x3
 2165 02ef 00000000 		.4byte	temp4
 2166 02f3 12       		.uleb128 0x12
 2167 02f4 5C020000 		.4byte	.LASF45
 2168 02f8 01       		.byte	0x1
 2169 02f9 34       		.byte	0x34
 2170 02fa 6B000000 		.4byte	0x6b
 2171 02fe 05       		.uleb128 0x5
 2172 02ff 03       		.byte	0x3
 2173 0300 00000000 		.4byte	temp5
 2174 0304 12       		.uleb128 0x12
 2175 0305 62020000 		.4byte	.LASF46
 2176 0309 01       		.byte	0x1
 2177 030a 34       		.byte	0x34
 2178 030b 6B000000 		.4byte	0x6b
 2179 030f 05       		.uleb128 0x5
 2180 0310 03       		.byte	0x3
 2181 0311 00000000 		.4byte	temp6
 2182 0315 12       		.uleb128 0x12
 2183 0316 68020000 		.4byte	.LASF47
 2184 031a 01       		.byte	0x1
 2185 031b 34       		.byte	0x34
 2186 031c 6B000000 		.4byte	0x6b
 2187 0320 05       		.uleb128 0x5
 2188 0321 03       		.byte	0x3
 2189 0322 00000000 		.4byte	temp7
 2190 0326 12       		.uleb128 0x12
 2191 0327 6E020000 		.4byte	.LASF48
 2192 032b 01       		.byte	0x1
 2193 032c 34       		.byte	0x34
 2194 032d 6B000000 		.4byte	0x6b
 2195 0331 05       		.uleb128 0x5
 2196 0332 03       		.byte	0x3
 2197 0333 00000000 		.4byte	temp8
ARM GAS  C:\Users\poornima\AppData\Local\Temp\cc8JrzsS.s 			page 53


 2198 0337 10       		.uleb128 0x10
 2199 0338 6B000000 		.4byte	0x6b
 2200 033c 47030000 		.4byte	0x347
 2201 0340 11       		.uleb128 0x11
 2202 0341 A4000000 		.4byte	0xa4
 2203 0345 01       		.byte	0x1
 2204 0346 00       		.byte	0
 2205 0347 12       		.uleb128 0x12
 2206 0348 8F020000 		.4byte	.LASF49
 2207 034c 01       		.byte	0x1
 2208 034d 36       		.byte	0x36
 2209 034e 37030000 		.4byte	0x337
 2210 0352 05       		.uleb128 0x5
 2211 0353 03       		.byte	0x3
 2212 0354 00000000 		.4byte	compare
 2213 0358 12       		.uleb128 0x12
 2214 0359 5B000000 		.4byte	.LASF50
 2215 035d 01       		.byte	0x1
 2216 035e 3B       		.byte	0x3b
 2217 035f 37030000 		.4byte	0x337
 2218 0363 05       		.uleb128 0x5
 2219 0364 03       		.byte	0x3
 2220 0365 00000000 		.4byte	i2cReadBuffer
 2221 0369 10       		.uleb128 0x10
 2222 036a 6B000000 		.4byte	0x6b
 2223 036e 79030000 		.4byte	0x379
 2224 0372 11       		.uleb128 0x11
 2225 0373 A4000000 		.4byte	0xa4
 2226 0377 03       		.byte	0x3
 2227 0378 00       		.byte	0
 2228 0379 12       		.uleb128 0x12
 2229 037a 97020000 		.4byte	.LASF51
 2230 037e 01       		.byte	0x1
 2231 037f 3C       		.byte	0x3c
 2232 0380 69030000 		.4byte	0x369
 2233 0384 05       		.uleb128 0x5
 2234 0385 03       		.byte	0x3
 2235 0386 00000000 		.4byte	i2cWriteBuffer
 2236 038a 00       		.byte	0
 2237              		.section	.debug_abbrev,"",%progbits
 2238              	.Ldebug_abbrev0:
 2239 0000 01       		.uleb128 0x1
 2240 0001 11       		.uleb128 0x11
 2241 0002 01       		.byte	0x1
 2242 0003 25       		.uleb128 0x25
 2243 0004 0E       		.uleb128 0xe
 2244 0005 13       		.uleb128 0x13
 2245 0006 0B       		.uleb128 0xb
 2246 0007 03       		.uleb128 0x3
 2247 0008 0E       		.uleb128 0xe
 2248 0009 1B       		.uleb128 0x1b
 2249 000a 0E       		.uleb128 0xe
 2250 000b 55       		.uleb128 0x55
 2251 000c 17       		.uleb128 0x17
 2252 000d 11       		.uleb128 0x11
 2253 000e 01       		.uleb128 0x1
 2254 000f 10       		.uleb128 0x10
ARM GAS  C:\Users\poornima\AppData\Local\Temp\cc8JrzsS.s 			page 54


 2255 0010 17       		.uleb128 0x17
 2256 0011 00       		.byte	0
 2257 0012 00       		.byte	0
 2258 0013 02       		.uleb128 0x2
 2259 0014 24       		.uleb128 0x24
 2260 0015 00       		.byte	0
 2261 0016 0B       		.uleb128 0xb
 2262 0017 0B       		.uleb128 0xb
 2263 0018 3E       		.uleb128 0x3e
 2264 0019 0B       		.uleb128 0xb
 2265 001a 03       		.uleb128 0x3
 2266 001b 0E       		.uleb128 0xe
 2267 001c 00       		.byte	0
 2268 001d 00       		.byte	0
 2269 001e 03       		.uleb128 0x3
 2270 001f 24       		.uleb128 0x24
 2271 0020 00       		.byte	0
 2272 0021 0B       		.uleb128 0xb
 2273 0022 0B       		.uleb128 0xb
 2274 0023 3E       		.uleb128 0x3e
 2275 0024 0B       		.uleb128 0xb
 2276 0025 03       		.uleb128 0x3
 2277 0026 08       		.uleb128 0x8
 2278 0027 00       		.byte	0
 2279 0028 00       		.byte	0
 2280 0029 04       		.uleb128 0x4
 2281 002a 16       		.uleb128 0x16
 2282 002b 00       		.byte	0
 2283 002c 03       		.uleb128 0x3
 2284 002d 0E       		.uleb128 0xe
 2285 002e 3A       		.uleb128 0x3a
 2286 002f 0B       		.uleb128 0xb
 2287 0030 3B       		.uleb128 0x3b
 2288 0031 05       		.uleb128 0x5
 2289 0032 49       		.uleb128 0x49
 2290 0033 13       		.uleb128 0x13
 2291 0034 00       		.byte	0
 2292 0035 00       		.byte	0
 2293 0036 05       		.uleb128 0x5
 2294 0037 2E       		.uleb128 0x2e
 2295 0038 01       		.byte	0x1
 2296 0039 3F       		.uleb128 0x3f
 2297 003a 19       		.uleb128 0x19
 2298 003b 03       		.uleb128 0x3
 2299 003c 0E       		.uleb128 0xe
 2300 003d 3A       		.uleb128 0x3a
 2301 003e 0B       		.uleb128 0xb
 2302 003f 3B       		.uleb128 0x3b
 2303 0040 0B       		.uleb128 0xb
 2304 0041 49       		.uleb128 0x49
 2305 0042 13       		.uleb128 0x13
 2306 0043 11       		.uleb128 0x11
 2307 0044 01       		.uleb128 0x1
 2308 0045 12       		.uleb128 0x12
 2309 0046 06       		.uleb128 0x6
 2310 0047 40       		.uleb128 0x40
 2311 0048 18       		.uleb128 0x18
ARM GAS  C:\Users\poornima\AppData\Local\Temp\cc8JrzsS.s 			page 55


 2312 0049 9642     		.uleb128 0x2116
 2313 004b 19       		.uleb128 0x19
 2314 004c 01       		.uleb128 0x1
 2315 004d 13       		.uleb128 0x13
 2316 004e 00       		.byte	0
 2317 004f 00       		.byte	0
 2318 0050 06       		.uleb128 0x6
 2319 0051 34       		.uleb128 0x34
 2320 0052 00       		.byte	0
 2321 0053 03       		.uleb128 0x3
 2322 0054 08       		.uleb128 0x8
 2323 0055 3A       		.uleb128 0x3a
 2324 0056 0B       		.uleb128 0xb
 2325 0057 3B       		.uleb128 0x3b
 2326 0058 0B       		.uleb128 0xb
 2327 0059 49       		.uleb128 0x49
 2328 005a 13       		.uleb128 0x13
 2329 005b 02       		.uleb128 0x2
 2330 005c 18       		.uleb128 0x18
 2331 005d 00       		.byte	0
 2332 005e 00       		.byte	0
 2333 005f 07       		.uleb128 0x7
 2334 0060 2E       		.uleb128 0x2e
 2335 0061 01       		.byte	0x1
 2336 0062 3F       		.uleb128 0x3f
 2337 0063 19       		.uleb128 0x19
 2338 0064 03       		.uleb128 0x3
 2339 0065 0E       		.uleb128 0xe
 2340 0066 3A       		.uleb128 0x3a
 2341 0067 0B       		.uleb128 0xb
 2342 0068 3B       		.uleb128 0x3b
 2343 0069 0B       		.uleb128 0xb
 2344 006a 27       		.uleb128 0x27
 2345 006b 19       		.uleb128 0x19
 2346 006c 49       		.uleb128 0x49
 2347 006d 13       		.uleb128 0x13
 2348 006e 11       		.uleb128 0x11
 2349 006f 01       		.uleb128 0x1
 2350 0070 12       		.uleb128 0x12
 2351 0071 06       		.uleb128 0x6
 2352 0072 40       		.uleb128 0x40
 2353 0073 18       		.uleb128 0x18
 2354 0074 9642     		.uleb128 0x2116
 2355 0076 19       		.uleb128 0x19
 2356 0077 01       		.uleb128 0x1
 2357 0078 13       		.uleb128 0x13
 2358 0079 00       		.byte	0
 2359 007a 00       		.byte	0
 2360 007b 08       		.uleb128 0x8
 2361 007c 05       		.uleb128 0x5
 2362 007d 00       		.byte	0
 2363 007e 03       		.uleb128 0x3
 2364 007f 08       		.uleb128 0x8
 2365 0080 3A       		.uleb128 0x3a
 2366 0081 0B       		.uleb128 0xb
 2367 0082 3B       		.uleb128 0x3b
 2368 0083 0B       		.uleb128 0xb
ARM GAS  C:\Users\poornima\AppData\Local\Temp\cc8JrzsS.s 			page 56


 2369 0084 49       		.uleb128 0x49
 2370 0085 13       		.uleb128 0x13
 2371 0086 02       		.uleb128 0x2
 2372 0087 18       		.uleb128 0x18
 2373 0088 00       		.byte	0
 2374 0089 00       		.byte	0
 2375 008a 09       		.uleb128 0x9
 2376 008b 05       		.uleb128 0x5
 2377 008c 00       		.byte	0
 2378 008d 03       		.uleb128 0x3
 2379 008e 0E       		.uleb128 0xe
 2380 008f 3A       		.uleb128 0x3a
 2381 0090 0B       		.uleb128 0xb
 2382 0091 3B       		.uleb128 0x3b
 2383 0092 0B       		.uleb128 0xb
 2384 0093 49       		.uleb128 0x49
 2385 0094 13       		.uleb128 0x13
 2386 0095 02       		.uleb128 0x2
 2387 0096 18       		.uleb128 0x18
 2388 0097 00       		.byte	0
 2389 0098 00       		.byte	0
 2390 0099 0A       		.uleb128 0xa
 2391 009a 34       		.uleb128 0x34
 2392 009b 00       		.byte	0
 2393 009c 03       		.uleb128 0x3
 2394 009d 0E       		.uleb128 0xe
 2395 009e 3A       		.uleb128 0x3a
 2396 009f 0B       		.uleb128 0xb
 2397 00a0 3B       		.uleb128 0x3b
 2398 00a1 0B       		.uleb128 0xb
 2399 00a2 49       		.uleb128 0x49
 2400 00a3 13       		.uleb128 0x13
 2401 00a4 02       		.uleb128 0x2
 2402 00a5 18       		.uleb128 0x18
 2403 00a6 00       		.byte	0
 2404 00a7 00       		.byte	0
 2405 00a8 0B       		.uleb128 0xb
 2406 00a9 2E       		.uleb128 0x2e
 2407 00aa 00       		.byte	0
 2408 00ab 3F       		.uleb128 0x3f
 2409 00ac 19       		.uleb128 0x19
 2410 00ad 03       		.uleb128 0x3
 2411 00ae 0E       		.uleb128 0xe
 2412 00af 3A       		.uleb128 0x3a
 2413 00b0 0B       		.uleb128 0xb
 2414 00b1 3B       		.uleb128 0x3b
 2415 00b2 0B       		.uleb128 0xb
 2416 00b3 27       		.uleb128 0x27
 2417 00b4 19       		.uleb128 0x19
 2418 00b5 11       		.uleb128 0x11
 2419 00b6 01       		.uleb128 0x1
 2420 00b7 12       		.uleb128 0x12
 2421 00b8 06       		.uleb128 0x6
 2422 00b9 40       		.uleb128 0x40
 2423 00ba 18       		.uleb128 0x18
 2424 00bb 9642     		.uleb128 0x2116
 2425 00bd 19       		.uleb128 0x19
ARM GAS  C:\Users\poornima\AppData\Local\Temp\cc8JrzsS.s 			page 57


 2426 00be 00       		.byte	0
 2427 00bf 00       		.byte	0
 2428 00c0 0C       		.uleb128 0xc
 2429 00c1 2E       		.uleb128 0x2e
 2430 00c2 01       		.byte	0x1
 2431 00c3 3F       		.uleb128 0x3f
 2432 00c4 19       		.uleb128 0x19
 2433 00c5 03       		.uleb128 0x3
 2434 00c6 0E       		.uleb128 0xe
 2435 00c7 3A       		.uleb128 0x3a
 2436 00c8 0B       		.uleb128 0xb
 2437 00c9 3B       		.uleb128 0x3b
 2438 00ca 05       		.uleb128 0x5
 2439 00cb 27       		.uleb128 0x27
 2440 00cc 19       		.uleb128 0x19
 2441 00cd 11       		.uleb128 0x11
 2442 00ce 01       		.uleb128 0x1
 2443 00cf 12       		.uleb128 0x12
 2444 00d0 06       		.uleb128 0x6
 2445 00d1 40       		.uleb128 0x40
 2446 00d2 18       		.uleb128 0x18
 2447 00d3 9642     		.uleb128 0x2116
 2448 00d5 19       		.uleb128 0x19
 2449 00d6 01       		.uleb128 0x1
 2450 00d7 13       		.uleb128 0x13
 2451 00d8 00       		.byte	0
 2452 00d9 00       		.byte	0
 2453 00da 0D       		.uleb128 0xd
 2454 00db 05       		.uleb128 0x5
 2455 00dc 00       		.byte	0
 2456 00dd 03       		.uleb128 0x3
 2457 00de 08       		.uleb128 0x8
 2458 00df 3A       		.uleb128 0x3a
 2459 00e0 0B       		.uleb128 0xb
 2460 00e1 3B       		.uleb128 0x3b
 2461 00e2 05       		.uleb128 0x5
 2462 00e3 49       		.uleb128 0x49
 2463 00e4 13       		.uleb128 0x13
 2464 00e5 02       		.uleb128 0x2
 2465 00e6 18       		.uleb128 0x18
 2466 00e7 00       		.byte	0
 2467 00e8 00       		.byte	0
 2468 00e9 0E       		.uleb128 0xe
 2469 00ea 05       		.uleb128 0x5
 2470 00eb 00       		.byte	0
 2471 00ec 03       		.uleb128 0x3
 2472 00ed 0E       		.uleb128 0xe
 2473 00ee 3A       		.uleb128 0x3a
 2474 00ef 0B       		.uleb128 0xb
 2475 00f0 3B       		.uleb128 0x3b
 2476 00f1 05       		.uleb128 0x5
 2477 00f2 49       		.uleb128 0x49
 2478 00f3 13       		.uleb128 0x13
 2479 00f4 02       		.uleb128 0x2
 2480 00f5 18       		.uleb128 0x18
 2481 00f6 00       		.byte	0
 2482 00f7 00       		.byte	0
ARM GAS  C:\Users\poornima\AppData\Local\Temp\cc8JrzsS.s 			page 58


 2483 00f8 0F       		.uleb128 0xf
 2484 00f9 2E       		.uleb128 0x2e
 2485 00fa 00       		.byte	0
 2486 00fb 3F       		.uleb128 0x3f
 2487 00fc 19       		.uleb128 0x19
 2488 00fd 03       		.uleb128 0x3
 2489 00fe 0E       		.uleb128 0xe
 2490 00ff 3A       		.uleb128 0x3a
 2491 0100 0B       		.uleb128 0xb
 2492 0101 3B       		.uleb128 0x3b
 2493 0102 05       		.uleb128 0x5
 2494 0103 27       		.uleb128 0x27
 2495 0104 19       		.uleb128 0x19
 2496 0105 11       		.uleb128 0x11
 2497 0106 01       		.uleb128 0x1
 2498 0107 12       		.uleb128 0x12
 2499 0108 06       		.uleb128 0x6
 2500 0109 40       		.uleb128 0x40
 2501 010a 18       		.uleb128 0x18
 2502 010b 9642     		.uleb128 0x2116
 2503 010d 19       		.uleb128 0x19
 2504 010e 00       		.byte	0
 2505 010f 00       		.byte	0
 2506 0110 10       		.uleb128 0x10
 2507 0111 01       		.uleb128 0x1
 2508 0112 01       		.byte	0x1
 2509 0113 49       		.uleb128 0x49
 2510 0114 13       		.uleb128 0x13
 2511 0115 01       		.uleb128 0x1
 2512 0116 13       		.uleb128 0x13
 2513 0117 00       		.byte	0
 2514 0118 00       		.byte	0
 2515 0119 11       		.uleb128 0x11
 2516 011a 21       		.uleb128 0x21
 2517 011b 00       		.byte	0
 2518 011c 49       		.uleb128 0x49
 2519 011d 13       		.uleb128 0x13
 2520 011e 2F       		.uleb128 0x2f
 2521 011f 0B       		.uleb128 0xb
 2522 0120 00       		.byte	0
 2523 0121 00       		.byte	0
 2524 0122 12       		.uleb128 0x12
 2525 0123 34       		.uleb128 0x34
 2526 0124 00       		.byte	0
 2527 0125 03       		.uleb128 0x3
 2528 0126 0E       		.uleb128 0xe
 2529 0127 3A       		.uleb128 0x3a
 2530 0128 0B       		.uleb128 0xb
 2531 0129 3B       		.uleb128 0x3b
 2532 012a 0B       		.uleb128 0xb
 2533 012b 49       		.uleb128 0x49
 2534 012c 13       		.uleb128 0x13
 2535 012d 3F       		.uleb128 0x3f
 2536 012e 19       		.uleb128 0x19
 2537 012f 02       		.uleb128 0x2
 2538 0130 18       		.uleb128 0x18
 2539 0131 00       		.byte	0
ARM GAS  C:\Users\poornima\AppData\Local\Temp\cc8JrzsS.s 			page 59


 2540 0132 00       		.byte	0
 2541 0133 00       		.byte	0
 2542              		.section	.debug_aranges,"",%progbits
 2543 0000 3C000000 		.4byte	0x3c
 2544 0004 0200     		.2byte	0x2
 2545 0006 00000000 		.4byte	.Ldebug_info0
 2546 000a 04       		.byte	0x4
 2547 000b 00       		.byte	0
 2548 000c 0000     		.2byte	0
 2549 000e 0000     		.2byte	0
 2550 0010 00000000 		.4byte	.LFB36
 2551 0014 7C020000 		.4byte	.LFE36-.LFB36
 2552 0018 00000000 		.4byte	.LFB37
 2553 001c 40000000 		.4byte	.LFE37-.LFB37
 2554 0020 00000000 		.4byte	.LFB38
 2555 0024 08050000 		.4byte	.LFE38-.LFB38
 2556 0028 00000000 		.4byte	.LFB39
 2557 002c 1C030000 		.4byte	.LFE39-.LFB39
 2558 0030 00000000 		.4byte	.LFB40
 2559 0034 20000000 		.4byte	.LFE40-.LFB40
 2560 0038 00000000 		.4byte	0
 2561 003c 00000000 		.4byte	0
 2562              		.section	.debug_ranges,"",%progbits
 2563              	.Ldebug_ranges0:
 2564 0000 00000000 		.4byte	.LFB36
 2565 0004 7C020000 		.4byte	.LFE36
 2566 0008 00000000 		.4byte	.LFB37
 2567 000c 40000000 		.4byte	.LFE37
 2568 0010 00000000 		.4byte	.LFB38
 2569 0014 08050000 		.4byte	.LFE38
 2570 0018 00000000 		.4byte	.LFB39
 2571 001c 1C030000 		.4byte	.LFE39
 2572 0020 00000000 		.4byte	.LFB40
 2573 0024 20000000 		.4byte	.LFE40
 2574 0028 00000000 		.4byte	0
 2575 002c 00000000 		.4byte	0
 2576              		.section	.debug_line,"",%progbits
 2577              	.Ldebug_line0:
 2578 0000 5A020000 		.section	.debug_str,"MS",%progbits,1
 2578      02004100 
 2578      00000201 
 2578      FB0E0D00 
 2578      01010101 
 2579              	.LASF23:
 2580 0000 63616368 		.ascii	"cache\000"
 2580      6500
 2581              	.LASF16:
 2582 0006 76616C75 		.ascii	"value\000"
 2582      6500
 2583              	.LASF13:
 2584 000c 646F7562 		.ascii	"double\000"
 2584      6C6500
 2585              	.LASF17:
 2586 0013 73746174 		.ascii	"status\000"
 2586      757300
 2587              	.LASF24:
 2588 001a 75706461 		.ascii	"update\000"
ARM GAS  C:\Users\poornima\AppData\Local\Temp\cc8JrzsS.s 			page 60


 2588      746500
 2589              	.LASF12:
 2590 0021 666C6F61 		.ascii	"float\000"
 2590      7400
 2591              	.LASF7:
 2592 0027 6C6F6E67 		.ascii	"long long unsigned int\000"
 2592      206C6F6E 
 2592      6720756E 
 2592      7369676E 
 2592      65642069 
 2593              	.LASF1:
 2594 003e 756E7369 		.ascii	"unsigned char\000"
 2594      676E6564 
 2594      20636861 
 2594      7200
 2595              	.LASF55:
 2596 004c 45786563 		.ascii	"ExecuteCommand\000"
 2596      75746543 
 2596      6F6D6D61 
 2596      6E6400
 2597              	.LASF50:
 2598 005b 69326352 		.ascii	"i2cReadBuffer\000"
 2598      65616442 
 2598      75666665 
 2598      7200
 2599              	.LASF5:
 2600 0069 6C6F6E67 		.ascii	"long unsigned int\000"
 2600      20756E73 
 2600      69676E65 
 2600      6420696E 
 2600      7400
 2601              	.LASF3:
 2602 007b 73686F72 		.ascii	"short unsigned int\000"
 2602      7420756E 
 2602      7369676E 
 2602      65642069 
 2602      6E7400
 2603              	.LASF20:
 2604 008e 63757250 		.ascii	"curPos\000"
 2604      6F7300
 2605              	.LASF25:
 2606 0095 62757431 		.ascii	"but1\000"
 2606      00
 2607              	.LASF26:
 2608 009a 62757432 		.ascii	"but2\000"
 2608      00
 2609              	.LASF27:
 2610 009f 62757433 		.ascii	"but3\000"
 2610      00
 2611              	.LASF28:
 2612 00a4 62757434 		.ascii	"but4\000"
 2612      00
 2613              	.LASF29:
 2614 00a9 62757435 		.ascii	"but5\000"
 2614      00
 2615              	.LASF30:
 2616 00ae 62757436 		.ascii	"but6\000"
ARM GAS  C:\Users\poornima\AppData\Local\Temp\cc8JrzsS.s 			page 61


 2616      00
 2617              	.LASF31:
 2618 00b3 62757437 		.ascii	"but7\000"
 2618      00
 2619              	.LASF32:
 2620 00b8 62757438 		.ascii	"but8\000"
 2620      00
 2621              	.LASF21:
 2622 00bd 43617053 		.ascii	"CapSense_DisplayState\000"
 2622      656E7365 
 2622      5F446973 
 2622      706C6179 
 2622      53746174 
 2623              	.LASF19:
 2624 00d3 55706461 		.ascii	"UpdateSwitchLeds\000"
 2624      74655377 
 2624      69746368 
 2624      4C656473 
 2624      00
 2625              	.LASF2:
 2626 00e4 73686F72 		.ascii	"short int\000"
 2626      7420696E 
 2626      7400
 2627              	.LASF52:
 2628 00ee 474E5520 		.ascii	"GNU C 4.9.3 20150303 (release) [ARM/embedded-4_9-br"
 2628      4320342E 
 2628      392E3320 
 2628      32303135 
 2628      30333033 
 2629 0121 616E6368 		.ascii	"anch revision 221220] -mcpu=cortex-m0 -mthumb -g -O"
 2629      20726576 
 2629      6973696F 
 2629      6E203232 
 2629      31323230 
 2630 0154 30202D66 		.ascii	"0 -ffunction-sections -ffat-lto-objects\000"
 2630      66756E63 
 2630      74696F6E 
 2630      2D736563 
 2630      74696F6E 
 2631              	.LASF10:
 2632 017c 75696E74 		.ascii	"uint16\000"
 2632      313600
 2633              	.LASF11:
 2634 0183 75696E74 		.ascii	"uint32\000"
 2634      333200
 2635              	.LASF18:
 2636 018a 6D61696E 		.ascii	"main\000"
 2636      00
 2637              	.LASF8:
 2638 018f 756E7369 		.ascii	"unsigned int\000"
 2638      676E6564 
 2638      20696E74 
 2638      00
 2639              	.LASF33:
 2640 019c 6F6C6442 		.ascii	"oldBut1\000"
 2640      75743100 
 2641              	.LASF34:
ARM GAS  C:\Users\poornima\AppData\Local\Temp\cc8JrzsS.s 			page 62


 2642 01a4 6F6C6442 		.ascii	"oldBut2\000"
 2642      75743200 
 2643              	.LASF35:
 2644 01ac 6F6C6442 		.ascii	"oldBut3\000"
 2644      75743300 
 2645              	.LASF36:
 2646 01b4 6F6C6442 		.ascii	"oldBut4\000"
 2646      75743400 
 2647              	.LASF37:
 2648 01bc 6F6C6442 		.ascii	"oldBut5\000"
 2648      75743500 
 2649              	.LASF38:
 2650 01c4 6F6C6442 		.ascii	"oldBut6\000"
 2650      75743600 
 2651              	.LASF39:
 2652 01cc 6F6C6442 		.ascii	"oldBut7\000"
 2652      75743700 
 2653              	.LASF40:
 2654 01d4 6F6C6442 		.ascii	"oldBut8\000"
 2654      75743800 
 2655              	.LASF54:
 2656 01dc 433A5C55 		.ascii	"C:\\Users\\poornima\\Documents\\GitHub\\thingTouch\\"
 2656      73657273 
 2656      5C706F6F 
 2656      726E696D 
 2656      615C446F 
 2657 020a 38532E63 		.ascii	"8S.cydsn\000"
 2657      7964736E 
 2657      00
 2658              	.LASF22:
 2659 0213 57647449 		.ascii	"WdtIsrHandler\000"
 2659      73724861 
 2659      6E646C65 
 2659      7200
 2660              	.LASF42:
 2661 0221 74656D70 		.ascii	"temp2\000"
 2661      3200
 2662              	.LASF15:
 2663 0227 73697A65 		.ascii	"sizetype\000"
 2663      74797065 
 2663      00
 2664              	.LASF6:
 2665 0230 6C6F6E67 		.ascii	"long long int\000"
 2665      206C6F6E 
 2665      6720696E 
 2665      7400
 2666              	.LASF53:
 2667 023e 6D61696E 		.ascii	"main.c\000"
 2667      2E6300
 2668              	.LASF14:
 2669 0245 63686172 		.ascii	"char\000"
 2669      00
 2670              	.LASF41:
 2671 024a 74656D70 		.ascii	"temp1\000"
 2671      3100
 2672              	.LASF43:
 2673 0250 74656D70 		.ascii	"temp3\000"
ARM GAS  C:\Users\poornima\AppData\Local\Temp\cc8JrzsS.s 			page 63


 2673      3300
 2674              	.LASF44:
 2675 0256 74656D70 		.ascii	"temp4\000"
 2675      3400
 2676              	.LASF45:
 2677 025c 74656D70 		.ascii	"temp5\000"
 2677      3500
 2678              	.LASF46:
 2679 0262 74656D70 		.ascii	"temp6\000"
 2679      3600
 2680              	.LASF47:
 2681 0268 74656D70 		.ascii	"temp7\000"
 2681      3700
 2682              	.LASF48:
 2683 026e 74656D70 		.ascii	"temp8\000"
 2683      3800
 2684              	.LASF9:
 2685 0274 75696E74 		.ascii	"uint8\000"
 2685      3800
 2686              	.LASF4:
 2687 027a 6C6F6E67 		.ascii	"long int\000"
 2687      20696E74 
 2687      00
 2688              	.LASF0:
 2689 0283 7369676E 		.ascii	"signed char\000"
 2689      65642063 
 2689      68617200 
 2690              	.LASF49:
 2691 028f 636F6D70 		.ascii	"compare\000"
 2691      61726500 
 2692              	.LASF51:
 2693 0297 69326357 		.ascii	"i2cWriteBuffer\000"
 2693      72697465 
 2693      42756666 
 2693      657200
 2694              		.ident	"GCC: (GNU Tools for ARM Embedded Processors) 4.9.3 20150303 (release) [ARM/embedded-4_9-br
