ARM GAS  C:\Users\poornima\AppData\Local\Temp\cc0owNrL.s 			page 1


   1              		.cpu cortex-m0
   2              		.fpu softvfp
   3              		.eabi_attribute 20, 1
   4              		.eabi_attribute 21, 1
   5              		.eabi_attribute 23, 3
   6              		.eabi_attribute 24, 1
   7              		.eabi_attribute 25, 1
   8              		.eabi_attribute 26, 1
   9              		.eabi_attribute 30, 6
  10              		.eabi_attribute 34, 0
  11              		.eabi_attribute 18, 4
  12              		.code	16
  13              		.file	"CapSense_SMS.c"
  14              		.text
  15              	.Ltext0:
  16              		.cfi_sections	.debug_frame
  17              		.global	CapSense_prescalerTable
  18              		.section	.rodata
  19              		.align	2
  20              		.type	CapSense_prescalerTable, %object
  21              		.size	CapSense_prescalerTable, 16
  22              	CapSense_prescalerTable:
  23 0000 02       		.byte	2
  24 0001 02       		.byte	2
  25 0002 02       		.byte	2
  26 0003 04       		.byte	4
  27 0004 04       		.byte	4
  28 0005 04       		.byte	4
  29 0006 04       		.byte	4
  30 0007 08       		.byte	8
  31 0008 08       		.byte	8
  32 0009 08       		.byte	8
  33 000a 08       		.byte	8
  34 000b 08       		.byte	8
  35 000c 08       		.byte	8
  36 000d 08       		.byte	8
  37 000e 08       		.byte	8
  38 000f 08       		.byte	8
  39              		.comm	CapSense_noiseEnvelopeTbl,9,4
  40              		.comm	CapSense_runningDifferenceTbl,9,4
  41              		.comm	CapSense_signRegisterTbl,9,4
  42              		.comm	CapSense_sampleMinTbl,18,4
  43              		.comm	CapSense_sampleMaxTbl,18,4
  44              		.comm	CapSense_previousSampleTbl,18,4
  45              		.comm	CapSense_kValueTbl,9,4
  46              		.global	CapSense_sensorSensitivity
  47              		.data
  48              		.align	2
  49              		.type	CapSense_sensorSensitivity, %object
  50              		.size	CapSense_sensorSensitivity, 9
  51              	CapSense_sensorSensitivity:
  52 0000 02       		.byte	2
  53 0001 02       		.byte	2
  54 0002 02       		.byte	2
  55 0003 02       		.byte	2
  56 0004 02       		.byte	2
  57 0005 02       		.byte	2
ARM GAS  C:\Users\poornima\AppData\Local\Temp\cc0owNrL.s 			page 2


  58 0006 02       		.byte	2
  59 0007 02       		.byte	2
  60 0008 02       		.byte	2
  61              		.comm	CapSense_config,12,4
  62              		.global	CapSense_configPointers
  63 0009 000000   		.section	.rodata
  64              		.align	2
  65              		.type	CapSense_configPointers, %object
  66              		.size	CapSense_configPointers, 92
  67              	CapSense_configPointers:
  68 0010 00000000 		.word	CapSense_modulationIDAC
  69 0014 00000000 		.word	CapSense_compensationIDAC
  70 0018 00000000 		.word	CapSense_sensorSensitivity
  71 001c 00000000 		.word	CapSense_senseClkDividerVal
  72 0020 00000000 		.word	CapSense_sampleClkDividerVal
  73 0024 00000000 		.word	CapSense_widgetNumber
  74 0028 00000000 		.word	CapSense_widgetResolution
  75 002c 00000000 		.word	CapSense_noiseEnvelopeTbl
  76 0030 00000000 		.word	CapSense_runningDifferenceTbl
  77 0034 00000000 		.word	CapSense_signRegisterTbl
  78 0038 00000000 		.word	CapSense_sampleMinTbl
  79 003c 00000000 		.word	CapSense_sampleMaxTbl
  80 0040 00000000 		.word	CapSense_previousSampleTbl
  81 0044 00000000 		.word	CapSense_kValueTbl
  82 0048 00000000 		.word	CapSense_scanSpeedTbl
  83 004c 00000000 		.word	CapSense_prescalerTable
  84 0050 00000000 		.word	CapSense_rawDataIndex
  85 0054 00000000 		.word	CapSense_numberOfSensors
  86 0058 00000000 		.word	CapSense_GetSensorRaw
  87 005c 00000000 		.word	CapSense_PreScan
  88 0060 00000000 		.word	CapSense_ReadSensorRaw
  89 0064 00000000 		.word	CapSense_GetBitValue
  90 0068 00000000 		.word	CapSense_SetBitValue
  91              		.section	.text.CapSense_AutoTune,"ax",%progbits
  92              		.align	2
  93              		.global	CapSense_AutoTune
  94              		.code	16
  95              		.thumb_func
  96              		.type	CapSense_AutoTune, %function
  97              	CapSense_AutoTune:
  98              	.LFB35:
  99              		.file 1 "Generated_Source\\PSoC4\\CapSense_SMS.c"
   1:Generated_Source\PSoC4/CapSense_SMS.c **** /*******************************************************************************
   2:Generated_Source\PSoC4/CapSense_SMS.c **** * File Name: CapSense_SMS.c
   3:Generated_Source\PSoC4/CapSense_SMS.c **** * Version 2.40
   4:Generated_Source\PSoC4/CapSense_SMS.c **** *
   5:Generated_Source\PSoC4/CapSense_SMS.c **** * Description:
   6:Generated_Source\PSoC4/CapSense_SMS.c **** *  This file provides the source code of wrapper between CapSense CSD component
   7:Generated_Source\PSoC4/CapSense_SMS.c **** *  and Auto Tuning library.
   8:Generated_Source\PSoC4/CapSense_SMS.c **** *
   9:Generated_Source\PSoC4/CapSense_SMS.c **** * Note:
  10:Generated_Source\PSoC4/CapSense_SMS.c **** *
  11:Generated_Source\PSoC4/CapSense_SMS.c **** ********************************************************************************
  12:Generated_Source\PSoC4/CapSense_SMS.c **** * Copyright 2013-2015, Cypress Semiconductor Corporation.  All rights reserved.
  13:Generated_Source\PSoC4/CapSense_SMS.c **** * You may use this file only in accordance with the license, terms, conditions,
  14:Generated_Source\PSoC4/CapSense_SMS.c **** * disclaimers, and limitations in the end user license agreement accompanying
  15:Generated_Source\PSoC4/CapSense_SMS.c **** * the software package with which this file was provided.
ARM GAS  C:\Users\poornima\AppData\Local\Temp\cc0owNrL.s 			page 3


  16:Generated_Source\PSoC4/CapSense_SMS.c **** *******************************************************************************/
  17:Generated_Source\PSoC4/CapSense_SMS.c **** 
  18:Generated_Source\PSoC4/CapSense_SMS.c **** #include "CapSense_SMS.h"
  19:Generated_Source\PSoC4/CapSense_SMS.c **** #include "CapSense_PVT.h"
  20:Generated_Source\PSoC4/CapSense_SMS.c **** 
  21:Generated_Source\PSoC4/CapSense_SMS.c **** #include "cytypes.h"
  22:Generated_Source\PSoC4/CapSense_SMS.c **** 
  23:Generated_Source\PSoC4/CapSense_SMS.c **** #if (CapSense_TUNING_METHOD == CapSense__TUNING_AUTO)
  24:Generated_Source\PSoC4/CapSense_SMS.c **** 
  25:Generated_Source\PSoC4/CapSense_SMS.c **** 
  26:Generated_Source\PSoC4/CapSense_SMS.c **** /*  Real Charge Divider values */
  27:Generated_Source\PSoC4/CapSense_SMS.c **** #if ((0u != CapSense_IS_M0S8PERI_BLOCK) && (0u == CY_PSOC4_4000))
  28:Generated_Source\PSoC4/CapSense_SMS.c ****     /*  Dividers are not chained */
  29:Generated_Source\PSoC4/CapSense_SMS.c ****     #if (CYDEV_BCLK__HFCLK__MHZ > 24u)
  30:Generated_Source\PSoC4/CapSense_SMS.c ****         const uint8 CapSense_prescalerTable[CapSense_PRESCALERS_TBL_SIZE] = {
  31:Generated_Source\PSoC4/CapSense_SMS.c ****             4u,     4u,     4u,    8u,    8u,    8u,    8u,    16u,    16u,    16u,    16u,    16u,
  32:Generated_Source\PSoC4/CapSense_SMS.c ****         };
  33:Generated_Source\PSoC4/CapSense_SMS.c ****     #elif (CYDEV_BCLK__HFCLK__MHZ >12u)
  34:Generated_Source\PSoC4/CapSense_SMS.c ****         const uint8 CapSense_prescalerTable[CapSense_PRESCALERS_TBL_SIZE] = {
  35:Generated_Source\PSoC4/CapSense_SMS.c ****             2u,     2u,     2u,    4u,    4u,    4u,    4u,    8u,    8u,    8u,    8u,    8u,    8
  36:Generated_Source\PSoC4/CapSense_SMS.c ****         };
  37:Generated_Source\PSoC4/CapSense_SMS.c ****     #else   /* (CYDEV_BCLK__HFCLK__MHZ > 12u) */
  38:Generated_Source\PSoC4/CapSense_SMS.c ****         const uint8 CapSense_prescalerTable[CapSense_PRESCALERS_TBL_SIZE] = {
  39:Generated_Source\PSoC4/CapSense_SMS.c ****             1u,     1u,     1u,    2u,    2u,    2u,    2u,    4u,    4u,    4u,    4u,    4u,    4
  40:Generated_Source\PSoC4/CapSense_SMS.c ****         };
  41:Generated_Source\PSoC4/CapSense_SMS.c ****     #endif /* (CYDEV_BCLK__HFCLK__MHZ > 24u) */
  42:Generated_Source\PSoC4/CapSense_SMS.c **** 
  43:Generated_Source\PSoC4/CapSense_SMS.c **** #elif (0u != CapSense_IS_M0S8PERI_BLOCK)
  44:Generated_Source\PSoC4/CapSense_SMS.c ****     /*  Dividers are not chained (PSoC 4000) */
  45:Generated_Source\PSoC4/CapSense_SMS.c ****     #if (CYDEV_BCLK__HFCLK__MHZ >= 12u)
  46:Generated_Source\PSoC4/CapSense_SMS.c ****         const uint8 CapSense_prescalerTable[CapSense_PRESCALERS_TBL_SIZE] = {
  47:Generated_Source\PSoC4/CapSense_SMS.c ****             1u,     1u,     1u,    2u,    2u,    2u,    2u,    4u,    4u,    4u,    4u,    4u,    4
  48:Generated_Source\PSoC4/CapSense_SMS.c ****         };
  49:Generated_Source\PSoC4/CapSense_SMS.c **** 
  50:Generated_Source\PSoC4/CapSense_SMS.c ****     #elif (CYDEV_BCLK__HFCLK__MHZ >= 6u)
  51:Generated_Source\PSoC4/CapSense_SMS.c ****         const uint8 CapSense_prescalerTable[CapSense_PRESCALERS_TBL_SIZE] = {
  52:Generated_Source\PSoC4/CapSense_SMS.c ****             1u,     1u,     1u,    1u,    1u,    1u,    1u,    2u,    2u,    2u,    2u,    2u,    2
  53:Generated_Source\PSoC4/CapSense_SMS.c ****         };
  54:Generated_Source\PSoC4/CapSense_SMS.c ****     #else
  55:Generated_Source\PSoC4/CapSense_SMS.c ****         const uint8 CapSense_prescalerTable[CapSense_PRESCALERS_TBL_SIZE] = {
  56:Generated_Source\PSoC4/CapSense_SMS.c ****             1u,     1u,     1u,    1u,    1u,    1u,    1u,    1u,    1u,    1u,    1u,    1u,    1
  57:Generated_Source\PSoC4/CapSense_SMS.c ****         };
  58:Generated_Source\PSoC4/CapSense_SMS.c ****     #endif /* (CYDEV_BCLK__HFCLK__MHZ > 12u) */
  59:Generated_Source\PSoC4/CapSense_SMS.c **** 
  60:Generated_Source\PSoC4/CapSense_SMS.c **** #else
  61:Generated_Source\PSoC4/CapSense_SMS.c ****     /*  Dividers are chained (PSoC 4100, PSoC 4200) */
  62:Generated_Source\PSoC4/CapSense_SMS.c ****     #if (CYDEV_BCLK__HFCLK__MHZ > 24u)
  63:Generated_Source\PSoC4/CapSense_SMS.c ****         const uint8 CapSense_prescalerTable[CapSense_PRESCALERS_TBL_SIZE] = {
  64:Generated_Source\PSoC4/CapSense_SMS.c ****             2u,     2u,     2u,    4u,    4u,    4u,    4u,    8u,    8u,    8u,    8u,    8u,    8
  65:Generated_Source\PSoC4/CapSense_SMS.c ****         };
  66:Generated_Source\PSoC4/CapSense_SMS.c **** 
  67:Generated_Source\PSoC4/CapSense_SMS.c ****     #elif (CYDEV_BCLK__HFCLK__MHZ >12u)
  68:Generated_Source\PSoC4/CapSense_SMS.c ****         const uint8 CapSense_prescalerTable[CapSense_PRESCALERS_TBL_SIZE] = {
  69:Generated_Source\PSoC4/CapSense_SMS.c ****             1u,     1u,     1u,    2u,    2u,    2u,    2u,    4u,    4u,    4u,    4u,    4u,    4
  70:Generated_Source\PSoC4/CapSense_SMS.c ****         };
  71:Generated_Source\PSoC4/CapSense_SMS.c ****     #else   /* (CYDEV_BCLK__HFCLK__MHZ > 12u) */
  72:Generated_Source\PSoC4/CapSense_SMS.c ****         const uint8 CapSense_prescalerTable[CapSense_PRESCALERS_TBL_SIZE] = {
ARM GAS  C:\Users\poornima\AppData\Local\Temp\cc0owNrL.s 			page 4


  73:Generated_Source\PSoC4/CapSense_SMS.c ****             1u,     1u,     1u,    1u,    1u,    1u,    1u,    2u,    2u,    2u,    2u,    2u,    2
  74:Generated_Source\PSoC4/CapSense_SMS.c ****         };
  75:Generated_Source\PSoC4/CapSense_SMS.c ****     #endif /* (CYDEV_BCLK__HFCLK__MHZ > 24u) */
  76:Generated_Source\PSoC4/CapSense_SMS.c **** #endif /* ((0u != CapSense_IS_M0S8PERI_BLOCK) && (0u == CY_PSOC4_4000)) */
  77:Generated_Source\PSoC4/CapSense_SMS.c **** 
  78:Generated_Source\PSoC4/CapSense_SMS.c **** 
  79:Generated_Source\PSoC4/CapSense_SMS.c **** uint8 CapSense_noiseEnvelopeTbl[CapSense_TOTAL_SENSOR_COUNT];
  80:Generated_Source\PSoC4/CapSense_SMS.c **** uint8 CapSense_runningDifferenceTbl[CapSense_TOTAL_SENSOR_COUNT];
  81:Generated_Source\PSoC4/CapSense_SMS.c **** uint8 CapSense_signRegisterTbl[CapSense_TOTAL_SENSOR_COUNT];
  82:Generated_Source\PSoC4/CapSense_SMS.c **** uint16 CapSense_sampleMinTbl[CapSense_TOTAL_SENSOR_COUNT];
  83:Generated_Source\PSoC4/CapSense_SMS.c **** uint16 CapSense_sampleMaxTbl[CapSense_TOTAL_SENSOR_COUNT];
  84:Generated_Source\PSoC4/CapSense_SMS.c **** uint16 CapSense_previousSampleTbl[CapSense_TOTAL_SENSOR_COUNT];
  85:Generated_Source\PSoC4/CapSense_SMS.c **** uint8 CapSense_kValueTbl[CapSense_TOTAL_SENSOR_COUNT];
  86:Generated_Source\PSoC4/CapSense_SMS.c **** 
  87:Generated_Source\PSoC4/CapSense_SMS.c **** uint8 CapSense_sensorSensitivity[] = {
  88:Generated_Source\PSoC4/CapSense_SMS.c ****     2u, 2u, 2u, 2u, 2u, 2u, 2u, 2u, 2u, 
  89:Generated_Source\PSoC4/CapSense_SMS.c **** };
  90:Generated_Source\PSoC4/CapSense_SMS.c **** 
  91:Generated_Source\PSoC4/CapSense_SMS.c **** CapSense_CONFIG_TYPE_P4_v2_40 CapSense_config;
  92:Generated_Source\PSoC4/CapSense_SMS.c **** CapSense_CONFIG_TYPE_POINTERS_P4_v2_40 const CapSense_configPointers = {
  93:Generated_Source\PSoC4/CapSense_SMS.c ****     CapSense_modulationIDAC,
  94:Generated_Source\PSoC4/CapSense_SMS.c ****     CapSense_compensationIDAC,
  95:Generated_Source\PSoC4/CapSense_SMS.c ****     CapSense_sensorSensitivity,
  96:Generated_Source\PSoC4/CapSense_SMS.c ****     CapSense_senseClkDividerVal,
  97:Generated_Source\PSoC4/CapSense_SMS.c ****     CapSense_sampleClkDividerVal,
  98:Generated_Source\PSoC4/CapSense_SMS.c ****     CapSense_widgetNumber,
  99:Generated_Source\PSoC4/CapSense_SMS.c ****     CapSense_widgetResolution,
 100:Generated_Source\PSoC4/CapSense_SMS.c ****     CapSense_noiseEnvelopeTbl,
 101:Generated_Source\PSoC4/CapSense_SMS.c ****     CapSense_runningDifferenceTbl,
 102:Generated_Source\PSoC4/CapSense_SMS.c ****     CapSense_signRegisterTbl,
 103:Generated_Source\PSoC4/CapSense_SMS.c ****     CapSense_sampleMinTbl,
 104:Generated_Source\PSoC4/CapSense_SMS.c ****     CapSense_sampleMaxTbl,
 105:Generated_Source\PSoC4/CapSense_SMS.c ****     CapSense_previousSampleTbl,
 106:Generated_Source\PSoC4/CapSense_SMS.c ****     CapSense_kValueTbl,
 107:Generated_Source\PSoC4/CapSense_SMS.c ****     CapSense_scanSpeedTbl,
 108:Generated_Source\PSoC4/CapSense_SMS.c ****     CapSense_prescalerTable,
 109:Generated_Source\PSoC4/CapSense_SMS.c ****     (const uint8  *)CapSense_rawDataIndex,
 110:Generated_Source\PSoC4/CapSense_SMS.c ****     (const uint8  *)CapSense_numberOfSensors,
 111:Generated_Source\PSoC4/CapSense_SMS.c ****     &CapSense_GetSensorRaw,
 112:Generated_Source\PSoC4/CapSense_SMS.c ****     &CapSense_PreScan,
 113:Generated_Source\PSoC4/CapSense_SMS.c ****     &CapSense_ReadSensorRaw,
 114:Generated_Source\PSoC4/CapSense_SMS.c ****     &CapSense_GetBitValue,
 115:Generated_Source\PSoC4/CapSense_SMS.c ****     &CapSense_SetBitValue
 116:Generated_Source\PSoC4/CapSense_SMS.c **** };
 117:Generated_Source\PSoC4/CapSense_SMS.c **** 
 118:Generated_Source\PSoC4/CapSense_SMS.c **** 
 119:Generated_Source\PSoC4/CapSense_SMS.c **** /*******************************************************************************
 120:Generated_Source\PSoC4/CapSense_SMS.c **** * Function Name: CapSense_AutoTune
 121:Generated_Source\PSoC4/CapSense_SMS.c **** ********************************************************************************
 122:Generated_Source\PSoC4/CapSense_SMS.c **** *
 123:Generated_Source\PSoC4/CapSense_SMS.c **** * Summary:
 124:Generated_Source\PSoC4/CapSense_SMS.c **** *  Provides the tuning procedure for all sensors.
 125:Generated_Source\PSoC4/CapSense_SMS.c **** *
 126:Generated_Source\PSoC4/CapSense_SMS.c **** * Parameters:
 127:Generated_Source\PSoC4/CapSense_SMS.c **** *  None
 128:Generated_Source\PSoC4/CapSense_SMS.c **** *
 129:Generated_Source\PSoC4/CapSense_SMS.c **** * Return:
ARM GAS  C:\Users\poornima\AppData\Local\Temp\cc0owNrL.s 			page 5


 130:Generated_Source\PSoC4/CapSense_SMS.c **** *  None
 131:Generated_Source\PSoC4/CapSense_SMS.c **** *
 132:Generated_Source\PSoC4/CapSense_SMS.c **** * Global Variables:
 133:Generated_Source\PSoC4/CapSense_SMS.c **** *   CapSense_config: the structure which contains configuration parameters
 134:Generated_Source\PSoC4/CapSense_SMS.c **** *   CapSense_senseClkDividerVal[]: used to store the Analog Switch
 135:Generated_Source\PSoC4/CapSense_SMS.c **** *   dividers for each sensor.
 136:Generated_Source\PSoC4/CapSense_SMS.c **** *   CapSense_senseClkDividerVal[]: used to store the
 137:Generated_Source\PSoC4/CapSense_SMS.c **** *    Analog Switch divider for all sensors.
 138:Generated_Source\PSoC4/CapSense_SMS.c **** *   CapSense_prescalersTuningDone - used to notify the Tuner GUI that
 139:Generated_Source\PSoC4/CapSense_SMS.c **** *   the pre-scalers tuning  is done.
 140:Generated_Source\PSoC4/CapSense_SMS.c **** *
 141:Generated_Source\PSoC4/CapSense_SMS.c **** * Side Effects:
 142:Generated_Source\PSoC4/CapSense_SMS.c **** *  None
 143:Generated_Source\PSoC4/CapSense_SMS.c **** *
 144:Generated_Source\PSoC4/CapSense_SMS.c **** *******************************************************************************/
 145:Generated_Source\PSoC4/CapSense_SMS.c **** void CapSense_AutoTune(void)
 146:Generated_Source\PSoC4/CapSense_SMS.c **** {
 100              		.loc 1 146 0
 101              		.cfi_startproc
 102 0000 80B5     		push	{r7, lr}
 103              		.cfi_def_cfa_offset 8
 104              		.cfi_offset 7, -8
 105              		.cfi_offset 14, -4
 106 0002 82B0     		sub	sp, sp, #8
 107              		.cfi_def_cfa_offset 16
 108 0004 00AF     		add	r7, sp, #0
 109              		.cfi_def_cfa_register 7
 147:Generated_Source\PSoC4/CapSense_SMS.c ****     uint32 curSensor;
 148:Generated_Source\PSoC4/CapSense_SMS.c ****     uint32 widget;
 149:Generated_Source\PSoC4/CapSense_SMS.c **** 
 150:Generated_Source\PSoC4/CapSense_SMS.c ****     CapSense_config.totalScanslotsNum = CapSense_TOTAL_SCANSLOT_COUNT;
 110              		.loc 1 150 0
 111 0006 374B     		ldr	r3, .L8
 112 0008 0922     		mov	r2, #9
 113 000a 1A70     		strb	r2, [r3]
 151:Generated_Source\PSoC4/CapSense_SMS.c ****     CapSense_config.totalWidgetsNum = CapSense_END_OF_WIDGETS_INDEX;
 114              		.loc 1 151 0
 115 000c 354B     		ldr	r3, .L8
 116 000e 0522     		mov	r2, #5
 117 0010 5A70     		strb	r2, [r3, #1]
 152:Generated_Source\PSoC4/CapSense_SMS.c ****     CapSense_config.totalSensorsNum = CapSense_TOTAL_SENSOR_COUNT;
 118              		.loc 1 152 0
 119 0012 344B     		ldr	r3, .L8
 120 0014 0922     		mov	r2, #9
 121 0016 9A70     		strb	r2, [r3, #2]
 153:Generated_Source\PSoC4/CapSense_SMS.c **** 
 154:Generated_Source\PSoC4/CapSense_SMS.c ****     CapSense_config.hfclkFreq_MHz = CYDEV_BCLK__HFCLK__MHZ;
 122              		.loc 1 154 0
 123 0018 324B     		ldr	r3, .L8
 124 001a 1822     		mov	r2, #24
 125 001c DA80     		strh	r2, [r3, #6]
 155:Generated_Source\PSoC4/CapSense_SMS.c ****     CapSense_config.sensetivitySeed = CapSense_SENSETIVITY_FACTOR;
 126              		.loc 1 155 0
 127 001e 314B     		ldr	r3, .L8
 128 0020 314A     		ldr	r2, .L8+4
 129 0022 9A80     		strh	r2, [r3, #4]
 156:Generated_Source\PSoC4/CapSense_SMS.c **** 
ARM GAS  C:\Users\poornima\AppData\Local\Temp\cc0owNrL.s 			page 6


 157:Generated_Source\PSoC4/CapSense_SMS.c ****     CapSense_config.pointers = &CapSense_configPointers;
 130              		.loc 1 157 0
 131 0024 2F4B     		ldr	r3, .L8
 132 0026 314A     		ldr	r2, .L8+8
 133 0028 9A60     		str	r2, [r3, #8]
 158:Generated_Source\PSoC4/CapSense_SMS.c **** 
 159:Generated_Source\PSoC4/CapSense_SMS.c ****     CapSense_SetAnalogSwitchesSrcDirect();
 134              		.loc 1 159 0
 135 002a FFF7FEFF 		bl	CapSense_SetAnalogSwitchesSrcDirect
 160:Generated_Source\PSoC4/CapSense_SMS.c **** 
 161:Generated_Source\PSoC4/CapSense_SMS.c ****     for(widget = 0u; widget < CapSense_config.totalWidgetsNum; widget++)
 136              		.loc 1 161 0
 137 002e 0023     		mov	r3, #0
 138 0030 3B60     		str	r3, [r7]
 139 0032 07E0     		b	.L2
 140              	.L3:
 162:Generated_Source\PSoC4/CapSense_SMS.c ****     {
 163:Generated_Source\PSoC4/CapSense_SMS.c ****         CapSense_widgetResolution[widget] = CapSense_CALIBRATION_RESOLUTION;
 141              		.loc 1 163 0 discriminator 3
 142 0034 2E4B     		ldr	r3, .L8+12
 143 0036 3A68     		ldr	r2, [r7]
 144 0038 9200     		lsl	r2, r2, #2
 145 003a 2E49     		ldr	r1, .L8+16
 146 003c D150     		str	r1, [r2, r3]
 161:Generated_Source\PSoC4/CapSense_SMS.c ****     {
 147              		.loc 1 161 0 discriminator 3
 148 003e 3B68     		ldr	r3, [r7]
 149 0040 0133     		add	r3, r3, #1
 150 0042 3B60     		str	r3, [r7]
 151              	.L2:
 161:Generated_Source\PSoC4/CapSense_SMS.c ****     {
 152              		.loc 1 161 0 is_stmt 0 discriminator 1
 153 0044 274B     		ldr	r3, .L8
 154 0046 5B78     		ldrb	r3, [r3, #1]
 155 0048 1A1E     		sub	r2, r3, #0
 156 004a 3B68     		ldr	r3, [r7]
 157 004c 9A42     		cmp	r2, r3
 158 004e F1D8     		bhi	.L3
 164:Generated_Source\PSoC4/CapSense_SMS.c ****     }
 165:Generated_Source\PSoC4/CapSense_SMS.c **** 
 166:Generated_Source\PSoC4/CapSense_SMS.c **** 
 167:Generated_Source\PSoC4/CapSense_SMS.c ****     for(curSensor = 0u; curSensor < CapSense_TOTAL_SCANSLOT_COUNT; curSensor++)
 159              		.loc 1 167 0 is_stmt 1
 160 0050 0023     		mov	r3, #0
 161 0052 7B60     		str	r3, [r7, #4]
 162 0054 0CE0     		b	.L4
 163              	.L5:
 168:Generated_Source\PSoC4/CapSense_SMS.c ****     {
 169:Generated_Source\PSoC4/CapSense_SMS.c ****         CapSense_senseClkDividerVal[curSensor] = CapSense_CALIBRATION_ASD;
 164              		.loc 1 169 0 discriminator 3
 165 0056 284A     		ldr	r2, .L8+20
 166 0058 7B68     		ldr	r3, [r7, #4]
 167 005a D318     		add	r3, r2, r3
 168 005c 0822     		mov	r2, #8
 169 005e 1A70     		strb	r2, [r3]
 170:Generated_Source\PSoC4/CapSense_SMS.c ****         CapSense_sampleClkDividerVal[curSensor] = CapSense_CALIBRATION_MD;
 170              		.loc 1 170 0 discriminator 3
ARM GAS  C:\Users\poornima\AppData\Local\Temp\cc0owNrL.s 			page 7


 171 0060 264A     		ldr	r2, .L8+24
 172 0062 7B68     		ldr	r3, [r7, #4]
 173 0064 D318     		add	r3, r2, r3
 174 0066 0222     		mov	r2, #2
 175 0068 1A70     		strb	r2, [r3]
 167:Generated_Source\PSoC4/CapSense_SMS.c ****     {
 176              		.loc 1 167 0 discriminator 3
 177 006a 7B68     		ldr	r3, [r7, #4]
 178 006c 0133     		add	r3, r3, #1
 179 006e 7B60     		str	r3, [r7, #4]
 180              	.L4:
 167:Generated_Source\PSoC4/CapSense_SMS.c ****     {
 181              		.loc 1 167 0 is_stmt 0 discriminator 1
 182 0070 7B68     		ldr	r3, [r7, #4]
 183 0072 082B     		cmp	r3, #8
 184 0074 EFD9     		bls	.L5
 171:Generated_Source\PSoC4/CapSense_SMS.c ****     }
 172:Generated_Source\PSoC4/CapSense_SMS.c **** 
 173:Generated_Source\PSoC4/CapSense_SMS.c ****     CapSense_DisableBaselineIDAC();
 185              		.loc 1 173 0 is_stmt 1
 186 0076 FFF7FEFF 		bl	CapSense_DisableBaselineIDAC
 174:Generated_Source\PSoC4/CapSense_SMS.c **** 
 175:Generated_Source\PSoC4/CapSense_SMS.c ****     CalibrateSensors_P4_v2_40(&CapSense_config, CapSense_CAL_RAW_COUNT);
 187              		.loc 1 175 0
 188 007a 1A4B     		ldr	r3, .L8
 189 007c 204A     		ldr	r2, .L8+28
 190 007e 181C     		mov	r0, r3
 191 0080 111C     		mov	r1, r2
 192 0082 FFF7FEFF 		bl	CalibrateSensors_P4_v2_40
 176:Generated_Source\PSoC4/CapSense_SMS.c **** 
 177:Generated_Source\PSoC4/CapSense_SMS.c ****     #if(0u != CapSense_TOTAL_CENTROIDS_COUNT)
 178:Generated_Source\PSoC4/CapSense_SMS.c ****         CapSense_NormalizeWidgets(CapSense_END_OF_WIDGETS_INDEX, CapSense_modulationIDAC);
 193              		.loc 1 178 0
 194 0086 1F4B     		ldr	r3, .L8+32
 195 0088 0520     		mov	r0, #5
 196 008a 191C     		mov	r1, r3
 197 008c FFF7FEFF 		bl	CapSense_NormalizeWidgets
 179:Generated_Source\PSoC4/CapSense_SMS.c ****     #endif /* (0u != CapSense_TOTAL_CENTROIDS_COUNT)  */
 180:Generated_Source\PSoC4/CapSense_SMS.c **** 
 181:Generated_Source\PSoC4/CapSense_SMS.c ****     TunePrescalers_P4_v2_40(&CapSense_config);
 198              		.loc 1 181 0
 199 0090 144B     		ldr	r3, .L8
 200 0092 181C     		mov	r0, r3
 201 0094 FFF7FEFF 		bl	TunePrescalers_P4_v2_40
 182:Generated_Source\PSoC4/CapSense_SMS.c **** 
 183:Generated_Source\PSoC4/CapSense_SMS.c ****     #if(CapSense_PRS_OPTIONS != CapSense__PRS_NONE)
 184:Generated_Source\PSoC4/CapSense_SMS.c ****         CapSense_prescalersTuningDone = 1u;
 202              		.loc 1 184 0
 203 0098 1B4B     		ldr	r3, .L8+36
 204 009a 0122     		mov	r2, #1
 205 009c 1A70     		strb	r2, [r3]
 185:Generated_Source\PSoC4/CapSense_SMS.c ****     #endif /* (CapSense_PRS_OPTIONS == CapSense__PRS_NONE) */
 186:Generated_Source\PSoC4/CapSense_SMS.c **** 
 187:Generated_Source\PSoC4/CapSense_SMS.c ****     CalibrateSensors_P4_v2_40(&CapSense_config, CapSense_CAL_RAW_COUNT);
 206              		.loc 1 187 0
 207 009e 114B     		ldr	r3, .L8
 208 00a0 174A     		ldr	r2, .L8+28
ARM GAS  C:\Users\poornima\AppData\Local\Temp\cc0owNrL.s 			page 8


 209 00a2 181C     		mov	r0, r3
 210 00a4 111C     		mov	r1, r2
 211 00a6 FFF7FEFF 		bl	CalibrateSensors_P4_v2_40
 188:Generated_Source\PSoC4/CapSense_SMS.c ****     #if(0u != CapSense_TOTAL_CENTROIDS_COUNT)
 189:Generated_Source\PSoC4/CapSense_SMS.c ****         CapSense_NormalizeWidgets(CapSense_END_OF_WIDGETS_INDEX, CapSense_modulationIDAC);
 212              		.loc 1 189 0
 213 00aa 164B     		ldr	r3, .L8+32
 214 00ac 0520     		mov	r0, #5
 215 00ae 191C     		mov	r1, r3
 216 00b0 FFF7FEFF 		bl	CapSense_NormalizeWidgets
 190:Generated_Source\PSoC4/CapSense_SMS.c ****     #endif /* (0u != CapSense_TOTAL_CENTROIDS_COUNT)  */
 191:Generated_Source\PSoC4/CapSense_SMS.c ****     TuneSensitivity_P4_v2_40(&CapSense_config);
 217              		.loc 1 191 0
 218 00b4 0B4B     		ldr	r3, .L8
 219 00b6 181C     		mov	r0, r3
 220 00b8 FFF7FEFF 		bl	TuneSensitivity_P4_v2_40
 192:Generated_Source\PSoC4/CapSense_SMS.c **** 
 193:Generated_Source\PSoC4/CapSense_SMS.c ****     CapSense_EnableBaselineIDAC(&CapSense_config);
 221              		.loc 1 193 0
 222 00bc 094B     		ldr	r3, .L8
 223 00be 181C     		mov	r0, r3
 224 00c0 FFF7FEFF 		bl	CapSense_EnableBaselineIDAC
 194:Generated_Source\PSoC4/CapSense_SMS.c **** 
 195:Generated_Source\PSoC4/CapSense_SMS.c ****     for(curSensor = 0u; curSensor < CapSense_TOTAL_SCANSLOT_COUNT; curSensor++)
 225              		.loc 1 195 0
 226 00c4 0023     		mov	r3, #0
 227 00c6 7B60     		str	r3, [r7, #4]
 228 00c8 06E0     		b	.L6
 229              	.L7:
 196:Generated_Source\PSoC4/CapSense_SMS.c ****     {
 197:Generated_Source\PSoC4/CapSense_SMS.c ****         CapSense_UpdateThresholds(curSensor);
 230              		.loc 1 197 0 discriminator 3
 231 00ca 7B68     		ldr	r3, [r7, #4]
 232 00cc 181C     		mov	r0, r3
 233 00ce FFF7FEFF 		bl	CapSense_UpdateThresholds
 195:Generated_Source\PSoC4/CapSense_SMS.c ****     {
 234              		.loc 1 195 0 discriminator 3
 235 00d2 7B68     		ldr	r3, [r7, #4]
 236 00d4 0133     		add	r3, r3, #1
 237 00d6 7B60     		str	r3, [r7, #4]
 238              	.L6:
 195:Generated_Source\PSoC4/CapSense_SMS.c ****     {
 239              		.loc 1 195 0 is_stmt 0 discriminator 1
 240 00d8 7B68     		ldr	r3, [r7, #4]
 241 00da 082B     		cmp	r3, #8
 242 00dc F5D9     		bls	.L7
 198:Generated_Source\PSoC4/CapSense_SMS.c ****     }
 199:Generated_Source\PSoC4/CapSense_SMS.c **** }
 243              		.loc 1 199 0 is_stmt 1
 244 00de BD46     		mov	sp, r7
 245 00e0 02B0     		add	sp, sp, #8
 246              		@ sp needed
 247 00e2 80BD     		pop	{r7, pc}
 248              	.L9:
 249              		.align	2
 250              	.L8:
 251 00e4 00000000 		.word	CapSense_config
ARM GAS  C:\Users\poornima\AppData\Local\Temp\cc0owNrL.s 			page 9


 252 00e8 CC040000 		.word	1228
 253 00ec 00000000 		.word	CapSense_configPointers
 254 00f0 00000000 		.word	CapSense_widgetResolution
 255 00f4 0000FF0F 		.word	268369920
 256 00f8 00000000 		.word	CapSense_senseClkDividerVal
 257 00fc 00000000 		.word	CapSense_sampleClkDividerVal
 258 0100 9A0D0000 		.word	3482
 259 0104 00000000 		.word	CapSense_modulationIDAC
 260 0108 00000000 		.word	CapSense_prescalersTuningDone
 261              		.cfi_endproc
 262              	.LFE35:
 263              		.size	CapSense_AutoTune, .-CapSense_AutoTune
 264              		.section	.text.CapSense_UpdateThresholds,"ax",%progbits
 265              		.align	2
 266              		.global	CapSense_UpdateThresholds
 267              		.code	16
 268              		.thumb_func
 269              		.type	CapSense_UpdateThresholds, %function
 270              	CapSense_UpdateThresholds:
 271              	.LFB36:
 200:Generated_Source\PSoC4/CapSense_SMS.c **** 
 201:Generated_Source\PSoC4/CapSense_SMS.c **** 
 202:Generated_Source\PSoC4/CapSense_SMS.c **** /*******************************************************************************
 203:Generated_Source\PSoC4/CapSense_SMS.c **** * Function Name: CapSense_UpdateThresholds
 204:Generated_Source\PSoC4/CapSense_SMS.c **** ********************************************************************************
 205:Generated_Source\PSoC4/CapSense_SMS.c **** *
 206:Generated_Source\PSoC4/CapSense_SMS.c **** * Summary:
 207:Generated_Source\PSoC4/CapSense_SMS.c **** *  The API updates the Finger Threshold, Hysteresis, Noise Threshold, and
 208:Generated_Source\PSoC4/CapSense_SMS.c **** *  Negative Noise Threshold in the AutoTuning (Smartsense) Mode.
 209:Generated_Source\PSoC4/CapSense_SMS.c **** *
 210:Generated_Source\PSoC4/CapSense_SMS.c **** * Parameters:
 211:Generated_Source\PSoC4/CapSense_SMS.c **** *  sensor: sensor number.
 212:Generated_Source\PSoC4/CapSense_SMS.c **** *
 213:Generated_Source\PSoC4/CapSense_SMS.c **** * Return:
 214:Generated_Source\PSoC4/CapSense_SMS.c **** *  None
 215:Generated_Source\PSoC4/CapSense_SMS.c **** *
 216:Generated_Source\PSoC4/CapSense_SMS.c **** * Global Variables:
 217:Generated_Source\PSoC4/CapSense_SMS.c **** *  CapSense_widgetNumber[] - contains widget Number for given sensor.
 218:Generated_Source\PSoC4/CapSense_SMS.c **** *  0 through 7 (sensor 0 is bit 0, sensor 1 is bit 1).
 219:Generated_Source\PSoC4/CapSense_SMS.c **** *  For other sensors the array element equals to 255.
 220:Generated_Source\PSoC4/CapSense_SMS.c **** *  CapSense_numberOfSensors[widget] - Number of sensors in the widget.
 221:Generated_Source\PSoC4/CapSense_SMS.c **** *   CapSense_fingerThreshold[] - contains the level of signal for each sensor
 222:Generated_Source\PSoC4/CapSense_SMS.c **** *   that determines if a finger present on the sensor.
 223:Generated_Source\PSoC4/CapSense_SMS.c **** *   CapSense_negativeNoiseThreshold[] - negative Noise Threshold
 224:Generated_Source\PSoC4/CapSense_SMS.c **** *   CapSense_hysteresis[] - the array with hysteresis values.
 225:Generated_Source\PSoC4/CapSense_SMS.c **** *
 226:Generated_Source\PSoC4/CapSense_SMS.c **** * Side Effects:
 227:Generated_Source\PSoC4/CapSense_SMS.c **** *  None
 228:Generated_Source\PSoC4/CapSense_SMS.c **** *
 229:Generated_Source\PSoC4/CapSense_SMS.c **** *******************************************************************************/
 230:Generated_Source\PSoC4/CapSense_SMS.c **** void CapSense_UpdateThresholds(uint32 sensor)
 231:Generated_Source\PSoC4/CapSense_SMS.c **** {
 272              		.loc 1 231 0
 273              		.cfi_startproc
 274 0000 90B5     		push	{r4, r7, lr}
 275              		.cfi_def_cfa_offset 12
 276              		.cfi_offset 4, -12
ARM GAS  C:\Users\poornima\AppData\Local\Temp\cc0owNrL.s 			page 10


 277              		.cfi_offset 7, -8
 278              		.cfi_offset 14, -4
 279 0002 87B0     		sub	sp, sp, #28
 280              		.cfi_def_cfa_offset 40
 281 0004 02AF     		add	r7, sp, #8
 282              		.cfi_def_cfa 7, 32
 283 0006 7860     		str	r0, [r7, #4]
 232:Generated_Source\PSoC4/CapSense_SMS.c ****     uint8 fingerThreshold;
 233:Generated_Source\PSoC4/CapSense_SMS.c ****     uint32 widget;
 234:Generated_Source\PSoC4/CapSense_SMS.c **** 
 235:Generated_Source\PSoC4/CapSense_SMS.c ****     widget = CapSense_widgetNumber[sensor];
 284              		.loc 1 235 0
 285 0008 334A     		ldr	r2, .L16
 286 000a 7B68     		ldr	r3, [r7, #4]
 287 000c D318     		add	r3, r2, r3
 288 000e 1B78     		ldrb	r3, [r3]
 289 0010 FB60     		str	r3, [r7, #12]
 236:Generated_Source\PSoC4/CapSense_SMS.c **** 
 237:Generated_Source\PSoC4/CapSense_SMS.c ****     #if(0u != CapSense_FLEXIBLE_THRESHOLDS_EN)
 238:Generated_Source\PSoC4/CapSense_SMS.c ****         fingerThreshold = CapSense_fingerThreshold[widget];
 239:Generated_Source\PSoC4/CapSense_SMS.c ****         /* Update Threshold manually (flexible) */
 240:Generated_Source\PSoC4/CapSense_SMS.c ****         CapSense_noiseThreshold[widget] = (uint8)(fingerThreshold >> 1u);
 241:Generated_Source\PSoC4/CapSense_SMS.c ****         CapSense_negativeNoiseThreshold[widget] = (uint8)(fingerThreshold >> 1u);
 242:Generated_Source\PSoC4/CapSense_SMS.c ****         CapSense_hysteresis[widget] = (uint8)(fingerThreshold >> 3u);
 243:Generated_Source\PSoC4/CapSense_SMS.c ****     #else
 244:Generated_Source\PSoC4/CapSense_SMS.c ****         /* Calculate Finger Threshold and Noise Threshold with Smartsense (automatic) */
 245:Generated_Source\PSoC4/CapSense_SMS.c ****         CalculateThresholds_P4_v2_40(&CapSense_config, (uint8)sensor, (uint8)widget, CapSense_finge
 290              		.loc 1 245 0
 291 0012 7B68     		ldr	r3, [r7, #4]
 292 0014 D9B2     		uxtb	r1, r3
 293 0016 FB68     		ldr	r3, [r7, #12]
 294 0018 DAB2     		uxtb	r2, r3
 295 001a 3048     		ldr	r0, .L16+4
 296 001c 304C     		ldr	r4, .L16+8
 297 001e 314B     		ldr	r3, .L16+12
 298 0020 0093     		str	r3, [sp]
 299 0022 231C     		mov	r3, r4
 300 0024 FFF7FEFF 		bl	CalculateThresholds_P4_v2_40
 246:Generated_Source\PSoC4/CapSense_SMS.c **** 
 247:Generated_Source\PSoC4/CapSense_SMS.c ****         fingerThreshold = CapSense_fingerThreshold[widget];
 301              		.loc 1 247 0
 302 0028 0B23     		mov	r3, #11
 303 002a FB18     		add	r3, r7, r3
 304 002c 2C49     		ldr	r1, .L16+8
 305 002e FA68     		ldr	r2, [r7, #12]
 306 0030 8A18     		add	r2, r1, r2
 307 0032 1278     		ldrb	r2, [r2]
 308 0034 1A70     		strb	r2, [r3]
 248:Generated_Source\PSoC4/CapSense_SMS.c **** 
 249:Generated_Source\PSoC4/CapSense_SMS.c ****         /* Update Threshold based on calculated with Smartsense (automatic) */
 250:Generated_Source\PSoC4/CapSense_SMS.c ****         CapSense_negativeNoiseThreshold[widget] = CapSense_noiseThreshold[widget];
 309              		.loc 1 250 0
 310 0036 2B4A     		ldr	r2, .L16+12
 311 0038 FB68     		ldr	r3, [r7, #12]
 312 003a D318     		add	r3, r2, r3
 313 003c 1978     		ldrb	r1, [r3]
 314 003e 2A4A     		ldr	r2, .L16+16
ARM GAS  C:\Users\poornima\AppData\Local\Temp\cc0owNrL.s 			page 11


 315 0040 FB68     		ldr	r3, [r7, #12]
 316 0042 D318     		add	r3, r2, r3
 317 0044 0A1C     		add	r2, r1, #0
 318 0046 1A70     		strb	r2, [r3]
 251:Generated_Source\PSoC4/CapSense_SMS.c **** 
 252:Generated_Source\PSoC4/CapSense_SMS.c ****         if(fingerThreshold < CapSense_THRESHOLD_1)
 319              		.loc 1 252 0
 320 0048 0B23     		mov	r3, #11
 321 004a FB18     		add	r3, r7, r3
 322 004c 1B78     		ldrb	r3, [r3]
 323 004e DB2B     		cmp	r3, #219
 324 0050 0AD8     		bhi	.L11
 253:Generated_Source\PSoC4/CapSense_SMS.c ****         {
 254:Generated_Source\PSoC4/CapSense_SMS.c ****             CapSense_hysteresis[widget] = (uint8)(fingerThreshold >> 3u);
 325              		.loc 1 254 0
 326 0052 0B23     		mov	r3, #11
 327 0054 FB18     		add	r3, r7, r3
 328 0056 1B78     		ldrb	r3, [r3]
 329 0058 DB08     		lsr	r3, r3, #3
 330 005a D9B2     		uxtb	r1, r3
 331 005c 234A     		ldr	r2, .L16+20
 332 005e FB68     		ldr	r3, [r7, #12]
 333 0060 D318     		add	r3, r2, r3
 334 0062 0A1C     		add	r2, r1, #0
 335 0064 1A70     		strb	r2, [r3]
 336 0066 34E0     		b	.L10
 337              	.L11:
 255:Generated_Source\PSoC4/CapSense_SMS.c ****         }
 256:Generated_Source\PSoC4/CapSense_SMS.c ****         else if(fingerThreshold <  CapSense_THRESHOLD_2)
 338              		.loc 1 256 0
 339 0068 0B23     		mov	r3, #11
 340 006a FB18     		add	r3, r7, r3
 341 006c 1B78     		ldrb	r3, [r3]
 342 006e EC2B     		cmp	r3, #236
 343 0070 0AD8     		bhi	.L13
 257:Generated_Source\PSoC4/CapSense_SMS.c ****         {
 258:Generated_Source\PSoC4/CapSense_SMS.c ****             CapSense_hysteresis[widget] = (uint8)(fingerThreshold >> 4u);
 344              		.loc 1 258 0
 345 0072 0B23     		mov	r3, #11
 346 0074 FB18     		add	r3, r7, r3
 347 0076 1B78     		ldrb	r3, [r3]
 348 0078 1B09     		lsr	r3, r3, #4
 349 007a D9B2     		uxtb	r1, r3
 350 007c 1B4A     		ldr	r2, .L16+20
 351 007e FB68     		ldr	r3, [r7, #12]
 352 0080 D318     		add	r3, r2, r3
 353 0082 0A1C     		add	r2, r1, #0
 354 0084 1A70     		strb	r2, [r3]
 355 0086 24E0     		b	.L10
 356              	.L13:
 259:Generated_Source\PSoC4/CapSense_SMS.c ****         }
 260:Generated_Source\PSoC4/CapSense_SMS.c ****         else if(fingerThreshold <  CapSense_THRESHOLD_3)
 357              		.loc 1 260 0
 358 0088 0B23     		mov	r3, #11
 359 008a FB18     		add	r3, r7, r3
 360 008c 1B78     		ldrb	r3, [r3]
 361 008e F42B     		cmp	r3, #244
ARM GAS  C:\Users\poornima\AppData\Local\Temp\cc0owNrL.s 			page 12


 362 0090 0AD8     		bhi	.L14
 261:Generated_Source\PSoC4/CapSense_SMS.c ****         {
 262:Generated_Source\PSoC4/CapSense_SMS.c ****             CapSense_hysteresis[widget] = (uint8)(fingerThreshold >> 5u);
 363              		.loc 1 262 0
 364 0092 0B23     		mov	r3, #11
 365 0094 FB18     		add	r3, r7, r3
 366 0096 1B78     		ldrb	r3, [r3]
 367 0098 5B09     		lsr	r3, r3, #5
 368 009a D9B2     		uxtb	r1, r3
 369 009c 134A     		ldr	r2, .L16+20
 370 009e FB68     		ldr	r3, [r7, #12]
 371 00a0 D318     		add	r3, r2, r3
 372 00a2 0A1C     		add	r2, r1, #0
 373 00a4 1A70     		strb	r2, [r3]
 374 00a6 14E0     		b	.L10
 375              	.L14:
 263:Generated_Source\PSoC4/CapSense_SMS.c ****         }
 264:Generated_Source\PSoC4/CapSense_SMS.c ****         else if(fingerThreshold <  CapSense_THRESHOLD_4)
 376              		.loc 1 264 0
 377 00a8 0B23     		mov	r3, #11
 378 00aa FB18     		add	r3, r7, r3
 379 00ac 1B78     		ldrb	r3, [r3]
 380 00ae F92B     		cmp	r3, #249
 381 00b0 0AD8     		bhi	.L15
 265:Generated_Source\PSoC4/CapSense_SMS.c ****         {
 266:Generated_Source\PSoC4/CapSense_SMS.c ****             CapSense_hysteresis[widget] = (uint8)(fingerThreshold >> 6u);
 382              		.loc 1 266 0
 383 00b2 0B23     		mov	r3, #11
 384 00b4 FB18     		add	r3, r7, r3
 385 00b6 1B78     		ldrb	r3, [r3]
 386 00b8 9B09     		lsr	r3, r3, #6
 387 00ba D9B2     		uxtb	r1, r3
 388 00bc 0B4A     		ldr	r2, .L16+20
 389 00be FB68     		ldr	r3, [r7, #12]
 390 00c0 D318     		add	r3, r2, r3
 391 00c2 0A1C     		add	r2, r1, #0
 392 00c4 1A70     		strb	r2, [r3]
 393 00c6 04E0     		b	.L10
 394              	.L15:
 267:Generated_Source\PSoC4/CapSense_SMS.c ****         }
 268:Generated_Source\PSoC4/CapSense_SMS.c ****         else
 269:Generated_Source\PSoC4/CapSense_SMS.c ****         {
 270:Generated_Source\PSoC4/CapSense_SMS.c ****             CapSense_hysteresis[widget] = 0u;
 395              		.loc 1 270 0
 396 00c8 084A     		ldr	r2, .L16+20
 397 00ca FB68     		ldr	r3, [r7, #12]
 398 00cc D318     		add	r3, r2, r3
 399 00ce 0022     		mov	r2, #0
 400 00d0 1A70     		strb	r2, [r3]
 401              	.L10:
 271:Generated_Source\PSoC4/CapSense_SMS.c ****         }
 272:Generated_Source\PSoC4/CapSense_SMS.c ****     #endif /* (0u != CapSense_FLEXIBLE_THRESHOLDS_EN)  */
 273:Generated_Source\PSoC4/CapSense_SMS.c **** }
 402              		.loc 1 273 0
 403 00d2 BD46     		mov	sp, r7
 404 00d4 05B0     		add	sp, sp, #20
 405              		@ sp needed
ARM GAS  C:\Users\poornima\AppData\Local\Temp\cc0owNrL.s 			page 13


 406 00d6 90BD     		pop	{r4, r7, pc}
 407              	.L17:
 408              		.align	2
 409              	.L16:
 410 00d8 00000000 		.word	CapSense_widgetNumber
 411 00dc 00000000 		.word	CapSense_config
 412 00e0 00000000 		.word	CapSense_fingerThreshold
 413 00e4 00000000 		.word	CapSense_noiseThreshold
 414 00e8 00000000 		.word	CapSense_negativeNoiseThreshold
 415 00ec 00000000 		.word	CapSense_hysteresis
 416              		.cfi_endproc
 417              	.LFE36:
 418              		.size	CapSense_UpdateThresholds, .-CapSense_UpdateThresholds
 419              		.section	.text.CapSense_SetAnalogSwitchesSrcDirect,"ax",%progbits
 420              		.align	2
 421              		.global	CapSense_SetAnalogSwitchesSrcDirect
 422              		.code	16
 423              		.thumb_func
 424              		.type	CapSense_SetAnalogSwitchesSrcDirect, %function
 425              	CapSense_SetAnalogSwitchesSrcDirect:
 426              	.LFB37:
 274:Generated_Source\PSoC4/CapSense_SMS.c **** 
 275:Generated_Source\PSoC4/CapSense_SMS.c **** /*******************************************************************************
 276:Generated_Source\PSoC4/CapSense_SMS.c **** * Function Name: CapSense_SetAnalogSwitchesSrcDirect
 277:Generated_Source\PSoC4/CapSense_SMS.c **** ********************************************************************************
 278:Generated_Source\PSoC4/CapSense_SMS.c **** *
 279:Generated_Source\PSoC4/CapSense_SMS.c **** * Summary:
 280:Generated_Source\PSoC4/CapSense_SMS.c **** *  This API switches the charge clock source to prescaler.
 281:Generated_Source\PSoC4/CapSense_SMS.c **** *
 282:Generated_Source\PSoC4/CapSense_SMS.c **** * Parameters:
 283:Generated_Source\PSoC4/CapSense_SMS.c **** *  None
 284:Generated_Source\PSoC4/CapSense_SMS.c **** *
 285:Generated_Source\PSoC4/CapSense_SMS.c **** * Return:
 286:Generated_Source\PSoC4/CapSense_SMS.c **** *  None
 287:Generated_Source\PSoC4/CapSense_SMS.c **** *
 288:Generated_Source\PSoC4/CapSense_SMS.c **** * Global Variables:
 289:Generated_Source\PSoC4/CapSense_SMS.c **** *  None
 290:Generated_Source\PSoC4/CapSense_SMS.c **** *
 291:Generated_Source\PSoC4/CapSense_SMS.c **** * Side Effects:
 292:Generated_Source\PSoC4/CapSense_SMS.c **** *  None
 293:Generated_Source\PSoC4/CapSense_SMS.c **** *
 294:Generated_Source\PSoC4/CapSense_SMS.c **** *******************************************************************************/
 295:Generated_Source\PSoC4/CapSense_SMS.c **** void CapSense_SetAnalogSwitchesSrcDirect(void)
 296:Generated_Source\PSoC4/CapSense_SMS.c **** {
 427              		.loc 1 296 0
 428              		.cfi_startproc
 429 0000 80B5     		push	{r7, lr}
 430              		.cfi_def_cfa_offset 8
 431              		.cfi_offset 7, -8
 432              		.cfi_offset 14, -4
 433 0002 00AF     		add	r7, sp, #0
 434              		.cfi_def_cfa_register 7
 297:Generated_Source\PSoC4/CapSense_SMS.c ****     CapSense_CSD_CFG_REG &= ~(CapSense_CSD_CFG_PRS_SELECT);
 435              		.loc 1 297 0
 436 0004 034B     		ldr	r3, .L19
 437 0006 034A     		ldr	r2, .L19
 438 0008 1268     		ldr	r2, [r2]
ARM GAS  C:\Users\poornima\AppData\Local\Temp\cc0owNrL.s 			page 14


 439 000a 4021     		mov	r1, #64
 440 000c 8A43     		bic	r2, r1
 441 000e 1A60     		str	r2, [r3]
 298:Generated_Source\PSoC4/CapSense_SMS.c **** }
 442              		.loc 1 298 0
 443 0010 BD46     		mov	sp, r7
 444              		@ sp needed
 445 0012 80BD     		pop	{r7, pc}
 446              	.L20:
 447              		.align	2
 448              	.L19:
 449 0014 04002840 		.word	1076363268
 450              		.cfi_endproc
 451              	.LFE37:
 452              		.size	CapSense_SetAnalogSwitchesSrcDirect, .-CapSense_SetAnalogSwitchesSrcDirect
 453              		.section	.text.CapSense_DisableBaselineIDAC,"ax",%progbits
 454              		.align	2
 455              		.global	CapSense_DisableBaselineIDAC
 456              		.code	16
 457              		.thumb_func
 458              		.type	CapSense_DisableBaselineIDAC, %function
 459              	CapSense_DisableBaselineIDAC:
 460              	.LFB38:
 299:Generated_Source\PSoC4/CapSense_SMS.c **** 
 300:Generated_Source\PSoC4/CapSense_SMS.c **** 
 301:Generated_Source\PSoC4/CapSense_SMS.c **** /*******************************************************************************
 302:Generated_Source\PSoC4/CapSense_SMS.c **** * Function Name: CapSense_DisableBaselineIDAC
 303:Generated_Source\PSoC4/CapSense_SMS.c **** ********************************************************************************
 304:Generated_Source\PSoC4/CapSense_SMS.c **** *
 305:Generated_Source\PSoC4/CapSense_SMS.c **** * Summary:
 306:Generated_Source\PSoC4/CapSense_SMS.c **** *  The API disables the Compensation IDAC.
 307:Generated_Source\PSoC4/CapSense_SMS.c **** *
 308:Generated_Source\PSoC4/CapSense_SMS.c **** * Parameters:
 309:Generated_Source\PSoC4/CapSense_SMS.c **** *  None
 310:Generated_Source\PSoC4/CapSense_SMS.c **** *
 311:Generated_Source\PSoC4/CapSense_SMS.c **** * Return:
 312:Generated_Source\PSoC4/CapSense_SMS.c **** *  None
 313:Generated_Source\PSoC4/CapSense_SMS.c **** *
 314:Generated_Source\PSoC4/CapSense_SMS.c **** * Global Variables:
 315:Generated_Source\PSoC4/CapSense_SMS.c **** *  None
 316:Generated_Source\PSoC4/CapSense_SMS.c **** *
 317:Generated_Source\PSoC4/CapSense_SMS.c **** * Side Effects:
 318:Generated_Source\PSoC4/CapSense_SMS.c **** *  None
 319:Generated_Source\PSoC4/CapSense_SMS.c **** *
 320:Generated_Source\PSoC4/CapSense_SMS.c **** *******************************************************************************/
 321:Generated_Source\PSoC4/CapSense_SMS.c **** void CapSense_DisableBaselineIDAC(void)
 322:Generated_Source\PSoC4/CapSense_SMS.c **** {
 461              		.loc 1 322 0
 462              		.cfi_startproc
 463 0000 80B5     		push	{r7, lr}
 464              		.cfi_def_cfa_offset 8
 465              		.cfi_offset 7, -8
 466              		.cfi_offset 14, -4
 467 0002 82B0     		sub	sp, sp, #8
 468              		.cfi_def_cfa_offset 16
 469 0004 00AF     		add	r7, sp, #0
 470              		.cfi_def_cfa_register 7
ARM GAS  C:\Users\poornima\AppData\Local\Temp\cc0owNrL.s 			page 15


 323:Generated_Source\PSoC4/CapSense_SMS.c ****     uint32 newRegValue;
 324:Generated_Source\PSoC4/CapSense_SMS.c **** 
 325:Generated_Source\PSoC4/CapSense_SMS.c ****     newRegValue = CapSense_CSD_IDAC_REG;
 471              		.loc 1 325 0
 472 0006 094B     		ldr	r3, .L22
 473 0008 1B68     		ldr	r3, [r3]
 474 000a 7B60     		str	r3, [r7, #4]
 326:Generated_Source\PSoC4/CapSense_SMS.c **** 
 327:Generated_Source\PSoC4/CapSense_SMS.c ****     newRegValue &= ~(CapSense_CSD_IDAC1_MODE_MASK | CapSense_CSD_IDAC2_MODE_MASK);
 475              		.loc 1 327 0
 476 000c 7B68     		ldr	r3, [r7, #4]
 477 000e 084A     		ldr	r2, .L22+4
 478 0010 1340     		and	r3, r2
 479 0012 7B60     		str	r3, [r7, #4]
 328:Generated_Source\PSoC4/CapSense_SMS.c ****     newRegValue |= CapSense_CSD_IDAC1_MODE_VARIABLE;
 480              		.loc 1 328 0
 481 0014 7B68     		ldr	r3, [r7, #4]
 482 0016 8022     		mov	r2, #128
 483 0018 9200     		lsl	r2, r2, #2
 484 001a 1343     		orr	r3, r2
 485 001c 7B60     		str	r3, [r7, #4]
 329:Generated_Source\PSoC4/CapSense_SMS.c **** 
 330:Generated_Source\PSoC4/CapSense_SMS.c ****     CapSense_CSD_IDAC_REG = newRegValue;
 486              		.loc 1 330 0
 487 001e 034B     		ldr	r3, .L22
 488 0020 7A68     		ldr	r2, [r7, #4]
 489 0022 1A60     		str	r2, [r3]
 331:Generated_Source\PSoC4/CapSense_SMS.c **** }
 490              		.loc 1 331 0
 491 0024 BD46     		mov	sp, r7
 492 0026 02B0     		add	sp, sp, #8
 493              		@ sp needed
 494 0028 80BD     		pop	{r7, pc}
 495              	.L23:
 496 002a C046     		.align	2
 497              	.L22:
 498 002c 08002840 		.word	1076363272
 499 0030 FFFCFFFC 		.word	-50332417
 500              		.cfi_endproc
 501              	.LFE38:
 502              		.size	CapSense_DisableBaselineIDAC, .-CapSense_DisableBaselineIDAC
 503              		.section	.text.CapSense_EnableBaselineIDAC,"ax",%progbits
 504              		.align	2
 505              		.global	CapSense_EnableBaselineIDAC
 506              		.code	16
 507              		.thumb_func
 508              		.type	CapSense_EnableBaselineIDAC, %function
 509              	CapSense_EnableBaselineIDAC:
 510              	.LFB39:
 332:Generated_Source\PSoC4/CapSense_SMS.c **** 
 333:Generated_Source\PSoC4/CapSense_SMS.c **** 
 334:Generated_Source\PSoC4/CapSense_SMS.c **** /*******************************************************************************
 335:Generated_Source\PSoC4/CapSense_SMS.c **** * Function Name: CapSense_EnableBaselineIDAC
 336:Generated_Source\PSoC4/CapSense_SMS.c **** ********************************************************************************
 337:Generated_Source\PSoC4/CapSense_SMS.c **** *
 338:Generated_Source\PSoC4/CapSense_SMS.c **** * Summary:
 339:Generated_Source\PSoC4/CapSense_SMS.c **** *  The API enables the Compensation IDAC.
ARM GAS  C:\Users\poornima\AppData\Local\Temp\cc0owNrL.s 			page 16


 340:Generated_Source\PSoC4/CapSense_SMS.c **** *
 341:Generated_Source\PSoC4/CapSense_SMS.c **** * Parameters:
 342:Generated_Source\PSoC4/CapSense_SMS.c **** *  None
 343:Generated_Source\PSoC4/CapSense_SMS.c **** *
 344:Generated_Source\PSoC4/CapSense_SMS.c **** * Return:
 345:Generated_Source\PSoC4/CapSense_SMS.c **** *  None
 346:Generated_Source\PSoC4/CapSense_SMS.c **** *
 347:Generated_Source\PSoC4/CapSense_SMS.c **** * Global Variables:
 348:Generated_Source\PSoC4/CapSense_SMS.c **** *  CapSense_compensationIDAC[] - used to store a 7-bit idac value for all the sensors.
 349:Generated_Source\PSoC4/CapSense_SMS.c **** *
 350:Generated_Source\PSoC4/CapSense_SMS.c **** * Side Effects:
 351:Generated_Source\PSoC4/CapSense_SMS.c **** *  None
 352:Generated_Source\PSoC4/CapSense_SMS.c **** *
 353:Generated_Source\PSoC4/CapSense_SMS.c **** *******************************************************************************/
 354:Generated_Source\PSoC4/CapSense_SMS.c **** void  CapSense_EnableBaselineIDAC(const CapSense_CONFIG_TYPE_P4_v2_40 *config)
 355:Generated_Source\PSoC4/CapSense_SMS.c **** {
 511              		.loc 1 355 0
 512              		.cfi_startproc
 513 0000 80B5     		push	{r7, lr}
 514              		.cfi_def_cfa_offset 8
 515              		.cfi_offset 7, -8
 516              		.cfi_offset 14, -4
 517 0002 84B0     		sub	sp, sp, #16
 518              		.cfi_def_cfa_offset 24
 519 0004 00AF     		add	r7, sp, #0
 520              		.cfi_def_cfa_register 7
 521 0006 7860     		str	r0, [r7, #4]
 356:Generated_Source\PSoC4/CapSense_SMS.c ****     uint32 curSensor;
 357:Generated_Source\PSoC4/CapSense_SMS.c ****     uint32 newRegValue;
 358:Generated_Source\PSoC4/CapSense_SMS.c **** 
 359:Generated_Source\PSoC4/CapSense_SMS.c ****     for(curSensor = 0u; curSensor < config->totalScanslotsNum; curSensor++)
 522              		.loc 1 359 0
 523 0008 0023     		mov	r3, #0
 524 000a FB60     		str	r3, [r7, #12]
 525 000c 19E0     		b	.L25
 526              	.L26:
 360:Generated_Source\PSoC4/CapSense_SMS.c ****     {
 361:Generated_Source\PSoC4/CapSense_SMS.c ****         CapSense_compensationIDAC[curSensor] = CapSense_modulationIDAC[curSensor] / 2u;
 527              		.loc 1 361 0 discriminator 3
 528 000e 1B4A     		ldr	r2, .L27
 529 0010 FB68     		ldr	r3, [r7, #12]
 530 0012 D318     		add	r3, r2, r3
 531 0014 1B78     		ldrb	r3, [r3]
 532 0016 5B08     		lsr	r3, r3, #1
 533 0018 D9B2     		uxtb	r1, r3
 534 001a 194A     		ldr	r2, .L27+4
 535 001c FB68     		ldr	r3, [r7, #12]
 536 001e D318     		add	r3, r2, r3
 537 0020 0A1C     		add	r2, r1, #0
 538 0022 1A70     		strb	r2, [r3]
 362:Generated_Source\PSoC4/CapSense_SMS.c ****         CapSense_modulationIDAC[curSensor] = (CapSense_modulationIDAC[curSensor] + 1u) / 2u;
 539              		.loc 1 362 0 discriminator 3
 540 0024 154A     		ldr	r2, .L27
 541 0026 FB68     		ldr	r3, [r7, #12]
 542 0028 D318     		add	r3, r2, r3
 543 002a 1B78     		ldrb	r3, [r3]
 544 002c 0133     		add	r3, r3, #1
ARM GAS  C:\Users\poornima\AppData\Local\Temp\cc0owNrL.s 			page 17


 545 002e 5B08     		lsr	r3, r3, #1
 546 0030 D9B2     		uxtb	r1, r3
 547 0032 124A     		ldr	r2, .L27
 548 0034 FB68     		ldr	r3, [r7, #12]
 549 0036 D318     		add	r3, r2, r3
 550 0038 0A1C     		add	r2, r1, #0
 551 003a 1A70     		strb	r2, [r3]
 359:Generated_Source\PSoC4/CapSense_SMS.c ****     {
 552              		.loc 1 359 0 discriminator 3
 553 003c FB68     		ldr	r3, [r7, #12]
 554 003e 0133     		add	r3, r3, #1
 555 0040 FB60     		str	r3, [r7, #12]
 556              	.L25:
 359:Generated_Source\PSoC4/CapSense_SMS.c ****     {
 557              		.loc 1 359 0 is_stmt 0 discriminator 1
 558 0042 7B68     		ldr	r3, [r7, #4]
 559 0044 1B78     		ldrb	r3, [r3]
 560 0046 1A1E     		sub	r2, r3, #0
 561 0048 FB68     		ldr	r3, [r7, #12]
 562 004a 9A42     		cmp	r2, r3
 563 004c DFD8     		bhi	.L26
 363:Generated_Source\PSoC4/CapSense_SMS.c ****     }
 364:Generated_Source\PSoC4/CapSense_SMS.c **** 
 365:Generated_Source\PSoC4/CapSense_SMS.c ****     CyIntDisable(CapSense_ISR_NUMBER);
 564              		.loc 1 365 0 is_stmt 1
 565 004e 1120     		mov	r0, #17
 566 0050 FFF7FEFF 		bl	CyIntDisable
 366:Generated_Source\PSoC4/CapSense_SMS.c **** 
 367:Generated_Source\PSoC4/CapSense_SMS.c ****     newRegValue = CapSense_CSD_IDAC_REG;
 567              		.loc 1 367 0
 568 0054 0B4B     		ldr	r3, .L27+8
 569 0056 1B68     		ldr	r3, [r3]
 570 0058 BB60     		str	r3, [r7, #8]
 368:Generated_Source\PSoC4/CapSense_SMS.c ****     newRegValue &= ~(CapSense_CSD_IDAC1_MODE_MASK | CapSense_CSD_IDAC2_MODE_MASK);
 571              		.loc 1 368 0
 572 005a BB68     		ldr	r3, [r7, #8]
 573 005c 0A4A     		ldr	r2, .L27+12
 574 005e 1340     		and	r3, r2
 575 0060 BB60     		str	r3, [r7, #8]
 369:Generated_Source\PSoC4/CapSense_SMS.c ****     newRegValue |= (CapSense_CSD_IDAC1_MODE_VARIABLE | CapSense_CSD_IDAC2_MODE_FIXED);
 576              		.loc 1 369 0
 577 0062 BB68     		ldr	r3, [r7, #8]
 578 0064 094A     		ldr	r2, .L27+16
 579 0066 1343     		orr	r3, r2
 580 0068 BB60     		str	r3, [r7, #8]
 370:Generated_Source\PSoC4/CapSense_SMS.c ****     CapSense_CSD_IDAC_REG = newRegValue;
 581              		.loc 1 370 0
 582 006a 064B     		ldr	r3, .L27+8
 583 006c BA68     		ldr	r2, [r7, #8]
 584 006e 1A60     		str	r2, [r3]
 371:Generated_Source\PSoC4/CapSense_SMS.c **** 
 372:Generated_Source\PSoC4/CapSense_SMS.c ****     CyIntEnable(CapSense_ISR_NUMBER);
 585              		.loc 1 372 0
 586 0070 1120     		mov	r0, #17
 587 0072 FFF7FEFF 		bl	CyIntEnable
 373:Generated_Source\PSoC4/CapSense_SMS.c **** }
 588              		.loc 1 373 0
ARM GAS  C:\Users\poornima\AppData\Local\Temp\cc0owNrL.s 			page 18


 589 0076 BD46     		mov	sp, r7
 590 0078 04B0     		add	sp, sp, #16
 591              		@ sp needed
 592 007a 80BD     		pop	{r7, pc}
 593              	.L28:
 594              		.align	2
 595              	.L27:
 596 007c 00000000 		.word	CapSense_modulationIDAC
 597 0080 00000000 		.word	CapSense_compensationIDAC
 598 0084 08002840 		.word	1076363272
 599 0088 FFFCFFFC 		.word	-50332417
 600 008c 00020001 		.word	16777728
 601              		.cfi_endproc
 602              	.LFE39:
 603              		.size	CapSense_EnableBaselineIDAC, .-CapSense_EnableBaselineIDAC
 604              		.section	.text.CapSense_SetSensitivity,"ax",%progbits
 605              		.align	2
 606              		.global	CapSense_SetSensitivity
 607              		.code	16
 608              		.thumb_func
 609              		.type	CapSense_SetSensitivity, %function
 610              	CapSense_SetSensitivity:
 611              	.LFB40:
 374:Generated_Source\PSoC4/CapSense_SMS.c **** 
 375:Generated_Source\PSoC4/CapSense_SMS.c **** 
 376:Generated_Source\PSoC4/CapSense_SMS.c **** /*******************************************************************************
 377:Generated_Source\PSoC4/CapSense_SMS.c **** * Function Name: CapSense_SetSensitivity
 378:Generated_Source\PSoC4/CapSense_SMS.c **** ********************************************************************************
 379:Generated_Source\PSoC4/CapSense_SMS.c **** *
 380:Generated_Source\PSoC4/CapSense_SMS.c **** * Summary:
 381:Generated_Source\PSoC4/CapSense_SMS.c **** *  This API sets the sensitivity value for the sensor. The sensitivity
 382:Generated_Source\PSoC4/CapSense_SMS.c **** *  value is used during the auto-tuning algorithm executed as part of the CapSense_Start API.
 383:Generated_Source\PSoC4/CapSense_SMS.c **** *  This API is called by the application layer prior to calling the CapSense_Start API.
 384:Generated_Source\PSoC4/CapSense_SMS.c **** *  Calling this API after execution of CapSense_Start API has no effect.
 385:Generated_Source\PSoC4/CapSense_SMS.c **** *
 386:Generated_Source\PSoC4/CapSense_SMS.c **** * Parameters:
 387:Generated_Source\PSoC4/CapSense_SMS.c **** *  sensor  Sensor index
 388:Generated_Source\PSoC4/CapSense_SMS.c **** *  data    Sensitivity of the sensor. Possible values are below
 389:Generated_Source\PSoC4/CapSense_SMS.c **** *  1 - 0.1pf sensitivity
 390:Generated_Source\PSoC4/CapSense_SMS.c **** *  2 - 0.2pf sensitivity
 391:Generated_Source\PSoC4/CapSense_SMS.c **** *  3 - 0.3pf sensitivity
 392:Generated_Source\PSoC4/CapSense_SMS.c **** *  4 - 0.4pf sensitivity
 393:Generated_Source\PSoC4/CapSense_SMS.c **** *  5 - 0.5pf sensitivity
 394:Generated_Source\PSoC4/CapSense_SMS.c **** *  6 - 0.6pf sensitivity
 395:Generated_Source\PSoC4/CapSense_SMS.c **** *  7 - 0.7pf sensitivity
 396:Generated_Source\PSoC4/CapSense_SMS.c **** *  8 - 0.8pf sensitivity
 397:Generated_Source\PSoC4/CapSense_SMS.c **** *  9 - 0.9pf sensitivity
 398:Generated_Source\PSoC4/CapSense_SMS.c **** *  10 - 1.0pf sensitivity
 399:Generated_Source\PSoC4/CapSense_SMS.c **** *  All other values, set sensitivity to 1.0pf
 400:Generated_Source\PSoC4/CapSense_SMS.c **** *
 401:Generated_Source\PSoC4/CapSense_SMS.c **** *  Return Value:
 402:Generated_Source\PSoC4/CapSense_SMS.c **** *   None
 403:Generated_Source\PSoC4/CapSense_SMS.c **** *
 404:Generated_Source\PSoC4/CapSense_SMS.c **** * Global Variables:
 405:Generated_Source\PSoC4/CapSense_SMS.c **** * CapSense_sensorSensitivity[] - This 8-bits array contains Sensitivity in the LSB nibble
 406:Generated_Source\PSoC4/CapSense_SMS.c **** *                                and Noise Reset Counter value in the MSB nibble.
 407:Generated_Source\PSoC4/CapSense_SMS.c **** *
ARM GAS  C:\Users\poornima\AppData\Local\Temp\cc0owNrL.s 			page 19


 408:Generated_Source\PSoC4/CapSense_SMS.c **** * Side Effects:
 409:Generated_Source\PSoC4/CapSense_SMS.c **** *  None
 410:Generated_Source\PSoC4/CapSense_SMS.c **** *
 411:Generated_Source\PSoC4/CapSense_SMS.c **** *******************************************************************************/
 412:Generated_Source\PSoC4/CapSense_SMS.c **** void CapSense_SetSensitivity(uint32 sensor, uint32 value)
 413:Generated_Source\PSoC4/CapSense_SMS.c **** {
 612              		.loc 1 413 0
 613              		.cfi_startproc
 614 0000 80B5     		push	{r7, lr}
 615              		.cfi_def_cfa_offset 8
 616              		.cfi_offset 7, -8
 617              		.cfi_offset 14, -4
 618 0002 82B0     		sub	sp, sp, #8
 619              		.cfi_def_cfa_offset 16
 620 0004 00AF     		add	r7, sp, #0
 621              		.cfi_def_cfa_register 7
 622 0006 7860     		str	r0, [r7, #4]
 623 0008 3960     		str	r1, [r7]
 414:Generated_Source\PSoC4/CapSense_SMS.c ****     if(value > 10u)
 624              		.loc 1 414 0
 625 000a 3B68     		ldr	r3, [r7]
 626 000c 0A2B     		cmp	r3, #10
 627 000e 01D9     		bls	.L30
 415:Generated_Source\PSoC4/CapSense_SMS.c ****     {
 416:Generated_Source\PSoC4/CapSense_SMS.c ****         value = 10u;
 628              		.loc 1 416 0
 629 0010 0A23     		mov	r3, #10
 630 0012 3B60     		str	r3, [r7]
 631              	.L30:
 417:Generated_Source\PSoC4/CapSense_SMS.c ****     }
 418:Generated_Source\PSoC4/CapSense_SMS.c **** 
 419:Generated_Source\PSoC4/CapSense_SMS.c ****     /* Clear SensorSensitivity value in LSB nibble */
 420:Generated_Source\PSoC4/CapSense_SMS.c ****     CapSense_sensorSensitivity[sensor] &= (uint8)~CapSense_SENSITIVITY_MASK;
 632              		.loc 1 420 0
 633 0014 0D4A     		ldr	r2, .L31
 634 0016 7B68     		ldr	r3, [r7, #4]
 635 0018 D318     		add	r3, r2, r3
 636 001a 1B78     		ldrb	r3, [r3]
 637 001c 0F22     		mov	r2, #15
 638 001e 9343     		bic	r3, r2
 639 0020 D9B2     		uxtb	r1, r3
 640 0022 0A4A     		ldr	r2, .L31
 641 0024 7B68     		ldr	r3, [r7, #4]
 642 0026 D318     		add	r3, r2, r3
 643 0028 0A1C     		add	r2, r1, #0
 644 002a 1A70     		strb	r2, [r3]
 421:Generated_Source\PSoC4/CapSense_SMS.c ****     /* Set SensorSensitivity value in LSB nibble */
 422:Generated_Source\PSoC4/CapSense_SMS.c ****     CapSense_sensorSensitivity[sensor] |= (uint8)value;
 645              		.loc 1 422 0
 646 002c 074A     		ldr	r2, .L31
 647 002e 7B68     		ldr	r3, [r7, #4]
 648 0030 D318     		add	r3, r2, r3
 649 0032 1A78     		ldrb	r2, [r3]
 650 0034 3B68     		ldr	r3, [r7]
 651 0036 DBB2     		uxtb	r3, r3
 652 0038 1343     		orr	r3, r2
 653 003a D9B2     		uxtb	r1, r3
ARM GAS  C:\Users\poornima\AppData\Local\Temp\cc0owNrL.s 			page 20


 654 003c 034A     		ldr	r2, .L31
 655 003e 7B68     		ldr	r3, [r7, #4]
 656 0040 D318     		add	r3, r2, r3
 657 0042 0A1C     		add	r2, r1, #0
 658 0044 1A70     		strb	r2, [r3]
 423:Generated_Source\PSoC4/CapSense_SMS.c **** }
 659              		.loc 1 423 0
 660 0046 BD46     		mov	sp, r7
 661 0048 02B0     		add	sp, sp, #8
 662              		@ sp needed
 663 004a 80BD     		pop	{r7, pc}
 664              	.L32:
 665              		.align	2
 666              	.L31:
 667 004c 00000000 		.word	CapSense_sensorSensitivity
 668              		.cfi_endproc
 669              	.LFE40:
 670              		.size	CapSense_SetSensitivity, .-CapSense_SetSensitivity
 671              		.section	.text.CapSense_GetSensitivityCoefficient,"ax",%progbits
 672              		.align	2
 673              		.global	CapSense_GetSensitivityCoefficient
 674              		.code	16
 675              		.thumb_func
 676              		.type	CapSense_GetSensitivityCoefficient, %function
 677              	CapSense_GetSensitivityCoefficient:
 678              	.LFB41:
 424:Generated_Source\PSoC4/CapSense_SMS.c **** 
 425:Generated_Source\PSoC4/CapSense_SMS.c **** 
 426:Generated_Source\PSoC4/CapSense_SMS.c **** /*******************************************************************************
 427:Generated_Source\PSoC4/CapSense_SMS.c **** * Function Name: CapSense_GetSensitivityCoefficient
 428:Generated_Source\PSoC4/CapSense_SMS.c **** ********************************************************************************
 429:Generated_Source\PSoC4/CapSense_SMS.c **** *
 430:Generated_Source\PSoC4/CapSense_SMS.c **** * Summary:
 431:Generated_Source\PSoC4/CapSense_SMS.c **** *  This API returns the K coefficient for the appropriate sensor.
 432:Generated_Source\PSoC4/CapSense_SMS.c **** *
 433:Generated_Source\PSoC4/CapSense_SMS.c **** * Parameters:
 434:Generated_Source\PSoC4/CapSense_SMS.c **** *  sensor:  Sensor index
 435:Generated_Source\PSoC4/CapSense_SMS.c **** *
 436:Generated_Source\PSoC4/CapSense_SMS.c **** *  Return Value:
 437:Generated_Source\PSoC4/CapSense_SMS.c **** *   K - value for the appropriate sensor.
 438:Generated_Source\PSoC4/CapSense_SMS.c **** *
 439:Generated_Source\PSoC4/CapSense_SMS.c **** * Global Variables:
 440:Generated_Source\PSoC4/CapSense_SMS.c **** *  CapSense_kValueTbl[] - This 8-bits array contains the K value for each sensor.
 441:Generated_Source\PSoC4/CapSense_SMS.c **** *
 442:Generated_Source\PSoC4/CapSense_SMS.c **** * Side Effects:
 443:Generated_Source\PSoC4/CapSense_SMS.c **** *  None
 444:Generated_Source\PSoC4/CapSense_SMS.c **** *
 445:Generated_Source\PSoC4/CapSense_SMS.c **** *******************************************************************************/
 446:Generated_Source\PSoC4/CapSense_SMS.c **** uint8 CapSense_GetSensitivityCoefficient(uint32 sensor)
 447:Generated_Source\PSoC4/CapSense_SMS.c **** {
 679              		.loc 1 447 0
 680              		.cfi_startproc
 681 0000 80B5     		push	{r7, lr}
 682              		.cfi_def_cfa_offset 8
 683              		.cfi_offset 7, -8
 684              		.cfi_offset 14, -4
 685 0002 82B0     		sub	sp, sp, #8
ARM GAS  C:\Users\poornima\AppData\Local\Temp\cc0owNrL.s 			page 21


 686              		.cfi_def_cfa_offset 16
 687 0004 00AF     		add	r7, sp, #0
 688              		.cfi_def_cfa_register 7
 689 0006 7860     		str	r0, [r7, #4]
 448:Generated_Source\PSoC4/CapSense_SMS.c ****     return (CapSense_kValueTbl[sensor]);
 690              		.loc 1 448 0
 691 0008 034A     		ldr	r2, .L35
 692 000a 7B68     		ldr	r3, [r7, #4]
 693 000c D318     		add	r3, r2, r3
 694 000e 1B78     		ldrb	r3, [r3]
 449:Generated_Source\PSoC4/CapSense_SMS.c **** }
 695              		.loc 1 449 0
 696 0010 181C     		mov	r0, r3
 697 0012 BD46     		mov	sp, r7
 698 0014 02B0     		add	sp, sp, #8
 699              		@ sp needed
 700 0016 80BD     		pop	{r7, pc}
 701              	.L36:
 702              		.align	2
 703              	.L35:
 704 0018 00000000 		.word	CapSense_kValueTbl
 705              		.cfi_endproc
 706              	.LFE41:
 707              		.size	CapSense_GetSensitivityCoefficient, .-CapSense_GetSensitivityCoefficient
 708              		.section	.text.CapSense_GetNoiseEnvelope,"ax",%progbits
 709              		.align	2
 710              		.global	CapSense_GetNoiseEnvelope
 711              		.code	16
 712              		.thumb_func
 713              		.type	CapSense_GetNoiseEnvelope, %function
 714              	CapSense_GetNoiseEnvelope:
 715              	.LFB42:
 450:Generated_Source\PSoC4/CapSense_SMS.c **** 
 451:Generated_Source\PSoC4/CapSense_SMS.c **** 
 452:Generated_Source\PSoC4/CapSense_SMS.c **** /*******************************************************************************
 453:Generated_Source\PSoC4/CapSense_SMS.c **** * Function Name: CapSense_GetNoiseEnvelope
 454:Generated_Source\PSoC4/CapSense_SMS.c **** ********************************************************************************
 455:Generated_Source\PSoC4/CapSense_SMS.c **** *
 456:Generated_Source\PSoC4/CapSense_SMS.c **** * Summary:
 457:Generated_Source\PSoC4/CapSense_SMS.c **** *  This function returns the noise value of a
 458:Generated_Source\PSoC4/CapSense_SMS.c **** *  component.
 459:Generated_Source\PSoC4/CapSense_SMS.c **** *
 460:Generated_Source\PSoC4/CapSense_SMS.c **** * Parameters:
 461:Generated_Source\PSoC4/CapSense_SMS.c **** *  sensor - Sensor number.
 462:Generated_Source\PSoC4/CapSense_SMS.c **** *
 463:Generated_Source\PSoC4/CapSense_SMS.c **** * Return:
 464:Generated_Source\PSoC4/CapSense_SMS.c **** *  The noise envelope value of the sensor
 465:Generated_Source\PSoC4/CapSense_SMS.c **** *  indicated by argument.
 466:Generated_Source\PSoC4/CapSense_SMS.c **** *
 467:Generated_Source\PSoC4/CapSense_SMS.c **** * Global Variables:
 468:Generated_Source\PSoC4/CapSense_SMS.c **** *  CapSense_noiseEnvelopeTbl[] - array with Noise Envelope.
 469:Generated_Source\PSoC4/CapSense_SMS.c **** *
 470:Generated_Source\PSoC4/CapSense_SMS.c **** * Side Effects:
 471:Generated_Source\PSoC4/CapSense_SMS.c **** *  None
 472:Generated_Source\PSoC4/CapSense_SMS.c **** *
 473:Generated_Source\PSoC4/CapSense_SMS.c **** *******************************************************************************/
 474:Generated_Source\PSoC4/CapSense_SMS.c **** uint16 CapSense_GetNoiseEnvelope(uint32 sensor)
ARM GAS  C:\Users\poornima\AppData\Local\Temp\cc0owNrL.s 			page 22


 475:Generated_Source\PSoC4/CapSense_SMS.c **** {
 716              		.loc 1 475 0
 717              		.cfi_startproc
 718 0000 80B5     		push	{r7, lr}
 719              		.cfi_def_cfa_offset 8
 720              		.cfi_offset 7, -8
 721              		.cfi_offset 14, -4
 722 0002 82B0     		sub	sp, sp, #8
 723              		.cfi_def_cfa_offset 16
 724 0004 00AF     		add	r7, sp, #0
 725              		.cfi_def_cfa_register 7
 726 0006 7860     		str	r0, [r7, #4]
 476:Generated_Source\PSoC4/CapSense_SMS.c ****     return((uint16)((uint16)CapSense_noiseEnvelopeTbl[sensor] << 1u) + 1u);
 727              		.loc 1 476 0
 728 0008 064A     		ldr	r2, .L39
 729 000a 7B68     		ldr	r3, [r7, #4]
 730 000c D318     		add	r3, r2, r3
 731 000e 1B78     		ldrb	r3, [r3]
 732 0010 9BB2     		uxth	r3, r3
 733 0012 DB18     		add	r3, r3, r3
 734 0014 9BB2     		uxth	r3, r3
 735 0016 0133     		add	r3, r3, #1
 736 0018 9BB2     		uxth	r3, r3
 477:Generated_Source\PSoC4/CapSense_SMS.c **** }
 737              		.loc 1 477 0
 738 001a 181C     		mov	r0, r3
 739 001c BD46     		mov	sp, r7
 740 001e 02B0     		add	sp, sp, #8
 741              		@ sp needed
 742 0020 80BD     		pop	{r7, pc}
 743              	.L40:
 744 0022 C046     		.align	2
 745              	.L39:
 746 0024 00000000 		.word	CapSense_noiseEnvelopeTbl
 747              		.cfi_endproc
 748              	.LFE42:
 749              		.size	CapSense_GetNoiseEnvelope, .-CapSense_GetNoiseEnvelope
 750              		.global	__aeabi_uidiv
 751              		.section	.text.CapSense_GetNormalizedDiffCountData,"ax",%progbits
 752              		.align	2
 753              		.global	CapSense_GetNormalizedDiffCountData
 754              		.code	16
 755              		.thumb_func
 756              		.type	CapSense_GetNormalizedDiffCountData, %function
 757              	CapSense_GetNormalizedDiffCountData:
 758              	.LFB43:
 478:Generated_Source\PSoC4/CapSense_SMS.c **** 
 479:Generated_Source\PSoC4/CapSense_SMS.c **** 
 480:Generated_Source\PSoC4/CapSense_SMS.c **** /*******************************************************************************
 481:Generated_Source\PSoC4/CapSense_SMS.c **** * Function Name: CapSense_GetNormalizedDiffCountData
 482:Generated_Source\PSoC4/CapSense_SMS.c **** ********************************************************************************
 483:Generated_Source\PSoC4/CapSense_SMS.c **** *
 484:Generated_Source\PSoC4/CapSense_SMS.c **** * Summary:
 485:Generated_Source\PSoC4/CapSense_SMS.c **** *  This API returns normalized difference count data.
 486:Generated_Source\PSoC4/CapSense_SMS.c **** *
 487:Generated_Source\PSoC4/CapSense_SMS.c **** * Parameters:
 488:Generated_Source\PSoC4/CapSense_SMS.c **** *  sensor:  Sensor number.
ARM GAS  C:\Users\poornima\AppData\Local\Temp\cc0owNrL.s 			page 23


 489:Generated_Source\PSoC4/CapSense_SMS.c **** *
 490:Generated_Source\PSoC4/CapSense_SMS.c **** * Return:
 491:Generated_Source\PSoC4/CapSense_SMS.c **** *  This API returns a normalized count value of the sensor indicated by the
 492:Generated_Source\PSoC4/CapSense_SMS.c **** *  argument.
 493:Generated_Source\PSoC4/CapSense_SMS.c **** *
 494:Generated_Source\PSoC4/CapSense_SMS.c **** * Global Variables:
 495:Generated_Source\PSoC4/CapSense_SMS.c **** *  CapSense_sensorSignal[] - array with difference counts for sensors
 496:Generated_Source\PSoC4/CapSense_SMS.c **** *
 497:Generated_Source\PSoC4/CapSense_SMS.c **** * Side Effects:
 498:Generated_Source\PSoC4/CapSense_SMS.c **** *  None
 499:Generated_Source\PSoC4/CapSense_SMS.c **** *
 500:Generated_Source\PSoC4/CapSense_SMS.c **** *******************************************************************************/
 501:Generated_Source\PSoC4/CapSense_SMS.c **** uint16 CapSense_GetNormalizedDiffCountData(uint32 sensor)
 502:Generated_Source\PSoC4/CapSense_SMS.c **** {
 759              		.loc 1 502 0
 760              		.cfi_startproc
 761 0000 80B5     		push	{r7, lr}
 762              		.cfi_def_cfa_offset 8
 763              		.cfi_offset 7, -8
 764              		.cfi_offset 14, -4
 765 0002 82B0     		sub	sp, sp, #8
 766              		.cfi_def_cfa_offset 16
 767 0004 00AF     		add	r7, sp, #0
 768              		.cfi_def_cfa_register 7
 769 0006 7860     		str	r0, [r7, #4]
 503:Generated_Source\PSoC4/CapSense_SMS.c ****     return (uint16)(((uint32)CapSense_sensorSignal[sensor] << 7u) / CapSense_kValueTbl[sensor]);
 770              		.loc 1 503 0
 771 0008 094A     		ldr	r2, .L43
 772 000a 7B68     		ldr	r3, [r7, #4]
 773 000c D318     		add	r3, r2, r3
 774 000e 1B78     		ldrb	r3, [r3]
 775 0010 D901     		lsl	r1, r3, #7
 776 0012 084A     		ldr	r2, .L43+4
 777 0014 7B68     		ldr	r3, [r7, #4]
 778 0016 D318     		add	r3, r2, r3
 779 0018 1B78     		ldrb	r3, [r3]
 780 001a 081C     		mov	r0, r1
 781 001c 191C     		mov	r1, r3
 782 001e FFF7FEFF 		bl	__aeabi_uidiv
 783 0022 031C     		mov	r3, r0
 784 0024 9BB2     		uxth	r3, r3
 504:Generated_Source\PSoC4/CapSense_SMS.c **** }
 785              		.loc 1 504 0
 786 0026 181C     		mov	r0, r3
 787 0028 BD46     		mov	sp, r7
 788 002a 02B0     		add	sp, sp, #8
 789              		@ sp needed
 790 002c 80BD     		pop	{r7, pc}
 791              	.L44:
 792 002e C046     		.align	2
 793              	.L43:
 794 0030 00000000 		.word	CapSense_sensorSignal
 795 0034 00000000 		.word	CapSense_kValueTbl
 796              		.cfi_endproc
 797              	.LFE43:
 798              		.size	CapSense_GetNormalizedDiffCountData, .-CapSense_GetNormalizedDiffCountData
 799              		.text
ARM GAS  C:\Users\poornima\AppData\Local\Temp\cc0owNrL.s 			page 24


 800              	.Letext0:
 801              		.file 2 "Generated_Source\\PSoC4\\cytypes.h"
 802              		.file 3 "Generated_Source\\PSoC4\\CapSense_PVT.h"
 803              		.file 4 "Generated_Source\\PSoC4\\CapSense.h"
 804              		.file 5 "Generated_Source\\PSoC4\\CapSense_CSHL.h"