ARM GAS  C:\Users\poornima\AppData\Local\Temp\ccCVn41A.s 			page 1


   1              		.cpu cortex-m0
   2              		.fpu softvfp
   3              		.eabi_attribute 20, 1
   4              		.eabi_attribute 21, 1
   5              		.eabi_attribute 23, 3
   6              		.eabi_attribute 24, 1
   7              		.eabi_attribute 25, 1
   8              		.eabi_attribute 26, 1
   9              		.eabi_attribute 30, 6
  10              		.eabi_attribute 34, 0
  11              		.eabi_attribute 18, 4
  12              		.code	16
  13              		.file	"CapSense_CSHL.c"
  14              		.text
  15              	.Ltext0:
  16              		.cfi_sections	.debug_frame
  17              		.comm	CapSense_rawFilterData1,18,4
  18              		.global	CapSense_sensorBaseline
  19              		.bss
  20              		.align	2
  21              		.type	CapSense_sensorBaseline, %object
  22              		.size	CapSense_sensorBaseline, 18
  23              	CapSense_sensorBaseline:
  24 0000 00000000 		.space	18
  24      00000000 
  24      00000000 
  24      00000000 
  24      0000
  25              		.global	CapSense_sensorBaselineLow
  26 0012 0000     		.align	2
  27              		.type	CapSense_sensorBaselineLow, %object
  28              		.size	CapSense_sensorBaselineLow, 9
  29              	CapSense_sensorBaselineLow:
  30 0014 00000000 		.space	9
  30      00000000 
  30      00
  31              		.global	CapSense_sensorSignal
  32 001d 000000   		.align	2
  33              		.type	CapSense_sensorSignal, %object
  34              		.size	CapSense_sensorSignal, 9
  35              	CapSense_sensorSignal:
  36 0020 00000000 		.space	9
  36      00000000 
  36      00
  37              		.global	CapSense_sensorOnMask
  38 0029 000000   		.align	2
  39              		.type	CapSense_sensorOnMask, %object
  40              		.size	CapSense_sensorOnMask, 2
  41              	CapSense_sensorOnMask:
  42 002c 0000     		.space	2
  43              		.comm	CapSense_lowBaselineResetCnt,9,4
  44              		.global	CapSense_lowBaselineReset
  45              		.data
  46              		.align	2
  47              		.type	CapSense_lowBaselineReset, %object
  48              		.size	CapSense_lowBaselineReset, 9
  49              	CapSense_lowBaselineReset:
ARM GAS  C:\Users\poornima\AppData\Local\Temp\ccCVn41A.s 			page 2


  50 0000 1E       		.byte	30
  51 0001 1E       		.byte	30
  52 0002 1E       		.byte	30
  53 0003 1E       		.byte	30
  54 0004 1E       		.byte	30
  55 0005 1E       		.byte	30
  56 0006 1E       		.byte	30
  57 0007 1E       		.byte	30
  58 0008 1E       		.byte	30
  59              		.global	CapSense_enableRawFilters
  60              		.type	CapSense_enableRawFilters, %object
  61              		.size	CapSense_enableRawFilters, 1
  62              	CapSense_enableRawFilters:
  63 0009 01       		.byte	1
  64              		.comm	CapSense_fingerThreshold,5,4
  65              		.comm	CapSense_noiseThreshold,5,4
  66              		.comm	CapSense_negativeNoiseThreshold,5,4
  67              		.comm	CapSense_hysteresis,5,4
  68              		.global	CapSense_debounce
  69 000a 0000     		.align	2
  70              		.type	CapSense_debounce, %object
  71              		.size	CapSense_debounce, 5
  72              	CapSense_debounce:
  73 000c 01       		.byte	1
  74 000d 05       		.byte	5
  75 000e 05       		.byte	5
  76 000f 05       		.byte	5
  77 0010 05       		.byte	5
  78              		.bss
  79 002e 0000     		.align	2
  80              	CapSense_debounceCounter:
  81 0030 00000000 		.space	5
  81      00
  82              		.global	CapSense_rawDataIndex
  83              		.section	.rodata
  84              		.align	2
  85              		.type	CapSense_rawDataIndex, %object
  86              		.size	CapSense_rawDataIndex, 5
  87              	CapSense_rawDataIndex:
  88 0000 04       		.byte	4
  89 0001 00       		.byte	0
  90 0002 01       		.byte	1
  91 0003 02       		.byte	2
  92 0004 03       		.byte	3
  93              		.global	CapSense_numberOfSensors
  94 0005 000000   		.align	2
  95              		.type	CapSense_numberOfSensors, %object
  96              		.size	CapSense_numberOfSensors, 5
  97              	CapSense_numberOfSensors:
  98 0008 05       		.byte	5
  99 0009 01       		.byte	1
 100 000a 01       		.byte	1
 101 000b 01       		.byte	1
 102 000c 01       		.byte	1
 103 000d 000000   		.align	2
 104              		.type	CapSense_centroidMult, %object
 105              		.size	CapSense_centroidMult, 2
ARM GAS  C:\Users\poornima\AppData\Local\Temp\ccCVn41A.s 			page 3


 106              	CapSense_centroidMult:
 107 0010 0014     		.short	5120
 108 0012 0000     		.data
 109 0011 000000   		.align	2
 110              		.type	CapSense_posFiltersMask, %object
 111              		.size	CapSense_posFiltersMask, 1
 112              	CapSense_posFiltersMask:
 113 0014 08       		.byte	8
 114 0015 000000   		.align	2
 115              		.type	CapSense_posFiltersData, %object
 116              		.size	CapSense_posFiltersData, 3
 117              	CapSense_posFiltersData:
 118 0018 01       		.byte	1
 119 0019 00       		.byte	0
 120 001a 00       		.byte	0
 121 001b 00       		.section	.text.CapSense_BaseInit,"ax",%progbits
 122              		.align	2
 123              		.global	CapSense_BaseInit
 124              		.code	16
 125              		.thumb_func
 126              		.type	CapSense_BaseInit, %function
 127              	CapSense_BaseInit:
 128              	.LFB35:
 129              		.file 1 "Generated_Source\\PSoC4\\CapSense_CSHL.c"
   1:Generated_Source\PSoC4/CapSense_CSHL.c **** /*******************************************************************************
   2:Generated_Source\PSoC4/CapSense_CSHL.c **** * File Name: CapSense_CSHL.c
   3:Generated_Source\PSoC4/CapSense_CSHL.c **** * Version 2.40
   4:Generated_Source\PSoC4/CapSense_CSHL.c **** *
   5:Generated_Source\PSoC4/CapSense_CSHL.c **** * Description:
   6:Generated_Source\PSoC4/CapSense_CSHL.c **** *  This file provides the source code to the High Level APIs for the CapSesne
   7:Generated_Source\PSoC4/CapSense_CSHL.c **** *  CSD component.
   8:Generated_Source\PSoC4/CapSense_CSHL.c **** *
   9:Generated_Source\PSoC4/CapSense_CSHL.c **** * Note:
  10:Generated_Source\PSoC4/CapSense_CSHL.c **** *
  11:Generated_Source\PSoC4/CapSense_CSHL.c **** ********************************************************************************
  12:Generated_Source\PSoC4/CapSense_CSHL.c **** * Copyright 2013-2015, Cypress Semiconductor Corporation.  All rights reserved.
  13:Generated_Source\PSoC4/CapSense_CSHL.c **** * You may use this file only in accordance with the license, terms, conditions,
  14:Generated_Source\PSoC4/CapSense_CSHL.c **** * disclaimers, and limitations in the end user license agreement accompanying
  15:Generated_Source\PSoC4/CapSense_CSHL.c **** * the software package with which this file was provided.
  16:Generated_Source\PSoC4/CapSense_CSHL.c **** *******************************************************************************/
  17:Generated_Source\PSoC4/CapSense_CSHL.c **** 
  18:Generated_Source\PSoC4/CapSense_CSHL.c **** #include "CapSense_CSHL.h"
  19:Generated_Source\PSoC4/CapSense_CSHL.c **** #include "CapSense_PVT.h"
  20:Generated_Source\PSoC4/CapSense_CSHL.c **** 
  21:Generated_Source\PSoC4/CapSense_CSHL.c **** /* SmartSense functions */
  22:Generated_Source\PSoC4/CapSense_CSHL.c **** #if (CapSense_TUNING_METHOD == CapSense__TUNING_AUTO)
  23:Generated_Source\PSoC4/CapSense_CSHL.c ****     extern void CapSense_UpdateThresholds(uint32 sensor);
  24:Generated_Source\PSoC4/CapSense_CSHL.c **** #endif /* (CapSense_TUNING_METHOD == CapSense__TUNING_AUTO) */
  25:Generated_Source\PSoC4/CapSense_CSHL.c **** 
  26:Generated_Source\PSoC4/CapSense_CSHL.c **** /* Storage of filters data */
  27:Generated_Source\PSoC4/CapSense_CSHL.c **** #if ( (0u != (CapSense_RAW_FILTER_MASK & CapSense_MEDIAN_FILTER)) || \
  28:Generated_Source\PSoC4/CapSense_CSHL.c ****       (0u != (CapSense_RAW_FILTER_MASK & CapSense_AVERAGING_FILTER)) )
  29:Generated_Source\PSoC4/CapSense_CSHL.c **** 
  30:Generated_Source\PSoC4/CapSense_CSHL.c ****     uint16 CapSense_rawFilterData1[CapSense_TOTAL_SENSOR_COUNT];
  31:Generated_Source\PSoC4/CapSense_CSHL.c ****     uint16 CapSense_rawFilterData2[CapSense_TOTAL_SENSOR_COUNT];
  32:Generated_Source\PSoC4/CapSense_CSHL.c **** 
  33:Generated_Source\PSoC4/CapSense_CSHL.c **** #elif ( (0u != (CapSense_RAW_FILTER_MASK & CapSense_IIR2_FILTER))   || \
ARM GAS  C:\Users\poornima\AppData\Local\Temp\ccCVn41A.s 			page 4


  34:Generated_Source\PSoC4/CapSense_CSHL.c ****         (0u != (CapSense_RAW_FILTER_MASK & CapSense_IIR4_FILTER))   || \
  35:Generated_Source\PSoC4/CapSense_CSHL.c ****         (0u != (CapSense_RAW_FILTER_MASK & CapSense_JITTER_FILTER)) || \
  36:Generated_Source\PSoC4/CapSense_CSHL.c ****         (0u != (CapSense_RAW_FILTER_MASK & CapSense_IIR8_FILTER))   || \
  37:Generated_Source\PSoC4/CapSense_CSHL.c ****         (0u != (CapSense_RAW_FILTER_MASK & CapSense_IIR16_FILTER)) )
  38:Generated_Source\PSoC4/CapSense_CSHL.c **** 
  39:Generated_Source\PSoC4/CapSense_CSHL.c ****     uint16 CapSense_rawFilterData1[CapSense_TOTAL_SENSOR_COUNT];
  40:Generated_Source\PSoC4/CapSense_CSHL.c **** #endif  /* ( (CapSense_RAW_FILTER_MASK & CapSense_MEDIAN_FILTER) || \
  41:Generated_Source\PSoC4/CapSense_CSHL.c ****         *    (CapSense_RAW_FILTER_MASK & CapSense_AVERAGING_FILTER) )
  42:Generated_Source\PSoC4/CapSense_CSHL.c ****         */
  43:Generated_Source\PSoC4/CapSense_CSHL.c **** 
  44:Generated_Source\PSoC4/CapSense_CSHL.c **** extern uint16 CapSense_sensorRaw[CapSense_TOTAL_SENSOR_COUNT];
  45:Generated_Source\PSoC4/CapSense_CSHL.c **** extern uint8 CapSense_sensorEnableMask[CapSense_TOTAL_SENSOR_MASK];
  46:Generated_Source\PSoC4/CapSense_CSHL.c **** extern const uint8 CapSense_widgetNumber[CapSense_TOTAL_SENSOR_COUNT];
  47:Generated_Source\PSoC4/CapSense_CSHL.c **** 
  48:Generated_Source\PSoC4/CapSense_CSHL.c **** #if (CapSense_TUNING_METHOD != CapSense__TUNING_NONE)
  49:Generated_Source\PSoC4/CapSense_CSHL.c ****     extern uint32 CapSense_widgetResolution[CapSense_RESOLUTIONS_TBL_SIZE];
  50:Generated_Source\PSoC4/CapSense_CSHL.c **** #endif /* (CapSense_TUNING_METHOD != CapSense__TUNING_NONE) */
  51:Generated_Source\PSoC4/CapSense_CSHL.c **** 
  52:Generated_Source\PSoC4/CapSense_CSHL.c **** uint16 CapSense_sensorBaseline[CapSense_TOTAL_SENSOR_COUNT] = {0u};
  53:Generated_Source\PSoC4/CapSense_CSHL.c **** uint8 CapSense_sensorBaselineLow[CapSense_TOTAL_SENSOR_COUNT] = {0u};
  54:Generated_Source\PSoC4/CapSense_CSHL.c **** uint8 CapSense_sensorSignal[CapSense_TOTAL_SENSOR_COUNT] = {0u};
  55:Generated_Source\PSoC4/CapSense_CSHL.c **** uint8 CapSense_sensorOnMask[CapSense_TOTAL_SENSOR_MASK] = {0u};
  56:Generated_Source\PSoC4/CapSense_CSHL.c **** 
  57:Generated_Source\PSoC4/CapSense_CSHL.c **** uint8 CapSense_lowBaselineResetCnt[CapSense_TOTAL_SENSOR_COUNT];
  58:Generated_Source\PSoC4/CapSense_CSHL.c **** uint8 CapSense_lowBaselineReset[CapSense_TOTAL_SENSOR_COUNT] = {
  59:Generated_Source\PSoC4/CapSense_CSHL.c ****     30u, 30u, 30u, 30u, 30u, 30u, 30u, 30u, 30u, 
  60:Generated_Source\PSoC4/CapSense_CSHL.c **** };
  61:Generated_Source\PSoC4/CapSense_CSHL.c **** 
  62:Generated_Source\PSoC4/CapSense_CSHL.c **** 
  63:Generated_Source\PSoC4/CapSense_CSHL.c **** 
  64:Generated_Source\PSoC4/CapSense_CSHL.c **** #if (CapSense_TUNING_METHOD == CapSense__TUNING_AUTO)
  65:Generated_Source\PSoC4/CapSense_CSHL.c ****     extern CapSense_CONFIG_TYPE_P4_v2_40 CapSense_config;
  66:Generated_Source\PSoC4/CapSense_CSHL.c **** #endif  /* (CapSense_TUNING_METHOD == CapSense__TUNING_AUTO) */
  67:Generated_Source\PSoC4/CapSense_CSHL.c **** 
  68:Generated_Source\PSoC4/CapSense_CSHL.c **** #if (CapSense_RAW_FILTER_MASK != 0u)
  69:Generated_Source\PSoC4/CapSense_CSHL.c **** uint8 CapSense_enableRawFilters = CapSense_RAW_FILTERS_ENABLED;
  70:Generated_Source\PSoC4/CapSense_CSHL.c **** #endif  /* (CapSense_RAW_FILTER_MASK != 0u) */
  71:Generated_Source\PSoC4/CapSense_CSHL.c **** 
  72:Generated_Source\PSoC4/CapSense_CSHL.c **** /* Generated by Customizer */
  73:Generated_Source\PSoC4/CapSense_CSHL.c **** uint8 CapSense_fingerThreshold[CapSense_THRESHOLD_TBL_SIZE];
  74:Generated_Source\PSoC4/CapSense_CSHL.c **** 
  75:Generated_Source\PSoC4/CapSense_CSHL.c **** uint8 CapSense_noiseThreshold[CapSense_THRESHOLD_TBL_SIZE];
  76:Generated_Source\PSoC4/CapSense_CSHL.c **** 
  77:Generated_Source\PSoC4/CapSense_CSHL.c **** uint8 CapSense_negativeNoiseThreshold[CapSense_THRESHOLD_TBL_SIZE];
  78:Generated_Source\PSoC4/CapSense_CSHL.c **** 
  79:Generated_Source\PSoC4/CapSense_CSHL.c **** uint8 CapSense_hysteresis[CapSense_WIDGET_PARAM_TBL_SIZE];
  80:Generated_Source\PSoC4/CapSense_CSHL.c **** 
  81:Generated_Source\PSoC4/CapSense_CSHL.c **** uint8 CapSense_debounce[] = {
  82:Generated_Source\PSoC4/CapSense_CSHL.c ****     1u, 5u, 5u, 5u, 5u, 
  83:Generated_Source\PSoC4/CapSense_CSHL.c **** };
  84:Generated_Source\PSoC4/CapSense_CSHL.c **** 
  85:Generated_Source\PSoC4/CapSense_CSHL.c **** static uint8 CapSense_debounceCounter[] = {
  86:Generated_Source\PSoC4/CapSense_CSHL.c ****     0u, 0u, 0u, 0u, 0u, 
  87:Generated_Source\PSoC4/CapSense_CSHL.c **** };
  88:Generated_Source\PSoC4/CapSense_CSHL.c **** 
  89:Generated_Source\PSoC4/CapSense_CSHL.c **** const uint8 CapSense_rawDataIndex[] = {
  90:Generated_Source\PSoC4/CapSense_CSHL.c ****     4u, /* RadialSlider0__RS */
ARM GAS  C:\Users\poornima\AppData\Local\Temp\ccCVn41A.s 			page 5


  91:Generated_Source\PSoC4/CapSense_CSHL.c ****     0u, /* Button0__BTN */
  92:Generated_Source\PSoC4/CapSense_CSHL.c ****     1u, /* Button1__BTN */
  93:Generated_Source\PSoC4/CapSense_CSHL.c ****     2u, /* Button2__BTN */
  94:Generated_Source\PSoC4/CapSense_CSHL.c ****     3u, /* Button3__BTN */
  95:Generated_Source\PSoC4/CapSense_CSHL.c **** };
  96:Generated_Source\PSoC4/CapSense_CSHL.c **** 
  97:Generated_Source\PSoC4/CapSense_CSHL.c **** const uint8 CapSense_numberOfSensors[] = {
  98:Generated_Source\PSoC4/CapSense_CSHL.c ****     5u, /* RadialSlider0__RS */
  99:Generated_Source\PSoC4/CapSense_CSHL.c ****     1u, /* Button0__BTN */
 100:Generated_Source\PSoC4/CapSense_CSHL.c ****     1u, /* Button1__BTN */
 101:Generated_Source\PSoC4/CapSense_CSHL.c ****     1u, /* Button2__BTN */
 102:Generated_Source\PSoC4/CapSense_CSHL.c ****     1u, /* Button3__BTN */
 103:Generated_Source\PSoC4/CapSense_CSHL.c **** };
 104:Generated_Source\PSoC4/CapSense_CSHL.c **** 
 105:Generated_Source\PSoC4/CapSense_CSHL.c **** static const uint16 CapSense_centroidMult[] = {
 106:Generated_Source\PSoC4/CapSense_CSHL.c ****     5120u, 
 107:Generated_Source\PSoC4/CapSense_CSHL.c **** };
 108:Generated_Source\PSoC4/CapSense_CSHL.c **** 
 109:Generated_Source\PSoC4/CapSense_CSHL.c **** static uint8 CapSense_posFiltersMask[] = {
 110:Generated_Source\PSoC4/CapSense_CSHL.c ****     0x8u, 
 111:Generated_Source\PSoC4/CapSense_CSHL.c **** };
 112:Generated_Source\PSoC4/CapSense_CSHL.c **** 
 113:Generated_Source\PSoC4/CapSense_CSHL.c **** static uint8 CapSense_posFiltersData[] = {
 114:Generated_Source\PSoC4/CapSense_CSHL.c ****     1u, 0u, 0u, 
 115:Generated_Source\PSoC4/CapSense_CSHL.c **** };
 116:Generated_Source\PSoC4/CapSense_CSHL.c **** 
 117:Generated_Source\PSoC4/CapSense_CSHL.c **** 
 118:Generated_Source\PSoC4/CapSense_CSHL.c **** 
 119:Generated_Source\PSoC4/CapSense_CSHL.c **** 
 120:Generated_Source\PSoC4/CapSense_CSHL.c **** /*******************************************************************************
 121:Generated_Source\PSoC4/CapSense_CSHL.c **** * Function Name: CapSense_BaseInit
 122:Generated_Source\PSoC4/CapSense_CSHL.c **** ********************************************************************************
 123:Generated_Source\PSoC4/CapSense_CSHL.c **** *
 124:Generated_Source\PSoC4/CapSense_CSHL.c **** * Summary:
 125:Generated_Source\PSoC4/CapSense_CSHL.c **** *  Loads the CapSense_sensorBaseline[sensor] array element with an
 126:Generated_Source\PSoC4/CapSense_CSHL.c **** *  initial value which is equal to the raw count value.
 127:Generated_Source\PSoC4/CapSense_CSHL.c **** *  Resets to zero CapSense_sensorBaselineLow[sensor] and
 128:Generated_Source\PSoC4/CapSense_CSHL.c **** *  CapSense_sensorSignal[sensor] array element.
 129:Generated_Source\PSoC4/CapSense_CSHL.c **** *  Loads the CapSense_rawFilterData2[sensor] and
 130:Generated_Source\PSoC4/CapSense_CSHL.c **** *  CapSense_rawFilterData2[sensor] array element with an
 131:Generated_Source\PSoC4/CapSense_CSHL.c **** *  initial value which is equal to the raw count value if the raw data filter is enabled.
 132:Generated_Source\PSoC4/CapSense_CSHL.c **** *
 133:Generated_Source\PSoC4/CapSense_CSHL.c **** * Parameters:
 134:Generated_Source\PSoC4/CapSense_CSHL.c **** *  sensor:  Sensor number.
 135:Generated_Source\PSoC4/CapSense_CSHL.c **** *
 136:Generated_Source\PSoC4/CapSense_CSHL.c **** * Return:
 137:Generated_Source\PSoC4/CapSense_CSHL.c **** *  None
 138:Generated_Source\PSoC4/CapSense_CSHL.c **** *
 139:Generated_Source\PSoC4/CapSense_CSHL.c **** * Global Variables:
 140:Generated_Source\PSoC4/CapSense_CSHL.c **** *  CapSense_sensorBaseline[]    - used to store the baseline value.
 141:Generated_Source\PSoC4/CapSense_CSHL.c **** *  CapSense_sensorBaselineLow[] - used to store the fraction byte of
 142:Generated_Source\PSoC4/CapSense_CSHL.c **** *  the baseline value.
 143:Generated_Source\PSoC4/CapSense_CSHL.c **** *  CapSense_sensorSignal[]      - used to store a difference between
 144:Generated_Source\PSoC4/CapSense_CSHL.c **** *  the current value of raw data and the previous value of the baseline.
 145:Generated_Source\PSoC4/CapSense_CSHL.c **** *  CapSense_rawFilterData1[]    - used to store a previous sample of
 146:Generated_Source\PSoC4/CapSense_CSHL.c **** *  any enabled raw data filter.
 147:Generated_Source\PSoC4/CapSense_CSHL.c **** *  CapSense_rawFilterData2[]    - used to store before a previous sample
ARM GAS  C:\Users\poornima\AppData\Local\Temp\ccCVn41A.s 			page 6


 148:Generated_Source\PSoC4/CapSense_CSHL.c **** *  of the enabled raw data filter. Required only for median or average filters.
 149:Generated_Source\PSoC4/CapSense_CSHL.c **** *
 150:Generated_Source\PSoC4/CapSense_CSHL.c **** * Side Effects:
 151:Generated_Source\PSoC4/CapSense_CSHL.c **** *  None
 152:Generated_Source\PSoC4/CapSense_CSHL.c **** *
 153:Generated_Source\PSoC4/CapSense_CSHL.c **** *******************************************************************************/
 154:Generated_Source\PSoC4/CapSense_CSHL.c **** void CapSense_BaseInit(uint32 sensor)
 155:Generated_Source\PSoC4/CapSense_CSHL.c **** {
 130              		.loc 1 155 0
 131              		.cfi_startproc
 132 0000 80B5     		push	{r7, lr}
 133              		.cfi_def_cfa_offset 8
 134              		.cfi_offset 7, -8
 135              		.cfi_offset 14, -4
 136 0002 84B0     		sub	sp, sp, #16
 137              		.cfi_def_cfa_offset 24
 138 0004 00AF     		add	r7, sp, #0
 139              		.cfi_def_cfa_register 7
 140 0006 7860     		str	r0, [r7, #4]
 156:Generated_Source\PSoC4/CapSense_CSHL.c ****     #if ((CapSense_TOTAL_BUTTONS_COUNT) || (CapSense_TOTAL_MATRIX_BUTTONS_COUNT) || \
 157:Generated_Source\PSoC4/CapSense_CSHL.c ****          (CapSense_TOTAL_GENERICS_COUNT))
 158:Generated_Source\PSoC4/CapSense_CSHL.c ****         uint8 widget = CapSense_widgetNumber[sensor];
 141              		.loc 1 158 0
 142 0008 0F23     		mov	r3, #15
 143 000a FB18     		add	r3, r7, r3
 144 000c 1849     		ldr	r1, .L3
 145 000e 7A68     		ldr	r2, [r7, #4]
 146 0010 8A18     		add	r2, r1, r2
 147 0012 1278     		ldrb	r2, [r2]
 148 0014 1A70     		strb	r2, [r3]
 159:Generated_Source\PSoC4/CapSense_CSHL.c ****     #endif /* ((CapSense_TOTAL_MATRIX_BUTTONS_COUNT) || (CapSense_TOTAL_MATRIX_BUTTONS_COUNT)) */
 160:Generated_Source\PSoC4/CapSense_CSHL.c **** 
 161:Generated_Source\PSoC4/CapSense_CSHL.c ****     #if (CapSense_TOTAL_MATRIX_BUTTONS_COUNT)
 162:Generated_Source\PSoC4/CapSense_CSHL.c ****         uint8 debounceIndex;
 163:Generated_Source\PSoC4/CapSense_CSHL.c ****     #endif  /* (CapSense_TOTAL_MATRIX_BUTTONS_COUNT) */
 164:Generated_Source\PSoC4/CapSense_CSHL.c **** 
 165:Generated_Source\PSoC4/CapSense_CSHL.c ****     #if (CapSense_TOTAL_GENERICS_COUNT)
 166:Generated_Source\PSoC4/CapSense_CSHL.c ****         /* Exclude generic widget */
 167:Generated_Source\PSoC4/CapSense_CSHL.c ****         if(widget < CapSense_END_OF_WIDGETS_INDEX)
 168:Generated_Source\PSoC4/CapSense_CSHL.c ****         {
 169:Generated_Source\PSoC4/CapSense_CSHL.c ****     #endif  /* CapSense_TOTAL_GENERICS_COUNT */
 170:Generated_Source\PSoC4/CapSense_CSHL.c **** 
 171:Generated_Source\PSoC4/CapSense_CSHL.c ****     /* Initialize Baseline */
 172:Generated_Source\PSoC4/CapSense_CSHL.c ****     CapSense_sensorBaseline[sensor] = CapSense_sensorRaw[sensor];
 149              		.loc 1 172 0
 150 0016 174B     		ldr	r3, .L3+4
 151 0018 7A68     		ldr	r2, [r7, #4]
 152 001a 5200     		lsl	r2, r2, #1
 153 001c D15A     		ldrh	r1, [r2, r3]
 154 001e 164B     		ldr	r3, .L3+8
 155 0020 7A68     		ldr	r2, [r7, #4]
 156 0022 5200     		lsl	r2, r2, #1
 157 0024 D152     		strh	r1, [r2, r3]
 173:Generated_Source\PSoC4/CapSense_CSHL.c ****     CapSense_sensorBaselineLow[sensor] = 0u;
 158              		.loc 1 173 0
 159 0026 154A     		ldr	r2, .L3+12
 160 0028 7B68     		ldr	r3, [r7, #4]
ARM GAS  C:\Users\poornima\AppData\Local\Temp\ccCVn41A.s 			page 7


 161 002a D318     		add	r3, r2, r3
 162 002c 0022     		mov	r2, #0
 163 002e 1A70     		strb	r2, [r3]
 174:Generated_Source\PSoC4/CapSense_CSHL.c ****     CapSense_sensorSignal[sensor] = 0u;
 164              		.loc 1 174 0
 165 0030 134A     		ldr	r2, .L3+16
 166 0032 7B68     		ldr	r3, [r7, #4]
 167 0034 D318     		add	r3, r2, r3
 168 0036 0022     		mov	r2, #0
 169 0038 1A70     		strb	r2, [r3]
 175:Generated_Source\PSoC4/CapSense_CSHL.c **** 
 176:Generated_Source\PSoC4/CapSense_CSHL.c ****     if(widget > CapSense_END_OF_TOUCH_PAD_INDEX)
 170              		.loc 1 176 0
 171 003a 0F23     		mov	r3, #15
 172 003c FB18     		add	r3, r7, r3
 173 003e 1B78     		ldrb	r3, [r3]
 174 0040 002B     		cmp	r3, #0
 175 0042 0AD0     		beq	.L2
 177:Generated_Source\PSoC4/CapSense_CSHL.c ****     {
 178:Generated_Source\PSoC4/CapSense_CSHL.c ****         CapSense_debounceCounter[widget - (CapSense_END_OF_TOUCH_PAD_INDEX + 1u)] =  CapSense_debou
 176              		.loc 1 178 0
 177 0044 0F23     		mov	r3, #15
 178 0046 FB18     		add	r3, r7, r3
 179 0048 1B78     		ldrb	r3, [r3]
 180 004a 013B     		sub	r3, r3, #1
 181 004c 0F22     		mov	r2, #15
 182 004e BA18     		add	r2, r7, r2
 183 0050 1278     		ldrb	r2, [r2]
 184 0052 0C49     		ldr	r1, .L3+20
 185 0054 895C     		ldrb	r1, [r1, r2]
 186 0056 0C4A     		ldr	r2, .L3+24
 187 0058 D154     		strb	r1, [r2, r3]
 188              	.L2:
 179:Generated_Source\PSoC4/CapSense_CSHL.c ****     }
 180:Generated_Source\PSoC4/CapSense_CSHL.c **** 
 181:Generated_Source\PSoC4/CapSense_CSHL.c **** 
 182:Generated_Source\PSoC4/CapSense_CSHL.c ****     #if ((0u != (CapSense_RAW_FILTER_MASK & CapSense_MEDIAN_FILTER)) ||\
 183:Generated_Source\PSoC4/CapSense_CSHL.c ****          (0u != (CapSense_RAW_FILTER_MASK & CapSense_AVERAGING_FILTER)))
 184:Generated_Source\PSoC4/CapSense_CSHL.c **** 
 185:Generated_Source\PSoC4/CapSense_CSHL.c ****         CapSense_rawFilterData1[sensor] = CapSense_sensorRaw[sensor];
 186:Generated_Source\PSoC4/CapSense_CSHL.c ****         CapSense_rawFilterData2[sensor] = CapSense_sensorRaw[sensor];
 187:Generated_Source\PSoC4/CapSense_CSHL.c **** 
 188:Generated_Source\PSoC4/CapSense_CSHL.c ****     #elif ((CapSense_RAW_FILTER_MASK & CapSense_IIR2_FILTER) ||\
 189:Generated_Source\PSoC4/CapSense_CSHL.c ****            (CapSense_RAW_FILTER_MASK & CapSense_IIR4_FILTER) ||\
 190:Generated_Source\PSoC4/CapSense_CSHL.c ****            (CapSense_RAW_FILTER_MASK & CapSense_JITTER_FILTER) ||\
 191:Generated_Source\PSoC4/CapSense_CSHL.c ****            (CapSense_RAW_FILTER_MASK & CapSense_IIR8_FILTER) ||\
 192:Generated_Source\PSoC4/CapSense_CSHL.c ****            (CapSense_RAW_FILTER_MASK & CapSense_IIR16_FILTER))
 193:Generated_Source\PSoC4/CapSense_CSHL.c **** 
 194:Generated_Source\PSoC4/CapSense_CSHL.c ****         CapSense_rawFilterData1[sensor] = CapSense_sensorRaw[sensor];
 189              		.loc 1 194 0
 190 005a 064B     		ldr	r3, .L3+4
 191 005c 7A68     		ldr	r2, [r7, #4]
 192 005e 5200     		lsl	r2, r2, #1
 193 0060 D15A     		ldrh	r1, [r2, r3]
 194 0062 0A4B     		ldr	r3, .L3+28
 195 0064 7A68     		ldr	r2, [r7, #4]
 196 0066 5200     		lsl	r2, r2, #1
ARM GAS  C:\Users\poornima\AppData\Local\Temp\ccCVn41A.s 			page 8


 197 0068 D152     		strh	r1, [r2, r3]
 195:Generated_Source\PSoC4/CapSense_CSHL.c **** 
 196:Generated_Source\PSoC4/CapSense_CSHL.c ****     #else
 197:Generated_Source\PSoC4/CapSense_CSHL.c ****         /* No Raw filters */
 198:Generated_Source\PSoC4/CapSense_CSHL.c ****     #endif  /* ((CapSense_RAW_FILTER_MASK & CapSense_MEDIAN_FILTER) || \
 199:Generated_Source\PSoC4/CapSense_CSHL.c ****             *   (CapSense_RAW_FILTER_MASK & CapSense_AVERAGING_FILTER))
 200:Generated_Source\PSoC4/CapSense_CSHL.c ****             */
 201:Generated_Source\PSoC4/CapSense_CSHL.c **** 
 202:Generated_Source\PSoC4/CapSense_CSHL.c ****     #if (CapSense_TOTAL_GENERICS_COUNT)
 203:Generated_Source\PSoC4/CapSense_CSHL.c ****         /* Exclude generic widget */
 204:Generated_Source\PSoC4/CapSense_CSHL.c ****         }
 205:Generated_Source\PSoC4/CapSense_CSHL.c ****     #endif  /* CapSense_TOTAL_GENERICS_COUNT */
 206:Generated_Source\PSoC4/CapSense_CSHL.c **** }
 198              		.loc 1 206 0
 199 006a BD46     		mov	sp, r7
 200 006c 04B0     		add	sp, sp, #16
 201              		@ sp needed
 202 006e 80BD     		pop	{r7, pc}
 203              	.L4:
 204              		.align	2
 205              	.L3:
 206 0070 00000000 		.word	CapSense_widgetNumber
 207 0074 00000000 		.word	CapSense_sensorRaw
 208 0078 00000000 		.word	CapSense_sensorBaseline
 209 007c 00000000 		.word	CapSense_sensorBaselineLow
 210 0080 00000000 		.word	CapSense_sensorSignal
 211 0084 00000000 		.word	CapSense_debounce
 212 0088 30000000 		.word	CapSense_debounceCounter
 213 008c 00000000 		.word	CapSense_rawFilterData1
 214              		.cfi_endproc
 215              	.LFE35:
 216              		.size	CapSense_BaseInit, .-CapSense_BaseInit
 217              		.section	.text.CapSense_InitializeSensorBaseline,"ax",%progbits
 218              		.align	2
 219              		.global	CapSense_InitializeSensorBaseline
 220              		.code	16
 221              		.thumb_func
 222              		.type	CapSense_InitializeSensorBaseline, %function
 223              	CapSense_InitializeSensorBaseline:
 224              	.LFB36:
 207:Generated_Source\PSoC4/CapSense_CSHL.c **** 
 208:Generated_Source\PSoC4/CapSense_CSHL.c **** 
 209:Generated_Source\PSoC4/CapSense_CSHL.c **** /*******************************************************************************
 210:Generated_Source\PSoC4/CapSense_CSHL.c **** * Function Name: CapSense_InitializeSensorBaseline
 211:Generated_Source\PSoC4/CapSense_CSHL.c **** ********************************************************************************
 212:Generated_Source\PSoC4/CapSense_CSHL.c **** *
 213:Generated_Source\PSoC4/CapSense_CSHL.c **** * Summary:
 214:Generated_Source\PSoC4/CapSense_CSHL.c **** *  Loads the CapSense_sensorBaseline[sensor] array element with an
 215:Generated_Source\PSoC4/CapSense_CSHL.c **** *  initial value by scanning the selected sensor (one channel design) or a pair
 216:Generated_Source\PSoC4/CapSense_CSHL.c **** *  of sensors (two channels designs). The raw count value is copied into the
 217:Generated_Source\PSoC4/CapSense_CSHL.c **** *  baseline array for each sensor. The raw data filters are initialized if
 218:Generated_Source\PSoC4/CapSense_CSHL.c **** *  enabled.
 219:Generated_Source\PSoC4/CapSense_CSHL.c **** *
 220:Generated_Source\PSoC4/CapSense_CSHL.c **** * Parameters:
 221:Generated_Source\PSoC4/CapSense_CSHL.c **** *  sensor:  Sensor number.
 222:Generated_Source\PSoC4/CapSense_CSHL.c **** *
 223:Generated_Source\PSoC4/CapSense_CSHL.c **** * Return:
ARM GAS  C:\Users\poornima\AppData\Local\Temp\ccCVn41A.s 			page 9


 224:Generated_Source\PSoC4/CapSense_CSHL.c **** *  None
 225:Generated_Source\PSoC4/CapSense_CSHL.c **** *
 226:Generated_Source\PSoC4/CapSense_CSHL.c **** * Global Variables:
 227:Generated_Source\PSoC4/CapSense_CSHL.c **** *  None
 228:Generated_Source\PSoC4/CapSense_CSHL.c **** *
 229:Generated_Source\PSoC4/CapSense_CSHL.c **** * Side Effects:
 230:Generated_Source\PSoC4/CapSense_CSHL.c **** *  None
 231:Generated_Source\PSoC4/CapSense_CSHL.c **** *
 232:Generated_Source\PSoC4/CapSense_CSHL.c **** *******************************************************************************/
 233:Generated_Source\PSoC4/CapSense_CSHL.c **** void CapSense_InitializeSensorBaseline(uint32 sensor)
 234:Generated_Source\PSoC4/CapSense_CSHL.c **** {
 225              		.loc 1 234 0
 226              		.cfi_startproc
 227 0000 80B5     		push	{r7, lr}
 228              		.cfi_def_cfa_offset 8
 229              		.cfi_offset 7, -8
 230              		.cfi_offset 14, -4
 231 0002 82B0     		sub	sp, sp, #8
 232              		.cfi_def_cfa_offset 16
 233 0004 00AF     		add	r7, sp, #0
 234              		.cfi_def_cfa_register 7
 235 0006 7860     		str	r0, [r7, #4]
 235:Generated_Source\PSoC4/CapSense_CSHL.c ****     /* Scan sensor */
 236:Generated_Source\PSoC4/CapSense_CSHL.c ****     CapSense_ScanSensor(sensor);
 236              		.loc 1 236 0
 237 0008 7B68     		ldr	r3, [r7, #4]
 238 000a 181C     		mov	r0, r3
 239 000c FFF7FEFF 		bl	CapSense_ScanSensor
 237:Generated_Source\PSoC4/CapSense_CSHL.c ****     while(CapSense_IsBusy() != 0u)
 240              		.loc 1 237 0
 241 0010 C046     		mov	r8, r8
 242              	.L6:
 243              		.loc 1 237 0 is_stmt 0 discriminator 1
 244 0012 FFF7FEFF 		bl	CapSense_IsBusy
 245 0016 031E     		sub	r3, r0, #0
 246 0018 FBD1     		bne	.L6
 238:Generated_Source\PSoC4/CapSense_CSHL.c ****     {
 239:Generated_Source\PSoC4/CapSense_CSHL.c ****         /* Wait while sensor is busy */
 240:Generated_Source\PSoC4/CapSense_CSHL.c ****     }
 241:Generated_Source\PSoC4/CapSense_CSHL.c **** 
 242:Generated_Source\PSoC4/CapSense_CSHL.c ****     /* Initialize Baseline, Signal and debounce counters */
 243:Generated_Source\PSoC4/CapSense_CSHL.c ****     CapSense_BaseInit(sensor);
 247              		.loc 1 243 0 is_stmt 1
 248 001a 7B68     		ldr	r3, [r7, #4]
 249 001c 181C     		mov	r0, r3
 250 001e FFF7FEFF 		bl	CapSense_BaseInit
 244:Generated_Source\PSoC4/CapSense_CSHL.c **** }
 251              		.loc 1 244 0
 252 0022 BD46     		mov	sp, r7
 253 0024 02B0     		add	sp, sp, #8
 254              		@ sp needed
 255 0026 80BD     		pop	{r7, pc}
 256              		.cfi_endproc
 257              	.LFE36:
 258              		.size	CapSense_InitializeSensorBaseline, .-CapSense_InitializeSensorBaseline
 259              		.section	.text.CapSense_InitializeAllBaselines,"ax",%progbits
 260              		.align	2
ARM GAS  C:\Users\poornima\AppData\Local\Temp\ccCVn41A.s 			page 10


 261              		.global	CapSense_InitializeAllBaselines
 262              		.code	16
 263              		.thumb_func
 264              		.type	CapSense_InitializeAllBaselines, %function
 265              	CapSense_InitializeAllBaselines:
 266              	.LFB37:
 245:Generated_Source\PSoC4/CapSense_CSHL.c **** 
 246:Generated_Source\PSoC4/CapSense_CSHL.c **** 
 247:Generated_Source\PSoC4/CapSense_CSHL.c **** /*******************************************************************************
 248:Generated_Source\PSoC4/CapSense_CSHL.c **** * Function Name: CapSense_InitializeAllBaselines
 249:Generated_Source\PSoC4/CapSense_CSHL.c **** ********************************************************************************
 250:Generated_Source\PSoC4/CapSense_CSHL.c **** *
 251:Generated_Source\PSoC4/CapSense_CSHL.c **** * Summary:
 252:Generated_Source\PSoC4/CapSense_CSHL.c **** *  Uses the CapSense_InitializeSensorBaseline function to load the
 253:Generated_Source\PSoC4/CapSense_CSHL.c **** *  CapSense_sensorBaseline[] array with an initial values by scanning
 254:Generated_Source\PSoC4/CapSense_CSHL.c **** *  all the sensors. The raw count values are copied into the baseline array for
 255:Generated_Source\PSoC4/CapSense_CSHL.c **** *  all the sensors. The raw data filters are initialized if enabled.
 256:Generated_Source\PSoC4/CapSense_CSHL.c **** *
 257:Generated_Source\PSoC4/CapSense_CSHL.c **** * Parameters:
 258:Generated_Source\PSoC4/CapSense_CSHL.c **** *  None
 259:Generated_Source\PSoC4/CapSense_CSHL.c **** *
 260:Generated_Source\PSoC4/CapSense_CSHL.c **** * Return:
 261:Generated_Source\PSoC4/CapSense_CSHL.c **** *  None
 262:Generated_Source\PSoC4/CapSense_CSHL.c **** *
 263:Generated_Source\PSoC4/CapSense_CSHL.c **** * Global Variables:
 264:Generated_Source\PSoC4/CapSense_CSHL.c **** *  None
 265:Generated_Source\PSoC4/CapSense_CSHL.c **** *
 266:Generated_Source\PSoC4/CapSense_CSHL.c **** * Side Effects:
 267:Generated_Source\PSoC4/CapSense_CSHL.c **** *  None
 268:Generated_Source\PSoC4/CapSense_CSHL.c **** *
 269:Generated_Source\PSoC4/CapSense_CSHL.c **** *******************************************************************************/
 270:Generated_Source\PSoC4/CapSense_CSHL.c **** void CapSense_InitializeAllBaselines(void)
 271:Generated_Source\PSoC4/CapSense_CSHL.c **** {
 267              		.loc 1 271 0
 268              		.cfi_startproc
 269 0000 80B5     		push	{r7, lr}
 270              		.cfi_def_cfa_offset 8
 271              		.cfi_offset 7, -8
 272              		.cfi_offset 14, -4
 273 0002 82B0     		sub	sp, sp, #8
 274              		.cfi_def_cfa_offset 16
 275 0004 00AF     		add	r7, sp, #0
 276              		.cfi_def_cfa_register 7
 272:Generated_Source\PSoC4/CapSense_CSHL.c ****     uint32 i;
 273:Generated_Source\PSoC4/CapSense_CSHL.c **** 
 274:Generated_Source\PSoC4/CapSense_CSHL.c ****     for(i = 0u; i < CapSense_TOTAL_SCANSLOT_COUNT; i++)
 277              		.loc 1 274 0
 278 0006 0023     		mov	r3, #0
 279 0008 7B60     		str	r3, [r7, #4]
 280 000a 06E0     		b	.L8
 281              	.L9:
 275:Generated_Source\PSoC4/CapSense_CSHL.c ****     {
 276:Generated_Source\PSoC4/CapSense_CSHL.c ****         CapSense_InitializeSensorBaseline(i);
 282              		.loc 1 276 0 discriminator 3
 283 000c 7B68     		ldr	r3, [r7, #4]
 284 000e 181C     		mov	r0, r3
 285 0010 FFF7FEFF 		bl	CapSense_InitializeSensorBaseline
ARM GAS  C:\Users\poornima\AppData\Local\Temp\ccCVn41A.s 			page 11


 274:Generated_Source\PSoC4/CapSense_CSHL.c ****     {
 286              		.loc 1 274 0 discriminator 3
 287 0014 7B68     		ldr	r3, [r7, #4]
 288 0016 0133     		add	r3, r3, #1
 289 0018 7B60     		str	r3, [r7, #4]
 290              	.L8:
 274:Generated_Source\PSoC4/CapSense_CSHL.c ****     {
 291              		.loc 1 274 0 is_stmt 0 discriminator 1
 292 001a 7B68     		ldr	r3, [r7, #4]
 293 001c 082B     		cmp	r3, #8
 294 001e F5D9     		bls	.L9
 277:Generated_Source\PSoC4/CapSense_CSHL.c ****     }
 278:Generated_Source\PSoC4/CapSense_CSHL.c **** }
 295              		.loc 1 278 0 is_stmt 1
 296 0020 BD46     		mov	sp, r7
 297 0022 02B0     		add	sp, sp, #8
 298              		@ sp needed
 299 0024 80BD     		pop	{r7, pc}
 300              		.cfi_endproc
 301              	.LFE37:
 302              		.size	CapSense_InitializeAllBaselines, .-CapSense_InitializeAllBaselines
 303 0026 C046     		.section	.text.CapSense_InitializeEnabledBaselines,"ax",%progbits
 304              		.align	2
 305              		.global	CapSense_InitializeEnabledBaselines
 306              		.code	16
 307              		.thumb_func
 308              		.type	CapSense_InitializeEnabledBaselines, %function
 309              	CapSense_InitializeEnabledBaselines:
 310              	.LFB38:
 279:Generated_Source\PSoC4/CapSense_CSHL.c **** 
 280:Generated_Source\PSoC4/CapSense_CSHL.c **** 
 281:Generated_Source\PSoC4/CapSense_CSHL.c **** /*******************************************************************************
 282:Generated_Source\PSoC4/CapSense_CSHL.c **** * Function Name: CapSense_InitializeEnabledBaselines
 283:Generated_Source\PSoC4/CapSense_CSHL.c **** ********************************************************************************
 284:Generated_Source\PSoC4/CapSense_CSHL.c **** *
 285:Generated_Source\PSoC4/CapSense_CSHL.c **** * Summary:
 286:Generated_Source\PSoC4/CapSense_CSHL.c **** *  Scans all the enabled widgets and the raw count values are copied into the
 287:Generated_Source\PSoC4/CapSense_CSHL.c **** *  baseline array for all the sensors enabled in the scanning process. The baselines
 288:Generated_Source\PSoC4/CapSense_CSHL.c **** *  are initialized with zero values for sensors disabled from the scanning process.
 289:Generated_Source\PSoC4/CapSense_CSHL.c **** *  The raw data filters are initialized if enabled.
 290:Generated_Source\PSoC4/CapSense_CSHL.c **** *
 291:Generated_Source\PSoC4/CapSense_CSHL.c **** * Parameters:
 292:Generated_Source\PSoC4/CapSense_CSHL.c **** *  None
 293:Generated_Source\PSoC4/CapSense_CSHL.c **** *
 294:Generated_Source\PSoC4/CapSense_CSHL.c **** * Return:
 295:Generated_Source\PSoC4/CapSense_CSHL.c **** *  None
 296:Generated_Source\PSoC4/CapSense_CSHL.c **** *
 297:Generated_Source\PSoC4/CapSense_CSHL.c **** * Global Variables:
 298:Generated_Source\PSoC4/CapSense_CSHL.c **** *  CapSense_sensorRaw[] - used to store the sensors raw data.
 299:Generated_Source\PSoC4/CapSense_CSHL.c **** *  CapSense_sensorEnableMask[ ] - used to store bit masks of the enabled sensors.
 300:Generated_Source\PSoC4/CapSense_CSHL.c **** *
 301:Generated_Source\PSoC4/CapSense_CSHL.c **** * Side Effects:
 302:Generated_Source\PSoC4/CapSense_CSHL.c **** *  None
 303:Generated_Source\PSoC4/CapSense_CSHL.c **** *
 304:Generated_Source\PSoC4/CapSense_CSHL.c **** *******************************************************************************/
 305:Generated_Source\PSoC4/CapSense_CSHL.c **** void CapSense_InitializeEnabledBaselines(void)
 306:Generated_Source\PSoC4/CapSense_CSHL.c **** {
ARM GAS  C:\Users\poornima\AppData\Local\Temp\ccCVn41A.s 			page 12


 311              		.loc 1 306 0
 312              		.cfi_startproc
 313 0000 80B5     		push	{r7, lr}
 314              		.cfi_def_cfa_offset 8
 315              		.cfi_offset 7, -8
 316              		.cfi_offset 14, -4
 317 0002 82B0     		sub	sp, sp, #8
 318              		.cfi_def_cfa_offset 16
 319 0004 00AF     		add	r7, sp, #0
 320              		.cfi_def_cfa_register 7
 307:Generated_Source\PSoC4/CapSense_CSHL.c ****     uint32 i;
 308:Generated_Source\PSoC4/CapSense_CSHL.c ****     uint32 isSensorEnabled;
 309:Generated_Source\PSoC4/CapSense_CSHL.c **** 
 310:Generated_Source\PSoC4/CapSense_CSHL.c ****     CapSense_ScanEnabledWidgets();
 321              		.loc 1 310 0
 322 0006 FFF7FEFF 		bl	CapSense_ScanEnabledWidgets
 311:Generated_Source\PSoC4/CapSense_CSHL.c ****     while(CapSense_IsBusy() != 0u)
 323              		.loc 1 311 0
 324 000a C046     		mov	r8, r8
 325              	.L11:
 326              		.loc 1 311 0 is_stmt 0 discriminator 1
 327 000c FFF7FEFF 		bl	CapSense_IsBusy
 328 0010 031E     		sub	r3, r0, #0
 329 0012 FBD1     		bne	.L11
 312:Generated_Source\PSoC4/CapSense_CSHL.c ****     {
 313:Generated_Source\PSoC4/CapSense_CSHL.c ****         /* Wait while sensor is busy */
 314:Generated_Source\PSoC4/CapSense_CSHL.c ****     }
 315:Generated_Source\PSoC4/CapSense_CSHL.c **** 
 316:Generated_Source\PSoC4/CapSense_CSHL.c ****     for(i = 0u; i < CapSense_TOTAL_SENSOR_COUNT; i++)
 330              		.loc 1 316 0 is_stmt 1
 331 0014 0023     		mov	r3, #0
 332 0016 7B60     		str	r3, [r7, #4]
 333 0018 11E0     		b	.L12
 334              	.L14:
 317:Generated_Source\PSoC4/CapSense_CSHL.c ****     {
 318:Generated_Source\PSoC4/CapSense_CSHL.c ****         isSensorEnabled = CapSense_GetBitValue(CapSense_sensorEnableMask, i);
 335              		.loc 1 318 0
 336 001a 0C4A     		ldr	r2, .L15
 337 001c 7B68     		ldr	r3, [r7, #4]
 338 001e 101C     		mov	r0, r2
 339 0020 191C     		mov	r1, r3
 340 0022 FFF7FEFF 		bl	CapSense_GetBitValue
 341 0026 031C     		mov	r3, r0
 342 0028 3B60     		str	r3, [r7]
 319:Generated_Source\PSoC4/CapSense_CSHL.c **** 
 320:Generated_Source\PSoC4/CapSense_CSHL.c ****         /* Clear raw data if sensor is disabled from scanning process */
 321:Generated_Source\PSoC4/CapSense_CSHL.c ****         if(isSensorEnabled != 0u)
 343              		.loc 1 321 0
 344 002a 3B68     		ldr	r3, [r7]
 345 002c 002B     		cmp	r3, #0
 346 002e 03D0     		beq	.L13
 322:Generated_Source\PSoC4/CapSense_CSHL.c ****         {
 323:Generated_Source\PSoC4/CapSense_CSHL.c ****             /* Initialize baselines */
 324:Generated_Source\PSoC4/CapSense_CSHL.c ****             CapSense_BaseInit(i);
 347              		.loc 1 324 0
 348 0030 7B68     		ldr	r3, [r7, #4]
 349 0032 181C     		mov	r0, r3
ARM GAS  C:\Users\poornima\AppData\Local\Temp\ccCVn41A.s 			page 13


 350 0034 FFF7FEFF 		bl	CapSense_BaseInit
 351              	.L13:
 316:Generated_Source\PSoC4/CapSense_CSHL.c ****     {
 352              		.loc 1 316 0 discriminator 2
 353 0038 7B68     		ldr	r3, [r7, #4]
 354 003a 0133     		add	r3, r3, #1
 355 003c 7B60     		str	r3, [r7, #4]
 356              	.L12:
 316:Generated_Source\PSoC4/CapSense_CSHL.c ****     {
 357              		.loc 1 316 0 is_stmt 0 discriminator 1
 358 003e 7B68     		ldr	r3, [r7, #4]
 359 0040 082B     		cmp	r3, #8
 360 0042 EAD9     		bls	.L14
 325:Generated_Source\PSoC4/CapSense_CSHL.c ****         }
 326:Generated_Source\PSoC4/CapSense_CSHL.c ****     }
 327:Generated_Source\PSoC4/CapSense_CSHL.c **** }
 361              		.loc 1 327 0 is_stmt 1
 362 0044 BD46     		mov	sp, r7
 363 0046 02B0     		add	sp, sp, #8
 364              		@ sp needed
 365 0048 80BD     		pop	{r7, pc}
 366              	.L16:
 367 004a C046     		.align	2
 368              	.L15:
 369 004c 00000000 		.word	CapSense_sensorEnableMask
 370              		.cfi_endproc
 371              	.LFE38:
 372              		.size	CapSense_InitializeEnabledBaselines, .-CapSense_InitializeEnabledBaselines
 373              		.section	.text.CapSense_UpdateBaselineNoThreshold,"ax",%progbits
 374              		.align	2
 375              		.global	CapSense_UpdateBaselineNoThreshold
 376              		.code	16
 377              		.thumb_func
 378              		.type	CapSense_UpdateBaselineNoThreshold, %function
 379              	CapSense_UpdateBaselineNoThreshold:
 380              	.LFB39:
 328:Generated_Source\PSoC4/CapSense_CSHL.c **** 
 329:Generated_Source\PSoC4/CapSense_CSHL.c **** 
 330:Generated_Source\PSoC4/CapSense_CSHL.c **** /*******************************************************************************
 331:Generated_Source\PSoC4/CapSense_CSHL.c **** * Function Name: CapSense_UpdateBaselineNoThreshold
 332:Generated_Source\PSoC4/CapSense_CSHL.c **** ********************************************************************************
 333:Generated_Source\PSoC4/CapSense_CSHL.c **** *
 334:Generated_Source\PSoC4/CapSense_CSHL.c **** * Summary:
 335:Generated_Source\PSoC4/CapSense_CSHL.c **** *  Updates the CapSense_sensorBaseline[sensor] array element using the
 336:Generated_Source\PSoC4/CapSense_CSHL.c **** *  LP filter with k = 256. The signal calculates the difference of count by
 337:Generated_Source\PSoC4/CapSense_CSHL.c **** *  subtracting the previous baseline from the current raw count value and stores
 338:Generated_Source\PSoC4/CapSense_CSHL.c **** *  it in CapSense_sensorSignal[sensor].
 339:Generated_Source\PSoC4/CapSense_CSHL.c **** *  If the auto reset option is enabled, the baseline updated regards the noise threshold.
 340:Generated_Source\PSoC4/CapSense_CSHL.c **** *  If the auto reset option is disabled, the baseline stops updating; baseline is loaded
 341:Generated_Source\PSoC4/CapSense_CSHL.c **** *  with a raw count value if a signal is greater than zero and if signal is less
 342:Generated_Source\PSoC4/CapSense_CSHL.c **** *  than noise threshold.
 343:Generated_Source\PSoC4/CapSense_CSHL.c **** *  Raw data filters are applied to the values if enabled before baseline
 344:Generated_Source\PSoC4/CapSense_CSHL.c **** *  calculation.
 345:Generated_Source\PSoC4/CapSense_CSHL.c **** *
 346:Generated_Source\PSoC4/CapSense_CSHL.c **** *  This API does not update the thresholds in the Smartsense Mode.
 347:Generated_Source\PSoC4/CapSense_CSHL.c **** *
 348:Generated_Source\PSoC4/CapSense_CSHL.c **** * Parameters:
ARM GAS  C:\Users\poornima\AppData\Local\Temp\ccCVn41A.s 			page 14


 349:Generated_Source\PSoC4/CapSense_CSHL.c **** *  sensor:  Sensor number.
 350:Generated_Source\PSoC4/CapSense_CSHL.c **** *
 351:Generated_Source\PSoC4/CapSense_CSHL.c **** * Return:
 352:Generated_Source\PSoC4/CapSense_CSHL.c **** *  None
 353:Generated_Source\PSoC4/CapSense_CSHL.c **** *
 354:Generated_Source\PSoC4/CapSense_CSHL.c **** * Global Variables:
 355:Generated_Source\PSoC4/CapSense_CSHL.c **** *  CapSense_widgetNumber[]  - stores widget numbers.
 356:Generated_Source\PSoC4/CapSense_CSHL.c **** *  CapSense_sensorBaseline[]    - used to store baseline value.
 357:Generated_Source\PSoC4/CapSense_CSHL.c **** *  CapSense_sensorBaselineLow[] - used to store fraction byte of
 358:Generated_Source\PSoC4/CapSense_CSHL.c **** *  baseline value.
 359:Generated_Source\PSoC4/CapSense_CSHL.c **** *  CapSense_sensorSignal[]      - used to store difference between
 360:Generated_Source\PSoC4/CapSense_CSHL.c **** *  current value of raw data and previous value of baseline.
 361:Generated_Source\PSoC4/CapSense_CSHL.c **** *  CapSense_rawFilterData1[]    - used to store previous sample of
 362:Generated_Source\PSoC4/CapSense_CSHL.c **** *  any enabled raw data filter.
 363:Generated_Source\PSoC4/CapSense_CSHL.c **** *  CapSense_rawFilterData2[]    - used to store before previous sample
 364:Generated_Source\PSoC4/CapSense_CSHL.c **** *  of enabled raw data filter. Only required for median or average filters.
 365:Generated_Source\PSoC4/CapSense_CSHL.c **** *
 366:Generated_Source\PSoC4/CapSense_CSHL.c **** * Side Effects:
 367:Generated_Source\PSoC4/CapSense_CSHL.c **** *  None
 368:Generated_Source\PSoC4/CapSense_CSHL.c **** *
 369:Generated_Source\PSoC4/CapSense_CSHL.c **** *******************************************************************************/
 370:Generated_Source\PSoC4/CapSense_CSHL.c **** void CapSense_UpdateBaselineNoThreshold(uint32 sensor)
 371:Generated_Source\PSoC4/CapSense_CSHL.c **** {
 381              		.loc 1 371 0
 382              		.cfi_startproc
 383 0000 90B5     		push	{r4, r7, lr}
 384              		.cfi_def_cfa_offset 12
 385              		.cfi_offset 4, -12
 386              		.cfi_offset 7, -8
 387              		.cfi_offset 14, -4
 388 0002 87B0     		sub	sp, sp, #28
 389              		.cfi_def_cfa_offset 40
 390 0004 00AF     		add	r7, sp, #0
 391              		.cfi_def_cfa_register 7
 392 0006 7860     		str	r0, [r7, #4]
 372:Generated_Source\PSoC4/CapSense_CSHL.c ****     uint32 calc;
 373:Generated_Source\PSoC4/CapSense_CSHL.c ****     uint32 sign;
 374:Generated_Source\PSoC4/CapSense_CSHL.c ****     uint16 tempRaw;
 375:Generated_Source\PSoC4/CapSense_CSHL.c ****     uint16 filteredRawData;
 376:Generated_Source\PSoC4/CapSense_CSHL.c ****     uint8 widget = CapSense_widgetNumber[sensor];
 393              		.loc 1 376 0
 394 0008 0F23     		mov	r3, #15
 395 000a FB18     		add	r3, r7, r3
 396 000c 7E49     		ldr	r1, .L30
 397 000e 7A68     		ldr	r2, [r7, #4]
 398 0010 8A18     		add	r2, r1, r2
 399 0012 1278     		ldrb	r2, [r2]
 400 0014 1A70     		strb	r2, [r3]
 377:Generated_Source\PSoC4/CapSense_CSHL.c ****     uint8 noiseThreshold;
 378:Generated_Source\PSoC4/CapSense_CSHL.c **** 
 379:Generated_Source\PSoC4/CapSense_CSHL.c ****     #if (CapSense_TOTAL_GENERICS_COUNT)
 380:Generated_Source\PSoC4/CapSense_CSHL.c ****         /* Exclude generic widget */
 381:Generated_Source\PSoC4/CapSense_CSHL.c ****         if(widget < CapSense_END_OF_WIDGETS_INDEX)
 382:Generated_Source\PSoC4/CapSense_CSHL.c ****         {
 383:Generated_Source\PSoC4/CapSense_CSHL.c ****     #endif  /* CapSense_TOTAL_GENERICS_COUNT */
 384:Generated_Source\PSoC4/CapSense_CSHL.c **** 
 385:Generated_Source\PSoC4/CapSense_CSHL.c ****     noiseThreshold = CapSense_noiseThreshold[widget];
ARM GAS  C:\Users\poornima\AppData\Local\Temp\ccCVn41A.s 			page 15


 401              		.loc 1 385 0
 402 0016 0F23     		mov	r3, #15
 403 0018 FB18     		add	r3, r7, r3
 404 001a 1A78     		ldrb	r2, [r3]
 405 001c 0E23     		mov	r3, #14
 406 001e FB18     		add	r3, r7, r3
 407 0020 7A49     		ldr	r1, .L30+4
 408 0022 8A5C     		ldrb	r2, [r1, r2]
 409 0024 1A70     		strb	r2, [r3]
 386:Generated_Source\PSoC4/CapSense_CSHL.c ****     filteredRawData = CapSense_sensorRaw[sensor];
 410              		.loc 1 386 0
 411 0026 1023     		mov	r3, #16
 412 0028 FB18     		add	r3, r7, r3
 413 002a 794A     		ldr	r2, .L30+8
 414 002c 7968     		ldr	r1, [r7, #4]
 415 002e 4900     		lsl	r1, r1, #1
 416 0030 8A5A     		ldrh	r2, [r1, r2]
 417 0032 1A80     		strh	r2, [r3]
 387:Generated_Source\PSoC4/CapSense_CSHL.c **** 
 388:Generated_Source\PSoC4/CapSense_CSHL.c ****     #if (CapSense_RAW_FILTER_MASK != 0u)
 389:Generated_Source\PSoC4/CapSense_CSHL.c ****     if(CapSense_enableRawFilters != 0u)
 418              		.loc 1 389 0
 419 0034 774B     		ldr	r3, .L30+12
 420 0036 1B78     		ldrb	r3, [r3]
 421 0038 002B     		cmp	r3, #0
 422 003a 15D0     		beq	.L18
 390:Generated_Source\PSoC4/CapSense_CSHL.c ****     {
 391:Generated_Source\PSoC4/CapSense_CSHL.c ****         #if (CapSense_RAW_FILTER_MASK & CapSense_MEDIAN_FILTER)
 392:Generated_Source\PSoC4/CapSense_CSHL.c ****             tempRaw = filteredRawData;
 393:Generated_Source\PSoC4/CapSense_CSHL.c ****             filteredRawData = CapSense_MedianFilter(filteredRawData, CapSense_rawFilterData1[sensor
 394:Generated_Source\PSoC4/CapSense_CSHL.c ****                                                             CapSense_rawFilterData2[sensor]);
 395:Generated_Source\PSoC4/CapSense_CSHL.c ****             CapSense_rawFilterData2[sensor] = CapSense_rawFilterData1[sensor];
 396:Generated_Source\PSoC4/CapSense_CSHL.c ****             CapSense_rawFilterData1[sensor] = tempRaw;
 397:Generated_Source\PSoC4/CapSense_CSHL.c **** 
 398:Generated_Source\PSoC4/CapSense_CSHL.c ****         #elif (CapSense_RAW_FILTER_MASK & CapSense_AVERAGING_FILTER)
 399:Generated_Source\PSoC4/CapSense_CSHL.c ****             tempRaw = filteredRawData;
 400:Generated_Source\PSoC4/CapSense_CSHL.c ****             filteredRawData = CapSense_AveragingFilter(filteredRawData, CapSense_rawFilterData1[sen
 401:Generated_Source\PSoC4/CapSense_CSHL.c ****                                                                CapSense_rawFilterData2[sensor]);
 402:Generated_Source\PSoC4/CapSense_CSHL.c ****             CapSense_rawFilterData2[sensor] = CapSense_rawFilterData1[sensor];
 403:Generated_Source\PSoC4/CapSense_CSHL.c ****             CapSense_rawFilterData1[sensor] = tempRaw;
 404:Generated_Source\PSoC4/CapSense_CSHL.c **** 
 405:Generated_Source\PSoC4/CapSense_CSHL.c ****         #elif (CapSense_RAW_FILTER_MASK & CapSense_IIR2_FILTER)
 406:Generated_Source\PSoC4/CapSense_CSHL.c ****             filteredRawData = CapSense_IIR2Filter(filteredRawData, CapSense_rawFilterData1[sensor])
 407:Generated_Source\PSoC4/CapSense_CSHL.c ****             CapSense_rawFilterData1[sensor] = filteredRawData;
 408:Generated_Source\PSoC4/CapSense_CSHL.c **** 
 409:Generated_Source\PSoC4/CapSense_CSHL.c ****         #elif (CapSense_RAW_FILTER_MASK & CapSense_IIR4_FILTER)
 410:Generated_Source\PSoC4/CapSense_CSHL.c ****             filteredRawData = CapSense_IIR4Filter(filteredRawData, CapSense_rawFilterData1[sensor])
 423              		.loc 1 410 0
 424 003c 764B     		ldr	r3, .L30+16
 425 003e 7A68     		ldr	r2, [r7, #4]
 426 0040 5200     		lsl	r2, r2, #1
 427 0042 D25A     		ldrh	r2, [r2, r3]
 428 0044 1023     		mov	r3, #16
 429 0046 FC18     		add	r4, r7, r3
 430 0048 1023     		mov	r3, #16
 431 004a FB18     		add	r3, r7, r3
 432 004c 1B88     		ldrh	r3, [r3]
ARM GAS  C:\Users\poornima\AppData\Local\Temp\ccCVn41A.s 			page 16


 433 004e 181C     		mov	r0, r3
 434 0050 111C     		mov	r1, r2
 435 0052 FFF7FEFF 		bl	CapSense_IIR4Filter
 436 0056 031C     		mov	r3, r0
 437 0058 2380     		strh	r3, [r4]
 411:Generated_Source\PSoC4/CapSense_CSHL.c ****             CapSense_rawFilterData1[sensor] = filteredRawData;
 438              		.loc 1 411 0
 439 005a 6F4B     		ldr	r3, .L30+16
 440 005c 7A68     		ldr	r2, [r7, #4]
 441 005e 5200     		lsl	r2, r2, #1
 442 0060 1021     		mov	r1, #16
 443 0062 7918     		add	r1, r7, r1
 444 0064 0988     		ldrh	r1, [r1]
 445 0066 D152     		strh	r1, [r2, r3]
 446              	.L18:
 412:Generated_Source\PSoC4/CapSense_CSHL.c **** 
 413:Generated_Source\PSoC4/CapSense_CSHL.c ****         #elif (CapSense_RAW_FILTER_MASK & CapSense_JITTER_FILTER)
 414:Generated_Source\PSoC4/CapSense_CSHL.c ****             filteredRawData = CapSense_JitterFilter(filteredRawData, CapSense_rawFilterData1[sensor
 415:Generated_Source\PSoC4/CapSense_CSHL.c ****             CapSense_rawFilterData1[sensor] = filteredRawData;
 416:Generated_Source\PSoC4/CapSense_CSHL.c **** 
 417:Generated_Source\PSoC4/CapSense_CSHL.c ****         #elif (CapSense_RAW_FILTER_MASK & CapSense_IIR8_FILTER)
 418:Generated_Source\PSoC4/CapSense_CSHL.c ****             filteredRawData = CapSense_IIR8Filter(filteredRawData, CapSense_rawFilterData1[sensor])
 419:Generated_Source\PSoC4/CapSense_CSHL.c ****             CapSense_rawFilterData1[sensor] = filteredRawData;
 420:Generated_Source\PSoC4/CapSense_CSHL.c **** 
 421:Generated_Source\PSoC4/CapSense_CSHL.c ****         #elif (CapSense_RAW_FILTER_MASK & CapSense_IIR16_FILTER)
 422:Generated_Source\PSoC4/CapSense_CSHL.c ****             filteredRawData = CapSense_IIR16Filter(filteredRawData, CapSense_rawFilterData1[sensor]
 423:Generated_Source\PSoC4/CapSense_CSHL.c ****             CapSense_rawFilterData1[sensor] = filteredRawData;
 424:Generated_Source\PSoC4/CapSense_CSHL.c **** 
 425:Generated_Source\PSoC4/CapSense_CSHL.c ****         #else
 426:Generated_Source\PSoC4/CapSense_CSHL.c ****             /* No Raw filters */
 427:Generated_Source\PSoC4/CapSense_CSHL.c ****         #endif  /* (CapSense_RAW_FILTER_MASK & CapSense_MEDIAN_FILTER) */
 428:Generated_Source\PSoC4/CapSense_CSHL.c ****     }
 429:Generated_Source\PSoC4/CapSense_CSHL.c ****     #endif  /* (CapSense_RAW_FILTER_MASK != 0u) */
 430:Generated_Source\PSoC4/CapSense_CSHL.c **** 
 431:Generated_Source\PSoC4/CapSense_CSHL.c ****     #if (CapSense_TUNING_METHOD == CapSense__TUNING_AUTO)
 432:Generated_Source\PSoC4/CapSense_CSHL.c ****         MeasureNoiseEnvelope_P4_v2_40(&CapSense_config, (uint8)sensor, CapSense_sensorRaw);
 447              		.loc 1 432 0
 448 0068 7B68     		ldr	r3, [r7, #4]
 449 006a DAB2     		uxtb	r2, r3
 450 006c 6B49     		ldr	r1, .L30+20
 451 006e 684B     		ldr	r3, .L30+8
 452 0070 081C     		mov	r0, r1
 453 0072 111C     		mov	r1, r2
 454 0074 1A1C     		mov	r2, r3
 455 0076 FFF7FEFF 		bl	MeasureNoiseEnvelope_P4_v2_40
 433:Generated_Source\PSoC4/CapSense_CSHL.c ****     #endif /* (CapSense_TUNING_METHOD == CapSense__TUNING_AUTO) */
 434:Generated_Source\PSoC4/CapSense_CSHL.c **** 
 435:Generated_Source\PSoC4/CapSense_CSHL.c ****     /* Baseline calculation */
 436:Generated_Source\PSoC4/CapSense_CSHL.c ****     /* Calculate difference RawData[cur] - Baseline[prev] */
 437:Generated_Source\PSoC4/CapSense_CSHL.c ****     if(filteredRawData >= CapSense_sensorBaseline[sensor])
 456              		.loc 1 437 0
 457 007a 694B     		ldr	r3, .L30+24
 458 007c 7A68     		ldr	r2, [r7, #4]
 459 007e 5200     		lsl	r2, r2, #1
 460 0080 D35A     		ldrh	r3, [r2, r3]
 461 0082 1022     		mov	r2, #16
 462 0084 BA18     		add	r2, r7, r2
ARM GAS  C:\Users\poornima\AppData\Local\Temp\ccCVn41A.s 			page 17


 463 0086 1288     		ldrh	r2, [r2]
 464 0088 9A42     		cmp	r2, r3
 465 008a 12D3     		bcc	.L19
 438:Generated_Source\PSoC4/CapSense_CSHL.c ****     {
 439:Generated_Source\PSoC4/CapSense_CSHL.c ****         CapSense_lowBaselineResetCnt[sensor] = 0u;
 466              		.loc 1 439 0
 467 008c 654A     		ldr	r2, .L30+28
 468 008e 7B68     		ldr	r3, [r7, #4]
 469 0090 D318     		add	r3, r2, r3
 470 0092 0022     		mov	r2, #0
 471 0094 1A70     		strb	r2, [r3]
 440:Generated_Source\PSoC4/CapSense_CSHL.c ****         tempRaw = filteredRawData - CapSense_sensorBaseline[sensor];
 472              		.loc 1 440 0
 473 0096 624B     		ldr	r3, .L30+24
 474 0098 7A68     		ldr	r2, [r7, #4]
 475 009a 5200     		lsl	r2, r2, #1
 476 009c D25A     		ldrh	r2, [r2, r3]
 477 009e 1223     		mov	r3, #18
 478 00a0 FB18     		add	r3, r7, r3
 479 00a2 1021     		mov	r1, #16
 480 00a4 7918     		add	r1, r7, r1
 481 00a6 0988     		ldrh	r1, [r1]
 482 00a8 8A1A     		sub	r2, r1, r2
 483 00aa 1A80     		strh	r2, [r3]
 441:Generated_Source\PSoC4/CapSense_CSHL.c ****         sign = 1u;    /* Positive difference - Calculate the Signal */
 484              		.loc 1 441 0
 485 00ac 0123     		mov	r3, #1
 486 00ae 7B61     		str	r3, [r7, #20]
 487 00b0 0CE0     		b	.L20
 488              	.L19:
 442:Generated_Source\PSoC4/CapSense_CSHL.c ****     }
 443:Generated_Source\PSoC4/CapSense_CSHL.c ****     else
 444:Generated_Source\PSoC4/CapSense_CSHL.c ****     {
 445:Generated_Source\PSoC4/CapSense_CSHL.c ****         tempRaw = CapSense_sensorBaseline[sensor] - filteredRawData;
 489              		.loc 1 445 0
 490 00b2 5B4B     		ldr	r3, .L30+24
 491 00b4 7A68     		ldr	r2, [r7, #4]
 492 00b6 5200     		lsl	r2, r2, #1
 493 00b8 D15A     		ldrh	r1, [r2, r3]
 494 00ba 1223     		mov	r3, #18
 495 00bc FB18     		add	r3, r7, r3
 496 00be 1022     		mov	r2, #16
 497 00c0 BA18     		add	r2, r7, r2
 498 00c2 1288     		ldrh	r2, [r2]
 499 00c4 8A1A     		sub	r2, r1, r2
 500 00c6 1A80     		strh	r2, [r3]
 446:Generated_Source\PSoC4/CapSense_CSHL.c ****         sign = 0u;    /* Negative difference - Do NOT calculate the Signal */
 501              		.loc 1 446 0
 502 00c8 0023     		mov	r3, #0
 503 00ca 7B61     		str	r3, [r7, #20]
 504              	.L20:
 447:Generated_Source\PSoC4/CapSense_CSHL.c ****     }
 448:Generated_Source\PSoC4/CapSense_CSHL.c **** 
 449:Generated_Source\PSoC4/CapSense_CSHL.c ****     #if (CapSense_TUNING_METHOD != CapSense__TUNING_NONE)
 450:Generated_Source\PSoC4/CapSense_CSHL.c ****     if((sign == 0u) && (tempRaw > (uint16) CapSense_negativeNoiseThreshold[widget]))
 505              		.loc 1 450 0
 506 00cc 7B69     		ldr	r3, [r7, #20]
ARM GAS  C:\Users\poornima\AppData\Local\Temp\ccCVn41A.s 			page 18


 507 00ce 002B     		cmp	r3, #0
 508 00d0 2AD1     		bne	.L21
 509              		.loc 1 450 0 is_stmt 0 discriminator 1
 510 00d2 0F23     		mov	r3, #15
 511 00d4 FB18     		add	r3, r7, r3
 512 00d6 1B78     		ldrb	r3, [r3]
 513 00d8 534A     		ldr	r2, .L30+32
 514 00da D35C     		ldrb	r3, [r2, r3]
 515 00dc 9BB2     		uxth	r3, r3
 516 00de 1222     		mov	r2, #18
 517 00e0 BA18     		add	r2, r7, r2
 518 00e2 1288     		ldrh	r2, [r2]
 519 00e4 9A42     		cmp	r2, r3
 520 00e6 1FD9     		bls	.L21
 451:Generated_Source\PSoC4/CapSense_CSHL.c ****     #else
 452:Generated_Source\PSoC4/CapSense_CSHL.c ****     if((sign == 0u) && (tempRaw > (uint16) CapSense_NEGATIVE_NOISE_THRESHOLD))
 453:Generated_Source\PSoC4/CapSense_CSHL.c ****     #endif /* (CapSense_TUNING_METHOD != CapSense__TUNING_NONE) */
 454:Generated_Source\PSoC4/CapSense_CSHL.c ****     {
 455:Generated_Source\PSoC4/CapSense_CSHL.c ****         if(CapSense_lowBaselineResetCnt[sensor] >= CapSense_lowBaselineReset[sensor])
 521              		.loc 1 455 0 is_stmt 1
 522 00e8 4E4A     		ldr	r2, .L30+28
 523 00ea 7B68     		ldr	r3, [r7, #4]
 524 00ec D318     		add	r3, r2, r3
 525 00ee 1A78     		ldrb	r2, [r3]
 526 00f0 4E49     		ldr	r1, .L30+36
 527 00f2 7B68     		ldr	r3, [r7, #4]
 528 00f4 CB18     		add	r3, r1, r3
 529 00f6 1B78     		ldrb	r3, [r3]
 530 00f8 9A42     		cmp	r2, r3
 531 00fa 09D3     		bcc	.L22
 456:Generated_Source\PSoC4/CapSense_CSHL.c ****         {
 457:Generated_Source\PSoC4/CapSense_CSHL.c ****             CapSense_BaseInit(sensor);
 532              		.loc 1 457 0
 533 00fc 7B68     		ldr	r3, [r7, #4]
 534 00fe 181C     		mov	r0, r3
 535 0100 FFF7FEFF 		bl	CapSense_BaseInit
 458:Generated_Source\PSoC4/CapSense_CSHL.c ****             CapSense_lowBaselineResetCnt[sensor] = 0u;
 536              		.loc 1 458 0
 537 0104 474A     		ldr	r2, .L30+28
 538 0106 7B68     		ldr	r3, [r7, #4]
 539 0108 D318     		add	r3, r2, r3
 540 010a 0022     		mov	r2, #0
 541 010c 1A70     		strb	r2, [r3]
 455:Generated_Source\PSoC4/CapSense_CSHL.c ****         {
 542              		.loc 1 455 0
 543 010e 51E0     		b	.L24
 544              	.L22:
 459:Generated_Source\PSoC4/CapSense_CSHL.c ****         }
 460:Generated_Source\PSoC4/CapSense_CSHL.c ****         else
 461:Generated_Source\PSoC4/CapSense_CSHL.c ****         {
 462:Generated_Source\PSoC4/CapSense_CSHL.c ****             CapSense_lowBaselineResetCnt[sensor]++;
 545              		.loc 1 462 0
 546 0110 444A     		ldr	r2, .L30+28
 547 0112 7B68     		ldr	r3, [r7, #4]
 548 0114 D318     		add	r3, r2, r3
 549 0116 1B78     		ldrb	r3, [r3]
 550 0118 0133     		add	r3, r3, #1
ARM GAS  C:\Users\poornima\AppData\Local\Temp\ccCVn41A.s 			page 19


 551 011a D9B2     		uxtb	r1, r3
 552 011c 414A     		ldr	r2, .L30+28
 553 011e 7B68     		ldr	r3, [r7, #4]
 554 0120 D318     		add	r3, r2, r3
 555 0122 0A1C     		add	r2, r1, #0
 556 0124 1A70     		strb	r2, [r3]
 455:Generated_Source\PSoC4/CapSense_CSHL.c ****         {
 557              		.loc 1 455 0
 558 0126 45E0     		b	.L24
 559              	.L21:
 463:Generated_Source\PSoC4/CapSense_CSHL.c ****         }
 464:Generated_Source\PSoC4/CapSense_CSHL.c ****     }
 465:Generated_Source\PSoC4/CapSense_CSHL.c ****     else
 466:Generated_Source\PSoC4/CapSense_CSHL.c ****     {
 467:Generated_Source\PSoC4/CapSense_CSHL.c ****         #if (CapSense_AUTO_RESET == CapSense_AUTO_RESET_DISABLE)
 468:Generated_Source\PSoC4/CapSense_CSHL.c ****         #if (CapSense_TUNING_METHOD != CapSense__TUNING_NONE)
 469:Generated_Source\PSoC4/CapSense_CSHL.c ****             /* Update Baseline if lower than noiseThreshold */
 470:Generated_Source\PSoC4/CapSense_CSHL.c ****             if ( (tempRaw <= noiseThreshold) ||
 560              		.loc 1 470 0
 561 0128 0E23     		mov	r3, #14
 562 012a FB18     		add	r3, r7, r3
 563 012c 1B78     		ldrb	r3, [r3]
 564 012e 9BB2     		uxth	r3, r3
 565 0130 1222     		mov	r2, #18
 566 0132 BA18     		add	r2, r7, r2
 567 0134 1288     		ldrh	r2, [r2]
 568 0136 9A42     		cmp	r2, r3
 569 0138 0DD9     		bls	.L25
 471:Generated_Source\PSoC4/CapSense_CSHL.c ****              ((tempRaw < (uint16) CapSense_negativeNoiseThreshold[widget])
 570              		.loc 1 471 0 discriminator 1
 571 013a 0F23     		mov	r3, #15
 572 013c FB18     		add	r3, r7, r3
 573 013e 1B78     		ldrb	r3, [r3]
 574 0140 394A     		ldr	r2, .L30+32
 575 0142 D35C     		ldrb	r3, [r2, r3]
 576 0144 9BB2     		uxth	r3, r3
 470:Generated_Source\PSoC4/CapSense_CSHL.c ****              ((tempRaw < (uint16) CapSense_negativeNoiseThreshold[widget])
 577              		.loc 1 470 0 discriminator 1
 578 0146 1222     		mov	r2, #18
 579 0148 BA18     		add	r2, r7, r2
 580 014a 1288     		ldrh	r2, [r2]
 581 014c 9A42     		cmp	r2, r3
 582 014e 31D2     		bcs	.L24
 472:Generated_Source\PSoC4/CapSense_CSHL.c ****                && (sign == 0u)))
 583              		.loc 1 472 0
 584 0150 7B69     		ldr	r3, [r7, #20]
 585 0152 002B     		cmp	r3, #0
 586 0154 2ED1     		bne	.L24
 587              	.L25:
 473:Generated_Source\PSoC4/CapSense_CSHL.c ****             {
 474:Generated_Source\PSoC4/CapSense_CSHL.c ****         #else
 475:Generated_Source\PSoC4/CapSense_CSHL.c ****             /* Update Baseline if lower than noiseThreshold */
 476:Generated_Source\PSoC4/CapSense_CSHL.c ****             if ( (tempRaw <= noiseThreshold) ||
 477:Generated_Source\PSoC4/CapSense_CSHL.c ****                  ((tempRaw < (uint16) CapSense_NEGATIVE_NOISE_THRESHOLD)
 478:Generated_Source\PSoC4/CapSense_CSHL.c ****                    && (sign == 0u)))
 479:Generated_Source\PSoC4/CapSense_CSHL.c ****             {
 480:Generated_Source\PSoC4/CapSense_CSHL.c ****         #endif /* (CapSense_TUNING_METHOD != CapSense__TUNING_NONE) */
ARM GAS  C:\Users\poornima\AppData\Local\Temp\ccCVn41A.s 			page 20


 481:Generated_Source\PSoC4/CapSense_CSHL.c ****         #endif /* (CapSense_AUTO_RESET == CapSense_AUTO_RESET_DISABLE) */
 482:Generated_Source\PSoC4/CapSense_CSHL.c ****                 /* Make full Baseline 23 bits */
 483:Generated_Source\PSoC4/CapSense_CSHL.c ****                 calc = (uint32) CapSense_sensorBaseline[sensor] << 8u;
 588              		.loc 1 483 0
 589 0156 324B     		ldr	r3, .L30+24
 590 0158 7A68     		ldr	r2, [r7, #4]
 591 015a 5200     		lsl	r2, r2, #1
 592 015c D35A     		ldrh	r3, [r2, r3]
 593 015e 1B02     		lsl	r3, r3, #8
 594 0160 BB60     		str	r3, [r7, #8]
 484:Generated_Source\PSoC4/CapSense_CSHL.c ****                 calc |= (uint32) CapSense_sensorBaselineLow[sensor];
 595              		.loc 1 484 0
 596 0162 334A     		ldr	r2, .L30+40
 597 0164 7B68     		ldr	r3, [r7, #4]
 598 0166 D318     		add	r3, r2, r3
 599 0168 1B78     		ldrb	r3, [r3]
 600 016a 1A1C     		mov	r2, r3
 601 016c BB68     		ldr	r3, [r7, #8]
 602 016e 1343     		orr	r3, r2
 603 0170 BB60     		str	r3, [r7, #8]
 485:Generated_Source\PSoC4/CapSense_CSHL.c **** 
 486:Generated_Source\PSoC4/CapSense_CSHL.c ****                 /* Add Raw Data to Baseline */
 487:Generated_Source\PSoC4/CapSense_CSHL.c ****                 calc += filteredRawData;
 604              		.loc 1 487 0
 605 0172 1023     		mov	r3, #16
 606 0174 FB18     		add	r3, r7, r3
 607 0176 1B88     		ldrh	r3, [r3]
 608 0178 BA68     		ldr	r2, [r7, #8]
 609 017a D318     		add	r3, r2, r3
 610 017c BB60     		str	r3, [r7, #8]
 488:Generated_Source\PSoC4/CapSense_CSHL.c **** 
 489:Generated_Source\PSoC4/CapSense_CSHL.c ****                 /* Sub the high Baseline */
 490:Generated_Source\PSoC4/CapSense_CSHL.c ****                 calc -= CapSense_sensorBaseline[sensor];
 611              		.loc 1 490 0
 612 017e 284B     		ldr	r3, .L30+24
 613 0180 7A68     		ldr	r2, [r7, #4]
 614 0182 5200     		lsl	r2, r2, #1
 615 0184 D35A     		ldrh	r3, [r2, r3]
 616 0186 1A1C     		mov	r2, r3
 617 0188 BB68     		ldr	r3, [r7, #8]
 618 018a 9B1A     		sub	r3, r3, r2
 619 018c BB60     		str	r3, [r7, #8]
 491:Generated_Source\PSoC4/CapSense_CSHL.c **** 
 492:Generated_Source\PSoC4/CapSense_CSHL.c ****                 /* Put Baseline and BaselineLow */
 493:Generated_Source\PSoC4/CapSense_CSHL.c ****                 CapSense_sensorBaseline[sensor] = ((uint16) (calc >> 8u));
 620              		.loc 1 493 0
 621 018e BB68     		ldr	r3, [r7, #8]
 622 0190 1B0A     		lsr	r3, r3, #8
 623 0192 99B2     		uxth	r1, r3
 624 0194 224B     		ldr	r3, .L30+24
 625 0196 7A68     		ldr	r2, [r7, #4]
 626 0198 5200     		lsl	r2, r2, #1
 627 019a D152     		strh	r1, [r2, r3]
 494:Generated_Source\PSoC4/CapSense_CSHL.c ****                 CapSense_sensorBaselineLow[sensor] = ((uint8) calc);
 628              		.loc 1 494 0
 629 019c BB68     		ldr	r3, [r7, #8]
 630 019e D9B2     		uxtb	r1, r3
ARM GAS  C:\Users\poornima\AppData\Local\Temp\ccCVn41A.s 			page 21


 631 01a0 234A     		ldr	r2, .L30+40
 632 01a2 7B68     		ldr	r3, [r7, #4]
 633 01a4 D318     		add	r3, r2, r3
 634 01a6 0A1C     		add	r2, r1, #0
 635 01a8 1A70     		strb	r2, [r3]
 495:Generated_Source\PSoC4/CapSense_CSHL.c **** 
 496:Generated_Source\PSoC4/CapSense_CSHL.c ****                 CapSense_lowBaselineResetCnt[sensor] = 0u;
 636              		.loc 1 496 0
 637 01aa 1E4A     		ldr	r2, .L30+28
 638 01ac 7B68     		ldr	r3, [r7, #4]
 639 01ae D318     		add	r3, r2, r3
 640 01b0 0022     		mov	r2, #0
 641 01b2 1A70     		strb	r2, [r3]
 642              	.L24:
 497:Generated_Source\PSoC4/CapSense_CSHL.c ****         #if (CapSense_AUTO_RESET == CapSense_AUTO_RESET_DISABLE)
 498:Generated_Source\PSoC4/CapSense_CSHL.c ****             }
 499:Generated_Source\PSoC4/CapSense_CSHL.c ****         #endif /* (CapSense_AUTO_RESET == CapSense_AUTO_RESET_DISABLE) */
 500:Generated_Source\PSoC4/CapSense_CSHL.c ****     }
 501:Generated_Source\PSoC4/CapSense_CSHL.c **** 
 502:Generated_Source\PSoC4/CapSense_CSHL.c ****     /* Calculate Signal if positive difference > noiseThreshold */
 503:Generated_Source\PSoC4/CapSense_CSHL.c ****     if((tempRaw > (uint16) noiseThreshold) && (sign != 0u))
 643              		.loc 1 503 0
 644 01b4 0E23     		mov	r3, #14
 645 01b6 FB18     		add	r3, r7, r3
 646 01b8 1B78     		ldrb	r3, [r3]
 647 01ba 9BB2     		uxth	r3, r3
 648 01bc 1222     		mov	r2, #18
 649 01be BA18     		add	r2, r7, r2
 650 01c0 1288     		ldrh	r2, [r2]
 651 01c2 9A42     		cmp	r2, r3
 652 01c4 17D9     		bls	.L26
 653              		.loc 1 503 0 is_stmt 0 discriminator 1
 654 01c6 7B69     		ldr	r3, [r7, #20]
 655 01c8 002B     		cmp	r3, #0
 656 01ca 14D0     		beq	.L26
 504:Generated_Source\PSoC4/CapSense_CSHL.c ****     {
 505:Generated_Source\PSoC4/CapSense_CSHL.c ****         #if (CapSense_SIGNAL_SIZE == CapSense_SIGNAL_SIZE_UINT8)
 506:Generated_Source\PSoC4/CapSense_CSHL.c ****             /* Over flow defence for uint8 */
 507:Generated_Source\PSoC4/CapSense_CSHL.c ****             if (tempRaw > 0xFFu)
 657              		.loc 1 507 0 is_stmt 1
 658 01cc 1223     		mov	r3, #18
 659 01ce FB18     		add	r3, r7, r3
 660 01d0 1B88     		ldrh	r3, [r3]
 661 01d2 FF2B     		cmp	r3, #255
 662 01d4 05D9     		bls	.L27
 508:Generated_Source\PSoC4/CapSense_CSHL.c ****             {
 509:Generated_Source\PSoC4/CapSense_CSHL.c ****                 CapSense_sensorSignal[sensor] = 0xFFu;
 663              		.loc 1 509 0
 664 01d6 174A     		ldr	r2, .L30+44
 665 01d8 7B68     		ldr	r3, [r7, #4]
 666 01da D318     		add	r3, r2, r3
 667 01dc FF22     		mov	r2, #255
 668 01de 1A70     		strb	r2, [r3]
 507:Generated_Source\PSoC4/CapSense_CSHL.c ****             {
 669              		.loc 1 507 0
 670 01e0 0EE0     		b	.L17
 671              	.L27:
ARM GAS  C:\Users\poornima\AppData\Local\Temp\ccCVn41A.s 			page 22


 510:Generated_Source\PSoC4/CapSense_CSHL.c ****             }
 511:Generated_Source\PSoC4/CapSense_CSHL.c ****             else
 512:Generated_Source\PSoC4/CapSense_CSHL.c ****             {
 513:Generated_Source\PSoC4/CapSense_CSHL.c ****                 CapSense_sensorSignal[sensor] = ((uint8) tempRaw);
 672              		.loc 1 513 0
 673 01e2 1223     		mov	r3, #18
 674 01e4 FB18     		add	r3, r7, r3
 675 01e6 1B88     		ldrh	r3, [r3]
 676 01e8 D9B2     		uxtb	r1, r3
 677 01ea 124A     		ldr	r2, .L30+44
 678 01ec 7B68     		ldr	r3, [r7, #4]
 679 01ee D318     		add	r3, r2, r3
 680 01f0 0A1C     		add	r2, r1, #0
 681 01f2 1A70     		strb	r2, [r3]
 507:Generated_Source\PSoC4/CapSense_CSHL.c ****             {
 682              		.loc 1 507 0
 683 01f4 04E0     		b	.L17
 684              	.L26:
 514:Generated_Source\PSoC4/CapSense_CSHL.c ****             }
 515:Generated_Source\PSoC4/CapSense_CSHL.c ****         #else
 516:Generated_Source\PSoC4/CapSense_CSHL.c ****             CapSense_sensorSignal[sensor] = ((uint16) tempRaw);
 517:Generated_Source\PSoC4/CapSense_CSHL.c ****         #endif  /* (CapSense_SIGNAL_SIZE == CapSense_SIGNAL_SIZE_UINT8) */
 518:Generated_Source\PSoC4/CapSense_CSHL.c ****     }
 519:Generated_Source\PSoC4/CapSense_CSHL.c ****     else
 520:Generated_Source\PSoC4/CapSense_CSHL.c ****     {
 521:Generated_Source\PSoC4/CapSense_CSHL.c ****         /* Signal is zero */
 522:Generated_Source\PSoC4/CapSense_CSHL.c ****         CapSense_sensorSignal[sensor] = 0u;
 685              		.loc 1 522 0
 686 01f6 0F4A     		ldr	r2, .L30+44
 687 01f8 7B68     		ldr	r3, [r7, #4]
 688 01fa D318     		add	r3, r2, r3
 689 01fc 0022     		mov	r2, #0
 690 01fe 1A70     		strb	r2, [r3]
 691              	.L17:
 523:Generated_Source\PSoC4/CapSense_CSHL.c ****     }
 524:Generated_Source\PSoC4/CapSense_CSHL.c **** 
 525:Generated_Source\PSoC4/CapSense_CSHL.c ****     #if (CapSense_TOTAL_GENERICS_COUNT)
 526:Generated_Source\PSoC4/CapSense_CSHL.c ****         /* Exclude generic widget */
 527:Generated_Source\PSoC4/CapSense_CSHL.c ****         }
 528:Generated_Source\PSoC4/CapSense_CSHL.c ****     #endif  /* CapSense_TOTAL_GENERICS_COUNT */
 529:Generated_Source\PSoC4/CapSense_CSHL.c **** }
 692              		.loc 1 529 0
 693 0200 BD46     		mov	sp, r7
 694 0202 07B0     		add	sp, sp, #28
 695              		@ sp needed
 696 0204 90BD     		pop	{r4, r7, pc}
 697              	.L31:
 698 0206 C046     		.align	2
 699              	.L30:
 700 0208 00000000 		.word	CapSense_widgetNumber
 701 020c 00000000 		.word	CapSense_noiseThreshold
 702 0210 00000000 		.word	CapSense_sensorRaw
 703 0214 00000000 		.word	CapSense_enableRawFilters
 704 0218 00000000 		.word	CapSense_rawFilterData1
 705 021c 00000000 		.word	CapSense_config
 706 0220 00000000 		.word	CapSense_sensorBaseline
 707 0224 00000000 		.word	CapSense_lowBaselineResetCnt
ARM GAS  C:\Users\poornima\AppData\Local\Temp\ccCVn41A.s 			page 23


 708 0228 00000000 		.word	CapSense_negativeNoiseThreshold
 709 022c 00000000 		.word	CapSense_lowBaselineReset
 710 0230 00000000 		.word	CapSense_sensorBaselineLow
 711 0234 00000000 		.word	CapSense_sensorSignal
 712              		.cfi_endproc
 713              	.LFE39:
 714              		.size	CapSense_UpdateBaselineNoThreshold, .-CapSense_UpdateBaselineNoThreshold
 715              		.section	.text.CapSense_UpdateSensorBaseline,"ax",%progbits
 716              		.align	2
 717              		.global	CapSense_UpdateSensorBaseline
 718              		.code	16
 719              		.thumb_func
 720              		.type	CapSense_UpdateSensorBaseline, %function
 721              	CapSense_UpdateSensorBaseline:
 722              	.LFB40:
 530:Generated_Source\PSoC4/CapSense_CSHL.c **** 
 531:Generated_Source\PSoC4/CapSense_CSHL.c **** 
 532:Generated_Source\PSoC4/CapSense_CSHL.c **** /*******************************************************************************
 533:Generated_Source\PSoC4/CapSense_CSHL.c **** * Function Name: CapSense_UpdateSensorBaseline
 534:Generated_Source\PSoC4/CapSense_CSHL.c **** ********************************************************************************
 535:Generated_Source\PSoC4/CapSense_CSHL.c **** *
 536:Generated_Source\PSoC4/CapSense_CSHL.c **** * Summary:
 537:Generated_Source\PSoC4/CapSense_CSHL.c **** *  Updates the CapSense_sensorBaseline[sensor] array element using the
 538:Generated_Source\PSoC4/CapSense_CSHL.c **** *  LP filter with k = 256. The signal calculates the difference of count by
 539:Generated_Source\PSoC4/CapSense_CSHL.c **** *  subtracting the previous baseline from the current raw count value and stores
 540:Generated_Source\PSoC4/CapSense_CSHL.c **** *  it in CapSense_sensorSignal[sensor].
 541:Generated_Source\PSoC4/CapSense_CSHL.c **** *  If the auto reset option is enabled, the baseline updated regards the noise threshold.
 542:Generated_Source\PSoC4/CapSense_CSHL.c **** *  If the auto reset option is disabled, the baseline stops updating.
 543:Generated_Source\PSoC4/CapSense_CSHL.c **** *  Baseline is loaded with raw count value if a signal is greater than zero and
 544:Generated_Source\PSoC4/CapSense_CSHL.c **** *  if signal is less than noise threshold.
 545:Generated_Source\PSoC4/CapSense_CSHL.c **** *  Raw data filters are applied to the values if enabled before baseline
 546:Generated_Source\PSoC4/CapSense_CSHL.c **** *  calculation.
 547:Generated_Source\PSoC4/CapSense_CSHL.c **** *  This API updates the thresholds in the Smartsense Mode.
 548:Generated_Source\PSoC4/CapSense_CSHL.c **** *
 549:Generated_Source\PSoC4/CapSense_CSHL.c **** * Parameters:
 550:Generated_Source\PSoC4/CapSense_CSHL.c **** *  sensor:  Sensor number.
 551:Generated_Source\PSoC4/CapSense_CSHL.c **** *
 552:Generated_Source\PSoC4/CapSense_CSHL.c **** * Return:
 553:Generated_Source\PSoC4/CapSense_CSHL.c **** *  None
 554:Generated_Source\PSoC4/CapSense_CSHL.c **** *
 555:Generated_Source\PSoC4/CapSense_CSHL.c **** * Global Variables:
 556:Generated_Source\PSoC4/CapSense_CSHL.c **** *  CapSense_widgetNumber[]  - stores widget numbers.
 557:Generated_Source\PSoC4/CapSense_CSHL.c **** *
 558:Generated_Source\PSoC4/CapSense_CSHL.c **** * Side Effects:
 559:Generated_Source\PSoC4/CapSense_CSHL.c **** *  None
 560:Generated_Source\PSoC4/CapSense_CSHL.c **** *
 561:Generated_Source\PSoC4/CapSense_CSHL.c **** *******************************************************************************/
 562:Generated_Source\PSoC4/CapSense_CSHL.c ****  void CapSense_UpdateSensorBaseline(uint32 sensor)
 563:Generated_Source\PSoC4/CapSense_CSHL.c **** {
 723              		.loc 1 563 0
 724              		.cfi_startproc
 725 0000 80B5     		push	{r7, lr}
 726              		.cfi_def_cfa_offset 8
 727              		.cfi_offset 7, -8
 728              		.cfi_offset 14, -4
 729 0002 82B0     		sub	sp, sp, #8
 730              		.cfi_def_cfa_offset 16
ARM GAS  C:\Users\poornima\AppData\Local\Temp\ccCVn41A.s 			page 24


 731 0004 00AF     		add	r7, sp, #0
 732              		.cfi_def_cfa_register 7
 733 0006 7860     		str	r0, [r7, #4]
 564:Generated_Source\PSoC4/CapSense_CSHL.c ****     #if (CapSense_TOTAL_GENERICS_COUNT)
 565:Generated_Source\PSoC4/CapSense_CSHL.c ****         uint32 widget;
 566:Generated_Source\PSoC4/CapSense_CSHL.c **** 
 567:Generated_Source\PSoC4/CapSense_CSHL.c ****         widget = CapSense_widgetNumber[sensor];
 568:Generated_Source\PSoC4/CapSense_CSHL.c **** 
 569:Generated_Source\PSoC4/CapSense_CSHL.c ****         /* Exclude generic widget */
 570:Generated_Source\PSoC4/CapSense_CSHL.c ****         if(widget < CapSense_END_OF_WIDGETS_INDEX)
 571:Generated_Source\PSoC4/CapSense_CSHL.c ****         {
 572:Generated_Source\PSoC4/CapSense_CSHL.c ****     #endif  /* CapSense_TOTAL_GENERICS_COUNT */
 573:Generated_Source\PSoC4/CapSense_CSHL.c **** 
 574:Generated_Source\PSoC4/CapSense_CSHL.c ****     #if (CapSense_TUNING_METHOD == CapSense__TUNING_AUTO)
 575:Generated_Source\PSoC4/CapSense_CSHL.c ****         CapSense_UpdateThresholds(sensor);
 734              		.loc 1 575 0
 735 0008 7B68     		ldr	r3, [r7, #4]
 736 000a 181C     		mov	r0, r3
 737 000c FFF7FEFF 		bl	CapSense_UpdateThresholds
 576:Generated_Source\PSoC4/CapSense_CSHL.c ****     #endif /* (CapSense_TUNING_METHOD == CapSense__TUNING_AUTO) */
 577:Generated_Source\PSoC4/CapSense_CSHL.c **** 
 578:Generated_Source\PSoC4/CapSense_CSHL.c ****     CapSense_UpdateBaselineNoThreshold(sensor);
 738              		.loc 1 578 0
 739 0010 7B68     		ldr	r3, [r7, #4]
 740 0012 181C     		mov	r0, r3
 741 0014 FFF7FEFF 		bl	CapSense_UpdateBaselineNoThreshold
 579:Generated_Source\PSoC4/CapSense_CSHL.c **** 
 580:Generated_Source\PSoC4/CapSense_CSHL.c ****     #if (CapSense_TOTAL_GENERICS_COUNT)
 581:Generated_Source\PSoC4/CapSense_CSHL.c ****         /* Exclude generic widget */
 582:Generated_Source\PSoC4/CapSense_CSHL.c ****         }
 583:Generated_Source\PSoC4/CapSense_CSHL.c ****     #endif  /* CapSense_TOTAL_GENERICS_COUNT */
 584:Generated_Source\PSoC4/CapSense_CSHL.c **** }
 742              		.loc 1 584 0
 743 0018 BD46     		mov	sp, r7
 744 001a 02B0     		add	sp, sp, #8
 745              		@ sp needed
 746 001c 80BD     		pop	{r7, pc}
 747              		.cfi_endproc
 748              	.LFE40:
 749              		.size	CapSense_UpdateSensorBaseline, .-CapSense_UpdateSensorBaseline
 750 001e C046     		.section	.text.CapSense_UpdateEnabledBaselines,"ax",%progbits
 751              		.align	2
 752              		.global	CapSense_UpdateEnabledBaselines
 753              		.code	16
 754              		.thumb_func
 755              		.type	CapSense_UpdateEnabledBaselines, %function
 756              	CapSense_UpdateEnabledBaselines:
 757              	.LFB41:
 585:Generated_Source\PSoC4/CapSense_CSHL.c **** 
 586:Generated_Source\PSoC4/CapSense_CSHL.c **** 
 587:Generated_Source\PSoC4/CapSense_CSHL.c **** /*******************************************************************************
 588:Generated_Source\PSoC4/CapSense_CSHL.c **** * Function Name: CapSense_UpdateEnabledBaselines
 589:Generated_Source\PSoC4/CapSense_CSHL.c **** ********************************************************************************
 590:Generated_Source\PSoC4/CapSense_CSHL.c **** *
 591:Generated_Source\PSoC4/CapSense_CSHL.c **** * Summary:
 592:Generated_Source\PSoC4/CapSense_CSHL.c **** *  Checks CapSense_sensorEnableMask[] array and calls the
 593:Generated_Source\PSoC4/CapSense_CSHL.c **** *  CapSense_UpdateSensorBaseline function to update the baselines
ARM GAS  C:\Users\poornima\AppData\Local\Temp\ccCVn41A.s 			page 25


 594:Generated_Source\PSoC4/CapSense_CSHL.c **** *  for the enabled sensors.
 595:Generated_Source\PSoC4/CapSense_CSHL.c **** *
 596:Generated_Source\PSoC4/CapSense_CSHL.c **** * Parameters:
 597:Generated_Source\PSoC4/CapSense_CSHL.c **** *  None
 598:Generated_Source\PSoC4/CapSense_CSHL.c **** *
 599:Generated_Source\PSoC4/CapSense_CSHL.c **** * Return:
 600:Generated_Source\PSoC4/CapSense_CSHL.c **** *  None
 601:Generated_Source\PSoC4/CapSense_CSHL.c **** *
 602:Generated_Source\PSoC4/CapSense_CSHL.c **** * Global Variables:
 603:Generated_Source\PSoC4/CapSense_CSHL.c **** *  CapSense_sensorEnableMask[] - used to store the sensor scanning
 604:Generated_Source\PSoC4/CapSense_CSHL.c **** *  state.
 605:Generated_Source\PSoC4/CapSense_CSHL.c **** *  CapSense_sensorEnableMask[0] contains the masked bits for sensors
 606:Generated_Source\PSoC4/CapSense_CSHL.c **** *   0 through 7 (sensor 0 is bit 0, sensor 1 is bit 1).
 607:Generated_Source\PSoC4/CapSense_CSHL.c **** *  CapSense_sensorEnableMask[1] contains the masked bits for
 608:Generated_Source\PSoC4/CapSense_CSHL.c **** *  sensors 8 through 15 (if needed), and so on.
 609:Generated_Source\PSoC4/CapSense_CSHL.c **** *  0 - sensor doesn't scan by CapSense_ScanEnabledWidgets().
 610:Generated_Source\PSoC4/CapSense_CSHL.c **** *  1 - sensor scans by CapSense_ScanEnabledWidgets().
 611:Generated_Source\PSoC4/CapSense_CSHL.c **** *
 612:Generated_Source\PSoC4/CapSense_CSHL.c **** * Side Effects:
 613:Generated_Source\PSoC4/CapSense_CSHL.c **** *  None
 614:Generated_Source\PSoC4/CapSense_CSHL.c **** *
 615:Generated_Source\PSoC4/CapSense_CSHL.c **** *******************************************************************************/
 616:Generated_Source\PSoC4/CapSense_CSHL.c ****  void CapSense_UpdateEnabledBaselines(void)
 617:Generated_Source\PSoC4/CapSense_CSHL.c **** {
 758              		.loc 1 617 0
 759              		.cfi_startproc
 760 0000 80B5     		push	{r7, lr}
 761              		.cfi_def_cfa_offset 8
 762              		.cfi_offset 7, -8
 763              		.cfi_offset 14, -4
 764 0002 82B0     		sub	sp, sp, #8
 765              		.cfi_def_cfa_offset 16
 766 0004 00AF     		add	r7, sp, #0
 767              		.cfi_def_cfa_register 7
 618:Generated_Source\PSoC4/CapSense_CSHL.c ****     uint32 i;
 619:Generated_Source\PSoC4/CapSense_CSHL.c ****     uint32 isSensorEnabled;
 620:Generated_Source\PSoC4/CapSense_CSHL.c **** 
 621:Generated_Source\PSoC4/CapSense_CSHL.c ****     for(i = 0u; i < CapSense_TOTAL_SENSOR_COUNT; i++)
 768              		.loc 1 621 0
 769 0006 0023     		mov	r3, #0
 770 0008 7B60     		str	r3, [r7, #4]
 771 000a 11E0     		b	.L34
 772              	.L36:
 622:Generated_Source\PSoC4/CapSense_CSHL.c ****     {
 623:Generated_Source\PSoC4/CapSense_CSHL.c ****         isSensorEnabled = CapSense_GetBitValue(CapSense_sensorEnableMask, i);
 773              		.loc 1 623 0
 774 000c 0B4A     		ldr	r2, .L37
 775 000e 7B68     		ldr	r3, [r7, #4]
 776 0010 101C     		mov	r0, r2
 777 0012 191C     		mov	r1, r3
 778 0014 FFF7FEFF 		bl	CapSense_GetBitValue
 779 0018 031C     		mov	r3, r0
 780 001a 3B60     		str	r3, [r7]
 624:Generated_Source\PSoC4/CapSense_CSHL.c **** 
 625:Generated_Source\PSoC4/CapSense_CSHL.c ****         if(0u != isSensorEnabled)
 781              		.loc 1 625 0
 782 001c 3B68     		ldr	r3, [r7]
ARM GAS  C:\Users\poornima\AppData\Local\Temp\ccCVn41A.s 			page 26


 783 001e 002B     		cmp	r3, #0
 784 0020 03D0     		beq	.L35
 626:Generated_Source\PSoC4/CapSense_CSHL.c ****         {
 627:Generated_Source\PSoC4/CapSense_CSHL.c ****             CapSense_UpdateSensorBaseline(i);
 785              		.loc 1 627 0
 786 0022 7B68     		ldr	r3, [r7, #4]
 787 0024 181C     		mov	r0, r3
 788 0026 FFF7FEFF 		bl	CapSense_UpdateSensorBaseline
 789              	.L35:
 621:Generated_Source\PSoC4/CapSense_CSHL.c ****     {
 790              		.loc 1 621 0 discriminator 2
 791 002a 7B68     		ldr	r3, [r7, #4]
 792 002c 0133     		add	r3, r3, #1
 793 002e 7B60     		str	r3, [r7, #4]
 794              	.L34:
 621:Generated_Source\PSoC4/CapSense_CSHL.c ****     {
 795              		.loc 1 621 0 is_stmt 0 discriminator 1
 796 0030 7B68     		ldr	r3, [r7, #4]
 797 0032 082B     		cmp	r3, #8
 798 0034 EAD9     		bls	.L36
 628:Generated_Source\PSoC4/CapSense_CSHL.c ****         }
 629:Generated_Source\PSoC4/CapSense_CSHL.c ****     }
 630:Generated_Source\PSoC4/CapSense_CSHL.c **** }
 799              		.loc 1 630 0 is_stmt 1
 800 0036 BD46     		mov	sp, r7
 801 0038 02B0     		add	sp, sp, #8
 802              		@ sp needed
 803 003a 80BD     		pop	{r7, pc}
 804              	.L38:
 805              		.align	2
 806              	.L37:
 807 003c 00000000 		.word	CapSense_sensorEnableMask
 808              		.cfi_endproc
 809              	.LFE41:
 810              		.size	CapSense_UpdateEnabledBaselines, .-CapSense_UpdateEnabledBaselines
 811              		.section	.text.CapSense_UpdateWidgetBaseline,"ax",%progbits
 812              		.align	2
 813              		.global	CapSense_UpdateWidgetBaseline
 814              		.code	16
 815              		.thumb_func
 816              		.type	CapSense_UpdateWidgetBaseline, %function
 817              	CapSense_UpdateWidgetBaseline:
 818              	.LFB42:
 631:Generated_Source\PSoC4/CapSense_CSHL.c **** 
 632:Generated_Source\PSoC4/CapSense_CSHL.c **** /*******************************************************************************
 633:Generated_Source\PSoC4/CapSense_CSHL.c **** * Function Name: CapSense_UpdateWidgetBaseline
 634:Generated_Source\PSoC4/CapSense_CSHL.c **** ********************************************************************************
 635:Generated_Source\PSoC4/CapSense_CSHL.c **** *
 636:Generated_Source\PSoC4/CapSense_CSHL.c **** * Summary:
 637:Generated_Source\PSoC4/CapSense_CSHL.c **** *  Checks CapSense_sensorEnableMask[] array and calls the
 638:Generated_Source\PSoC4/CapSense_CSHL.c **** *  CapSense_UpdateSensorBaseline function to update the baselines
 639:Generated_Source\PSoC4/CapSense_CSHL.c **** *  for the enabled sensors that belong to widget.
 640:Generated_Source\PSoC4/CapSense_CSHL.c **** *
 641:Generated_Source\PSoC4/CapSense_CSHL.c **** * Parameters:
 642:Generated_Source\PSoC4/CapSense_CSHL.c **** *  widget:  Widget number.
 643:Generated_Source\PSoC4/CapSense_CSHL.c **** *
 644:Generated_Source\PSoC4/CapSense_CSHL.c **** * Return:
ARM GAS  C:\Users\poornima\AppData\Local\Temp\ccCVn41A.s 			page 27


 645:Generated_Source\PSoC4/CapSense_CSHL.c **** *  None
 646:Generated_Source\PSoC4/CapSense_CSHL.c **** *
 647:Generated_Source\PSoC4/CapSense_CSHL.c **** * Global Variables:
 648:Generated_Source\PSoC4/CapSense_CSHL.c **** *  CapSense_sensorEnableMask[] - used to store the sensor scanning
 649:Generated_Source\PSoC4/CapSense_CSHL.c **** *  state.
 650:Generated_Source\PSoC4/CapSense_CSHL.c **** *  CapSense_sensorEnableMask[0] contains the masked bits for sensors
 651:Generated_Source\PSoC4/CapSense_CSHL.c **** *   0 through 7 (sensor 0 is bit 0, sensor 1 is bit 1).
 652:Generated_Source\PSoC4/CapSense_CSHL.c **** *  CapSense_sensorEnableMask[1] contains the masked bits for
 653:Generated_Source\PSoC4/CapSense_CSHL.c **** *  sensors 8 through 15 (if needed), and so on.
 654:Generated_Source\PSoC4/CapSense_CSHL.c **** *  0 - sensor doesn't scan by CapSense_ScanEnabledWidgets().
 655:Generated_Source\PSoC4/CapSense_CSHL.c **** *  1 - sensor scans by CapSense_ScanEnabledWidgets().
 656:Generated_Source\PSoC4/CapSense_CSHL.c **** *
 657:Generated_Source\PSoC4/CapSense_CSHL.c **** * Side Effects:
 658:Generated_Source\PSoC4/CapSense_CSHL.c **** *  None
 659:Generated_Source\PSoC4/CapSense_CSHL.c **** *
 660:Generated_Source\PSoC4/CapSense_CSHL.c **** *******************************************************************************/
 661:Generated_Source\PSoC4/CapSense_CSHL.c **** void CapSense_UpdateWidgetBaseline(uint32 widget)
 662:Generated_Source\PSoC4/CapSense_CSHL.c **** {
 819              		.loc 1 662 0
 820              		.cfi_startproc
 821 0000 80B5     		push	{r7, lr}
 822              		.cfi_def_cfa_offset 8
 823              		.cfi_offset 7, -8
 824              		.cfi_offset 14, -4
 825 0002 88B0     		sub	sp, sp, #32
 826              		.cfi_def_cfa_offset 40
 827 0004 00AF     		add	r7, sp, #0
 828              		.cfi_def_cfa_register 7
 829 0006 7860     		str	r0, [r7, #4]
 663:Generated_Source\PSoC4/CapSense_CSHL.c ****     uint32 sensorsPerWidget;
 664:Generated_Source\PSoC4/CapSense_CSHL.c ****     uint32 firstSensor;
 665:Generated_Source\PSoC4/CapSense_CSHL.c ****     uint32 lastSensor;
 666:Generated_Source\PSoC4/CapSense_CSHL.c ****     uint32 i;
 667:Generated_Source\PSoC4/CapSense_CSHL.c ****     uint32 isSensorEnabled;
 668:Generated_Source\PSoC4/CapSense_CSHL.c **** 
 669:Generated_Source\PSoC4/CapSense_CSHL.c ****     /* Get number of sensors in widget */
 670:Generated_Source\PSoC4/CapSense_CSHL.c ****     sensorsPerWidget = CapSense_numberOfSensors[widget];
 830              		.loc 1 670 0
 831 0008 164A     		ldr	r2, .L43
 832 000a 7B68     		ldr	r3, [r7, #4]
 833 000c D318     		add	r3, r2, r3
 834 000e 1B78     		ldrb	r3, [r3]
 835 0010 BB61     		str	r3, [r7, #24]
 671:Generated_Source\PSoC4/CapSense_CSHL.c **** 
 672:Generated_Source\PSoC4/CapSense_CSHL.c ****     /* Get first sensor in widget */
 673:Generated_Source\PSoC4/CapSense_CSHL.c ****     firstSensor = CapSense_rawDataIndex[widget];
 836              		.loc 1 673 0
 837 0012 154A     		ldr	r2, .L43+4
 838 0014 7B68     		ldr	r3, [r7, #4]
 839 0016 D318     		add	r3, r2, r3
 840 0018 1B78     		ldrb	r3, [r3]
 841 001a 7B61     		str	r3, [r7, #20]
 674:Generated_Source\PSoC4/CapSense_CSHL.c **** 
 675:Generated_Source\PSoC4/CapSense_CSHL.c ****     /* Get last sensor in widget */
 676:Generated_Source\PSoC4/CapSense_CSHL.c ****     lastSensor = (CapSense_rawDataIndex[widget] + sensorsPerWidget);
 842              		.loc 1 676 0
 843 001c 124A     		ldr	r2, .L43+4
ARM GAS  C:\Users\poornima\AppData\Local\Temp\ccCVn41A.s 			page 28


 844 001e 7B68     		ldr	r3, [r7, #4]
 845 0020 D318     		add	r3, r2, r3
 846 0022 1B78     		ldrb	r3, [r3]
 847 0024 1A1C     		mov	r2, r3
 848 0026 BB69     		ldr	r3, [r7, #24]
 849 0028 D318     		add	r3, r2, r3
 850 002a 3B61     		str	r3, [r7, #16]
 677:Generated_Source\PSoC4/CapSense_CSHL.c **** 
 678:Generated_Source\PSoC4/CapSense_CSHL.c ****     for(i = firstSensor; i < lastSensor; i++)
 851              		.loc 1 678 0
 852 002c 7B69     		ldr	r3, [r7, #20]
 853 002e FB61     		str	r3, [r7, #28]
 854 0030 11E0     		b	.L40
 855              	.L42:
 679:Generated_Source\PSoC4/CapSense_CSHL.c ****     {
 680:Generated_Source\PSoC4/CapSense_CSHL.c ****         isSensorEnabled = CapSense_GetBitValue(CapSense_sensorEnableMask, i);
 856              		.loc 1 680 0
 857 0032 0E4A     		ldr	r2, .L43+8
 858 0034 FB69     		ldr	r3, [r7, #28]
 859 0036 101C     		mov	r0, r2
 860 0038 191C     		mov	r1, r3
 861 003a FFF7FEFF 		bl	CapSense_GetBitValue
 862 003e 031C     		mov	r3, r0
 863 0040 FB60     		str	r3, [r7, #12]
 681:Generated_Source\PSoC4/CapSense_CSHL.c **** 
 682:Generated_Source\PSoC4/CapSense_CSHL.c ****         if(0u != isSensorEnabled)
 864              		.loc 1 682 0
 865 0042 FB68     		ldr	r3, [r7, #12]
 866 0044 002B     		cmp	r3, #0
 867 0046 03D0     		beq	.L41
 683:Generated_Source\PSoC4/CapSense_CSHL.c ****         {
 684:Generated_Source\PSoC4/CapSense_CSHL.c ****             CapSense_UpdateSensorBaseline(i);
 868              		.loc 1 684 0
 869 0048 FB69     		ldr	r3, [r7, #28]
 870 004a 181C     		mov	r0, r3
 871 004c FFF7FEFF 		bl	CapSense_UpdateSensorBaseline
 872              	.L41:
 678:Generated_Source\PSoC4/CapSense_CSHL.c ****     {
 873              		.loc 1 678 0 discriminator 2
 874 0050 FB69     		ldr	r3, [r7, #28]
 875 0052 0133     		add	r3, r3, #1
 876 0054 FB61     		str	r3, [r7, #28]
 877              	.L40:
 678:Generated_Source\PSoC4/CapSense_CSHL.c ****     {
 878              		.loc 1 678 0 is_stmt 0 discriminator 1
 879 0056 FA69     		ldr	r2, [r7, #28]
 880 0058 3B69     		ldr	r3, [r7, #16]
 881 005a 9A42     		cmp	r2, r3
 882 005c E9D3     		bcc	.L42
 685:Generated_Source\PSoC4/CapSense_CSHL.c ****         }
 686:Generated_Source\PSoC4/CapSense_CSHL.c ****     }
 687:Generated_Source\PSoC4/CapSense_CSHL.c **** }
 883              		.loc 1 687 0 is_stmt 1
 884 005e BD46     		mov	sp, r7
 885 0060 08B0     		add	sp, sp, #32
 886              		@ sp needed
 887 0062 80BD     		pop	{r7, pc}
ARM GAS  C:\Users\poornima\AppData\Local\Temp\ccCVn41A.s 			page 29


 888              	.L44:
 889              		.align	2
 890              	.L43:
 891 0064 00000000 		.word	CapSense_numberOfSensors
 892 0068 00000000 		.word	CapSense_rawDataIndex
 893 006c 00000000 		.word	CapSense_sensorEnableMask
 894              		.cfi_endproc
 895              	.LFE42:
 896              		.size	CapSense_UpdateWidgetBaseline, .-CapSense_UpdateWidgetBaseline
 897              		.section	.text.CapSense_GetBaselineData,"ax",%progbits
 898              		.align	2
 899              		.global	CapSense_GetBaselineData
 900              		.code	16
 901              		.thumb_func
 902              		.type	CapSense_GetBaselineData, %function
 903              	CapSense_GetBaselineData:
 904              	.LFB43:
 688:Generated_Source\PSoC4/CapSense_CSHL.c **** 
 689:Generated_Source\PSoC4/CapSense_CSHL.c **** 
 690:Generated_Source\PSoC4/CapSense_CSHL.c **** /*******************************************************************************
 691:Generated_Source\PSoC4/CapSense_CSHL.c **** * Function Name: CapSense_GetBaselineData
 692:Generated_Source\PSoC4/CapSense_CSHL.c **** ********************************************************************************
 693:Generated_Source\PSoC4/CapSense_CSHL.c **** *
 694:Generated_Source\PSoC4/CapSense_CSHL.c **** * Summary:
 695:Generated_Source\PSoC4/CapSense_CSHL.c **** *  This function reads the sensor baseline from the component.
 696:Generated_Source\PSoC4/CapSense_CSHL.c **** *
 697:Generated_Source\PSoC4/CapSense_CSHL.c **** * Parameters:
 698:Generated_Source\PSoC4/CapSense_CSHL.c **** *  sensor:  Sensor number.
 699:Generated_Source\PSoC4/CapSense_CSHL.c **** *
 700:Generated_Source\PSoC4/CapSense_CSHL.c **** * Return:
 701:Generated_Source\PSoC4/CapSense_CSHL.c **** *  This API returns the baseline value of the sensor indicated by an argument.
 702:Generated_Source\PSoC4/CapSense_CSHL.c **** *
 703:Generated_Source\PSoC4/CapSense_CSHL.c **** * Global Variables:
 704:Generated_Source\PSoC4/CapSense_CSHL.c **** *  CapSense_sensorBaseline[] - the array with an initial values by scanning
 705:Generated_Source\PSoC4/CapSense_CSHL.c **** *
 706:Generated_Source\PSoC4/CapSense_CSHL.c **** * Side Effects:
 707:Generated_Source\PSoC4/CapSense_CSHL.c **** *  None
 708:Generated_Source\PSoC4/CapSense_CSHL.c **** *
 709:Generated_Source\PSoC4/CapSense_CSHL.c **** *******************************************************************************/
 710:Generated_Source\PSoC4/CapSense_CSHL.c **** uint16 CapSense_GetBaselineData(uint32 sensor)
 711:Generated_Source\PSoC4/CapSense_CSHL.c **** {
 905              		.loc 1 711 0
 906              		.cfi_startproc
 907 0000 80B5     		push	{r7, lr}
 908              		.cfi_def_cfa_offset 8
 909              		.cfi_offset 7, -8
 910              		.cfi_offset 14, -4
 911 0002 82B0     		sub	sp, sp, #8
 912              		.cfi_def_cfa_offset 16
 913 0004 00AF     		add	r7, sp, #0
 914              		.cfi_def_cfa_register 7
 915 0006 7860     		str	r0, [r7, #4]
 712:Generated_Source\PSoC4/CapSense_CSHL.c ****     return (CapSense_sensorBaseline[sensor]);
 916              		.loc 1 712 0
 917 0008 034B     		ldr	r3, .L47
 918 000a 7A68     		ldr	r2, [r7, #4]
 919 000c 5200     		lsl	r2, r2, #1
ARM GAS  C:\Users\poornima\AppData\Local\Temp\ccCVn41A.s 			page 30


 920 000e D35A     		ldrh	r3, [r2, r3]
 713:Generated_Source\PSoC4/CapSense_CSHL.c **** }
 921              		.loc 1 713 0
 922 0010 181C     		mov	r0, r3
 923 0012 BD46     		mov	sp, r7
 924 0014 02B0     		add	sp, sp, #8
 925              		@ sp needed
 926 0016 80BD     		pop	{r7, pc}
 927              	.L48:
 928              		.align	2
 929              	.L47:
 930 0018 00000000 		.word	CapSense_sensorBaseline
 931              		.cfi_endproc
 932              	.LFE43:
 933              		.size	CapSense_GetBaselineData, .-CapSense_GetBaselineData
 934              		.section	.text.CapSense_SetBaselineData,"ax",%progbits
 935              		.align	2
 936              		.global	CapSense_SetBaselineData
 937              		.code	16
 938              		.thumb_func
 939              		.type	CapSense_SetBaselineData, %function
 940              	CapSense_SetBaselineData:
 941              	.LFB44:
 714:Generated_Source\PSoC4/CapSense_CSHL.c **** 
 715:Generated_Source\PSoC4/CapSense_CSHL.c **** 
 716:Generated_Source\PSoC4/CapSense_CSHL.c **** /*******************************************************************************
 717:Generated_Source\PSoC4/CapSense_CSHL.c **** * Function Name: CapSense_SetBaselineData
 718:Generated_Source\PSoC4/CapSense_CSHL.c **** ********************************************************************************
 719:Generated_Source\PSoC4/CapSense_CSHL.c **** *
 720:Generated_Source\PSoC4/CapSense_CSHL.c **** * Summary:
 721:Generated_Source\PSoC4/CapSense_CSHL.c **** *  This API writes the data value passed as an argument to the sensor baseline array.
 722:Generated_Source\PSoC4/CapSense_CSHL.c **** *
 723:Generated_Source\PSoC4/CapSense_CSHL.c **** * Parameters:
 724:Generated_Source\PSoC4/CapSense_CSHL.c **** *  sensor:  Sensor number.
 725:Generated_Source\PSoC4/CapSense_CSHL.c **** *  data:    Sensor baseline.
 726:Generated_Source\PSoC4/CapSense_CSHL.c **** *
 727:Generated_Source\PSoC4/CapSense_CSHL.c **** * Return:
 728:Generated_Source\PSoC4/CapSense_CSHL.c **** *  None.
 729:Generated_Source\PSoC4/CapSense_CSHL.c **** *
 730:Generated_Source\PSoC4/CapSense_CSHL.c **** * Global Variables:
 731:Generated_Source\PSoC4/CapSense_CSHL.c **** *  CapSense_sensorBaseline[] - the array with initial values by scanning
 732:Generated_Source\PSoC4/CapSense_CSHL.c **** *
 733:Generated_Source\PSoC4/CapSense_CSHL.c **** * Side Effects:
 734:Generated_Source\PSoC4/CapSense_CSHL.c **** *  None
 735:Generated_Source\PSoC4/CapSense_CSHL.c **** *
 736:Generated_Source\PSoC4/CapSense_CSHL.c **** *******************************************************************************/
 737:Generated_Source\PSoC4/CapSense_CSHL.c **** void CapSense_SetBaselineData(uint32 sensor, uint16 data)
 738:Generated_Source\PSoC4/CapSense_CSHL.c **** {
 942              		.loc 1 738 0
 943              		.cfi_startproc
 944 0000 80B5     		push	{r7, lr}
 945              		.cfi_def_cfa_offset 8
 946              		.cfi_offset 7, -8
 947              		.cfi_offset 14, -4
 948 0002 82B0     		sub	sp, sp, #8
 949              		.cfi_def_cfa_offset 16
 950 0004 00AF     		add	r7, sp, #0
ARM GAS  C:\Users\poornima\AppData\Local\Temp\ccCVn41A.s 			page 31


 951              		.cfi_def_cfa_register 7
 952 0006 7860     		str	r0, [r7, #4]
 953 0008 0A1C     		mov	r2, r1
 954 000a BB1C     		add	r3, r7, #2
 955 000c 1A80     		strh	r2, [r3]
 739:Generated_Source\PSoC4/CapSense_CSHL.c ****     CapSense_sensorBaseline[sensor] = data;
 956              		.loc 1 739 0
 957 000e 044B     		ldr	r3, .L50
 958 0010 7A68     		ldr	r2, [r7, #4]
 959 0012 5200     		lsl	r2, r2, #1
 960 0014 B91C     		add	r1, r7, #2
 961 0016 0988     		ldrh	r1, [r1]
 962 0018 D152     		strh	r1, [r2, r3]
 740:Generated_Source\PSoC4/CapSense_CSHL.c **** }
 963              		.loc 1 740 0
 964 001a BD46     		mov	sp, r7
 965 001c 02B0     		add	sp, sp, #8
 966              		@ sp needed
 967 001e 80BD     		pop	{r7, pc}
 968              	.L51:
 969              		.align	2
 970              	.L50:
 971 0020 00000000 		.word	CapSense_sensorBaseline
 972              		.cfi_endproc
 973              	.LFE44:
 974              		.size	CapSense_SetBaselineData, .-CapSense_SetBaselineData
 975              		.section	.text.CapSense_GetDiffCountData,"ax",%progbits
 976              		.align	2
 977              		.global	CapSense_GetDiffCountData
 978              		.code	16
 979              		.thumb_func
 980              		.type	CapSense_GetDiffCountData, %function
 981              	CapSense_GetDiffCountData:
 982              	.LFB45:
 741:Generated_Source\PSoC4/CapSense_CSHL.c **** 
 742:Generated_Source\PSoC4/CapSense_CSHL.c **** 
 743:Generated_Source\PSoC4/CapSense_CSHL.c **** /*******************************************************************************
 744:Generated_Source\PSoC4/CapSense_CSHL.c **** * Function Name: CapSense_GetDiffCountData
 745:Generated_Source\PSoC4/CapSense_CSHL.c **** ********************************************************************************
 746:Generated_Source\PSoC4/CapSense_CSHL.c **** *
 747:Generated_Source\PSoC4/CapSense_CSHL.c **** * Summary:
 748:Generated_Source\PSoC4/CapSense_CSHL.c **** *  This function returns the Sensor Signal from the component.
 749:Generated_Source\PSoC4/CapSense_CSHL.c **** *
 750:Generated_Source\PSoC4/CapSense_CSHL.c **** * Parameters:
 751:Generated_Source\PSoC4/CapSense_CSHL.c **** *  sensor:  Sensor number.
 752:Generated_Source\PSoC4/CapSense_CSHL.c **** *
 753:Generated_Source\PSoC4/CapSense_CSHL.c **** * Return:
 754:Generated_Source\PSoC4/CapSense_CSHL.c **** *  This API returns the difference count value of the sensor indicated by the
 755:Generated_Source\PSoC4/CapSense_CSHL.c **** *  argument.
 756:Generated_Source\PSoC4/CapSense_CSHL.c **** *
 757:Generated_Source\PSoC4/CapSense_CSHL.c **** * Global Variables:
 758:Generated_Source\PSoC4/CapSense_CSHL.c **** *  CapSense_sensorSignal[] - the array with difference counts for sensors
 759:Generated_Source\PSoC4/CapSense_CSHL.c **** *
 760:Generated_Source\PSoC4/CapSense_CSHL.c **** * Side Effects:
 761:Generated_Source\PSoC4/CapSense_CSHL.c **** *  None
 762:Generated_Source\PSoC4/CapSense_CSHL.c **** *
 763:Generated_Source\PSoC4/CapSense_CSHL.c **** *******************************************************************************/
ARM GAS  C:\Users\poornima\AppData\Local\Temp\ccCVn41A.s 			page 32


 764:Generated_Source\PSoC4/CapSense_CSHL.c **** uint8 CapSense_GetDiffCountData(uint32 sensor)
 765:Generated_Source\PSoC4/CapSense_CSHL.c **** {
 983              		.loc 1 765 0
 984              		.cfi_startproc
 985 0000 80B5     		push	{r7, lr}
 986              		.cfi_def_cfa_offset 8
 987              		.cfi_offset 7, -8
 988              		.cfi_offset 14, -4
 989 0002 82B0     		sub	sp, sp, #8
 990              		.cfi_def_cfa_offset 16
 991 0004 00AF     		add	r7, sp, #0
 992              		.cfi_def_cfa_register 7
 993 0006 7860     		str	r0, [r7, #4]
 766:Generated_Source\PSoC4/CapSense_CSHL.c ****     return (CapSense_sensorSignal[sensor]);
 994              		.loc 1 766 0
 995 0008 034A     		ldr	r2, .L54
 996 000a 7B68     		ldr	r3, [r7, #4]
 997 000c D318     		add	r3, r2, r3
 998 000e 1B78     		ldrb	r3, [r3]
 767:Generated_Source\PSoC4/CapSense_CSHL.c **** }
 999              		.loc 1 767 0
 1000 0010 181C     		mov	r0, r3
 1001 0012 BD46     		mov	sp, r7
 1002 0014 02B0     		add	sp, sp, #8
 1003              		@ sp needed
 1004 0016 80BD     		pop	{r7, pc}
 1005              	.L55:
 1006              		.align	2
 1007              	.L54:
 1008 0018 00000000 		.word	CapSense_sensorSignal
 1009              		.cfi_endproc
 1010              	.LFE45:
 1011              		.size	CapSense_GetDiffCountData, .-CapSense_GetDiffCountData
 1012              		.section	.text.CapSense_SetDiffCountData,"ax",%progbits
 1013              		.align	2
 1014              		.global	CapSense_SetDiffCountData
 1015              		.code	16
 1016              		.thumb_func
 1017              		.type	CapSense_SetDiffCountData, %function
 1018              	CapSense_SetDiffCountData:
 1019              	.LFB46:
 768:Generated_Source\PSoC4/CapSense_CSHL.c **** 
 769:Generated_Source\PSoC4/CapSense_CSHL.c **** 
 770:Generated_Source\PSoC4/CapSense_CSHL.c **** /*******************************************************************************
 771:Generated_Source\PSoC4/CapSense_CSHL.c **** * Function Name: CapSense_SetDiffCountData
 772:Generated_Source\PSoC4/CapSense_CSHL.c **** ********************************************************************************
 773:Generated_Source\PSoC4/CapSense_CSHL.c **** *
 774:Generated_Source\PSoC4/CapSense_CSHL.c **** * Summary:
 775:Generated_Source\PSoC4/CapSense_CSHL.c **** *  This API writes the data value passed as an argument to the sensor signal array.
 776:Generated_Source\PSoC4/CapSense_CSHL.c **** *
 777:Generated_Source\PSoC4/CapSense_CSHL.c **** * Parameters:
 778:Generated_Source\PSoC4/CapSense_CSHL.c **** *  sensor:  Sensor number.
 779:Generated_Source\PSoC4/CapSense_CSHL.c **** *  value:   Sensor signal.
 780:Generated_Source\PSoC4/CapSense_CSHL.c **** *
 781:Generated_Source\PSoC4/CapSense_CSHL.c **** * Return:
 782:Generated_Source\PSoC4/CapSense_CSHL.c **** *  None.
 783:Generated_Source\PSoC4/CapSense_CSHL.c **** *
ARM GAS  C:\Users\poornima\AppData\Local\Temp\ccCVn41A.s 			page 33


 784:Generated_Source\PSoC4/CapSense_CSHL.c **** * Global Variables:
 785:Generated_Source\PSoC4/CapSense_CSHL.c **** *  CapSense_sensorSignal[] - the array with difference counts for sensors
 786:Generated_Source\PSoC4/CapSense_CSHL.c **** *
 787:Generated_Source\PSoC4/CapSense_CSHL.c **** * Side Effects:
 788:Generated_Source\PSoC4/CapSense_CSHL.c **** *  None
 789:Generated_Source\PSoC4/CapSense_CSHL.c **** *
 790:Generated_Source\PSoC4/CapSense_CSHL.c **** *******************************************************************************/
 791:Generated_Source\PSoC4/CapSense_CSHL.c **** void CapSense_SetDiffCountData(uint32 sensor, uint8 value)
 792:Generated_Source\PSoC4/CapSense_CSHL.c **** {
 1020              		.loc 1 792 0
 1021              		.cfi_startproc
 1022 0000 80B5     		push	{r7, lr}
 1023              		.cfi_def_cfa_offset 8
 1024              		.cfi_offset 7, -8
 1025              		.cfi_offset 14, -4
 1026 0002 82B0     		sub	sp, sp, #8
 1027              		.cfi_def_cfa_offset 16
 1028 0004 00AF     		add	r7, sp, #0
 1029              		.cfi_def_cfa_register 7
 1030 0006 7860     		str	r0, [r7, #4]
 1031 0008 0A1C     		mov	r2, r1
 1032 000a FB1C     		add	r3, r7, #3
 1033 000c 1A70     		strb	r2, [r3]
 793:Generated_Source\PSoC4/CapSense_CSHL.c ****     CapSense_sensorSignal[sensor] = value;
 1034              		.loc 1 793 0
 1035 000e 044A     		ldr	r2, .L57
 1036 0010 7B68     		ldr	r3, [r7, #4]
 1037 0012 D318     		add	r3, r2, r3
 1038 0014 FA1C     		add	r2, r7, #3
 1039 0016 1278     		ldrb	r2, [r2]
 1040 0018 1A70     		strb	r2, [r3]
 794:Generated_Source\PSoC4/CapSense_CSHL.c **** }
 1041              		.loc 1 794 0
 1042 001a BD46     		mov	sp, r7
 1043 001c 02B0     		add	sp, sp, #8
 1044              		@ sp needed
 1045 001e 80BD     		pop	{r7, pc}
 1046              	.L58:
 1047              		.align	2
 1048              	.L57:
 1049 0020 00000000 		.word	CapSense_sensorSignal
 1050              		.cfi_endproc
 1051              	.LFE46:
 1052              		.size	CapSense_SetDiffCountData, .-CapSense_SetDiffCountData
 1053              		.section	.text.CapSense_GetFingerThreshold,"ax",%progbits
 1054              		.align	2
 1055              		.global	CapSense_GetFingerThreshold
 1056              		.code	16
 1057              		.thumb_func
 1058              		.type	CapSense_GetFingerThreshold, %function
 1059              	CapSense_GetFingerThreshold:
 1060              	.LFB47:
 795:Generated_Source\PSoC4/CapSense_CSHL.c **** 
 796:Generated_Source\PSoC4/CapSense_CSHL.c **** 
 797:Generated_Source\PSoC4/CapSense_CSHL.c **** /*******************************************************************************
 798:Generated_Source\PSoC4/CapSense_CSHL.c **** * Function Name: CapSense_GetFingerThreshold
 799:Generated_Source\PSoC4/CapSense_CSHL.c **** ********************************************************************************
ARM GAS  C:\Users\poornima\AppData\Local\Temp\ccCVn41A.s 			page 34


 800:Generated_Source\PSoC4/CapSense_CSHL.c **** *
 801:Generated_Source\PSoC4/CapSense_CSHL.c **** * Summary:
 802:Generated_Source\PSoC4/CapSense_CSHL.c **** *  This function reads the finger threshold from the component.
 803:Generated_Source\PSoC4/CapSense_CSHL.c **** *
 804:Generated_Source\PSoC4/CapSense_CSHL.c **** * Parameters:
 805:Generated_Source\PSoC4/CapSense_CSHL.c **** *  widget:  widget number.
 806:Generated_Source\PSoC4/CapSense_CSHL.c **** *
 807:Generated_Source\PSoC4/CapSense_CSHL.c **** * Return:
 808:Generated_Source\PSoC4/CapSense_CSHL.c **** *  This API returns the finger threshold of the widget indicated by the argument.
 809:Generated_Source\PSoC4/CapSense_CSHL.c **** *
 810:Generated_Source\PSoC4/CapSense_CSHL.c **** * Global Variables:
 811:Generated_Source\PSoC4/CapSense_CSHL.c **** *  CapSense_fingerThreshold[] - This array contains the level of signal
 812:Generated_Source\PSoC4/CapSense_CSHL.c **** *  for each widget that is determined if a finger is present on the widget.
 813:Generated_Source\PSoC4/CapSense_CSHL.c **** *
 814:Generated_Source\PSoC4/CapSense_CSHL.c **** * Side Effects:
 815:Generated_Source\PSoC4/CapSense_CSHL.c **** *  None
 816:Generated_Source\PSoC4/CapSense_CSHL.c **** *
 817:Generated_Source\PSoC4/CapSense_CSHL.c **** *******************************************************************************/
 818:Generated_Source\PSoC4/CapSense_CSHL.c **** uint8 CapSense_GetFingerThreshold(uint32 widget)
 819:Generated_Source\PSoC4/CapSense_CSHL.c **** {
 1061              		.loc 1 819 0
 1062              		.cfi_startproc
 1063 0000 80B5     		push	{r7, lr}
 1064              		.cfi_def_cfa_offset 8
 1065              		.cfi_offset 7, -8
 1066              		.cfi_offset 14, -4
 1067 0002 82B0     		sub	sp, sp, #8
 1068              		.cfi_def_cfa_offset 16
 1069 0004 00AF     		add	r7, sp, #0
 1070              		.cfi_def_cfa_register 7
 1071 0006 7860     		str	r0, [r7, #4]
 820:Generated_Source\PSoC4/CapSense_CSHL.c ****     return(CapSense_fingerThreshold[widget]);
 1072              		.loc 1 820 0
 1073 0008 034A     		ldr	r2, .L61
 1074 000a 7B68     		ldr	r3, [r7, #4]
 1075 000c D318     		add	r3, r2, r3
 1076 000e 1B78     		ldrb	r3, [r3]
 821:Generated_Source\PSoC4/CapSense_CSHL.c **** }
 1077              		.loc 1 821 0
 1078 0010 181C     		mov	r0, r3
 1079 0012 BD46     		mov	sp, r7
 1080 0014 02B0     		add	sp, sp, #8
 1081              		@ sp needed
 1082 0016 80BD     		pop	{r7, pc}
 1083              	.L62:
 1084              		.align	2
 1085              	.L61:
 1086 0018 00000000 		.word	CapSense_fingerThreshold
 1087              		.cfi_endproc
 1088              	.LFE47:
 1089              		.size	CapSense_GetFingerThreshold, .-CapSense_GetFingerThreshold
 1090              		.section	.text.CapSense_GetNoiseThreshold,"ax",%progbits
 1091              		.align	2
 1092              		.global	CapSense_GetNoiseThreshold
 1093              		.code	16
 1094              		.thumb_func
 1095              		.type	CapSense_GetNoiseThreshold, %function
ARM GAS  C:\Users\poornima\AppData\Local\Temp\ccCVn41A.s 			page 35


 1096              	CapSense_GetNoiseThreshold:
 1097              	.LFB48:
 822:Generated_Source\PSoC4/CapSense_CSHL.c **** 
 823:Generated_Source\PSoC4/CapSense_CSHL.c **** 
 824:Generated_Source\PSoC4/CapSense_CSHL.c **** /*******************************************************************************
 825:Generated_Source\PSoC4/CapSense_CSHL.c **** * Function Name: CapSense_GetNoiseThreshold
 826:Generated_Source\PSoC4/CapSense_CSHL.c **** ********************************************************************************
 827:Generated_Source\PSoC4/CapSense_CSHL.c **** *
 828:Generated_Source\PSoC4/CapSense_CSHL.c **** * Summary:
 829:Generated_Source\PSoC4/CapSense_CSHL.c **** *  This function reads the noise threshold from the component.
 830:Generated_Source\PSoC4/CapSense_CSHL.c **** *
 831:Generated_Source\PSoC4/CapSense_CSHL.c **** * Parameters:
 832:Generated_Source\PSoC4/CapSense_CSHL.c **** *  widget:  widget number.
 833:Generated_Source\PSoC4/CapSense_CSHL.c **** *
 834:Generated_Source\PSoC4/CapSense_CSHL.c **** * Return:
 835:Generated_Source\PSoC4/CapSense_CSHL.c **** *  This API returns the noise threshold of the widget indicated by the argument.
 836:Generated_Source\PSoC4/CapSense_CSHL.c **** *
 837:Generated_Source\PSoC4/CapSense_CSHL.c **** * Global Variables:
 838:Generated_Source\PSoC4/CapSense_CSHL.c **** *  CapSense_noiseThreshold[] - This array contains the level of signal
 839:Generated_Source\PSoC4/CapSense_CSHL.c **** *  for each widget that determines the level of noise in the capacitive scan.
 840:Generated_Source\PSoC4/CapSense_CSHL.c **** *
 841:Generated_Source\PSoC4/CapSense_CSHL.c **** * Side Effects:
 842:Generated_Source\PSoC4/CapSense_CSHL.c **** *  None
 843:Generated_Source\PSoC4/CapSense_CSHL.c **** *
 844:Generated_Source\PSoC4/CapSense_CSHL.c **** *******************************************************************************/
 845:Generated_Source\PSoC4/CapSense_CSHL.c **** uint8 CapSense_GetNoiseThreshold(uint32 widget)
 846:Generated_Source\PSoC4/CapSense_CSHL.c **** {
 1098              		.loc 1 846 0
 1099              		.cfi_startproc
 1100 0000 80B5     		push	{r7, lr}
 1101              		.cfi_def_cfa_offset 8
 1102              		.cfi_offset 7, -8
 1103              		.cfi_offset 14, -4
 1104 0002 82B0     		sub	sp, sp, #8
 1105              		.cfi_def_cfa_offset 16
 1106 0004 00AF     		add	r7, sp, #0
 1107              		.cfi_def_cfa_register 7
 1108 0006 7860     		str	r0, [r7, #4]
 847:Generated_Source\PSoC4/CapSense_CSHL.c ****     return (CapSense_noiseThreshold[widget]);
 1109              		.loc 1 847 0
 1110 0008 034A     		ldr	r2, .L65
 1111 000a 7B68     		ldr	r3, [r7, #4]
 1112 000c D318     		add	r3, r2, r3
 1113 000e 1B78     		ldrb	r3, [r3]
 848:Generated_Source\PSoC4/CapSense_CSHL.c **** }
 1114              		.loc 1 848 0
 1115 0010 181C     		mov	r0, r3
 1116 0012 BD46     		mov	sp, r7
 1117 0014 02B0     		add	sp, sp, #8
 1118              		@ sp needed
 1119 0016 80BD     		pop	{r7, pc}
 1120              	.L66:
 1121              		.align	2
 1122              	.L65:
 1123 0018 00000000 		.word	CapSense_noiseThreshold
 1124              		.cfi_endproc
 1125              	.LFE48:
ARM GAS  C:\Users\poornima\AppData\Local\Temp\ccCVn41A.s 			page 36


 1126              		.size	CapSense_GetNoiseThreshold, .-CapSense_GetNoiseThreshold
 1127              		.section	.text.CapSense_GetFingerHysteresis,"ax",%progbits
 1128              		.align	2
 1129              		.global	CapSense_GetFingerHysteresis
 1130              		.code	16
 1131              		.thumb_func
 1132              		.type	CapSense_GetFingerHysteresis, %function
 1133              	CapSense_GetFingerHysteresis:
 1134              	.LFB49:
 849:Generated_Source\PSoC4/CapSense_CSHL.c **** 
 850:Generated_Source\PSoC4/CapSense_CSHL.c **** 
 851:Generated_Source\PSoC4/CapSense_CSHL.c **** /*******************************************************************************
 852:Generated_Source\PSoC4/CapSense_CSHL.c **** * Function Name: CapSense_GetFingerHysteresis
 853:Generated_Source\PSoC4/CapSense_CSHL.c **** ********************************************************************************
 854:Generated_Source\PSoC4/CapSense_CSHL.c **** *
 855:Generated_Source\PSoC4/CapSense_CSHL.c **** * Summary:
 856:Generated_Source\PSoC4/CapSense_CSHL.c **** *  This function reads the Hysteresis value from the component.
 857:Generated_Source\PSoC4/CapSense_CSHL.c **** *
 858:Generated_Source\PSoC4/CapSense_CSHL.c **** * Parameters:
 859:Generated_Source\PSoC4/CapSense_CSHL.c **** *  widget:  widget number.
 860:Generated_Source\PSoC4/CapSense_CSHL.c **** *
 861:Generated_Source\PSoC4/CapSense_CSHL.c **** * Return:
 862:Generated_Source\PSoC4/CapSense_CSHL.c **** *  This API returns the Hysteresis of the widget indicated by the argument.
 863:Generated_Source\PSoC4/CapSense_CSHL.c **** *
 864:Generated_Source\PSoC4/CapSense_CSHL.c **** * Global Variables:
 865:Generated_Source\PSoC4/CapSense_CSHL.c **** *  CapSense_hysteresis[] - This array contains the hysteresis value
 866:Generated_Source\PSoC4/CapSense_CSHL.c **** *   for each widget.
 867:Generated_Source\PSoC4/CapSense_CSHL.c **** *  CapSense_widgetNumberSld - structure with dynamic sliders' parameters.
 868:Generated_Source\PSoC4/CapSense_CSHL.c **** *
 869:Generated_Source\PSoC4/CapSense_CSHL.c **** * Side Effects:
 870:Generated_Source\PSoC4/CapSense_CSHL.c **** *  None
 871:Generated_Source\PSoC4/CapSense_CSHL.c **** *
 872:Generated_Source\PSoC4/CapSense_CSHL.c **** *******************************************************************************/
 873:Generated_Source\PSoC4/CapSense_CSHL.c **** uint8 CapSense_GetFingerHysteresis(uint32 widget)
 874:Generated_Source\PSoC4/CapSense_CSHL.c **** {
 1135              		.loc 1 874 0
 1136              		.cfi_startproc
 1137 0000 80B5     		push	{r7, lr}
 1138              		.cfi_def_cfa_offset 8
 1139              		.cfi_offset 7, -8
 1140              		.cfi_offset 14, -4
 1141 0002 82B0     		sub	sp, sp, #8
 1142              		.cfi_def_cfa_offset 16
 1143 0004 00AF     		add	r7, sp, #0
 1144              		.cfi_def_cfa_register 7
 1145 0006 7860     		str	r0, [r7, #4]
 875:Generated_Source\PSoC4/CapSense_CSHL.c ****     return(CapSense_hysteresis[widget]);
 1146              		.loc 1 875 0
 1147 0008 034A     		ldr	r2, .L69
 1148 000a 7B68     		ldr	r3, [r7, #4]
 1149 000c D318     		add	r3, r2, r3
 1150 000e 1B78     		ldrb	r3, [r3]
 876:Generated_Source\PSoC4/CapSense_CSHL.c **** }
 1151              		.loc 1 876 0
 1152 0010 181C     		mov	r0, r3
 1153 0012 BD46     		mov	sp, r7
 1154 0014 02B0     		add	sp, sp, #8
ARM GAS  C:\Users\poornima\AppData\Local\Temp\ccCVn41A.s 			page 37


 1155              		@ sp needed
 1156 0016 80BD     		pop	{r7, pc}
 1157              	.L70:
 1158              		.align	2
 1159              	.L69:
 1160 0018 00000000 		.word	CapSense_hysteresis
 1161              		.cfi_endproc
 1162              	.LFE49:
 1163              		.size	CapSense_GetFingerHysteresis, .-CapSense_GetFingerHysteresis
 1164              		.section	.text.CapSense_GetNegativeNoiseThreshold,"ax",%progbits
 1165              		.align	2
 1166              		.global	CapSense_GetNegativeNoiseThreshold
 1167              		.code	16
 1168              		.thumb_func
 1169              		.type	CapSense_GetNegativeNoiseThreshold, %function
 1170              	CapSense_GetNegativeNoiseThreshold:
 1171              	.LFB50:
 877:Generated_Source\PSoC4/CapSense_CSHL.c **** 
 878:Generated_Source\PSoC4/CapSense_CSHL.c **** 
 879:Generated_Source\PSoC4/CapSense_CSHL.c **** /*******************************************************************************
 880:Generated_Source\PSoC4/CapSense_CSHL.c **** * Function Name: CapSense_GetNegativeNoiseThreshold
 881:Generated_Source\PSoC4/CapSense_CSHL.c **** ********************************************************************************
 882:Generated_Source\PSoC4/CapSense_CSHL.c **** *
 883:Generated_Source\PSoC4/CapSense_CSHL.c **** * Summary:
 884:Generated_Source\PSoC4/CapSense_CSHL.c **** *  This function reads the negative noise threshold from the component.
 885:Generated_Source\PSoC4/CapSense_CSHL.c **** *
 886:Generated_Source\PSoC4/CapSense_CSHL.c **** * Parameters:
 887:Generated_Source\PSoC4/CapSense_CSHL.c **** *  None.
 888:Generated_Source\PSoC4/CapSense_CSHL.c **** *
 889:Generated_Source\PSoC4/CapSense_CSHL.c **** * Return Value:
 890:Generated_Source\PSoC4/CapSense_CSHL.c **** *  This API returns the negative noise threshold
 891:Generated_Source\PSoC4/CapSense_CSHL.c **** *
 892:Generated_Source\PSoC4/CapSense_CSHL.c **** * Global Variables:
 893:Generated_Source\PSoC4/CapSense_CSHL.c **** *  CapSense_negativeNoiseThreshold - This variable specifies the negative
 894:Generated_Source\PSoC4/CapSense_CSHL.c **** *   difference between the raw count and baseline levels for Baseline resetting
 895:Generated_Source\PSoC4/CapSense_CSHL.c **** *   to the raw count level.
 896:Generated_Source\PSoC4/CapSense_CSHL.c **** *
 897:Generated_Source\PSoC4/CapSense_CSHL.c **** * Side Effects:
 898:Generated_Source\PSoC4/CapSense_CSHL.c **** *  None
 899:Generated_Source\PSoC4/CapSense_CSHL.c **** *
 900:Generated_Source\PSoC4/CapSense_CSHL.c **** *******************************************************************************/
 901:Generated_Source\PSoC4/CapSense_CSHL.c **** uint8 CapSense_GetNegativeNoiseThreshold(uint32 widget)
 902:Generated_Source\PSoC4/CapSense_CSHL.c **** {
 1172              		.loc 1 902 0
 1173              		.cfi_startproc
 1174 0000 80B5     		push	{r7, lr}
 1175              		.cfi_def_cfa_offset 8
 1176              		.cfi_offset 7, -8
 1177              		.cfi_offset 14, -4
 1178 0002 82B0     		sub	sp, sp, #8
 1179              		.cfi_def_cfa_offset 16
 1180 0004 00AF     		add	r7, sp, #0
 1181              		.cfi_def_cfa_register 7
 1182 0006 7860     		str	r0, [r7, #4]
 903:Generated_Source\PSoC4/CapSense_CSHL.c **** #if (CapSense_TUNING_METHOD != CapSense__TUNING_NONE)
 904:Generated_Source\PSoC4/CapSense_CSHL.c ****     return(CapSense_negativeNoiseThreshold[widget]);
 1183              		.loc 1 904 0
ARM GAS  C:\Users\poornima\AppData\Local\Temp\ccCVn41A.s 			page 38


 1184 0008 034A     		ldr	r2, .L73
 1185 000a 7B68     		ldr	r3, [r7, #4]
 1186 000c D318     		add	r3, r2, r3
 1187 000e 1B78     		ldrb	r3, [r3]
 905:Generated_Source\PSoC4/CapSense_CSHL.c **** #else
 906:Generated_Source\PSoC4/CapSense_CSHL.c ****     return(CapSense_NEGATIVE_NOISE_THRESHOLD);
 907:Generated_Source\PSoC4/CapSense_CSHL.c **** #endif /* (CapSense_TUNING_METHOD != CapSense__TUNING_NONE) */
 908:Generated_Source\PSoC4/CapSense_CSHL.c **** }
 1188              		.loc 1 908 0
 1189 0010 181C     		mov	r0, r3
 1190 0012 BD46     		mov	sp, r7
 1191 0014 02B0     		add	sp, sp, #8
 1192              		@ sp needed
 1193 0016 80BD     		pop	{r7, pc}
 1194              	.L74:
 1195              		.align	2
 1196              	.L73:
 1197 0018 00000000 		.word	CapSense_negativeNoiseThreshold
 1198              		.cfi_endproc
 1199              	.LFE50:
 1200              		.size	CapSense_GetNegativeNoiseThreshold, .-CapSense_GetNegativeNoiseThreshold
 1201              		.section	.text.CapSense_SetFingerThreshold,"ax",%progbits
 1202              		.align	2
 1203              		.global	CapSense_SetFingerThreshold
 1204              		.code	16
 1205              		.thumb_func
 1206              		.type	CapSense_SetFingerThreshold, %function
 1207              	CapSense_SetFingerThreshold:
 1208              	.LFB51:
 909:Generated_Source\PSoC4/CapSense_CSHL.c **** 
 910:Generated_Source\PSoC4/CapSense_CSHL.c **** 
 911:Generated_Source\PSoC4/CapSense_CSHL.c **** #if(CapSense_TUNING_METHOD != CapSense__TUNING_NONE)
 912:Generated_Source\PSoC4/CapSense_CSHL.c ****     /*******************************************************************************
 913:Generated_Source\PSoC4/CapSense_CSHL.c ****     * Function Name: CapSense_SetFingerThreshold
 914:Generated_Source\PSoC4/CapSense_CSHL.c ****     ********************************************************************************
 915:Generated_Source\PSoC4/CapSense_CSHL.c ****     *
 916:Generated_Source\PSoC4/CapSense_CSHL.c ****     * Summary:
 917:Generated_Source\PSoC4/CapSense_CSHL.c ****     *  This API sets the finger threshold value for a widget.
 918:Generated_Source\PSoC4/CapSense_CSHL.c ****     *
 919:Generated_Source\PSoC4/CapSense_CSHL.c ****     * Parameters:
 920:Generated_Source\PSoC4/CapSense_CSHL.c ****     *  sensorNumber:  widget index.
 921:Generated_Source\PSoC4/CapSense_CSHL.c ****     *  value:  Finger threshold value for the widget.
 922:Generated_Source\PSoC4/CapSense_CSHL.c ****     *
 923:Generated_Source\PSoC4/CapSense_CSHL.c ****     * Return Value:
 924:Generated_Source\PSoC4/CapSense_CSHL.c ****     *  None
 925:Generated_Source\PSoC4/CapSense_CSHL.c ****     *
 926:Generated_Source\PSoC4/CapSense_CSHL.c ****     * Global Variables:
 927:Generated_Source\PSoC4/CapSense_CSHL.c ****     *  CapSense_fingerThreshold[] - This array contains the level of signal
 928:Generated_Source\PSoC4/CapSense_CSHL.c ****     *   for each widget that determines if a finger is present on the widget.
 929:Generated_Source\PSoC4/CapSense_CSHL.c ****     *
 930:Generated_Source\PSoC4/CapSense_CSHL.c ****     * Side Effects:
 931:Generated_Source\PSoC4/CapSense_CSHL.c ****     *  None
 932:Generated_Source\PSoC4/CapSense_CSHL.c ****     *
 933:Generated_Source\PSoC4/CapSense_CSHL.c ****     *******************************************************************************/
 934:Generated_Source\PSoC4/CapSense_CSHL.c ****     void CapSense_SetFingerThreshold(uint32 widget, uint8 value)
 935:Generated_Source\PSoC4/CapSense_CSHL.c ****     {
 1209              		.loc 1 935 0
ARM GAS  C:\Users\poornima\AppData\Local\Temp\ccCVn41A.s 			page 39


 1210              		.cfi_startproc
 1211 0000 80B5     		push	{r7, lr}
 1212              		.cfi_def_cfa_offset 8
 1213              		.cfi_offset 7, -8
 1214              		.cfi_offset 14, -4
 1215 0002 82B0     		sub	sp, sp, #8
 1216              		.cfi_def_cfa_offset 16
 1217 0004 00AF     		add	r7, sp, #0
 1218              		.cfi_def_cfa_register 7
 1219 0006 7860     		str	r0, [r7, #4]
 1220 0008 0A1C     		mov	r2, r1
 1221 000a FB1C     		add	r3, r7, #3
 1222 000c 1A70     		strb	r2, [r3]
 936:Generated_Source\PSoC4/CapSense_CSHL.c ****         CapSense_fingerThreshold[widget] = value;
 1223              		.loc 1 936 0
 1224 000e 044A     		ldr	r2, .L76
 1225 0010 7B68     		ldr	r3, [r7, #4]
 1226 0012 D318     		add	r3, r2, r3
 1227 0014 FA1C     		add	r2, r7, #3
 1228 0016 1278     		ldrb	r2, [r2]
 1229 0018 1A70     		strb	r2, [r3]
 937:Generated_Source\PSoC4/CapSense_CSHL.c ****     }
 1230              		.loc 1 937 0
 1231 001a BD46     		mov	sp, r7
 1232 001c 02B0     		add	sp, sp, #8
 1233              		@ sp needed
 1234 001e 80BD     		pop	{r7, pc}
 1235              	.L77:
 1236              		.align	2
 1237              	.L76:
 1238 0020 00000000 		.word	CapSense_fingerThreshold
 1239              		.cfi_endproc
 1240              	.LFE51:
 1241              		.size	CapSense_SetFingerThreshold, .-CapSense_SetFingerThreshold
 1242              		.section	.text.CapSense_SetNoiseThreshold,"ax",%progbits
 1243              		.align	2
 1244              		.global	CapSense_SetNoiseThreshold
 1245              		.code	16
 1246              		.thumb_func
 1247              		.type	CapSense_SetNoiseThreshold, %function
 1248              	CapSense_SetNoiseThreshold:
 1249              	.LFB52:
 938:Generated_Source\PSoC4/CapSense_CSHL.c **** 
 939:Generated_Source\PSoC4/CapSense_CSHL.c **** 
 940:Generated_Source\PSoC4/CapSense_CSHL.c ****     /*******************************************************************************
 941:Generated_Source\PSoC4/CapSense_CSHL.c ****     * Function Name: CapSense_SetNoiseThreshold
 942:Generated_Source\PSoC4/CapSense_CSHL.c ****     ********************************************************************************
 943:Generated_Source\PSoC4/CapSense_CSHL.c ****     *
 944:Generated_Source\PSoC4/CapSense_CSHL.c ****     * Summary:
 945:Generated_Source\PSoC4/CapSense_CSHL.c ****     *  This API sets the Noise Threshold value for each widget.
 946:Generated_Source\PSoC4/CapSense_CSHL.c ****     *
 947:Generated_Source\PSoC4/CapSense_CSHL.c ****     * Parameters:
 948:Generated_Source\PSoC4/CapSense_CSHL.c ****     *  widget:  Sensor index number.
 949:Generated_Source\PSoC4/CapSense_CSHL.c ****     *  value:   Noise Threshold value for widget.
 950:Generated_Source\PSoC4/CapSense_CSHL.c ****     *
 951:Generated_Source\PSoC4/CapSense_CSHL.c ****     * Return Value:
 952:Generated_Source\PSoC4/CapSense_CSHL.c ****     *  None
ARM GAS  C:\Users\poornima\AppData\Local\Temp\ccCVn41A.s 			page 40


 953:Generated_Source\PSoC4/CapSense_CSHL.c ****     *
 954:Generated_Source\PSoC4/CapSense_CSHL.c ****     * Global Variables:
 955:Generated_Source\PSoC4/CapSense_CSHL.c ****     *  CapSense_noiseThreshold[] - This array contains the level of signal
 956:Generated_Source\PSoC4/CapSense_CSHL.c ****     *   for each widget that determines the level of noise in the capacitive scan.
 957:Generated_Source\PSoC4/CapSense_CSHL.c ****     *
 958:Generated_Source\PSoC4/CapSense_CSHL.c ****     * Side Effects:
 959:Generated_Source\PSoC4/CapSense_CSHL.c ****     *  None
 960:Generated_Source\PSoC4/CapSense_CSHL.c ****     *
 961:Generated_Source\PSoC4/CapSense_CSHL.c ****     *******************************************************************************/
 962:Generated_Source\PSoC4/CapSense_CSHL.c ****     void CapSense_SetNoiseThreshold(uint32 widget, uint8 value)
 963:Generated_Source\PSoC4/CapSense_CSHL.c ****     {
 1250              		.loc 1 963 0
 1251              		.cfi_startproc
 1252 0000 80B5     		push	{r7, lr}
 1253              		.cfi_def_cfa_offset 8
 1254              		.cfi_offset 7, -8
 1255              		.cfi_offset 14, -4
 1256 0002 82B0     		sub	sp, sp, #8
 1257              		.cfi_def_cfa_offset 16
 1258 0004 00AF     		add	r7, sp, #0
 1259              		.cfi_def_cfa_register 7
 1260 0006 7860     		str	r0, [r7, #4]
 1261 0008 0A1C     		mov	r2, r1
 1262 000a FB1C     		add	r3, r7, #3
 1263 000c 1A70     		strb	r2, [r3]
 964:Generated_Source\PSoC4/CapSense_CSHL.c ****         CapSense_noiseThreshold[widget] = value;
 1264              		.loc 1 964 0
 1265 000e 044A     		ldr	r2, .L79
 1266 0010 7B68     		ldr	r3, [r7, #4]
 1267 0012 D318     		add	r3, r2, r3
 1268 0014 FA1C     		add	r2, r7, #3
 1269 0016 1278     		ldrb	r2, [r2]
 1270 0018 1A70     		strb	r2, [r3]
 965:Generated_Source\PSoC4/CapSense_CSHL.c ****     }
 1271              		.loc 1 965 0
 1272 001a BD46     		mov	sp, r7
 1273 001c 02B0     		add	sp, sp, #8
 1274              		@ sp needed
 1275 001e 80BD     		pop	{r7, pc}
 1276              	.L80:
 1277              		.align	2
 1278              	.L79:
 1279 0020 00000000 		.word	CapSense_noiseThreshold
 1280              		.cfi_endproc
 1281              	.LFE52:
 1282              		.size	CapSense_SetNoiseThreshold, .-CapSense_SetNoiseThreshold
 1283              		.section	.text.CapSense_SetFingerHysteresis,"ax",%progbits
 1284              		.align	2
 1285              		.global	CapSense_SetFingerHysteresis
 1286              		.code	16
 1287              		.thumb_func
 1288              		.type	CapSense_SetFingerHysteresis, %function
 1289              	CapSense_SetFingerHysteresis:
 1290              	.LFB53:
 966:Generated_Source\PSoC4/CapSense_CSHL.c **** 
 967:Generated_Source\PSoC4/CapSense_CSHL.c **** 
 968:Generated_Source\PSoC4/CapSense_CSHL.c ****     /*******************************************************************************
ARM GAS  C:\Users\poornima\AppData\Local\Temp\ccCVn41A.s 			page 41


 969:Generated_Source\PSoC4/CapSense_CSHL.c ****     * Function Name: CapSense_SetFingerHysteresis
 970:Generated_Source\PSoC4/CapSense_CSHL.c ****     ********************************************************************************
 971:Generated_Source\PSoC4/CapSense_CSHL.c ****     *
 972:Generated_Source\PSoC4/CapSense_CSHL.c ****     * Summary:
 973:Generated_Source\PSoC4/CapSense_CSHL.c ****     *  This API sets the Hysteresis value of a widget
 974:Generated_Source\PSoC4/CapSense_CSHL.c ****     *
 975:Generated_Source\PSoC4/CapSense_CSHL.c ****     * Parameters:
 976:Generated_Source\PSoC4/CapSense_CSHL.c ****     *  value:  Hysteresis value for widgets.
 977:Generated_Source\PSoC4/CapSense_CSHL.c ****     *  widget:  widget number
 978:Generated_Source\PSoC4/CapSense_CSHL.c ****     *
 979:Generated_Source\PSoC4/CapSense_CSHL.c ****     * Return Value:
 980:Generated_Source\PSoC4/CapSense_CSHL.c ****     *  None
 981:Generated_Source\PSoC4/CapSense_CSHL.c ****     *
 982:Generated_Source\PSoC4/CapSense_CSHL.c ****     * Global Variables:
 983:Generated_Source\PSoC4/CapSense_CSHL.c ****     *  CapSense_hysteresis[] - This array contains the hysteresis value for each widget.
 984:Generated_Source\PSoC4/CapSense_CSHL.c ****     *  CapSense_widgetNumberSld - structure with dynamic sliders' parameters.
 985:Generated_Source\PSoC4/CapSense_CSHL.c ****     *
 986:Generated_Source\PSoC4/CapSense_CSHL.c ****     * Side Effects:
 987:Generated_Source\PSoC4/CapSense_CSHL.c ****     *  None
 988:Generated_Source\PSoC4/CapSense_CSHL.c ****     *
 989:Generated_Source\PSoC4/CapSense_CSHL.c ****     *******************************************************************************/
 990:Generated_Source\PSoC4/CapSense_CSHL.c ****     void CapSense_SetFingerHysteresis(uint32 widget, uint8 value)
 991:Generated_Source\PSoC4/CapSense_CSHL.c ****     {
 1291              		.loc 1 991 0
 1292              		.cfi_startproc
 1293 0000 80B5     		push	{r7, lr}
 1294              		.cfi_def_cfa_offset 8
 1295              		.cfi_offset 7, -8
 1296              		.cfi_offset 14, -4
 1297 0002 82B0     		sub	sp, sp, #8
 1298              		.cfi_def_cfa_offset 16
 1299 0004 00AF     		add	r7, sp, #0
 1300              		.cfi_def_cfa_register 7
 1301 0006 7860     		str	r0, [r7, #4]
 1302 0008 0A1C     		mov	r2, r1
 1303 000a FB1C     		add	r3, r7, #3
 1304 000c 1A70     		strb	r2, [r3]
 992:Generated_Source\PSoC4/CapSense_CSHL.c ****         CapSense_hysteresis[widget] = value;
 1305              		.loc 1 992 0
 1306 000e 044A     		ldr	r2, .L82
 1307 0010 7B68     		ldr	r3, [r7, #4]
 1308 0012 D318     		add	r3, r2, r3
 1309 0014 FA1C     		add	r2, r7, #3
 1310 0016 1278     		ldrb	r2, [r2]
 1311 0018 1A70     		strb	r2, [r3]
 993:Generated_Source\PSoC4/CapSense_CSHL.c ****     }
 1312              		.loc 1 993 0
 1313 001a BD46     		mov	sp, r7
 1314 001c 02B0     		add	sp, sp, #8
 1315              		@ sp needed
 1316 001e 80BD     		pop	{r7, pc}
 1317              	.L83:
 1318              		.align	2
 1319              	.L82:
 1320 0020 00000000 		.word	CapSense_hysteresis
 1321              		.cfi_endproc
 1322              	.LFE53:
ARM GAS  C:\Users\poornima\AppData\Local\Temp\ccCVn41A.s 			page 42


 1323              		.size	CapSense_SetFingerHysteresis, .-CapSense_SetFingerHysteresis
 1324              		.section	.text.CapSense_SetNegativeNoiseThreshold,"ax",%progbits
 1325              		.align	2
 1326              		.global	CapSense_SetNegativeNoiseThreshold
 1327              		.code	16
 1328              		.thumb_func
 1329              		.type	CapSense_SetNegativeNoiseThreshold, %function
 1330              	CapSense_SetNegativeNoiseThreshold:
 1331              	.LFB54:
 994:Generated_Source\PSoC4/CapSense_CSHL.c **** 
 995:Generated_Source\PSoC4/CapSense_CSHL.c **** 
 996:Generated_Source\PSoC4/CapSense_CSHL.c ****     /*******************************************************************************
 997:Generated_Source\PSoC4/CapSense_CSHL.c ****     * Function Name: CapSense_SetNegativeNoiseThreshold
 998:Generated_Source\PSoC4/CapSense_CSHL.c ****     ********************************************************************************
 999:Generated_Source\PSoC4/CapSense_CSHL.c ****     *
1000:Generated_Source\PSoC4/CapSense_CSHL.c ****     * Summary:
1001:Generated_Source\PSoC4/CapSense_CSHL.c ****     *  This API sets the Negative Noise Threshold value of a widget
1002:Generated_Source\PSoC4/CapSense_CSHL.c ****     *
1003:Generated_Source\PSoC4/CapSense_CSHL.c ****     * Parameters:
1004:Generated_Source\PSoC4/CapSense_CSHL.c ****     *  value:  Negative Noise Threshold value for widgets.
1005:Generated_Source\PSoC4/CapSense_CSHL.c ****     *  widget: widget number
1006:Generated_Source\PSoC4/CapSense_CSHL.c ****     *
1007:Generated_Source\PSoC4/CapSense_CSHL.c ****     * Return Value:
1008:Generated_Source\PSoC4/CapSense_CSHL.c ****     *  None
1009:Generated_Source\PSoC4/CapSense_CSHL.c ****     *
1010:Generated_Source\PSoC4/CapSense_CSHL.c ****     * Global Variables:
1011:Generated_Source\PSoC4/CapSense_CSHL.c ****     *  CapSense_negativeNoiseThreshold  - This parameter specifies the negative
1012:Generated_Source\PSoC4/CapSense_CSHL.c ****     *   difference between the raw count and baseline levels for Baseline resetting to
1013:Generated_Source\PSoC4/CapSense_CSHL.c ****     *   the raw count level.
1014:Generated_Source\PSoC4/CapSense_CSHL.c ****     *
1015:Generated_Source\PSoC4/CapSense_CSHL.c ****     * Side Effects:
1016:Generated_Source\PSoC4/CapSense_CSHL.c ****     *  None
1017:Generated_Source\PSoC4/CapSense_CSHL.c ****     *
1018:Generated_Source\PSoC4/CapSense_CSHL.c ****     *******************************************************************************/
1019:Generated_Source\PSoC4/CapSense_CSHL.c ****     void CapSense_SetNegativeNoiseThreshold(uint32 widget, uint8 value)
1020:Generated_Source\PSoC4/CapSense_CSHL.c ****     {
 1332              		.loc 1 1020 0
 1333              		.cfi_startproc
 1334 0000 80B5     		push	{r7, lr}
 1335              		.cfi_def_cfa_offset 8
 1336              		.cfi_offset 7, -8
 1337              		.cfi_offset 14, -4
 1338 0002 82B0     		sub	sp, sp, #8
 1339              		.cfi_def_cfa_offset 16
 1340 0004 00AF     		add	r7, sp, #0
 1341              		.cfi_def_cfa_register 7
 1342 0006 7860     		str	r0, [r7, #4]
 1343 0008 0A1C     		mov	r2, r1
 1344 000a FB1C     		add	r3, r7, #3
 1345 000c 1A70     		strb	r2, [r3]
1021:Generated_Source\PSoC4/CapSense_CSHL.c ****         CapSense_negativeNoiseThreshold[widget] = value;
 1346              		.loc 1 1021 0
 1347 000e 044A     		ldr	r2, .L85
 1348 0010 7B68     		ldr	r3, [r7, #4]
 1349 0012 D318     		add	r3, r2, r3
 1350 0014 FA1C     		add	r2, r7, #3
 1351 0016 1278     		ldrb	r2, [r2]
ARM GAS  C:\Users\poornima\AppData\Local\Temp\ccCVn41A.s 			page 43


 1352 0018 1A70     		strb	r2, [r3]
1022:Generated_Source\PSoC4/CapSense_CSHL.c ****     }
 1353              		.loc 1 1022 0
 1354 001a BD46     		mov	sp, r7
 1355 001c 02B0     		add	sp, sp, #8
 1356              		@ sp needed
 1357 001e 80BD     		pop	{r7, pc}
 1358              	.L86:
 1359              		.align	2
 1360              	.L85:
 1361 0020 00000000 		.word	CapSense_negativeNoiseThreshold
 1362              		.cfi_endproc
 1363              	.LFE54:
 1364              		.size	CapSense_SetNegativeNoiseThreshold, .-CapSense_SetNegativeNoiseThreshold
 1365              		.section	.text.CapSense_SetDebounce,"ax",%progbits
 1366              		.align	2
 1367              		.global	CapSense_SetDebounce
 1368              		.code	16
 1369              		.thumb_func
 1370              		.type	CapSense_SetDebounce, %function
 1371              	CapSense_SetDebounce:
 1372              	.LFB55:
1023:Generated_Source\PSoC4/CapSense_CSHL.c **** 
1024:Generated_Source\PSoC4/CapSense_CSHL.c **** 
1025:Generated_Source\PSoC4/CapSense_CSHL.c ****     /*******************************************************************************
1026:Generated_Source\PSoC4/CapSense_CSHL.c ****     * Function Name: CapSense_SetDebounce
1027:Generated_Source\PSoC4/CapSense_CSHL.c ****     ********************************************************************************
1028:Generated_Source\PSoC4/CapSense_CSHL.c ****     *
1029:Generated_Source\PSoC4/CapSense_CSHL.c ****     * Summary:
1030:Generated_Source\PSoC4/CapSense_CSHL.c ****     *  This API sets the debounce value for a widget.
1031:Generated_Source\PSoC4/CapSense_CSHL.c ****     *
1032:Generated_Source\PSoC4/CapSense_CSHL.c ****     * Parameters:
1033:Generated_Source\PSoC4/CapSense_CSHL.c ****     *  value:  Debounce value for widget.
1034:Generated_Source\PSoC4/CapSense_CSHL.c ****     *  widget: widget index.
1035:Generated_Source\PSoC4/CapSense_CSHL.c ****     *
1036:Generated_Source\PSoC4/CapSense_CSHL.c ****     * Return Value:
1037:Generated_Source\PSoC4/CapSense_CSHL.c ****     *  None
1038:Generated_Source\PSoC4/CapSense_CSHL.c ****     *
1039:Generated_Source\PSoC4/CapSense_CSHL.c ****     * Global Variables:
1040:Generated_Source\PSoC4/CapSense_CSHL.c ****     *  CapSense_debounce[] - This array contains the debounce value for each widget.
1041:Generated_Source\PSoC4/CapSense_CSHL.c ****     *  CapSense_widgetNumberSld - structure with dynamic sliders' parameters.
1042:Generated_Source\PSoC4/CapSense_CSHL.c ****     *
1043:Generated_Source\PSoC4/CapSense_CSHL.c ****     * Side Effects:
1044:Generated_Source\PSoC4/CapSense_CSHL.c ****     *  None
1045:Generated_Source\PSoC4/CapSense_CSHL.c ****     *
1046:Generated_Source\PSoC4/CapSense_CSHL.c ****     *******************************************************************************/
1047:Generated_Source\PSoC4/CapSense_CSHL.c ****     void CapSense_SetDebounce(uint32 widget, uint8 value)
1048:Generated_Source\PSoC4/CapSense_CSHL.c ****     {
 1373              		.loc 1 1048 0
 1374              		.cfi_startproc
 1375 0000 80B5     		push	{r7, lr}
 1376              		.cfi_def_cfa_offset 8
 1377              		.cfi_offset 7, -8
 1378              		.cfi_offset 14, -4
 1379 0002 82B0     		sub	sp, sp, #8
 1380              		.cfi_def_cfa_offset 16
 1381 0004 00AF     		add	r7, sp, #0
ARM GAS  C:\Users\poornima\AppData\Local\Temp\ccCVn41A.s 			page 44


 1382              		.cfi_def_cfa_register 7
 1383 0006 7860     		str	r0, [r7, #4]
 1384 0008 0A1C     		mov	r2, r1
 1385 000a FB1C     		add	r3, r7, #3
 1386 000c 1A70     		strb	r2, [r3]
1049:Generated_Source\PSoC4/CapSense_CSHL.c ****         CapSense_debounce[widget] = value;
 1387              		.loc 1 1049 0
 1388 000e 044A     		ldr	r2, .L88
 1389 0010 7B68     		ldr	r3, [r7, #4]
 1390 0012 D318     		add	r3, r2, r3
 1391 0014 FA1C     		add	r2, r7, #3
 1392 0016 1278     		ldrb	r2, [r2]
 1393 0018 1A70     		strb	r2, [r3]
1050:Generated_Source\PSoC4/CapSense_CSHL.c ****     }
 1394              		.loc 1 1050 0
 1395 001a BD46     		mov	sp, r7
 1396 001c 02B0     		add	sp, sp, #8
 1397              		@ sp needed
 1398 001e 80BD     		pop	{r7, pc}
 1399              	.L89:
 1400              		.align	2
 1401              	.L88:
 1402 0020 00000000 		.word	CapSense_debounce
 1403              		.cfi_endproc
 1404              	.LFE55:
 1405              		.size	CapSense_SetDebounce, .-CapSense_SetDebounce
 1406              		.section	.text.CapSense_SetLowBaselineReset,"ax",%progbits
 1407              		.align	2
 1408              		.global	CapSense_SetLowBaselineReset
 1409              		.code	16
 1410              		.thumb_func
 1411              		.type	CapSense_SetLowBaselineReset, %function
 1412              	CapSense_SetLowBaselineReset:
 1413              	.LFB56:
1051:Generated_Source\PSoC4/CapSense_CSHL.c **** 
1052:Generated_Source\PSoC4/CapSense_CSHL.c **** 
1053:Generated_Source\PSoC4/CapSense_CSHL.c ****     /*******************************************************************************
1054:Generated_Source\PSoC4/CapSense_CSHL.c ****     * Function Name: CapSense_SetLowBaselineReset
1055:Generated_Source\PSoC4/CapSense_CSHL.c ****     ********************************************************************************
1056:Generated_Source\PSoC4/CapSense_CSHL.c ****     *
1057:Generated_Source\PSoC4/CapSense_CSHL.c ****     * Summary:
1058:Generated_Source\PSoC4/CapSense_CSHL.c ****     *  This API sets the low baseline reset threshold value for the sensor.
1059:Generated_Source\PSoC4/CapSense_CSHL.c ****     *
1060:Generated_Source\PSoC4/CapSense_CSHL.c ****     * Parameters:
1061:Generated_Source\PSoC4/CapSense_CSHL.c ****     *  value: low baseline reset threshold value.
1062:Generated_Source\PSoC4/CapSense_CSHL.c ****     *  sensor: Sensor index.
1063:Generated_Source\PSoC4/CapSense_CSHL.c ****     *
1064:Generated_Source\PSoC4/CapSense_CSHL.c ****     * Return Value:
1065:Generated_Source\PSoC4/CapSense_CSHL.c ****     *  None
1066:Generated_Source\PSoC4/CapSense_CSHL.c ****     *
1067:Generated_Source\PSoC4/CapSense_CSHL.c ****     * Global Variables:
1068:Generated_Source\PSoC4/CapSense_CSHL.c ****     *  CapSense_lowBaselineReset[] - This array contains the Baseline update
1069:Generated_Source\PSoC4/CapSense_CSHL.c ****     *  threshold value for each sensor.
1070:Generated_Source\PSoC4/CapSense_CSHL.c ****     *
1071:Generated_Source\PSoC4/CapSense_CSHL.c ****     * Side Effects:
1072:Generated_Source\PSoC4/CapSense_CSHL.c ****     *  None
1073:Generated_Source\PSoC4/CapSense_CSHL.c ****     *
ARM GAS  C:\Users\poornima\AppData\Local\Temp\ccCVn41A.s 			page 45


1074:Generated_Source\PSoC4/CapSense_CSHL.c ****     *******************************************************************************/
1075:Generated_Source\PSoC4/CapSense_CSHL.c ****     void CapSense_SetLowBaselineReset(uint32 sensor, uint8 value)
1076:Generated_Source\PSoC4/CapSense_CSHL.c ****     {
 1414              		.loc 1 1076 0
 1415              		.cfi_startproc
 1416 0000 80B5     		push	{r7, lr}
 1417              		.cfi_def_cfa_offset 8
 1418              		.cfi_offset 7, -8
 1419              		.cfi_offset 14, -4
 1420 0002 82B0     		sub	sp, sp, #8
 1421              		.cfi_def_cfa_offset 16
 1422 0004 00AF     		add	r7, sp, #0
 1423              		.cfi_def_cfa_register 7
 1424 0006 7860     		str	r0, [r7, #4]
 1425 0008 0A1C     		mov	r2, r1
 1426 000a FB1C     		add	r3, r7, #3
 1427 000c 1A70     		strb	r2, [r3]
1077:Generated_Source\PSoC4/CapSense_CSHL.c ****         CapSense_lowBaselineReset[sensor] = value;
 1428              		.loc 1 1077 0
 1429 000e 044A     		ldr	r2, .L91
 1430 0010 7B68     		ldr	r3, [r7, #4]
 1431 0012 D318     		add	r3, r2, r3
 1432 0014 FA1C     		add	r2, r7, #3
 1433 0016 1278     		ldrb	r2, [r2]
 1434 0018 1A70     		strb	r2, [r3]
1078:Generated_Source\PSoC4/CapSense_CSHL.c ****     }
 1435              		.loc 1 1078 0
 1436 001a BD46     		mov	sp, r7
 1437 001c 02B0     		add	sp, sp, #8
 1438              		@ sp needed
 1439 001e 80BD     		pop	{r7, pc}
 1440              	.L92:
 1441              		.align	2
 1442              	.L91:
 1443 0020 00000000 		.word	CapSense_lowBaselineReset
 1444              		.cfi_endproc
 1445              	.LFE56:
 1446              		.size	CapSense_SetLowBaselineReset, .-CapSense_SetLowBaselineReset
 1447              		.section	.text.CapSense_CheckIsSensorActive,"ax",%progbits
 1448              		.align	2
 1449              		.global	CapSense_CheckIsSensorActive
 1450              		.code	16
 1451              		.thumb_func
 1452              		.type	CapSense_CheckIsSensorActive, %function
 1453              	CapSense_CheckIsSensorActive:
 1454              	.LFB57:
1079:Generated_Source\PSoC4/CapSense_CSHL.c **** #endif /* (CapSense_TUNING_METHOD != CapSense__TUNING_NONE) */
1080:Generated_Source\PSoC4/CapSense_CSHL.c **** 
1081:Generated_Source\PSoC4/CapSense_CSHL.c **** 
1082:Generated_Source\PSoC4/CapSense_CSHL.c **** /*******************************************************************************
1083:Generated_Source\PSoC4/CapSense_CSHL.c **** * Function Name: CapSense_CheckIsSensorActive
1084:Generated_Source\PSoC4/CapSense_CSHL.c **** ********************************************************************************
1085:Generated_Source\PSoC4/CapSense_CSHL.c **** *
1086:Generated_Source\PSoC4/CapSense_CSHL.c **** * Summary:
1087:Generated_Source\PSoC4/CapSense_CSHL.c **** *  Compares the CapSense_sensorSignal[sensor] array element to the finger
1088:Generated_Source\PSoC4/CapSense_CSHL.c **** *  threshold of the widget it belongs to. The hysteresis and debounce are taken into
1089:Generated_Source\PSoC4/CapSense_CSHL.c **** *  account. The hysteresis is added or subtracted from the finger threshold
ARM GAS  C:\Users\poornima\AppData\Local\Temp\ccCVn41A.s 			page 46


1090:Generated_Source\PSoC4/CapSense_CSHL.c **** *  based on whether the sensor is currently active.
1091:Generated_Source\PSoC4/CapSense_CSHL.c **** *  If the sensor is active, the threshold is lowered by the hysteresis amount.
1092:Generated_Source\PSoC4/CapSense_CSHL.c **** *  If the sensor is inactive, the threshold is raised by the hysteresis amount.
1093:Generated_Source\PSoC4/CapSense_CSHL.c **** *  The debounce counter is added to the sensor active transition.
1094:Generated_Source\PSoC4/CapSense_CSHL.c **** *  This function updates the CapSense_sensorOnMask[] array element.
1095:Generated_Source\PSoC4/CapSense_CSHL.c **** *
1096:Generated_Source\PSoC4/CapSense_CSHL.c **** * Parameters:
1097:Generated_Source\PSoC4/CapSense_CSHL.c **** *  sensor:  Sensor number.
1098:Generated_Source\PSoC4/CapSense_CSHL.c **** *
1099:Generated_Source\PSoC4/CapSense_CSHL.c **** * Return:
1100:Generated_Source\PSoC4/CapSense_CSHL.c **** *  Returns sensor state 1 if active, 0 if not active.
1101:Generated_Source\PSoC4/CapSense_CSHL.c **** *
1102:Generated_Source\PSoC4/CapSense_CSHL.c **** * Global Variables:
1103:Generated_Source\PSoC4/CapSense_CSHL.c **** *  CapSense_sensorSignal[] - used to store the difference between
1104:Generated_Source\PSoC4/CapSense_CSHL.c **** *  the current value of raw data and a previous value of the baseline.
1105:Generated_Source\PSoC4/CapSense_CSHL.c **** *  CapSense_debounceCounter[]   - used to store the current debounce
1106:Generated_Source\PSoC4/CapSense_CSHL.c **** *  counter of the sensor. the widget which have this parameter are buttons, matrix
1107:Generated_Source\PSoC4/CapSense_CSHL.c **** *  buttons, proximity, and guard. All other widgets don't have the  debounce parameter
1108:Generated_Source\PSoC4/CapSense_CSHL.c **** *  and use the last element of this array with value 0 (it means no debounce).
1109:Generated_Source\PSoC4/CapSense_CSHL.c **** *  CapSense_sensorOnMask[] - used to store the sensors on/off state.
1110:Generated_Source\PSoC4/CapSense_CSHL.c **** *  CapSense_sensorOnMask[0] contains the masked bits for sensors
1111:Generated_Source\PSoC4/CapSense_CSHL.c **** *   0 through 7 (sensor 0 is bit 0, sensor 1 is bit 1).
1112:Generated_Source\PSoC4/CapSense_CSHL.c **** *  CapSense_sensorEnableMask[1] contains the masked bits for
1113:Generated_Source\PSoC4/CapSense_CSHL.c **** *  sensors 8 through 15 (if needed), and so on.
1114:Generated_Source\PSoC4/CapSense_CSHL.c **** *  0 - sensor is inactive.
1115:Generated_Source\PSoC4/CapSense_CSHL.c **** *  1 - sensor is active.
1116:Generated_Source\PSoC4/CapSense_CSHL.c **** *
1117:Generated_Source\PSoC4/CapSense_CSHL.c **** * Side Effects:
1118:Generated_Source\PSoC4/CapSense_CSHL.c **** *  None
1119:Generated_Source\PSoC4/CapSense_CSHL.c **** *
1120:Generated_Source\PSoC4/CapSense_CSHL.c **** *******************************************************************************/
1121:Generated_Source\PSoC4/CapSense_CSHL.c **** uint32 CapSense_CheckIsSensorActive(uint32 sensor)
1122:Generated_Source\PSoC4/CapSense_CSHL.c **** {
 1455              		.loc 1 1122 0
 1456              		.cfi_startproc
 1457 0000 80B5     		push	{r7, lr}
 1458              		.cfi_def_cfa_offset 8
 1459              		.cfi_offset 7, -8
 1460              		.cfi_offset 14, -4
 1461 0002 84B0     		sub	sp, sp, #16
 1462              		.cfi_def_cfa_offset 24
 1463 0004 00AF     		add	r7, sp, #0
 1464              		.cfi_def_cfa_register 7
 1465 0006 7860     		str	r0, [r7, #4]
1123:Generated_Source\PSoC4/CapSense_CSHL.c ****     uint8 widget;
1124:Generated_Source\PSoC4/CapSense_CSHL.c ****     uint8 debounce;
1125:Generated_Source\PSoC4/CapSense_CSHL.c ****     uint8 debounceIndex;
1126:Generated_Source\PSoC4/CapSense_CSHL.c **** 
1127:Generated_Source\PSoC4/CapSense_CSHL.c ****     uint8 fingerThreshold;
1128:Generated_Source\PSoC4/CapSense_CSHL.c ****     uint8 hysteresis;
1129:Generated_Source\PSoC4/CapSense_CSHL.c ****     
1130:Generated_Source\PSoC4/CapSense_CSHL.c **** 
1131:Generated_Source\PSoC4/CapSense_CSHL.c ****     /* Prepare to find debounce counter index */
1132:Generated_Source\PSoC4/CapSense_CSHL.c ****     widget = CapSense_widgetNumber[sensor];
 1466              		.loc 1 1132 0
 1467 0008 0E23     		mov	r3, #14
 1468 000a FB18     		add	r3, r7, r3
ARM GAS  C:\Users\poornima\AppData\Local\Temp\ccCVn41A.s 			page 47


 1469 000c 4B49     		ldr	r1, .L104
 1470 000e 7A68     		ldr	r2, [r7, #4]
 1471 0010 8A18     		add	r2, r1, r2
 1472 0012 1278     		ldrb	r2, [r2]
 1473 0014 1A70     		strb	r2, [r3]
1133:Generated_Source\PSoC4/CapSense_CSHL.c **** 
1134:Generated_Source\PSoC4/CapSense_CSHL.c ****     fingerThreshold = CapSense_fingerThreshold[widget];
 1474              		.loc 1 1134 0
 1475 0016 0E23     		mov	r3, #14
 1476 0018 FB18     		add	r3, r7, r3
 1477 001a 1A78     		ldrb	r2, [r3]
 1478 001c 0D23     		mov	r3, #13
 1479 001e FB18     		add	r3, r7, r3
 1480 0020 4749     		ldr	r1, .L104+4
 1481 0022 8A5C     		ldrb	r2, [r1, r2]
 1482 0024 1A70     		strb	r2, [r3]
1135:Generated_Source\PSoC4/CapSense_CSHL.c ****     hysteresis = CapSense_hysteresis[widget];
 1483              		.loc 1 1135 0
 1484 0026 0E23     		mov	r3, #14
 1485 0028 FB18     		add	r3, r7, r3
 1486 002a 1A78     		ldrb	r2, [r3]
 1487 002c 0C23     		mov	r3, #12
 1488 002e FB18     		add	r3, r7, r3
 1489 0030 4449     		ldr	r1, .L104+8
 1490 0032 8A5C     		ldrb	r2, [r1, r2]
 1491 0034 1A70     		strb	r2, [r3]
1136:Generated_Source\PSoC4/CapSense_CSHL.c ****     debounce = CapSense_debounce[widget];
 1492              		.loc 1 1136 0
 1493 0036 0E23     		mov	r3, #14
 1494 0038 FB18     		add	r3, r7, r3
 1495 003a 1A78     		ldrb	r2, [r3]
 1496 003c 0B23     		mov	r3, #11
 1497 003e FB18     		add	r3, r7, r3
 1498 0040 4149     		ldr	r1, .L104+12
 1499 0042 8A5C     		ldrb	r2, [r1, r2]
 1500 0044 1A70     		strb	r2, [r3]
1137:Generated_Source\PSoC4/CapSense_CSHL.c **** 
1138:Generated_Source\PSoC4/CapSense_CSHL.c ****         if (widget < CapSense_TOTAL_CENTROIDS_COUNT)
 1501              		.loc 1 1138 0
 1502 0046 0E23     		mov	r3, #14
 1503 0048 FB18     		add	r3, r7, r3
 1504 004a 1B78     		ldrb	r3, [r3]
 1505 004c 002B     		cmp	r3, #0
 1506 004e 0AD1     		bne	.L94
1139:Generated_Source\PSoC4/CapSense_CSHL.c ****     {
1140:Generated_Source\PSoC4/CapSense_CSHL.c ****         debounceIndex = CapSense_UNUSED_DEBOUNCE_COUNTER_INDEX;
 1507              		.loc 1 1140 0
 1508 0050 0F23     		mov	r3, #15
 1509 0052 FB18     		add	r3, r7, r3
 1510 0054 0422     		mov	r2, #4
 1511 0056 1A70     		strb	r2, [r3]
1141:Generated_Source\PSoC4/CapSense_CSHL.c ****         CapSense_debounceCounter[debounceIndex] = 1u;
 1512              		.loc 1 1141 0
 1513 0058 0F23     		mov	r3, #15
 1514 005a FB18     		add	r3, r7, r3
 1515 005c 1B78     		ldrb	r3, [r3]
 1516 005e 3B4A     		ldr	r2, .L104+16
ARM GAS  C:\Users\poornima\AppData\Local\Temp\ccCVn41A.s 			page 48


 1517 0060 0121     		mov	r1, #1
 1518 0062 D154     		strb	r1, [r2, r3]
 1519 0064 06E0     		b	.L95
 1520              	.L94:
1142:Generated_Source\PSoC4/CapSense_CSHL.c ****     }
1143:Generated_Source\PSoC4/CapSense_CSHL.c ****     else
1144:Generated_Source\PSoC4/CapSense_CSHL.c ****     {
1145:Generated_Source\PSoC4/CapSense_CSHL.c ****         debounceIndex = widget - (CapSense_END_OF_TOUCH_PAD_INDEX + 1u);
 1521              		.loc 1 1145 0
 1522 0066 0F23     		mov	r3, #15
 1523 0068 FB18     		add	r3, r7, r3
 1524 006a 0E22     		mov	r2, #14
 1525 006c BA18     		add	r2, r7, r2
 1526 006e 1278     		ldrb	r2, [r2]
 1527 0070 013A     		sub	r2, r2, #1
 1528 0072 1A70     		strb	r2, [r3]
 1529              	.L95:
1146:Generated_Source\PSoC4/CapSense_CSHL.c ****     }
1147:Generated_Source\PSoC4/CapSense_CSHL.c **** 
1148:Generated_Source\PSoC4/CapSense_CSHL.c **** 
1149:Generated_Source\PSoC4/CapSense_CSHL.c ****     /* Was on */
1150:Generated_Source\PSoC4/CapSense_CSHL.c ****     if (0u != CapSense_GetBitValue(CapSense_sensorOnMask, sensor))
 1530              		.loc 1 1150 0
 1531 0074 364A     		ldr	r2, .L104+20
 1532 0076 7B68     		ldr	r3, [r7, #4]
 1533 0078 101C     		mov	r0, r2
 1534 007a 191C     		mov	r1, r3
 1535 007c FFF7FEFF 		bl	CapSense_GetBitValue
 1536 0080 031E     		sub	r3, r0, #0
 1537 0082 1DD0     		beq	.L96
1151:Generated_Source\PSoC4/CapSense_CSHL.c ****     {
1152:Generated_Source\PSoC4/CapSense_CSHL.c ****         /* Hysteresis minus */
1153:Generated_Source\PSoC4/CapSense_CSHL.c ****         if (CapSense_sensorSignal[sensor] < (fingerThreshold - hysteresis))
 1538              		.loc 1 1153 0
 1539 0084 334A     		ldr	r2, .L104+24
 1540 0086 7B68     		ldr	r3, [r7, #4]
 1541 0088 D318     		add	r3, r2, r3
 1542 008a 1B78     		ldrb	r3, [r3]
 1543 008c 191C     		mov	r1, r3
 1544 008e 0D23     		mov	r3, #13
 1545 0090 FB18     		add	r3, r7, r3
 1546 0092 1A78     		ldrb	r2, [r3]
 1547 0094 0C23     		mov	r3, #12
 1548 0096 FB18     		add	r3, r7, r3
 1549 0098 1B78     		ldrb	r3, [r3]
 1550 009a D31A     		sub	r3, r2, r3
 1551 009c 9942     		cmp	r1, r3
 1552 009e 3DDA     		bge	.L98
1154:Generated_Source\PSoC4/CapSense_CSHL.c ****         {
1155:Generated_Source\PSoC4/CapSense_CSHL.c ****             CapSense_SetBitValue(CapSense_sensorOnMask, sensor, 0u);
 1553              		.loc 1 1155 0
 1554 00a0 2B4A     		ldr	r2, .L104+20
 1555 00a2 7B68     		ldr	r3, [r7, #4]
 1556 00a4 101C     		mov	r0, r2
 1557 00a6 191C     		mov	r1, r3
 1558 00a8 0022     		mov	r2, #0
 1559 00aa FFF7FEFF 		bl	CapSense_SetBitValue
ARM GAS  C:\Users\poornima\AppData\Local\Temp\ccCVn41A.s 			page 49


1156:Generated_Source\PSoC4/CapSense_CSHL.c ****             /* Sensor inactive - reset Debounce counter */
1157:Generated_Source\PSoC4/CapSense_CSHL.c ****             CapSense_debounceCounter[debounceIndex] = debounce;
 1560              		.loc 1 1157 0
 1561 00ae 0F23     		mov	r3, #15
 1562 00b0 FB18     		add	r3, r7, r3
 1563 00b2 1B78     		ldrb	r3, [r3]
 1564 00b4 254A     		ldr	r2, .L104+16
 1565 00b6 0B21     		mov	r1, #11
 1566 00b8 7918     		add	r1, r7, r1
 1567 00ba 0978     		ldrb	r1, [r1]
 1568 00bc D154     		strb	r1, [r2, r3]
 1569 00be 2DE0     		b	.L98
 1570              	.L96:
1158:Generated_Source\PSoC4/CapSense_CSHL.c ****         }
1159:Generated_Source\PSoC4/CapSense_CSHL.c ****     }
1160:Generated_Source\PSoC4/CapSense_CSHL.c ****     else    /* Was off */
1161:Generated_Source\PSoC4/CapSense_CSHL.c ****     {
1162:Generated_Source\PSoC4/CapSense_CSHL.c ****         /* Hysteresis plus */
1163:Generated_Source\PSoC4/CapSense_CSHL.c ****         if (CapSense_sensorSignal[sensor] >= (fingerThreshold + hysteresis))
 1571              		.loc 1 1163 0
 1572 00c0 244A     		ldr	r2, .L104+24
 1573 00c2 7B68     		ldr	r3, [r7, #4]
 1574 00c4 D318     		add	r3, r2, r3
 1575 00c6 1B78     		ldrb	r3, [r3]
 1576 00c8 191C     		mov	r1, r3
 1577 00ca 0D23     		mov	r3, #13
 1578 00cc FB18     		add	r3, r7, r3
 1579 00ce 1A78     		ldrb	r2, [r3]
 1580 00d0 0C23     		mov	r3, #12
 1581 00d2 FB18     		add	r3, r7, r3
 1582 00d4 1B78     		ldrb	r3, [r3]
 1583 00d6 D318     		add	r3, r2, r3
 1584 00d8 9942     		cmp	r1, r3
 1585 00da 17DB     		blt	.L99
1164:Generated_Source\PSoC4/CapSense_CSHL.c ****         {
1165:Generated_Source\PSoC4/CapSense_CSHL.c ****             CapSense_debounceCounter[debounceIndex]--;
 1586              		.loc 1 1165 0
 1587 00dc 0F23     		mov	r3, #15
 1588 00de FB18     		add	r3, r7, r3
 1589 00e0 1B78     		ldrb	r3, [r3]
 1590 00e2 1A4A     		ldr	r2, .L104+16
 1591 00e4 D25C     		ldrb	r2, [r2, r3]
 1592 00e6 013A     		sub	r2, r2, #1
 1593 00e8 D1B2     		uxtb	r1, r2
 1594 00ea 184A     		ldr	r2, .L104+16
 1595 00ec D154     		strb	r1, [r2, r3]
1166:Generated_Source\PSoC4/CapSense_CSHL.c ****             /* Sensor active, decrement debounce counter */
1167:Generated_Source\PSoC4/CapSense_CSHL.c ****             if(CapSense_debounceCounter[debounceIndex] == 0u)
 1596              		.loc 1 1167 0
 1597 00ee 0F23     		mov	r3, #15
 1598 00f0 FB18     		add	r3, r7, r3
 1599 00f2 1B78     		ldrb	r3, [r3]
 1600 00f4 154A     		ldr	r2, .L104+16
 1601 00f6 D35C     		ldrb	r3, [r2, r3]
 1602 00f8 002B     		cmp	r3, #0
 1603 00fa 0FD1     		bne	.L98
1168:Generated_Source\PSoC4/CapSense_CSHL.c ****             {
ARM GAS  C:\Users\poornima\AppData\Local\Temp\ccCVn41A.s 			page 50


1169:Generated_Source\PSoC4/CapSense_CSHL.c ****                 CapSense_SetBitValue(CapSense_sensorOnMask, sensor, 1u);
 1604              		.loc 1 1169 0
 1605 00fc 144A     		ldr	r2, .L104+20
 1606 00fe 7B68     		ldr	r3, [r7, #4]
 1607 0100 101C     		mov	r0, r2
 1608 0102 191C     		mov	r1, r3
 1609 0104 0122     		mov	r2, #1
 1610 0106 FFF7FEFF 		bl	CapSense_SetBitValue
 1611 010a 07E0     		b	.L98
 1612              	.L99:
1170:Generated_Source\PSoC4/CapSense_CSHL.c ****             }
1171:Generated_Source\PSoC4/CapSense_CSHL.c ****         }
1172:Generated_Source\PSoC4/CapSense_CSHL.c ****         else
1173:Generated_Source\PSoC4/CapSense_CSHL.c ****         {
1174:Generated_Source\PSoC4/CapSense_CSHL.c ****             /* Sensor inactive - reset Debounce counter */
1175:Generated_Source\PSoC4/CapSense_CSHL.c ****             CapSense_debounceCounter[debounceIndex] = debounce;
 1613              		.loc 1 1175 0
 1614 010c 0F23     		mov	r3, #15
 1615 010e FB18     		add	r3, r7, r3
 1616 0110 1B78     		ldrb	r3, [r3]
 1617 0112 0E4A     		ldr	r2, .L104+16
 1618 0114 0B21     		mov	r1, #11
 1619 0116 7918     		add	r1, r7, r1
 1620 0118 0978     		ldrb	r1, [r1]
 1621 011a D154     		strb	r1, [r2, r3]
 1622              	.L98:
1176:Generated_Source\PSoC4/CapSense_CSHL.c ****         }
1177:Generated_Source\PSoC4/CapSense_CSHL.c ****     }
1178:Generated_Source\PSoC4/CapSense_CSHL.c **** 
1179:Generated_Source\PSoC4/CapSense_CSHL.c ****     return ((uint32)((0u != CapSense_GetBitValue(CapSense_sensorOnMask, sensor)) ? 1u : 0u));
 1623              		.loc 1 1179 0
 1624 011c 0C4A     		ldr	r2, .L104+20
 1625 011e 7B68     		ldr	r3, [r7, #4]
 1626 0120 101C     		mov	r0, r2
 1627 0122 191C     		mov	r1, r3
 1628 0124 FFF7FEFF 		bl	CapSense_GetBitValue
 1629 0128 031E     		sub	r3, r0, #0
 1630 012a 01D0     		beq	.L101
 1631              		.loc 1 1179 0 is_stmt 0 discriminator 1
 1632 012c 0123     		mov	r3, #1
 1633 012e 00E0     		b	.L102
 1634              	.L101:
 1635              		.loc 1 1179 0 discriminator 2
 1636 0130 0023     		mov	r3, #0
 1637              	.L102:
1180:Generated_Source\PSoC4/CapSense_CSHL.c **** }
 1638              		.loc 1 1180 0 is_stmt 1 discriminator 4
 1639 0132 181C     		mov	r0, r3
 1640 0134 BD46     		mov	sp, r7
 1641 0136 04B0     		add	sp, sp, #16
 1642              		@ sp needed
 1643 0138 80BD     		pop	{r7, pc}
 1644              	.L105:
 1645 013a C046     		.align	2
 1646              	.L104:
 1647 013c 00000000 		.word	CapSense_widgetNumber
 1648 0140 00000000 		.word	CapSense_fingerThreshold
ARM GAS  C:\Users\poornima\AppData\Local\Temp\ccCVn41A.s 			page 51


 1649 0144 00000000 		.word	CapSense_hysteresis
 1650 0148 00000000 		.word	CapSense_debounce
 1651 014c 30000000 		.word	CapSense_debounceCounter
 1652 0150 00000000 		.word	CapSense_sensorOnMask
 1653 0154 00000000 		.word	CapSense_sensorSignal
 1654              		.cfi_endproc
 1655              	.LFE57:
 1656              		.size	CapSense_CheckIsSensorActive, .-CapSense_CheckIsSensorActive
 1657              		.section	.text.CapSense_CheckIsWidgetActive,"ax",%progbits
 1658              		.align	2
 1659              		.global	CapSense_CheckIsWidgetActive
 1660              		.code	16
 1661              		.thumb_func
 1662              		.type	CapSense_CheckIsWidgetActive, %function
 1663              	CapSense_CheckIsWidgetActive:
 1664              	.LFB58:
1181:Generated_Source\PSoC4/CapSense_CSHL.c **** 
1182:Generated_Source\PSoC4/CapSense_CSHL.c **** 
1183:Generated_Source\PSoC4/CapSense_CSHL.c **** /*******************************************************************************
1184:Generated_Source\PSoC4/CapSense_CSHL.c **** * Function Name: CapSense_CheckIsWidgetActive
1185:Generated_Source\PSoC4/CapSense_CSHL.c **** ********************************************************************************
1186:Generated_Source\PSoC4/CapSense_CSHL.c **** *
1187:Generated_Source\PSoC4/CapSense_CSHL.c **** * Summary:
1188:Generated_Source\PSoC4/CapSense_CSHL.c **** *  Compares the CapSense_sensorSignal[] array element to the finger threshold of
1189:Generated_Source\PSoC4/CapSense_CSHL.c **** * the widget it belongs to. The hysteresis and debounce are taken into account.
1190:Generated_Source\PSoC4/CapSense_CSHL.c **** * The hysteresis is added or subtracted from the finger threshold based on whether
1191:Generated_Source\PSoC4/CapSense_CSHL.c **** *  the sensor is currently active. If the sensor is active, the threshold is
1192:Generated_Source\PSoC4/CapSense_CSHL.c **** *  lowered by the hysteresis amount. If the sensor is inactive, the threshold
1193:Generated_Source\PSoC4/CapSense_CSHL.c **** *  is raised by the hysteresis amount.
1194:Generated_Source\PSoC4/CapSense_CSHL.c **** * The debounce counter added to the sensor active transition.
1195:Generated_Source\PSoC4/CapSense_CSHL.c **** * This function updates CapSense_sensorOnMask[] array element
1196:Generated_Source\PSoC4/CapSense_CSHL.c **** *
1197:Generated_Source\PSoC4/CapSense_CSHL.c **** * Parameters:
1198:Generated_Source\PSoC4/CapSense_CSHL.c **** *  widget:  widget number.
1199:Generated_Source\PSoC4/CapSense_CSHL.c **** *
1200:Generated_Source\PSoC4/CapSense_CSHL.c **** * Return:
1201:Generated_Source\PSoC4/CapSense_CSHL.c **** *  Returns widget sensor state 1 if one or more sensors within widget is/are
1202:Generated_Source\PSoC4/CapSense_CSHL.c **** *  active, 0 if all sensors within widget are inactive.
1203:Generated_Source\PSoC4/CapSense_CSHL.c **** *
1204:Generated_Source\PSoC4/CapSense_CSHL.c **** * Global Variables:
1205:Generated_Source\PSoC4/CapSense_CSHL.c **** *  rawDataIndex[]: Contains the  1st sensor position in the widget
1206:Generated_Source\PSoC4/CapSense_CSHL.c **** *
1207:Generated_Source\PSoC4/CapSense_CSHL.c **** * Side Effects:
1208:Generated_Source\PSoC4/CapSense_CSHL.c **** *  None
1209:Generated_Source\PSoC4/CapSense_CSHL.c **** *
1210:Generated_Source\PSoC4/CapSense_CSHL.c **** *******************************************************************************/
1211:Generated_Source\PSoC4/CapSense_CSHL.c **** uint32 CapSense_CheckIsWidgetActive(uint32 widget)
1212:Generated_Source\PSoC4/CapSense_CSHL.c **** {
 1665              		.loc 1 1212 0
 1666              		.cfi_startproc
 1667 0000 80B5     		push	{r7, lr}
 1668              		.cfi_def_cfa_offset 8
 1669              		.cfi_offset 7, -8
 1670              		.cfi_offset 14, -4
 1671 0002 86B0     		sub	sp, sp, #24
 1672              		.cfi_def_cfa_offset 32
 1673 0004 00AF     		add	r7, sp, #0
ARM GAS  C:\Users\poornima\AppData\Local\Temp\ccCVn41A.s 			page 52


 1674              		.cfi_def_cfa_register 7
 1675 0006 7860     		str	r0, [r7, #4]
1213:Generated_Source\PSoC4/CapSense_CSHL.c ****     uint32 rawIndex = (uint32)CapSense_rawDataIndex[widget];
 1676              		.loc 1 1213 0
 1677 0008 114A     		ldr	r2, .L110
 1678 000a 7B68     		ldr	r3, [r7, #4]
 1679 000c D318     		add	r3, r2, r3
 1680 000e 1B78     		ldrb	r3, [r3]
 1681 0010 7B61     		str	r3, [r7, #20]
1214:Generated_Source\PSoC4/CapSense_CSHL.c ****     uint32 numOfSensors = (uint32)CapSense_numberOfSensors[widget] + rawIndex;
 1682              		.loc 1 1214 0
 1683 0012 104A     		ldr	r2, .L110+4
 1684 0014 7B68     		ldr	r3, [r7, #4]
 1685 0016 D318     		add	r3, r2, r3
 1686 0018 1B78     		ldrb	r3, [r3]
 1687 001a 1A1C     		mov	r2, r3
 1688 001c 7B69     		ldr	r3, [r7, #20]
 1689 001e D318     		add	r3, r2, r3
 1690 0020 FB60     		str	r3, [r7, #12]
1215:Generated_Source\PSoC4/CapSense_CSHL.c ****     uint32 state = 0u;
 1691              		.loc 1 1215 0
 1692 0022 0023     		mov	r3, #0
 1693 0024 3B61     		str	r3, [r7, #16]
 1694              	.L108:
1216:Generated_Source\PSoC4/CapSense_CSHL.c **** 
1217:Generated_Source\PSoC4/CapSense_CSHL.c ****     /* Check all sensors of widget */
1218:Generated_Source\PSoC4/CapSense_CSHL.c ****     do
1219:Generated_Source\PSoC4/CapSense_CSHL.c ****     {
1220:Generated_Source\PSoC4/CapSense_CSHL.c ****         if(CapSense_CheckIsSensorActive((uint32)rawIndex) != 0u)
 1695              		.loc 1 1220 0
 1696 0026 7B69     		ldr	r3, [r7, #20]
 1697 0028 181C     		mov	r0, r3
 1698 002a FFF7FEFF 		bl	CapSense_CheckIsSensorActive
 1699 002e 031E     		sub	r3, r0, #0
 1700 0030 01D0     		beq	.L107
1221:Generated_Source\PSoC4/CapSense_CSHL.c ****         {
1222:Generated_Source\PSoC4/CapSense_CSHL.c ****             state = CapSense_SENSOR_IS_ACTIVE;
 1701              		.loc 1 1222 0
 1702 0032 0123     		mov	r3, #1
 1703 0034 3B61     		str	r3, [r7, #16]
 1704              	.L107:
1223:Generated_Source\PSoC4/CapSense_CSHL.c ****         }
1224:Generated_Source\PSoC4/CapSense_CSHL.c ****         rawIndex++;
 1705              		.loc 1 1224 0
 1706 0036 7B69     		ldr	r3, [r7, #20]
 1707 0038 0133     		add	r3, r3, #1
 1708 003a 7B61     		str	r3, [r7, #20]
1225:Generated_Source\PSoC4/CapSense_CSHL.c ****     }
1226:Generated_Source\PSoC4/CapSense_CSHL.c ****     while(rawIndex < numOfSensors);
 1709              		.loc 1 1226 0
 1710 003c 7A69     		ldr	r2, [r7, #20]
 1711 003e FB68     		ldr	r3, [r7, #12]
 1712 0040 9A42     		cmp	r2, r3
 1713 0042 F0D3     		bcc	.L108
1227:Generated_Source\PSoC4/CapSense_CSHL.c **** 
1228:Generated_Source\PSoC4/CapSense_CSHL.c **** 
1229:Generated_Source\PSoC4/CapSense_CSHL.c **** 
ARM GAS  C:\Users\poornima\AppData\Local\Temp\ccCVn41A.s 			page 53


1230:Generated_Source\PSoC4/CapSense_CSHL.c ****     return state;
 1714              		.loc 1 1230 0
 1715 0044 3B69     		ldr	r3, [r7, #16]
1231:Generated_Source\PSoC4/CapSense_CSHL.c **** }
 1716              		.loc 1 1231 0
 1717 0046 181C     		mov	r0, r3
 1718 0048 BD46     		mov	sp, r7
 1719 004a 06B0     		add	sp, sp, #24
 1720              		@ sp needed
 1721 004c 80BD     		pop	{r7, pc}
 1722              	.L111:
 1723 004e C046     		.align	2
 1724              	.L110:
 1725 0050 00000000 		.word	CapSense_rawDataIndex
 1726 0054 00000000 		.word	CapSense_numberOfSensors
 1727              		.cfi_endproc
 1728              	.LFE58:
 1729              		.size	CapSense_CheckIsWidgetActive, .-CapSense_CheckIsWidgetActive
 1730              		.section	.text.CapSense_CheckIsAnyWidgetActive,"ax",%progbits
 1731              		.align	2
 1732              		.global	CapSense_CheckIsAnyWidgetActive
 1733              		.code	16
 1734              		.thumb_func
 1735              		.type	CapSense_CheckIsAnyWidgetActive, %function
 1736              	CapSense_CheckIsAnyWidgetActive:
 1737              	.LFB59:
1232:Generated_Source\PSoC4/CapSense_CSHL.c **** 
1233:Generated_Source\PSoC4/CapSense_CSHL.c **** 
1234:Generated_Source\PSoC4/CapSense_CSHL.c **** /*******************************************************************************
1235:Generated_Source\PSoC4/CapSense_CSHL.c **** * Function Name: CapSense_CheckIsAnyWidgetActive
1236:Generated_Source\PSoC4/CapSense_CSHL.c **** ********************************************************************************
1237:Generated_Source\PSoC4/CapSense_CSHL.c **** *
1238:Generated_Source\PSoC4/CapSense_CSHL.c **** * Summary:
1239:Generated_Source\PSoC4/CapSense_CSHL.c **** *  Compares all the sensors of the CapSense_Signal[] array to their finger
1240:Generated_Source\PSoC4/CapSense_CSHL.c **** *  threshold. Calls CapSense_CheckIsWidgetActive() for each widget so
1241:Generated_Source\PSoC4/CapSense_CSHL.c **** *  the CapSense_sensorOnMask[] array is up to date after calling this
1242:Generated_Source\PSoC4/CapSense_CSHL.c **** *  function.
1243:Generated_Source\PSoC4/CapSense_CSHL.c **** *
1244:Generated_Source\PSoC4/CapSense_CSHL.c **** * Parameters:
1245:Generated_Source\PSoC4/CapSense_CSHL.c **** *  widget:  widget number.
1246:Generated_Source\PSoC4/CapSense_CSHL.c **** *
1247:Generated_Source\PSoC4/CapSense_CSHL.c **** * Return:
1248:Generated_Source\PSoC4/CapSense_CSHL.c **** *  Returns 1 if any widget is active, 0 none of widgets are active.
1249:Generated_Source\PSoC4/CapSense_CSHL.c **** *
1250:Generated_Source\PSoC4/CapSense_CSHL.c **** * Global Variables:
1251:Generated_Source\PSoC4/CapSense_CSHL.c **** *  None
1252:Generated_Source\PSoC4/CapSense_CSHL.c **** *
1253:Generated_Source\PSoC4/CapSense_CSHL.c **** * Side Effects:
1254:Generated_Source\PSoC4/CapSense_CSHL.c **** *  None
1255:Generated_Source\PSoC4/CapSense_CSHL.c **** *
1256:Generated_Source\PSoC4/CapSense_CSHL.c **** *******************************************************************************/
1257:Generated_Source\PSoC4/CapSense_CSHL.c **** uint32 CapSense_CheckIsAnyWidgetActive(void)
1258:Generated_Source\PSoC4/CapSense_CSHL.c **** {
 1738              		.loc 1 1258 0
 1739              		.cfi_startproc
 1740 0000 80B5     		push	{r7, lr}
 1741              		.cfi_def_cfa_offset 8
ARM GAS  C:\Users\poornima\AppData\Local\Temp\ccCVn41A.s 			page 54


 1742              		.cfi_offset 7, -8
 1743              		.cfi_offset 14, -4
 1744 0002 82B0     		sub	sp, sp, #8
 1745              		.cfi_def_cfa_offset 16
 1746 0004 00AF     		add	r7, sp, #0
 1747              		.cfi_def_cfa_register 7
1259:Generated_Source\PSoC4/CapSense_CSHL.c **** 
1260:Generated_Source\PSoC4/CapSense_CSHL.c ****         uint32 i;
1261:Generated_Source\PSoC4/CapSense_CSHL.c ****     uint32 state = 0u;
 1748              		.loc 1 1261 0
 1749 0006 0023     		mov	r3, #0
 1750 0008 3B60     		str	r3, [r7]
1262:Generated_Source\PSoC4/CapSense_CSHL.c ****     
1263:Generated_Source\PSoC4/CapSense_CSHL.c ****     for(i = 0u; i < CapSense_TOTAL_WIDGET_COUNT; i++)
 1751              		.loc 1 1263 0
 1752 000a 0023     		mov	r3, #0
 1753 000c 7B60     		str	r3, [r7, #4]
 1754 000e 0AE0     		b	.L113
 1755              	.L115:
1264:Generated_Source\PSoC4/CapSense_CSHL.c ****     {
1265:Generated_Source\PSoC4/CapSense_CSHL.c ****         if (CapSense_CheckIsWidgetActive(i) != 0u)
 1756              		.loc 1 1265 0
 1757 0010 7B68     		ldr	r3, [r7, #4]
 1758 0012 181C     		mov	r0, r3
 1759 0014 FFF7FEFF 		bl	CapSense_CheckIsWidgetActive
 1760 0018 031E     		sub	r3, r0, #0
 1761 001a 01D0     		beq	.L114
1266:Generated_Source\PSoC4/CapSense_CSHL.c ****         {
1267:Generated_Source\PSoC4/CapSense_CSHL.c ****             state = CapSense_WIDGET_IS_ACTIVE;
 1762              		.loc 1 1267 0
 1763 001c 0123     		mov	r3, #1
 1764 001e 3B60     		str	r3, [r7]
 1765              	.L114:
1263:Generated_Source\PSoC4/CapSense_CSHL.c ****     {
 1766              		.loc 1 1263 0 discriminator 2
 1767 0020 7B68     		ldr	r3, [r7, #4]
 1768 0022 0133     		add	r3, r3, #1
 1769 0024 7B60     		str	r3, [r7, #4]
 1770              	.L113:
1263:Generated_Source\PSoC4/CapSense_CSHL.c ****     {
 1771              		.loc 1 1263 0 is_stmt 0 discriminator 1
 1772 0026 7B68     		ldr	r3, [r7, #4]
 1773 0028 042B     		cmp	r3, #4
 1774 002a F1D9     		bls	.L115
1268:Generated_Source\PSoC4/CapSense_CSHL.c ****         }
1269:Generated_Source\PSoC4/CapSense_CSHL.c ****     }
1270:Generated_Source\PSoC4/CapSense_CSHL.c ****     
1271:Generated_Source\PSoC4/CapSense_CSHL.c **** 
1272:Generated_Source\PSoC4/CapSense_CSHL.c **** 
1273:Generated_Source\PSoC4/CapSense_CSHL.c ****     return state;
 1775              		.loc 1 1273 0 is_stmt 1
 1776 002c 3B68     		ldr	r3, [r7]
1274:Generated_Source\PSoC4/CapSense_CSHL.c **** }
 1777              		.loc 1 1274 0
 1778 002e 181C     		mov	r0, r3
 1779 0030 BD46     		mov	sp, r7
 1780 0032 02B0     		add	sp, sp, #8
ARM GAS  C:\Users\poornima\AppData\Local\Temp\ccCVn41A.s 			page 55


 1781              		@ sp needed
 1782 0034 80BD     		pop	{r7, pc}
 1783              		.cfi_endproc
 1784              	.LFE59:
 1785              		.size	CapSense_CheckIsAnyWidgetActive, .-CapSense_CheckIsAnyWidgetActive
 1786 0036 C046     		.section	.text.CapSense_EnableWidget,"ax",%progbits
 1787              		.align	2
 1788              		.global	CapSense_EnableWidget
 1789              		.code	16
 1790              		.thumb_func
 1791              		.type	CapSense_EnableWidget, %function
 1792              	CapSense_EnableWidget:
 1793              	.LFB60:
1275:Generated_Source\PSoC4/CapSense_CSHL.c **** 
1276:Generated_Source\PSoC4/CapSense_CSHL.c **** 
1277:Generated_Source\PSoC4/CapSense_CSHL.c **** /*******************************************************************************
1278:Generated_Source\PSoC4/CapSense_CSHL.c **** * Function Name: CapSense_EnableWidget
1279:Generated_Source\PSoC4/CapSense_CSHL.c **** ********************************************************************************
1280:Generated_Source\PSoC4/CapSense_CSHL.c **** *
1281:Generated_Source\PSoC4/CapSense_CSHL.c **** * Summary:
1282:Generated_Source\PSoC4/CapSense_CSHL.c **** *  Enables all the widget elements (sensors) to the scanning process.
1283:Generated_Source\PSoC4/CapSense_CSHL.c **** *
1284:Generated_Source\PSoC4/CapSense_CSHL.c **** * Parameters:
1285:Generated_Source\PSoC4/CapSense_CSHL.c **** *  widget:  widget number.
1286:Generated_Source\PSoC4/CapSense_CSHL.c **** *
1287:Generated_Source\PSoC4/CapSense_CSHL.c **** * Return:
1288:Generated_Source\PSoC4/CapSense_CSHL.c **** *  None
1289:Generated_Source\PSoC4/CapSense_CSHL.c **** *
1290:Generated_Source\PSoC4/CapSense_CSHL.c **** * Global Variables:
1291:Generated_Source\PSoC4/CapSense_CSHL.c **** *  CapSense_sensorEnableMask[] - used to store the sensor scanning
1292:Generated_Source\PSoC4/CapSense_CSHL.c **** *  state.
1293:Generated_Source\PSoC4/CapSense_CSHL.c **** *  CapSense_sensorEnableMask[0] contains the masked bits for sensors
1294:Generated_Source\PSoC4/CapSense_CSHL.c **** *  0 through 7 (sensor 0 is bit 0, sensor 1 is bit 1).
1295:Generated_Source\PSoC4/CapSense_CSHL.c **** *  CapSense_sensorEnableMask[1] contains the masked bits for
1296:Generated_Source\PSoC4/CapSense_CSHL.c **** *  sensors 8 through 15 (if needed), and so on.
1297:Generated_Source\PSoC4/CapSense_CSHL.c **** *  0 - sensor doesn't scan by CapSense_ScanEnabledWidgets().
1298:Generated_Source\PSoC4/CapSense_CSHL.c **** *  1 - sensor scans by CapSense_ScanEnabledWidgets().
1299:Generated_Source\PSoC4/CapSense_CSHL.c **** *
1300:Generated_Source\PSoC4/CapSense_CSHL.c **** * Side Effects:
1301:Generated_Source\PSoC4/CapSense_CSHL.c **** *  None
1302:Generated_Source\PSoC4/CapSense_CSHL.c **** *
1303:Generated_Source\PSoC4/CapSense_CSHL.c **** *******************************************************************************/
1304:Generated_Source\PSoC4/CapSense_CSHL.c **** void CapSense_EnableWidget(uint32 widget)
1305:Generated_Source\PSoC4/CapSense_CSHL.c **** {
 1794              		.loc 1 1305 0
 1795              		.cfi_startproc
 1796 0000 80B5     		push	{r7, lr}
 1797              		.cfi_def_cfa_offset 8
 1798              		.cfi_offset 7, -8
 1799              		.cfi_offset 14, -4
 1800 0002 84B0     		sub	sp, sp, #16
 1801              		.cfi_def_cfa_offset 24
 1802 0004 00AF     		add	r7, sp, #0
 1803              		.cfi_def_cfa_register 7
 1804 0006 7860     		str	r0, [r7, #4]
1306:Generated_Source\PSoC4/CapSense_CSHL.c **** 
1307:Generated_Source\PSoC4/CapSense_CSHL.c ****     uint8 rawIndex = CapSense_rawDataIndex[widget];
ARM GAS  C:\Users\poornima\AppData\Local\Temp\ccCVn41A.s 			page 56


 1805              		.loc 1 1307 0
 1806 0008 0F23     		mov	r3, #15
 1807 000a FB18     		add	r3, r7, r3
 1808 000c 1549     		ldr	r1, .L119
 1809 000e 7A68     		ldr	r2, [r7, #4]
 1810 0010 8A18     		add	r2, r1, r2
 1811 0012 1278     		ldrb	r2, [r2]
 1812 0014 1A70     		strb	r2, [r3]
1308:Generated_Source\PSoC4/CapSense_CSHL.c ****     uint8 numOfSensors = CapSense_numberOfSensors[widget] + rawIndex;
 1813              		.loc 1 1308 0
 1814 0016 144A     		ldr	r2, .L119+4
 1815 0018 7B68     		ldr	r3, [r7, #4]
 1816 001a D318     		add	r3, r2, r3
 1817 001c 1978     		ldrb	r1, [r3]
 1818 001e 0E23     		mov	r3, #14
 1819 0020 FB18     		add	r3, r7, r3
 1820 0022 0F22     		mov	r2, #15
 1821 0024 BA18     		add	r2, r7, r2
 1822 0026 1278     		ldrb	r2, [r2]
 1823 0028 8A18     		add	r2, r1, r2
 1824 002a 1A70     		strb	r2, [r3]
 1825              	.L118:
1309:Generated_Source\PSoC4/CapSense_CSHL.c **** 
1310:Generated_Source\PSoC4/CapSense_CSHL.c ****     /* Enable all sensors of widget */
1311:Generated_Source\PSoC4/CapSense_CSHL.c ****     do
1312:Generated_Source\PSoC4/CapSense_CSHL.c ****     {
1313:Generated_Source\PSoC4/CapSense_CSHL.c ****         CapSense_SetBitValue(CapSense_sensorEnableMask, (uint32)rawIndex, 1u);
 1826              		.loc 1 1313 0 discriminator 1
 1827 002c 0F23     		mov	r3, #15
 1828 002e FB18     		add	r3, r7, r3
 1829 0030 1B78     		ldrb	r3, [r3]
 1830 0032 0E4A     		ldr	r2, .L119+8
 1831 0034 101C     		mov	r0, r2
 1832 0036 191C     		mov	r1, r3
 1833 0038 0122     		mov	r2, #1
 1834 003a FFF7FEFF 		bl	CapSense_SetBitValue
1314:Generated_Source\PSoC4/CapSense_CSHL.c ****         rawIndex++;
 1835              		.loc 1 1314 0 discriminator 1
 1836 003e 0F23     		mov	r3, #15
 1837 0040 FB18     		add	r3, r7, r3
 1838 0042 1A78     		ldrb	r2, [r3]
 1839 0044 0F23     		mov	r3, #15
 1840 0046 FB18     		add	r3, r7, r3
 1841 0048 0132     		add	r2, r2, #1
 1842 004a 1A70     		strb	r2, [r3]
1315:Generated_Source\PSoC4/CapSense_CSHL.c ****     }
1316:Generated_Source\PSoC4/CapSense_CSHL.c ****     while(rawIndex < numOfSensors);
 1843              		.loc 1 1316 0 discriminator 1
 1844 004c 0F23     		mov	r3, #15
 1845 004e FA18     		add	r2, r7, r3
 1846 0050 0E23     		mov	r3, #14
 1847 0052 FB18     		add	r3, r7, r3
 1848 0054 1278     		ldrb	r2, [r2]
 1849 0056 1B78     		ldrb	r3, [r3]
 1850 0058 9A42     		cmp	r2, r3
 1851 005a E7D3     		bcc	.L118
1317:Generated_Source\PSoC4/CapSense_CSHL.c **** }
ARM GAS  C:\Users\poornima\AppData\Local\Temp\ccCVn41A.s 			page 57


 1852              		.loc 1 1317 0
 1853 005c BD46     		mov	sp, r7
 1854 005e 04B0     		add	sp, sp, #16
 1855              		@ sp needed
 1856 0060 80BD     		pop	{r7, pc}
 1857              	.L120:
 1858 0062 C046     		.align	2
 1859              	.L119:
 1860 0064 00000000 		.word	CapSense_rawDataIndex
 1861 0068 00000000 		.word	CapSense_numberOfSensors
 1862 006c 00000000 		.word	CapSense_sensorEnableMask
 1863              		.cfi_endproc
 1864              	.LFE60:
 1865              		.size	CapSense_EnableWidget, .-CapSense_EnableWidget
 1866              		.section	.text.CapSense_DisableWidget,"ax",%progbits
 1867              		.align	2
 1868              		.global	CapSense_DisableWidget
 1869              		.code	16
 1870              		.thumb_func
 1871              		.type	CapSense_DisableWidget, %function
 1872              	CapSense_DisableWidget:
 1873              	.LFB61:
1318:Generated_Source\PSoC4/CapSense_CSHL.c **** 
1319:Generated_Source\PSoC4/CapSense_CSHL.c **** 
1320:Generated_Source\PSoC4/CapSense_CSHL.c **** /*******************************************************************************
1321:Generated_Source\PSoC4/CapSense_CSHL.c **** * Function Name: CapSense_DisableWidget
1322:Generated_Source\PSoC4/CapSense_CSHL.c **** ********************************************************************************
1323:Generated_Source\PSoC4/CapSense_CSHL.c **** *
1324:Generated_Source\PSoC4/CapSense_CSHL.c **** * Summary:
1325:Generated_Source\PSoC4/CapSense_CSHL.c **** *  Disables all the widget elements (sensors) from the scanning process.
1326:Generated_Source\PSoC4/CapSense_CSHL.c **** *
1327:Generated_Source\PSoC4/CapSense_CSHL.c **** * Parameters:
1328:Generated_Source\PSoC4/CapSense_CSHL.c **** *  widget:  widget number.
1329:Generated_Source\PSoC4/CapSense_CSHL.c **** *
1330:Generated_Source\PSoC4/CapSense_CSHL.c **** * Return:
1331:Generated_Source\PSoC4/CapSense_CSHL.c **** *  None
1332:Generated_Source\PSoC4/CapSense_CSHL.c **** *
1333:Generated_Source\PSoC4/CapSense_CSHL.c **** * Global Variables:
1334:Generated_Source\PSoC4/CapSense_CSHL.c **** *  CapSense_sensorEnableMask[] - used to store the sensor scanning
1335:Generated_Source\PSoC4/CapSense_CSHL.c **** *  state.
1336:Generated_Source\PSoC4/CapSense_CSHL.c **** *  CapSense_sensorEnableMask[0] contains the masked bits for sensors
1337:Generated_Source\PSoC4/CapSense_CSHL.c **** *  0 through 7 (sensor 0 is bit 0, sensor 1 is bit 1).
1338:Generated_Source\PSoC4/CapSense_CSHL.c **** *  CapSense_sensorEnableMask[1] contains the masked bits for
1339:Generated_Source\PSoC4/CapSense_CSHL.c **** *  sensors 8 through 15 (if needed), and so on.
1340:Generated_Source\PSoC4/CapSense_CSHL.c **** *  0 - sensor isn't scanned by CapSense_ScanEnabledWidgets().
1341:Generated_Source\PSoC4/CapSense_CSHL.c **** *  1 - sensor is scanned by CapSense_ScanEnabledWidgets().
1342:Generated_Source\PSoC4/CapSense_CSHL.c **** *
1343:Generated_Source\PSoC4/CapSense_CSHL.c **** * Side Effects:
1344:Generated_Source\PSoC4/CapSense_CSHL.c **** *  None
1345:Generated_Source\PSoC4/CapSense_CSHL.c **** *
1346:Generated_Source\PSoC4/CapSense_CSHL.c **** *******************************************************************************/
1347:Generated_Source\PSoC4/CapSense_CSHL.c **** void CapSense_DisableWidget(uint32 widget)
1348:Generated_Source\PSoC4/CapSense_CSHL.c **** {
 1874              		.loc 1 1348 0
 1875              		.cfi_startproc
 1876 0000 80B5     		push	{r7, lr}
 1877              		.cfi_def_cfa_offset 8
ARM GAS  C:\Users\poornima\AppData\Local\Temp\ccCVn41A.s 			page 58


 1878              		.cfi_offset 7, -8
 1879              		.cfi_offset 14, -4
 1880 0002 84B0     		sub	sp, sp, #16
 1881              		.cfi_def_cfa_offset 24
 1882 0004 00AF     		add	r7, sp, #0
 1883              		.cfi_def_cfa_register 7
 1884 0006 7860     		str	r0, [r7, #4]
1349:Generated_Source\PSoC4/CapSense_CSHL.c ****     uint8 rawIndex = CapSense_rawDataIndex[widget];
 1885              		.loc 1 1349 0
 1886 0008 0F23     		mov	r3, #15
 1887 000a FB18     		add	r3, r7, r3
 1888 000c 1549     		ldr	r1, .L123
 1889 000e 7A68     		ldr	r2, [r7, #4]
 1890 0010 8A18     		add	r2, r1, r2
 1891 0012 1278     		ldrb	r2, [r2]
 1892 0014 1A70     		strb	r2, [r3]
1350:Generated_Source\PSoC4/CapSense_CSHL.c ****     uint8 numOfSensors = CapSense_numberOfSensors[widget] + rawIndex;
 1893              		.loc 1 1350 0
 1894 0016 144A     		ldr	r2, .L123+4
 1895 0018 7B68     		ldr	r3, [r7, #4]
 1896 001a D318     		add	r3, r2, r3
 1897 001c 1978     		ldrb	r1, [r3]
 1898 001e 0E23     		mov	r3, #14
 1899 0020 FB18     		add	r3, r7, r3
 1900 0022 0F22     		mov	r2, #15
 1901 0024 BA18     		add	r2, r7, r2
 1902 0026 1278     		ldrb	r2, [r2]
 1903 0028 8A18     		add	r2, r1, r2
 1904 002a 1A70     		strb	r2, [r3]
 1905              	.L122:
1351:Generated_Source\PSoC4/CapSense_CSHL.c **** 
1352:Generated_Source\PSoC4/CapSense_CSHL.c ****     /* Disable all sensors of widget */
1353:Generated_Source\PSoC4/CapSense_CSHL.c ****     do
1354:Generated_Source\PSoC4/CapSense_CSHL.c ****     {
1355:Generated_Source\PSoC4/CapSense_CSHL.c **** 
1356:Generated_Source\PSoC4/CapSense_CSHL.c ****         CapSense_SetBitValue(CapSense_sensorEnableMask, (uint32)rawIndex, 0u);
 1906              		.loc 1 1356 0 discriminator 1
 1907 002c 0F23     		mov	r3, #15
 1908 002e FB18     		add	r3, r7, r3
 1909 0030 1B78     		ldrb	r3, [r3]
 1910 0032 0E4A     		ldr	r2, .L123+8
 1911 0034 101C     		mov	r0, r2
 1912 0036 191C     		mov	r1, r3
 1913 0038 0022     		mov	r2, #0
 1914 003a FFF7FEFF 		bl	CapSense_SetBitValue
1357:Generated_Source\PSoC4/CapSense_CSHL.c ****         rawIndex++;
 1915              		.loc 1 1357 0 discriminator 1
 1916 003e 0F23     		mov	r3, #15
 1917 0040 FB18     		add	r3, r7, r3
 1918 0042 1A78     		ldrb	r2, [r3]
 1919 0044 0F23     		mov	r3, #15
 1920 0046 FB18     		add	r3, r7, r3
 1921 0048 0132     		add	r2, r2, #1
 1922 004a 1A70     		strb	r2, [r3]
1358:Generated_Source\PSoC4/CapSense_CSHL.c ****     }
1359:Generated_Source\PSoC4/CapSense_CSHL.c ****     while(rawIndex < numOfSensors);
 1923              		.loc 1 1359 0 discriminator 1
ARM GAS  C:\Users\poornima\AppData\Local\Temp\ccCVn41A.s 			page 59


 1924 004c 0F23     		mov	r3, #15
 1925 004e FA18     		add	r2, r7, r3
 1926 0050 0E23     		mov	r3, #14
 1927 0052 FB18     		add	r3, r7, r3
 1928 0054 1278     		ldrb	r2, [r2]
 1929 0056 1B78     		ldrb	r3, [r3]
 1930 0058 9A42     		cmp	r2, r3
 1931 005a E7D3     		bcc	.L122
1360:Generated_Source\PSoC4/CapSense_CSHL.c **** }
 1932              		.loc 1 1360 0
 1933 005c BD46     		mov	sp, r7
 1934 005e 04B0     		add	sp, sp, #16
 1935              		@ sp needed
 1936 0060 80BD     		pop	{r7, pc}
 1937              	.L124:
 1938 0062 C046     		.align	2
 1939              	.L123:
 1940 0064 00000000 		.word	CapSense_rawDataIndex
 1941 0068 00000000 		.word	CapSense_numberOfSensors
 1942 006c 00000000 		.word	CapSense_sensorEnableMask
 1943              		.cfi_endproc
 1944              	.LFE61:
 1945              		.size	CapSense_DisableWidget, .-CapSense_DisableWidget
 1946              		.section	.text.CapSense_FindMaximum,"ax",%progbits
 1947              		.align	2
 1948              		.global	CapSense_FindMaximum
 1949              		.code	16
 1950              		.thumb_func
 1951              		.type	CapSense_FindMaximum, %function
 1952              	CapSense_FindMaximum:
 1953              	.LFB62:
1361:Generated_Source\PSoC4/CapSense_CSHL.c **** 
1362:Generated_Source\PSoC4/CapSense_CSHL.c **** 
1363:Generated_Source\PSoC4/CapSense_CSHL.c **** #if(CapSense_TOTAL_CENTROIDS_BASIC_COUNT)
1364:Generated_Source\PSoC4/CapSense_CSHL.c ****     /*******************************************************************************
1365:Generated_Source\PSoC4/CapSense_CSHL.c ****     * Function Name: CapSense_FindMaximum
1366:Generated_Source\PSoC4/CapSense_CSHL.c ****     ********************************************************************************
1367:Generated_Source\PSoC4/CapSense_CSHL.c ****     *
1368:Generated_Source\PSoC4/CapSense_CSHL.c ****     * Summary:
1369:Generated_Source\PSoC4/CapSense_CSHL.c ****     *  Finds the index of the maximum element within a defined centroid. Checks
1370:Generated_Source\PSoC4/CapSense_CSHL.c ****     *  CapSense_sensorSignal[] within a defined centroid and
1371:Generated_Source\PSoC4/CapSense_CSHL.c ****     *  returns the index of the maximum element. The values below the finger threshold are
1372:Generated_Source\PSoC4/CapSense_CSHL.c ****     *  ignored.
1373:Generated_Source\PSoC4/CapSense_CSHL.c ****     *  The centroid is defined by offset of the first element and a number of elements - count.
1374:Generated_Source\PSoC4/CapSense_CSHL.c ****     *  The diplexed centroid requires at least two consecutive elements above
1375:Generated_Source\PSoC4/CapSense_CSHL.c ****     *  FingerThreshold to find the index of the maximum element.
1376:Generated_Source\PSoC4/CapSense_CSHL.c ****     *
1377:Generated_Source\PSoC4/CapSense_CSHL.c ****     * Parameters:
1378:Generated_Source\PSoC4/CapSense_CSHL.c ****     *  offset:  Start index of centroid in CapSense_sensorSignal[] array.
1379:Generated_Source\PSoC4/CapSense_CSHL.c ****     *  count:   number of elements within centroid.
1380:Generated_Source\PSoC4/CapSense_CSHL.c ****     *  fingerThreshold:  Finger threshold.
1381:Generated_Source\PSoC4/CapSense_CSHL.c ****     *  diplex:   pointer to diplex table.
1382:Generated_Source\PSoC4/CapSense_CSHL.c ****     *
1383:Generated_Source\PSoC4/CapSense_CSHL.c ****     * Return:
1384:Generated_Source\PSoC4/CapSense_CSHL.c ****     *  Returns the index of the maximum element within a defined centroid.
1385:Generated_Source\PSoC4/CapSense_CSHL.c ****     *  If the index of the maximum element isn't found it returns 0xFF.
1386:Generated_Source\PSoC4/CapSense_CSHL.c ****     *
ARM GAS  C:\Users\poornima\AppData\Local\Temp\ccCVn41A.s 			page 60


1387:Generated_Source\PSoC4/CapSense_CSHL.c ****     * Global Variables:
1388:Generated_Source\PSoC4/CapSense_CSHL.c ****     *  CapSense_startOfSlider[] - contains the index of the first slider element
1389:Generated_Source\PSoC4/CapSense_CSHL.c ****     *
1390:Generated_Source\PSoC4/CapSense_CSHL.c ****     * Side Effects:
1391:Generated_Source\PSoC4/CapSense_CSHL.c ****     *  None
1392:Generated_Source\PSoC4/CapSense_CSHL.c ****     *
1393:Generated_Source\PSoC4/CapSense_CSHL.c ****     *******************************************************************************/
1394:Generated_Source\PSoC4/CapSense_CSHL.c ****     #if (CapSense_IS_DIPLEX_SLIDER)
1395:Generated_Source\PSoC4/CapSense_CSHL.c ****         uint8 CapSense_FindMaximum(uint8 offset, uint8 count, uint8 fingerThreshold, const uint8 *d
1396:Generated_Source\PSoC4/CapSense_CSHL.c ****     #else
1397:Generated_Source\PSoC4/CapSense_CSHL.c ****         uint8 CapSense_FindMaximum(uint8 offset, uint8 count, uint8 fingerThreshold)
1398:Generated_Source\PSoC4/CapSense_CSHL.c ****     #endif /* (CapSense_IS_DIPLEX_SLIDER) */
1399:Generated_Source\PSoC4/CapSense_CSHL.c ****     {
 1954              		.loc 1 1399 0
 1955              		.cfi_startproc
 1956 0000 90B5     		push	{r4, r7, lr}
 1957              		.cfi_def_cfa_offset 12
 1958              		.cfi_offset 4, -12
 1959              		.cfi_offset 7, -8
 1960              		.cfi_offset 14, -4
 1961 0002 85B0     		sub	sp, sp, #20
 1962              		.cfi_def_cfa_offset 32
 1963 0004 00AF     		add	r7, sp, #0
 1964              		.cfi_def_cfa_register 7
 1965 0006 041C     		mov	r4, r0
 1966 0008 081C     		mov	r0, r1
 1967 000a 111C     		mov	r1, r2
 1968 000c FB1D     		add	r3, r7, #7
 1969 000e 221C     		add	r2, r4, #0
 1970 0010 1A70     		strb	r2, [r3]
 1971 0012 BB1D     		add	r3, r7, #6
 1972 0014 021C     		add	r2, r0, #0
 1973 0016 1A70     		strb	r2, [r3]
 1974 0018 7B1D     		add	r3, r7, #5
 1975 001a 0A1C     		add	r2, r1, #0
 1976 001c 1A70     		strb	r2, [r3]
1400:Generated_Source\PSoC4/CapSense_CSHL.c ****         uint8 i;
1401:Generated_Source\PSoC4/CapSense_CSHL.c ****         #if (CapSense_IS_DIPLEX_SLIDER)
1402:Generated_Source\PSoC4/CapSense_CSHL.c ****             uint8 curPos = 0u;
1403:Generated_Source\PSoC4/CapSense_CSHL.c ****             /* No centroid at Start */
1404:Generated_Source\PSoC4/CapSense_CSHL.c ****             uint8 curCntrdSize = 0u;
1405:Generated_Source\PSoC4/CapSense_CSHL.c ****             uint8 curCtrdStartPos = CapSense_MAXIMUM_CENTROID;
1406:Generated_Source\PSoC4/CapSense_CSHL.c ****             /* Biggest centroid is zero */
1407:Generated_Source\PSoC4/CapSense_CSHL.c ****             uint8 biggestCtrdSize = 0u;
1408:Generated_Source\PSoC4/CapSense_CSHL.c ****             uint8 biggestCtrdStartPos = 0u;
1409:Generated_Source\PSoC4/CapSense_CSHL.c ****         #endif /* (CapSense_IS_DIPLEX_SLIDER) */
1410:Generated_Source\PSoC4/CapSense_CSHL.c ****         uint8 maximum = CapSense_MAXIMUM_CENTROID;
 1977              		.loc 1 1410 0
 1978 001e 0E23     		mov	r3, #14
 1979 0020 FB18     		add	r3, r7, r3
 1980 0022 FF22     		mov	r2, #255
 1981 0024 1A70     		strb	r2, [r3]
1411:Generated_Source\PSoC4/CapSense_CSHL.c **** 
1412:Generated_Source\PSoC4/CapSense_CSHL.c ****         uint8 temp = 0u;
 1982              		.loc 1 1412 0
 1983 0026 0D23     		mov	r3, #13
 1984 0028 FB18     		add	r3, r7, r3
ARM GAS  C:\Users\poornima\AppData\Local\Temp\ccCVn41A.s 			page 61


 1985 002a 0022     		mov	r2, #0
 1986 002c 1A70     		strb	r2, [r3]
1413:Generated_Source\PSoC4/CapSense_CSHL.c ****         uint8 *startOfSlider = &CapSense_sensorSignal[offset];
 1987              		.loc 1 1413 0
 1988 002e FB1D     		add	r3, r7, #7
 1989 0030 1A78     		ldrb	r2, [r3]
 1990 0032 204B     		ldr	r3, .L130
 1991 0034 D318     		add	r3, r2, r3
 1992 0036 BB60     		str	r3, [r7, #8]
1414:Generated_Source\PSoC4/CapSense_CSHL.c **** 
1415:Generated_Source\PSoC4/CapSense_CSHL.c ****         #if (CapSense_IS_DIPLEX_SLIDER)
1416:Generated_Source\PSoC4/CapSense_CSHL.c ****             if(diplex != 0u)
1417:Generated_Source\PSoC4/CapSense_CSHL.c ****             {
1418:Generated_Source\PSoC4/CapSense_CSHL.c ****                 /* Initialize */
1419:Generated_Source\PSoC4/CapSense_CSHL.c ****                 i = 0u;
1420:Generated_Source\PSoC4/CapSense_CSHL.c **** 
1421:Generated_Source\PSoC4/CapSense_CSHL.c ****                 /* Make slider x2 as Diplexed */
1422:Generated_Source\PSoC4/CapSense_CSHL.c ****                 count <<= 1u;
1423:Generated_Source\PSoC4/CapSense_CSHL.c ****                 while(1u)
1424:Generated_Source\PSoC4/CapSense_CSHL.c ****                 {
1425:Generated_Source\PSoC4/CapSense_CSHL.c ****                     if (startOfSlider[curPos] > 0u)    /* Looking for centroids */
1426:Generated_Source\PSoC4/CapSense_CSHL.c ****                     {
1427:Generated_Source\PSoC4/CapSense_CSHL.c ****                         if (curCtrdStartPos == CapSense_MAXIMUM_CENTROID)
1428:Generated_Source\PSoC4/CapSense_CSHL.c ****                         {
1429:Generated_Source\PSoC4/CapSense_CSHL.c ****                             /* Start of centroid */
1430:Generated_Source\PSoC4/CapSense_CSHL.c ****                             curCtrdStartPos = i;
1431:Generated_Source\PSoC4/CapSense_CSHL.c ****                             curCntrdSize++;
1432:Generated_Source\PSoC4/CapSense_CSHL.c ****                         }
1433:Generated_Source\PSoC4/CapSense_CSHL.c ****                         else
1434:Generated_Source\PSoC4/CapSense_CSHL.c ****                         {
1435:Generated_Source\PSoC4/CapSense_CSHL.c ****                             curCntrdSize++;
1436:Generated_Source\PSoC4/CapSense_CSHL.c ****                         }
1437:Generated_Source\PSoC4/CapSense_CSHL.c ****                     }
1438:Generated_Source\PSoC4/CapSense_CSHL.c ****                     else   /* Select biggest and indicate zero start */
1439:Generated_Source\PSoC4/CapSense_CSHL.c ****                     {
1440:Generated_Source\PSoC4/CapSense_CSHL.c ****                         if(curCntrdSize > 0u)
1441:Generated_Source\PSoC4/CapSense_CSHL.c ****                         {
1442:Generated_Source\PSoC4/CapSense_CSHL.c ****                             /* We are at the end of current */
1443:Generated_Source\PSoC4/CapSense_CSHL.c ****                             if(curCntrdSize > biggestCtrdSize)
1444:Generated_Source\PSoC4/CapSense_CSHL.c ****                             {
1445:Generated_Source\PSoC4/CapSense_CSHL.c ****                                 biggestCtrdSize = curCntrdSize;
1446:Generated_Source\PSoC4/CapSense_CSHL.c ****                                 biggestCtrdStartPos = curCtrdStartPos;
1447:Generated_Source\PSoC4/CapSense_CSHL.c ****                             }
1448:Generated_Source\PSoC4/CapSense_CSHL.c **** 
1449:Generated_Source\PSoC4/CapSense_CSHL.c ****                             curCntrdSize = 0u;
1450:Generated_Source\PSoC4/CapSense_CSHL.c ****                             curCtrdStartPos = CapSense_MAXIMUM_CENTROID;
1451:Generated_Source\PSoC4/CapSense_CSHL.c ****                         }
1452:Generated_Source\PSoC4/CapSense_CSHL.c ****                     }
1453:Generated_Source\PSoC4/CapSense_CSHL.c **** 
1454:Generated_Source\PSoC4/CapSense_CSHL.c ****                     i++;
1455:Generated_Source\PSoC4/CapSense_CSHL.c ****                     curPos = diplex[i];
1456:Generated_Source\PSoC4/CapSense_CSHL.c ****                     if(i == count)
1457:Generated_Source\PSoC4/CapSense_CSHL.c ****                     {
1458:Generated_Source\PSoC4/CapSense_CSHL.c ****                         break;
1459:Generated_Source\PSoC4/CapSense_CSHL.c ****                     }
1460:Generated_Source\PSoC4/CapSense_CSHL.c ****                 }
1461:Generated_Source\PSoC4/CapSense_CSHL.c **** 
ARM GAS  C:\Users\poornima\AppData\Local\Temp\ccCVn41A.s 			page 62


1462:Generated_Source\PSoC4/CapSense_CSHL.c ****                     /* Find biggest centroid if two are same size, last one wins
1463:Generated_Source\PSoC4/CapSense_CSHL.c ****                        We are at the end of current */
1464:Generated_Source\PSoC4/CapSense_CSHL.c ****                 if (curCntrdSize >= biggestCtrdSize)
1465:Generated_Source\PSoC4/CapSense_CSHL.c ****                 {
1466:Generated_Source\PSoC4/CapSense_CSHL.c ****                     biggestCtrdSize = curCntrdSize;
1467:Generated_Source\PSoC4/CapSense_CSHL.c ****                     biggestCtrdStartPos = curCtrdStartPos;
1468:Generated_Source\PSoC4/CapSense_CSHL.c ****                 }
1469:Generated_Source\PSoC4/CapSense_CSHL.c ****             }
1470:Generated_Source\PSoC4/CapSense_CSHL.c ****             else
1471:Generated_Source\PSoC4/CapSense_CSHL.c ****             {
1472:Generated_Source\PSoC4/CapSense_CSHL.c ****                 /* Without diplexing */
1473:Generated_Source\PSoC4/CapSense_CSHL.c ****                 biggestCtrdSize = count;
1474:Generated_Source\PSoC4/CapSense_CSHL.c ****             }
1475:Generated_Source\PSoC4/CapSense_CSHL.c **** 
1476:Generated_Source\PSoC4/CapSense_CSHL.c **** 
1477:Generated_Source\PSoC4/CapSense_CSHL.c ****             /* Check centroid size */
1478:Generated_Source\PSoC4/CapSense_CSHL.c ****             #if (CapSense_IS_NON_DIPLEX_SLIDER)
1479:Generated_Source\PSoC4/CapSense_CSHL.c ****                 if((biggestCtrdSize >= 2u) || ((biggestCtrdSize == 1u) && (diplex == 0u)))
1480:Generated_Source\PSoC4/CapSense_CSHL.c ****             #else
1481:Generated_Source\PSoC4/CapSense_CSHL.c ****                 if(biggestCtrdSize >= 2u)
1482:Generated_Source\PSoC4/CapSense_CSHL.c ****             #endif /* (CapSense_IS_NON_DIPLEX_SLIDER) */
1483:Generated_Source\PSoC4/CapSense_CSHL.c ****                 {
1484:Generated_Source\PSoC4/CapSense_CSHL.c ****                     for (i = biggestCtrdStartPos; i < (biggestCtrdStartPos + biggestCtrdSize); i++)
1485:Generated_Source\PSoC4/CapSense_CSHL.c ****                     {
1486:Generated_Source\PSoC4/CapSense_CSHL.c ****                         #if (CapSense_IS_DIPLEX_SLIDER && CapSense_IS_NON_DIPLEX_SLIDER)
1487:Generated_Source\PSoC4/CapSense_CSHL.c ****                             if (diplex == 0u)
1488:Generated_Source\PSoC4/CapSense_CSHL.c ****                             {
1489:Generated_Source\PSoC4/CapSense_CSHL.c ****                                 curPos = i;
1490:Generated_Source\PSoC4/CapSense_CSHL.c ****                             }
1491:Generated_Source\PSoC4/CapSense_CSHL.c ****                             else
1492:Generated_Source\PSoC4/CapSense_CSHL.c ****                             {
1493:Generated_Source\PSoC4/CapSense_CSHL.c ****                                 curPos = diplex[i];
1494:Generated_Source\PSoC4/CapSense_CSHL.c ****                             }
1495:Generated_Source\PSoC4/CapSense_CSHL.c ****                         #elif (CapSense_IS_DIPLEX_SLIDER)
1496:Generated_Source\PSoC4/CapSense_CSHL.c ****                             curPos = diplex[i];
1497:Generated_Source\PSoC4/CapSense_CSHL.c ****                         #endif /* (CapSense_IS_DIPLEX_SLIDER && CapSense_IS_NON_DIPLEX_SLIDER) */
1498:Generated_Source\PSoC4/CapSense_CSHL.c ****                         /* Looking for greater element within centroid */
1499:Generated_Source\PSoC4/CapSense_CSHL.c ****                         if(startOfSlider[curPos] > fingerThreshold)
1500:Generated_Source\PSoC4/CapSense_CSHL.c ****                         {
1501:Generated_Source\PSoC4/CapSense_CSHL.c ****                             if(startOfSlider[curPos] > temp)
1502:Generated_Source\PSoC4/CapSense_CSHL.c ****                             {
1503:Generated_Source\PSoC4/CapSense_CSHL.c ****                                 maximum = i;
1504:Generated_Source\PSoC4/CapSense_CSHL.c ****                                 temp = startOfSlider[curPos];
1505:Generated_Source\PSoC4/CapSense_CSHL.c ****                             }
1506:Generated_Source\PSoC4/CapSense_CSHL.c ****                         }
1507:Generated_Source\PSoC4/CapSense_CSHL.c ****                     }
1508:Generated_Source\PSoC4/CapSense_CSHL.c ****                 }
1509:Generated_Source\PSoC4/CapSense_CSHL.c ****         #else
1510:Generated_Source\PSoC4/CapSense_CSHL.c ****             for (i = 0u; i < count; i++)
 1993              		.loc 1 1510 0
 1994 0038 0F23     		mov	r3, #15
 1995 003a FB18     		add	r3, r7, r3
 1996 003c 0022     		mov	r2, #0
 1997 003e 1A70     		strb	r2, [r3]
 1998 0040 2AE0     		b	.L126
 1999              	.L128:
1511:Generated_Source\PSoC4/CapSense_CSHL.c ****             {
ARM GAS  C:\Users\poornima\AppData\Local\Temp\ccCVn41A.s 			page 63


1512:Generated_Source\PSoC4/CapSense_CSHL.c ****                 /* Looking for greater element within centroid */
1513:Generated_Source\PSoC4/CapSense_CSHL.c ****                 if(startOfSlider[i] > fingerThreshold)
 2000              		.loc 1 1513 0
 2001 0042 0F23     		mov	r3, #15
 2002 0044 FB18     		add	r3, r7, r3
 2003 0046 1B78     		ldrb	r3, [r3]
 2004 0048 BA68     		ldr	r2, [r7, #8]
 2005 004a D318     		add	r3, r2, r3
 2006 004c 1B78     		ldrb	r3, [r3]
 2007 004e 7A1D     		add	r2, r7, #5
 2008 0050 1278     		ldrb	r2, [r2]
 2009 0052 9A42     		cmp	r2, r3
 2010 0054 19D2     		bcs	.L127
1514:Generated_Source\PSoC4/CapSense_CSHL.c ****                 {
1515:Generated_Source\PSoC4/CapSense_CSHL.c ****                     if(startOfSlider[i] > temp)
 2011              		.loc 1 1515 0
 2012 0056 0F23     		mov	r3, #15
 2013 0058 FB18     		add	r3, r7, r3
 2014 005a 1B78     		ldrb	r3, [r3]
 2015 005c BA68     		ldr	r2, [r7, #8]
 2016 005e D318     		add	r3, r2, r3
 2017 0060 1B78     		ldrb	r3, [r3]
 2018 0062 0D22     		mov	r2, #13
 2019 0064 BA18     		add	r2, r7, r2
 2020 0066 1278     		ldrb	r2, [r2]
 2021 0068 9A42     		cmp	r2, r3
 2022 006a 0ED2     		bcs	.L127
1516:Generated_Source\PSoC4/CapSense_CSHL.c ****                     {
1517:Generated_Source\PSoC4/CapSense_CSHL.c ****                         maximum = i;
 2023              		.loc 1 1517 0
 2024 006c 0E23     		mov	r3, #14
 2025 006e FB18     		add	r3, r7, r3
 2026 0070 0F22     		mov	r2, #15
 2027 0072 BA18     		add	r2, r7, r2
 2028 0074 1278     		ldrb	r2, [r2]
 2029 0076 1A70     		strb	r2, [r3]
1518:Generated_Source\PSoC4/CapSense_CSHL.c ****                         temp = startOfSlider[i];
 2030              		.loc 1 1518 0
 2031 0078 0F23     		mov	r3, #15
 2032 007a FB18     		add	r3, r7, r3
 2033 007c 1B78     		ldrb	r3, [r3]
 2034 007e BA68     		ldr	r2, [r7, #8]
 2035 0080 D218     		add	r2, r2, r3
 2036 0082 0D23     		mov	r3, #13
 2037 0084 FB18     		add	r3, r7, r3
 2038 0086 1278     		ldrb	r2, [r2]
 2039 0088 1A70     		strb	r2, [r3]
 2040              	.L127:
1510:Generated_Source\PSoC4/CapSense_CSHL.c ****             {
 2041              		.loc 1 1510 0 discriminator 2
 2042 008a 0F23     		mov	r3, #15
 2043 008c FB18     		add	r3, r7, r3
 2044 008e 1A78     		ldrb	r2, [r3]
 2045 0090 0F23     		mov	r3, #15
 2046 0092 FB18     		add	r3, r7, r3
 2047 0094 0132     		add	r2, r2, #1
 2048 0096 1A70     		strb	r2, [r3]
ARM GAS  C:\Users\poornima\AppData\Local\Temp\ccCVn41A.s 			page 64


 2049              	.L126:
1510:Generated_Source\PSoC4/CapSense_CSHL.c ****             {
 2050              		.loc 1 1510 0 is_stmt 0 discriminator 1
 2051 0098 0F23     		mov	r3, #15
 2052 009a FA18     		add	r2, r7, r3
 2053 009c BB1D     		add	r3, r7, #6
 2054 009e 1278     		ldrb	r2, [r2]
 2055 00a0 1B78     		ldrb	r3, [r3]
 2056 00a2 9A42     		cmp	r2, r3
 2057 00a4 CDD3     		bcc	.L128
1519:Generated_Source\PSoC4/CapSense_CSHL.c ****                     }
1520:Generated_Source\PSoC4/CapSense_CSHL.c ****                 }
1521:Generated_Source\PSoC4/CapSense_CSHL.c ****             }
1522:Generated_Source\PSoC4/CapSense_CSHL.c ****         #endif /* (CapSense_IS_DIPLEX_SLIDER) */
1523:Generated_Source\PSoC4/CapSense_CSHL.c ****         return (maximum);
 2058              		.loc 1 1523 0 is_stmt 1
 2059 00a6 0E23     		mov	r3, #14
 2060 00a8 FB18     		add	r3, r7, r3
 2061 00aa 1B78     		ldrb	r3, [r3]
1524:Generated_Source\PSoC4/CapSense_CSHL.c ****     }
 2062              		.loc 1 1524 0
 2063 00ac 181C     		mov	r0, r3
 2064 00ae BD46     		mov	sp, r7
 2065 00b0 05B0     		add	sp, sp, #20
 2066              		@ sp needed
 2067 00b2 90BD     		pop	{r4, r7, pc}
 2068              	.L131:
 2069              		.align	2
 2070              	.L130:
 2071 00b4 00000000 		.word	CapSense_sensorSignal
 2072              		.cfi_endproc
 2073              	.LFE62:
 2074              		.size	CapSense_FindMaximum, .-CapSense_FindMaximum
 2075              		.global	__aeabi_idiv
 2076              		.section	.text.CapSense_CalcCentroid,"ax",%progbits
 2077              		.align	2
 2078              		.global	CapSense_CalcCentroid
 2079              		.code	16
 2080              		.thumb_func
 2081              		.type	CapSense_CalcCentroid, %function
 2082              	CapSense_CalcCentroid:
 2083              	.LFB63:
1525:Generated_Source\PSoC4/CapSense_CSHL.c **** 
1526:Generated_Source\PSoC4/CapSense_CSHL.c **** 
1527:Generated_Source\PSoC4/CapSense_CSHL.c ****     /*******************************************************************************
1528:Generated_Source\PSoC4/CapSense_CSHL.c ****     * Function Name: CapSense_CalcCentroid
1529:Generated_Source\PSoC4/CapSense_CSHL.c ****     ********************************************************************************
1530:Generated_Source\PSoC4/CapSense_CSHL.c ****     *
1531:Generated_Source\PSoC4/CapSense_CSHL.c ****     * Summary:
1532:Generated_Source\PSoC4/CapSense_CSHL.c ****     *  Returns a position value calculated according to the index of the maximum element and API
1533:Generated_Source\PSoC4/CapSense_CSHL.c ****     *  resolution.
1534:Generated_Source\PSoC4/CapSense_CSHL.c ****     *
1535:Generated_Source\PSoC4/CapSense_CSHL.c ****     * Parameters:
1536:Generated_Source\PSoC4/CapSense_CSHL.c ****     *  type:  widget type.
1537:Generated_Source\PSoC4/CapSense_CSHL.c ****     *  diplex:  pointer to diplex table.
1538:Generated_Source\PSoC4/CapSense_CSHL.c ****     *  maximum:  Index of maximum element within centroid.
1539:Generated_Source\PSoC4/CapSense_CSHL.c ****     *  offset:   Start index of centroid in CapSense_sensorSignal[] array.
ARM GAS  C:\Users\poornima\AppData\Local\Temp\ccCVn41A.s 			page 65


1540:Generated_Source\PSoC4/CapSense_CSHL.c ****     *  count:    Number of elements within centroid.
1541:Generated_Source\PSoC4/CapSense_CSHL.c ****     *  resolution:  multiplicator calculated according to centroid type and
1542:Generated_Source\PSoC4/CapSense_CSHL.c ****     *  API resolution.
1543:Generated_Source\PSoC4/CapSense_CSHL.c ****     *  noiseThreshold:  Noise threshold.
1544:Generated_Source\PSoC4/CapSense_CSHL.c ****     *
1545:Generated_Source\PSoC4/CapSense_CSHL.c ****     * Return:
1546:Generated_Source\PSoC4/CapSense_CSHL.c ****     *  Returns a position value of the slider.
1547:Generated_Source\PSoC4/CapSense_CSHL.c ****     *
1548:Generated_Source\PSoC4/CapSense_CSHL.c ****     * Side Effects:
1549:Generated_Source\PSoC4/CapSense_CSHL.c ****     *  None
1550:Generated_Source\PSoC4/CapSense_CSHL.c ****     *
1551:Generated_Source\PSoC4/CapSense_CSHL.c ****     *******************************************************************************/
1552:Generated_Source\PSoC4/CapSense_CSHL.c **** #if (CapSense_TOTAL_TRACKPAD_GESTURES_COUNT > 0u)
1553:Generated_Source\PSoC4/CapSense_CSHL.c ****     uint8 CapSense_CalcCentroid(uint8 maximum, uint8 offset,
1554:Generated_Source\PSoC4/CapSense_CSHL.c ****                                         uint8 count, uint32 resolution, uint8 noiseThreshold)
1555:Generated_Source\PSoC4/CapSense_CSHL.c **** #else
1556:Generated_Source\PSoC4/CapSense_CSHL.c ****     uint8 CapSense_CalcCentroid(uint8 maximum, uint8 offset,
1557:Generated_Source\PSoC4/CapSense_CSHL.c ****                                         uint8 count, uint16 resolution, uint8 noiseThreshold)
1558:Generated_Source\PSoC4/CapSense_CSHL.c **** #endif /* (CapSense_TOTAL_TRACKPAD_GESTURES_COUNT > 0u) */
1559:Generated_Source\PSoC4/CapSense_CSHL.c ****     {
 2084              		.loc 1 1559 0
 2085              		.cfi_startproc
 2086 0000 B0B5     		push	{r4, r5, r7, lr}
 2087              		.cfi_def_cfa_offset 16
 2088              		.cfi_offset 4, -16
 2089              		.cfi_offset 5, -12
 2090              		.cfi_offset 7, -8
 2091              		.cfi_offset 14, -4
 2092 0002 86B0     		sub	sp, sp, #24
 2093              		.cfi_def_cfa_offset 40
 2094 0004 00AF     		add	r7, sp, #0
 2095              		.cfi_def_cfa_register 7
 2096 0006 051C     		mov	r5, r0
 2097 0008 0C1C     		mov	r4, r1
 2098 000a 101C     		mov	r0, r2
 2099 000c 191C     		mov	r1, r3
 2100 000e FB1D     		add	r3, r7, #7
 2101 0010 2A1C     		add	r2, r5, #0
 2102 0012 1A70     		strb	r2, [r3]
 2103 0014 BB1D     		add	r3, r7, #6
 2104 0016 221C     		add	r2, r4, #0
 2105 0018 1A70     		strb	r2, [r3]
 2106 001a 7B1D     		add	r3, r7, #5
 2107 001c 021C     		add	r2, r0, #0
 2108 001e 1A70     		strb	r2, [r3]
 2109 0020 BB1C     		add	r3, r7, #2
 2110 0022 0A1C     		add	r2, r1, #0
 2111 0024 1A80     		strh	r2, [r3]
1560:Generated_Source\PSoC4/CapSense_CSHL.c ****         #if ((CapSense_TOTAL_LINEAR_SLIDERS_COUNT > 0u) || (CapSense_TOTAL_TOUCH_PADS_BASIC_COUNT >
1561:Generated_Source\PSoC4/CapSense_CSHL.c ****             uint8 posPrev;
1562:Generated_Source\PSoC4/CapSense_CSHL.c ****             uint8 posNext;
1563:Generated_Source\PSoC4/CapSense_CSHL.c ****         #endif /* ((CapSense_TOTAL_LINEAR_SLIDERS_COUNT>0u) || (CapSense_TOTAL_TOUCH_PADS_BASIC_COU
1564:Generated_Source\PSoC4/CapSense_CSHL.c **** 
1565:Generated_Source\PSoC4/CapSense_CSHL.c ****         /* Helps during centroid calculation */
1566:Generated_Source\PSoC4/CapSense_CSHL.c ****         #if (CapSense_TOTAL_CENTROIDS_BASIC_COUNT)
1567:Generated_Source\PSoC4/CapSense_CSHL.c ****             static uint8 CapSense_centroid[3u];
1568:Generated_Source\PSoC4/CapSense_CSHL.c ****         #endif  /* (CapSense_TOTAL_CENTROIDS_BASIC_COUNT) */
ARM GAS  C:\Users\poornima\AppData\Local\Temp\ccCVn41A.s 			page 66


1569:Generated_Source\PSoC4/CapSense_CSHL.c **** 
1570:Generated_Source\PSoC4/CapSense_CSHL.c ****         #if (CapSense_IS_DIPLEX_SLIDER)
1571:Generated_Source\PSoC4/CapSense_CSHL.c ****             uint8 pos;
1572:Generated_Source\PSoC4/CapSense_CSHL.c ****         #endif /* (CapSense_IS_DIPLEX_SLIDER) */
1573:Generated_Source\PSoC4/CapSense_CSHL.c **** 
1574:Generated_Source\PSoC4/CapSense_CSHL.c ****         uint8 position;
1575:Generated_Source\PSoC4/CapSense_CSHL.c ****         uint32 numerator;
1576:Generated_Source\PSoC4/CapSense_CSHL.c ****         int32 denominator;
1577:Generated_Source\PSoC4/CapSense_CSHL.c **** 
1578:Generated_Source\PSoC4/CapSense_CSHL.c ****         uint8  *startOfSlider = &CapSense_sensorSignal[offset];
 2112              		.loc 1 1578 0
 2113 0026 BB1D     		add	r3, r7, #6
 2114 0028 1A78     		ldrb	r2, [r3]
 2115 002a 584B     		ldr	r3, .L142
 2116 002c D318     		add	r3, r2, r3
 2117 002e 3B61     		str	r3, [r7, #16]
1579:Generated_Source\PSoC4/CapSense_CSHL.c **** 
1580:Generated_Source\PSoC4/CapSense_CSHL.c ****         #if ((CapSense_TOTAL_LINEAR_SLIDERS_COUNT > 0u) || (CapSense_TOTAL_TOUCH_PADS_BASIC_COUNT >
1581:Generated_Source\PSoC4/CapSense_CSHL.c ****             posPrev = 0u;
1582:Generated_Source\PSoC4/CapSense_CSHL.c ****         #endif /* ((CapSense_TOTAL_LINEAR_SLIDERS_COUNT>0u) || (CapSense_TOTAL_TOUCH_PADS_BASIC_COU
1583:Generated_Source\PSoC4/CapSense_CSHL.c **** 
1584:Generated_Source\PSoC4/CapSense_CSHL.c ****         #if (CapSense_ADD_SLIDER_TYPE)
1585:Generated_Source\PSoC4/CapSense_CSHL.c ****             if(type == CapSense_TYPE_RADIAL_SLIDER)
1586:Generated_Source\PSoC4/CapSense_CSHL.c ****             {
1587:Generated_Source\PSoC4/CapSense_CSHL.c ****         #endif /* (CapSense_ADD_SLIDER_TYPE) */
1588:Generated_Source\PSoC4/CapSense_CSHL.c **** 
1589:Generated_Source\PSoC4/CapSense_CSHL.c ****             #if (CapSense_TOTAL_RADIAL_SLIDERS_COUNT > 0u)
1590:Generated_Source\PSoC4/CapSense_CSHL.c ****                 /* Copy Signal to the centroid array */
1591:Generated_Source\PSoC4/CapSense_CSHL.c ****                 CapSense_centroid[CapSense_POS] = startOfSlider[maximum];
 2118              		.loc 1 1591 0
 2119 0030 FB1D     		add	r3, r7, #7
 2120 0032 1B78     		ldrb	r3, [r3]
 2121 0034 3A69     		ldr	r2, [r7, #16]
 2122 0036 D318     		add	r3, r2, r3
 2123 0038 1A78     		ldrb	r2, [r3]
 2124 003a 554B     		ldr	r3, .L142+4
 2125 003c 5A70     		strb	r2, [r3, #1]
1592:Generated_Source\PSoC4/CapSense_CSHL.c **** 
1593:Generated_Source\PSoC4/CapSense_CSHL.c ****                 /* Check borders for ROTARY Slider */
1594:Generated_Source\PSoC4/CapSense_CSHL.c ****                 if (maximum == 0u)                   /* Start of centroid */
 2126              		.loc 1 1594 0
 2127 003e FB1D     		add	r3, r7, #7
 2128 0040 1B78     		ldrb	r3, [r3]
 2129 0042 002B     		cmp	r3, #0
 2130 0044 0CD1     		bne	.L133
1595:Generated_Source\PSoC4/CapSense_CSHL.c ****                 {
1596:Generated_Source\PSoC4/CapSense_CSHL.c ****                     CapSense_centroid[CapSense_POS_PREV] = startOfSlider[count - 1u];
 2131              		.loc 1 1596 0
 2132 0046 7B1D     		add	r3, r7, #5
 2133 0048 1B78     		ldrb	r3, [r3]
 2134 004a 013B     		sub	r3, r3, #1
 2135 004c 3A69     		ldr	r2, [r7, #16]
 2136 004e D318     		add	r3, r2, r3
 2137 0050 1A78     		ldrb	r2, [r3]
 2138 0052 4F4B     		ldr	r3, .L142+4
 2139 0054 1A70     		strb	r2, [r3]
1597:Generated_Source\PSoC4/CapSense_CSHL.c ****                     CapSense_centroid[CapSense_POS_NEXT] = startOfSlider[1u];
ARM GAS  C:\Users\poornima\AppData\Local\Temp\ccCVn41A.s 			page 67


 2140              		.loc 1 1597 0
 2141 0056 3B69     		ldr	r3, [r7, #16]
 2142 0058 5A78     		ldrb	r2, [r3, #1]
 2143 005a 4D4B     		ldr	r3, .L142+4
 2144 005c 9A70     		strb	r2, [r3, #2]
 2145 005e 23E0     		b	.L134
 2146              	.L133:
1598:Generated_Source\PSoC4/CapSense_CSHL.c ****                 }
1599:Generated_Source\PSoC4/CapSense_CSHL.c ****                 else if (maximum == (count - 1u))    /* End of centroid */
 2147              		.loc 1 1599 0
 2148 0060 FB1D     		add	r3, r7, #7
 2149 0062 1A78     		ldrb	r2, [r3]
 2150 0064 7B1D     		add	r3, r7, #5
 2151 0066 1B78     		ldrb	r3, [r3]
 2152 0068 013B     		sub	r3, r3, #1
 2153 006a 9A42     		cmp	r2, r3
 2154 006c 0CD1     		bne	.L135
1600:Generated_Source\PSoC4/CapSense_CSHL.c ****                 {
1601:Generated_Source\PSoC4/CapSense_CSHL.c ****                     CapSense_centroid[CapSense_POS_PREV] = startOfSlider[maximum - 1u];
 2155              		.loc 1 1601 0
 2156 006e FB1D     		add	r3, r7, #7
 2157 0070 1B78     		ldrb	r3, [r3]
 2158 0072 013B     		sub	r3, r3, #1
 2159 0074 3A69     		ldr	r2, [r7, #16]
 2160 0076 D318     		add	r3, r2, r3
 2161 0078 1A78     		ldrb	r2, [r3]
 2162 007a 454B     		ldr	r3, .L142+4
 2163 007c 1A70     		strb	r2, [r3]
1602:Generated_Source\PSoC4/CapSense_CSHL.c ****                     CapSense_centroid[CapSense_POS_NEXT] = startOfSlider[0u];
 2164              		.loc 1 1602 0
 2165 007e 3B69     		ldr	r3, [r7, #16]
 2166 0080 1A78     		ldrb	r2, [r3]
 2167 0082 434B     		ldr	r3, .L142+4
 2168 0084 9A70     		strb	r2, [r3, #2]
 2169 0086 0FE0     		b	.L134
 2170              	.L135:
1603:Generated_Source\PSoC4/CapSense_CSHL.c ****                 }
1604:Generated_Source\PSoC4/CapSense_CSHL.c ****                 else                                /* Not first Not last */
1605:Generated_Source\PSoC4/CapSense_CSHL.c ****                 {
1606:Generated_Source\PSoC4/CapSense_CSHL.c ****                     CapSense_centroid[CapSense_POS_PREV] = startOfSlider[maximum - 1u];
 2171              		.loc 1 1606 0
 2172 0088 FB1D     		add	r3, r7, #7
 2173 008a 1B78     		ldrb	r3, [r3]
 2174 008c 013B     		sub	r3, r3, #1
 2175 008e 3A69     		ldr	r2, [r7, #16]
 2176 0090 D318     		add	r3, r2, r3
 2177 0092 1A78     		ldrb	r2, [r3]
 2178 0094 3E4B     		ldr	r3, .L142+4
 2179 0096 1A70     		strb	r2, [r3]
1607:Generated_Source\PSoC4/CapSense_CSHL.c ****                     CapSense_centroid[CapSense_POS_NEXT] = startOfSlider[maximum + 1u];
 2180              		.loc 1 1607 0
 2181 0098 FB1D     		add	r3, r7, #7
 2182 009a 1B78     		ldrb	r3, [r3]
 2183 009c 0133     		add	r3, r3, #1
 2184 009e 3A69     		ldr	r2, [r7, #16]
 2185 00a0 D318     		add	r3, r2, r3
 2186 00a2 1A78     		ldrb	r2, [r3]
ARM GAS  C:\Users\poornima\AppData\Local\Temp\ccCVn41A.s 			page 68


 2187 00a4 3A4B     		ldr	r3, .L142+4
 2188 00a6 9A70     		strb	r2, [r3, #2]
 2189              	.L134:
1608:Generated_Source\PSoC4/CapSense_CSHL.c ****                 }
1609:Generated_Source\PSoC4/CapSense_CSHL.c ****             #endif /* (CapSense_TOTAL_RADIAL_SLIDERS_COUNT > 0u) */
1610:Generated_Source\PSoC4/CapSense_CSHL.c **** 
1611:Generated_Source\PSoC4/CapSense_CSHL.c ****         #if (CapSense_ADD_SLIDER_TYPE)
1612:Generated_Source\PSoC4/CapSense_CSHL.c ****             }
1613:Generated_Source\PSoC4/CapSense_CSHL.c ****             else
1614:Generated_Source\PSoC4/CapSense_CSHL.c ****             {
1615:Generated_Source\PSoC4/CapSense_CSHL.c ****         #endif /* (CapSense_ADD_SLIDER_TYPE) */
1616:Generated_Source\PSoC4/CapSense_CSHL.c **** 
1617:Generated_Source\PSoC4/CapSense_CSHL.c ****             #if ((CapSense_TOTAL_LINEAR_SLIDERS_COUNT > 0u) || (CapSense_TOTAL_TOUCH_PADS_BASIC_COU
1618:Generated_Source\PSoC4/CapSense_CSHL.c ****                 #if (CapSense_IS_DIPLEX_SLIDER && CapSense_IS_NON_DIPLEX_SLIDER)
1619:Generated_Source\PSoC4/CapSense_CSHL.c ****                     /* Calculate next and previous near to maximum */
1620:Generated_Source\PSoC4/CapSense_CSHL.c ****                     if(diplex == 0u)
1621:Generated_Source\PSoC4/CapSense_CSHL.c ****                     {
1622:Generated_Source\PSoC4/CapSense_CSHL.c ****                         pos     = maximum;
1623:Generated_Source\PSoC4/CapSense_CSHL.c ****                         posPrev = maximum - 1u;
1624:Generated_Source\PSoC4/CapSense_CSHL.c ****                         posNext = maximum + 1u;
1625:Generated_Source\PSoC4/CapSense_CSHL.c ****                     }
1626:Generated_Source\PSoC4/CapSense_CSHL.c ****                     else
1627:Generated_Source\PSoC4/CapSense_CSHL.c ****                     {
1628:Generated_Source\PSoC4/CapSense_CSHL.c ****                         pos     = diplex[maximum];
1629:Generated_Source\PSoC4/CapSense_CSHL.c ****                         posPrev = diplex[maximum - 1u];
1630:Generated_Source\PSoC4/CapSense_CSHL.c ****                         posNext = diplex[maximum + 1u];
1631:Generated_Source\PSoC4/CapSense_CSHL.c ****                         count <<= 1u;
1632:Generated_Source\PSoC4/CapSense_CSHL.c ****                     }
1633:Generated_Source\PSoC4/CapSense_CSHL.c ****                 #elif (CapSense_IS_DIPLEX_SLIDER)
1634:Generated_Source\PSoC4/CapSense_CSHL.c ****                     /* Calculate next and previous near to maximum */
1635:Generated_Source\PSoC4/CapSense_CSHL.c ****                     pos     = diplex[maximum];
1636:Generated_Source\PSoC4/CapSense_CSHL.c ****                     posPrev = diplex[maximum - 1u];
1637:Generated_Source\PSoC4/CapSense_CSHL.c ****                     posNext = diplex[maximum + 1u];
1638:Generated_Source\PSoC4/CapSense_CSHL.c ****                     count <<= 1u;
1639:Generated_Source\PSoC4/CapSense_CSHL.c ****                 #else
1640:Generated_Source\PSoC4/CapSense_CSHL.c ****                     /* Calculate next and previous near to maximum */
1641:Generated_Source\PSoC4/CapSense_CSHL.c ****                     if (maximum >= 1u)
1642:Generated_Source\PSoC4/CapSense_CSHL.c ****                     {
1643:Generated_Source\PSoC4/CapSense_CSHL.c ****                         posPrev = maximum - 1u;
1644:Generated_Source\PSoC4/CapSense_CSHL.c ****                     }
1645:Generated_Source\PSoC4/CapSense_CSHL.c ****                     posNext = maximum + 1u;
1646:Generated_Source\PSoC4/CapSense_CSHL.c ****                 #endif /* (CapSense_IS_DIPLEX_SLIDER && CapSense_IS_NON_DIPLEX_SLIDER) */
1647:Generated_Source\PSoC4/CapSense_CSHL.c **** 
1648:Generated_Source\PSoC4/CapSense_CSHL.c ****                 /* Copy Signal to the centroid array */
1649:Generated_Source\PSoC4/CapSense_CSHL.c ****                 #if (CapSense_IS_DIPLEX_SLIDER)
1650:Generated_Source\PSoC4/CapSense_CSHL.c ****                     CapSense_centroid[CapSense_POS] = startOfSlider[pos];
1651:Generated_Source\PSoC4/CapSense_CSHL.c ****                 #else
1652:Generated_Source\PSoC4/CapSense_CSHL.c ****                     CapSense_centroid[CapSense_POS] = startOfSlider[maximum];
1653:Generated_Source\PSoC4/CapSense_CSHL.c ****                 #endif /* (CapSense_IS_DIPLEX_SLIDER) */
1654:Generated_Source\PSoC4/CapSense_CSHL.c **** 
1655:Generated_Source\PSoC4/CapSense_CSHL.c ****                 /* Check borders for LINEAR Slider */
1656:Generated_Source\PSoC4/CapSense_CSHL.c ****                 if (maximum == 0u)                   /* Start of centroid */
1657:Generated_Source\PSoC4/CapSense_CSHL.c ****                 {
1658:Generated_Source\PSoC4/CapSense_CSHL.c ****                     CapSense_centroid[CapSense_POS_PREV] = 0u;
1659:Generated_Source\PSoC4/CapSense_CSHL.c ****                     CapSense_centroid[CapSense_POS_NEXT] = startOfSlider[posNext];
1660:Generated_Source\PSoC4/CapSense_CSHL.c ****                 }
1661:Generated_Source\PSoC4/CapSense_CSHL.c ****                 else if (maximum == ((count) - 1u)) /* End of centroid */
ARM GAS  C:\Users\poornima\AppData\Local\Temp\ccCVn41A.s 			page 69


1662:Generated_Source\PSoC4/CapSense_CSHL.c ****                 {
1663:Generated_Source\PSoC4/CapSense_CSHL.c ****                     CapSense_centroid[CapSense_POS_PREV] = startOfSlider[posPrev];
1664:Generated_Source\PSoC4/CapSense_CSHL.c ****                     CapSense_centroid[CapSense_POS_NEXT] = 0u;
1665:Generated_Source\PSoC4/CapSense_CSHL.c ****                 }
1666:Generated_Source\PSoC4/CapSense_CSHL.c ****                 else                                /* Not first Not last */
1667:Generated_Source\PSoC4/CapSense_CSHL.c ****                 {
1668:Generated_Source\PSoC4/CapSense_CSHL.c ****                     CapSense_centroid[CapSense_POS_PREV] = startOfSlider[posPrev];
1669:Generated_Source\PSoC4/CapSense_CSHL.c ****                     CapSense_centroid[CapSense_POS_NEXT] = startOfSlider[posNext];
1670:Generated_Source\PSoC4/CapSense_CSHL.c ****                 }
1671:Generated_Source\PSoC4/CapSense_CSHL.c ****             #endif /* ((CapSense_TOTAL_LINEAR_SLIDERS_COUNT>0u)||(CapSense_TOTAL_TOUCH_PADS_BASIC_C
1672:Generated_Source\PSoC4/CapSense_CSHL.c **** 
1673:Generated_Source\PSoC4/CapSense_CSHL.c ****         #if (CapSense_ADD_SLIDER_TYPE)
1674:Generated_Source\PSoC4/CapSense_CSHL.c ****             }
1675:Generated_Source\PSoC4/CapSense_CSHL.c ****         #endif /* (CapSense_ADD_SLIDER_TYPE) */
1676:Generated_Source\PSoC4/CapSense_CSHL.c **** 
1677:Generated_Source\PSoC4/CapSense_CSHL.c ****         /* Subtract noiseThreshold */
1678:Generated_Source\PSoC4/CapSense_CSHL.c ****         if(CapSense_centroid[CapSense_POS_PREV] > noiseThreshold)
 2190              		.loc 1 1678 0
 2191 00a8 394B     		ldr	r3, .L142+4
 2192 00aa 1B78     		ldrb	r3, [r3]
 2193 00ac 2822     		mov	r2, #40
 2194 00ae BA18     		add	r2, r7, r2
 2195 00b0 1278     		ldrb	r2, [r2]
 2196 00b2 9A42     		cmp	r2, r3
 2197 00b4 09D2     		bcs	.L136
1679:Generated_Source\PSoC4/CapSense_CSHL.c ****         {
1680:Generated_Source\PSoC4/CapSense_CSHL.c ****             CapSense_centroid[CapSense_POS_PREV] -= noiseThreshold;
 2198              		.loc 1 1680 0
 2199 00b6 364B     		ldr	r3, .L142+4
 2200 00b8 1A78     		ldrb	r2, [r3]
 2201 00ba 2823     		mov	r3, #40
 2202 00bc FB18     		add	r3, r7, r3
 2203 00be 1B78     		ldrb	r3, [r3]
 2204 00c0 D31A     		sub	r3, r2, r3
 2205 00c2 DAB2     		uxtb	r2, r3
 2206 00c4 324B     		ldr	r3, .L142+4
 2207 00c6 1A70     		strb	r2, [r3]
 2208 00c8 02E0     		b	.L137
 2209              	.L136:
1681:Generated_Source\PSoC4/CapSense_CSHL.c ****         }
1682:Generated_Source\PSoC4/CapSense_CSHL.c ****         else
1683:Generated_Source\PSoC4/CapSense_CSHL.c ****         {
1684:Generated_Source\PSoC4/CapSense_CSHL.c ****             CapSense_centroid[CapSense_POS_PREV] = 0u;
 2210              		.loc 1 1684 0
 2211 00ca 314B     		ldr	r3, .L142+4
 2212 00cc 0022     		mov	r2, #0
 2213 00ce 1A70     		strb	r2, [r3]
 2214              	.L137:
1685:Generated_Source\PSoC4/CapSense_CSHL.c ****         }
1686:Generated_Source\PSoC4/CapSense_CSHL.c **** 
1687:Generated_Source\PSoC4/CapSense_CSHL.c ****         /* Maximum always greater than fingerThreshold, so greater than noiseThreshold */
1688:Generated_Source\PSoC4/CapSense_CSHL.c ****         CapSense_centroid[CapSense_POS] -= noiseThreshold;
 2215              		.loc 1 1688 0
 2216 00d0 2F4B     		ldr	r3, .L142+4
 2217 00d2 5A78     		ldrb	r2, [r3, #1]
 2218 00d4 2823     		mov	r3, #40
 2219 00d6 FB18     		add	r3, r7, r3
ARM GAS  C:\Users\poornima\AppData\Local\Temp\ccCVn41A.s 			page 70


 2220 00d8 1B78     		ldrb	r3, [r3]
 2221 00da D31A     		sub	r3, r2, r3
 2222 00dc DAB2     		uxtb	r2, r3
 2223 00de 2C4B     		ldr	r3, .L142+4
 2224 00e0 5A70     		strb	r2, [r3, #1]
1689:Generated_Source\PSoC4/CapSense_CSHL.c **** 
1690:Generated_Source\PSoC4/CapSense_CSHL.c ****         /* Subtract noiseThreshold */
1691:Generated_Source\PSoC4/CapSense_CSHL.c ****         if(CapSense_centroid[CapSense_POS_NEXT] > noiseThreshold)
 2225              		.loc 1 1691 0
 2226 00e2 2B4B     		ldr	r3, .L142+4
 2227 00e4 9B78     		ldrb	r3, [r3, #2]
 2228 00e6 2822     		mov	r2, #40
 2229 00e8 BA18     		add	r2, r7, r2
 2230 00ea 1278     		ldrb	r2, [r2]
 2231 00ec 9A42     		cmp	r2, r3
 2232 00ee 09D2     		bcs	.L138
1692:Generated_Source\PSoC4/CapSense_CSHL.c ****         {
1693:Generated_Source\PSoC4/CapSense_CSHL.c ****             CapSense_centroid[CapSense_POS_NEXT] -= noiseThreshold;
 2233              		.loc 1 1693 0
 2234 00f0 274B     		ldr	r3, .L142+4
 2235 00f2 9A78     		ldrb	r2, [r3, #2]
 2236 00f4 2823     		mov	r3, #40
 2237 00f6 FB18     		add	r3, r7, r3
 2238 00f8 1B78     		ldrb	r3, [r3]
 2239 00fa D31A     		sub	r3, r2, r3
 2240 00fc DAB2     		uxtb	r2, r3
 2241 00fe 244B     		ldr	r3, .L142+4
 2242 0100 9A70     		strb	r2, [r3, #2]
 2243 0102 02E0     		b	.L139
 2244              	.L138:
1694:Generated_Source\PSoC4/CapSense_CSHL.c ****         }
1695:Generated_Source\PSoC4/CapSense_CSHL.c ****         else
1696:Generated_Source\PSoC4/CapSense_CSHL.c ****         {
1697:Generated_Source\PSoC4/CapSense_CSHL.c ****             CapSense_centroid[CapSense_POS_NEXT] = 0u;
 2245              		.loc 1 1697 0
 2246 0104 224B     		ldr	r3, .L142+4
 2247 0106 0022     		mov	r2, #0
 2248 0108 9A70     		strb	r2, [r3, #2]
 2249              	.L139:
1698:Generated_Source\PSoC4/CapSense_CSHL.c ****         }
1699:Generated_Source\PSoC4/CapSense_CSHL.c **** 
1700:Generated_Source\PSoC4/CapSense_CSHL.c **** 
1701:Generated_Source\PSoC4/CapSense_CSHL.c ****         /* Si+1 - Si-1 */
1702:Generated_Source\PSoC4/CapSense_CSHL.c ****         numerator = (uint32) CapSense_centroid[CapSense_POS_NEXT] -
 2250              		.loc 1 1702 0
 2251 010a 214B     		ldr	r3, .L142+4
 2252 010c 9B78     		ldrb	r3, [r3, #2]
 2253 010e 1A1C     		mov	r2, r3
1703:Generated_Source\PSoC4/CapSense_CSHL.c ****                     (uint32) CapSense_centroid[CapSense_POS_PREV];
 2254              		.loc 1 1703 0
 2255 0110 1F4B     		ldr	r3, .L142+4
 2256 0112 1B78     		ldrb	r3, [r3]
1702:Generated_Source\PSoC4/CapSense_CSHL.c ****                     (uint32) CapSense_centroid[CapSense_POS_PREV];
 2257              		.loc 1 1702 0
 2258 0114 D31A     		sub	r3, r2, r3
 2259 0116 FB60     		str	r3, [r7, #12]
1704:Generated_Source\PSoC4/CapSense_CSHL.c **** 
ARM GAS  C:\Users\poornima\AppData\Local\Temp\ccCVn41A.s 			page 71


1705:Generated_Source\PSoC4/CapSense_CSHL.c ****         /* Si+1 + Si + Si-1 */
1706:Generated_Source\PSoC4/CapSense_CSHL.c ****         denominator = (int32) CapSense_centroid[CapSense_POS_PREV] +
 2260              		.loc 1 1706 0
 2261 0118 1D4B     		ldr	r3, .L142+4
 2262 011a 1B78     		ldrb	r3, [r3]
 2263 011c 1A1C     		mov	r2, r3
1707:Generated_Source\PSoC4/CapSense_CSHL.c ****                       (int32) CapSense_centroid[CapSense_POS] +
 2264              		.loc 1 1707 0
 2265 011e 1C4B     		ldr	r3, .L142+4
 2266 0120 5B78     		ldrb	r3, [r3, #1]
1706:Generated_Source\PSoC4/CapSense_CSHL.c ****                       (int32) CapSense_centroid[CapSense_POS] +
 2267              		.loc 1 1706 0
 2268 0122 D318     		add	r3, r2, r3
1708:Generated_Source\PSoC4/CapSense_CSHL.c ****                       (int32) CapSense_centroid[CapSense_POS_NEXT];
 2269              		.loc 1 1708 0
 2270 0124 1A4A     		ldr	r2, .L142+4
 2271 0126 9278     		ldrb	r2, [r2, #2]
1706:Generated_Source\PSoC4/CapSense_CSHL.c ****                       (int32) CapSense_centroid[CapSense_POS] +
 2272              		.loc 1 1706 0
 2273 0128 9B18     		add	r3, r3, r2
 2274 012a 7B61     		str	r3, [r7, #20]
1709:Generated_Source\PSoC4/CapSense_CSHL.c **** 
1710:Generated_Source\PSoC4/CapSense_CSHL.c ****         /* (numerator/denominator) + maximum */
1711:Generated_Source\PSoC4/CapSense_CSHL.c ****         denominator = (((int32)(uint32)((uint32)numerator << 8u)/denominator) + (int32)(uint32)((ui
 2275              		.loc 1 1711 0
 2276 012c FB68     		ldr	r3, [r7, #12]
 2277 012e 1B02     		lsl	r3, r3, #8
 2278 0130 181C     		mov	r0, r3
 2279 0132 7969     		ldr	r1, [r7, #20]
 2280 0134 FFF7FEFF 		bl	__aeabi_idiv
 2281 0138 031C     		mov	r3, r0
 2282 013a 1A1C     		mov	r2, r3
 2283 013c FB1D     		add	r3, r7, #7
 2284 013e 1B78     		ldrb	r3, [r3]
 2285 0140 1B02     		lsl	r3, r3, #8
 2286 0142 D318     		add	r3, r2, r3
 2287 0144 7B61     		str	r3, [r7, #20]
1712:Generated_Source\PSoC4/CapSense_CSHL.c **** 
1713:Generated_Source\PSoC4/CapSense_CSHL.c ****         #if(CapSense_TOTAL_RADIAL_SLIDERS_COUNT > 0u)
1714:Generated_Source\PSoC4/CapSense_CSHL.c ****             /* Only required for RADIAL Slider */
1715:Generated_Source\PSoC4/CapSense_CSHL.c ****             if(denominator < 0)
 2288              		.loc 1 1715 0
 2289 0146 7B69     		ldr	r3, [r7, #20]
 2290 0148 002B     		cmp	r3, #0
 2291 014a 08DA     		bge	.L140
1716:Generated_Source\PSoC4/CapSense_CSHL.c ****             {
1717:Generated_Source\PSoC4/CapSense_CSHL.c ****                 denominator += (int32)((uint16)((uint16) count << 8u));
 2292              		.loc 1 1717 0
 2293 014c 7B1D     		add	r3, r7, #5
 2294 014e 1B78     		ldrb	r3, [r3]
 2295 0150 9BB2     		uxth	r3, r3
 2296 0152 1B02     		lsl	r3, r3, #8
 2297 0154 9BB2     		uxth	r3, r3
 2298 0156 1A1C     		mov	r2, r3
 2299 0158 7B69     		ldr	r3, [r7, #20]
 2300 015a 9B18     		add	r3, r3, r2
 2301 015c 7B61     		str	r3, [r7, #20]
ARM GAS  C:\Users\poornima\AppData\Local\Temp\ccCVn41A.s 			page 72


 2302              	.L140:
1718:Generated_Source\PSoC4/CapSense_CSHL.c ****             }
1719:Generated_Source\PSoC4/CapSense_CSHL.c ****         #endif /* (CapSense_TOTAL_RADIAL_SLIDERS_COUNT > 0u) */
1720:Generated_Source\PSoC4/CapSense_CSHL.c **** 
1721:Generated_Source\PSoC4/CapSense_CSHL.c ****         denominator *= (int16)resolution;
 2303              		.loc 1 1721 0
 2304 015e BB1C     		add	r3, r7, #2
 2305 0160 1B88     		ldrh	r3, [r3]
 2306 0162 1AB2     		sxth	r2, r3
 2307 0164 7B69     		ldr	r3, [r7, #20]
 2308 0166 5343     		mul	r3, r2
 2309 0168 7B61     		str	r3, [r7, #20]
1722:Generated_Source\PSoC4/CapSense_CSHL.c **** 
1723:Generated_Source\PSoC4/CapSense_CSHL.c ****         /* Round result and put it to uint8 */
1724:Generated_Source\PSoC4/CapSense_CSHL.c ****         position = ((uint8) HI16((uint32)denominator + CapSense_CENTROID_ROUND_VALUE));
 2310              		.loc 1 1724 0
 2311 016a 7B69     		ldr	r3, [r7, #20]
 2312 016c FE22     		mov	r2, #254
 2313 016e D201     		lsl	r2, r2, #7
 2314 0170 9446     		mov	ip, r2
 2315 0172 6344     		add	r3, r3, ip
 2316 0174 1A0C     		lsr	r2, r3, #16
 2317 0176 0B23     		mov	r3, #11
 2318 0178 FB18     		add	r3, r7, r3
 2319 017a 1A70     		strb	r2, [r3]
1725:Generated_Source\PSoC4/CapSense_CSHL.c **** 
1726:Generated_Source\PSoC4/CapSense_CSHL.c ****         return (position);
 2320              		.loc 1 1726 0
 2321 017c 0B23     		mov	r3, #11
 2322 017e FB18     		add	r3, r7, r3
 2323 0180 1B78     		ldrb	r3, [r3]
1727:Generated_Source\PSoC4/CapSense_CSHL.c ****     }
 2324              		.loc 1 1727 0
 2325 0182 181C     		mov	r0, r3
 2326 0184 BD46     		mov	sp, r7
 2327 0186 06B0     		add	sp, sp, #24
 2328              		@ sp needed
 2329 0188 B0BD     		pop	{r4, r5, r7, pc}
 2330              	.L143:
 2331 018a C046     		.align	2
 2332              	.L142:
 2333 018c 00000000 		.word	CapSense_sensorSignal
 2334 0190 38000000 		.word	CapSense_centroid.5444
 2335              		.cfi_endproc
 2336              	.LFE63:
 2337              		.size	CapSense_CalcCentroid, .-CapSense_CalcCentroid
 2338              		.section	.text.CapSense_GetCentroidPos,"ax",%progbits
 2339              		.align	2
 2340              		.global	CapSense_GetCentroidPos
 2341              		.code	16
 2342              		.thumb_func
 2343              		.type	CapSense_GetCentroidPos, %function
 2344              	CapSense_GetCentroidPos:
 2345              	.LFB64:
1728:Generated_Source\PSoC4/CapSense_CSHL.c **** #endif /* (CapSense_TOTAL_CENTROIDS_BASIC_COUNT) */
1729:Generated_Source\PSoC4/CapSense_CSHL.c **** 
1730:Generated_Source\PSoC4/CapSense_CSHL.c **** 
ARM GAS  C:\Users\poornima\AppData\Local\Temp\ccCVn41A.s 			page 73


1731:Generated_Source\PSoC4/CapSense_CSHL.c **** #if((CapSense_TOTAL_RADIAL_SLIDERS_COUNT > 0u) || (CapSense_TOTAL_LINEAR_SLIDERS_COUNT > 0u))
1732:Generated_Source\PSoC4/CapSense_CSHL.c ****     /*******************************************************************************
1733:Generated_Source\PSoC4/CapSense_CSHL.c ****     * Function Name: CapSense_GetCentroidPos
1734:Generated_Source\PSoC4/CapSense_CSHL.c ****     ********************************************************************************
1735:Generated_Source\PSoC4/CapSense_CSHL.c ****     *
1736:Generated_Source\PSoC4/CapSense_CSHL.c ****     * Summary:
1737:Generated_Source\PSoC4/CapSense_CSHL.c ****     *  Checks the CapSense_Signal[ ] array for a centroid within
1738:Generated_Source\PSoC4/CapSense_CSHL.c ****     *  a slider specified range. The centroid position is calculated according to the resolution
1739:Generated_Source\PSoC4/CapSense_CSHL.c ****     *  specified in the CapSense customizer. The position filters are applied to the
1740:Generated_Source\PSoC4/CapSense_CSHL.c ****     *  result if enabled.
1741:Generated_Source\PSoC4/CapSense_CSHL.c ****     *
1742:Generated_Source\PSoC4/CapSense_CSHL.c ****     * Parameters:
1743:Generated_Source\PSoC4/CapSense_CSHL.c ****     *  widget:  Widget number.
1744:Generated_Source\PSoC4/CapSense_CSHL.c ****     *  For every linear slider widget there are defines in this format:
1745:Generated_Source\PSoC4/CapSense_CSHL.c ****     *  #define CapSense_"widget_name"__LS           5
1746:Generated_Source\PSoC4/CapSense_CSHL.c ****     *
1747:Generated_Source\PSoC4/CapSense_CSHL.c ****     * Return:
1748:Generated_Source\PSoC4/CapSense_CSHL.c ****     *  Returns a position value of the linear slider.
1749:Generated_Source\PSoC4/CapSense_CSHL.c ****     *
1750:Generated_Source\PSoC4/CapSense_CSHL.c ****     * Global Variables:
1751:Generated_Source\PSoC4/CapSense_CSHL.c ****     *  None
1752:Generated_Source\PSoC4/CapSense_CSHL.c ****     *
1753:Generated_Source\PSoC4/CapSense_CSHL.c ****     * Side Effects:
1754:Generated_Source\PSoC4/CapSense_CSHL.c ****     *  If any sensor within the slider widget is active, the function returns values
1755:Generated_Source\PSoC4/CapSense_CSHL.c ****     *  from zero to the API resolution value set in the CapSense customizer. If no
1756:Generated_Source\PSoC4/CapSense_CSHL.c ****     *  sensors are active, the function returns 0xFFFF. If an error occurs during
1757:Generated_Source\PSoC4/CapSense_CSHL.c ****     *  execution of the centroid/diplexing algorithm, the function returns 0xFFFF.
1758:Generated_Source\PSoC4/CapSense_CSHL.c ****     *  There are no checks of the widget type argument provided to this function.
1759:Generated_Source\PSoC4/CapSense_CSHL.c ****     *  The unproper widget type provided will cause unexpected position calculations.
1760:Generated_Source\PSoC4/CapSense_CSHL.c ****     *
1761:Generated_Source\PSoC4/CapSense_CSHL.c ****     * Note:
1762:Generated_Source\PSoC4/CapSense_CSHL.c ****     *  If noise counts on the slider segments are greater than the noise
1763:Generated_Source\PSoC4/CapSense_CSHL.c ****     *  threshold, this subroutine may generate a false centroid result. The noise
1764:Generated_Source\PSoC4/CapSense_CSHL.c ****     *  threshold should be set carefully (high enough above the noise level) so
1765:Generated_Source\PSoC4/CapSense_CSHL.c ****     *  that noise will not generate a false centroid.
1766:Generated_Source\PSoC4/CapSense_CSHL.c ****     *******************************************************************************/
1767:Generated_Source\PSoC4/CapSense_CSHL.c ****     uint16 CapSense_GetCentroidPos(uint32 widget)
1768:Generated_Source\PSoC4/CapSense_CSHL.c ****     {
 2346              		.loc 1 1768 0
 2347              		.cfi_startproc
 2348 0000 90B5     		push	{r4, r7, lr}
 2349              		.cfi_def_cfa_offset 12
 2350              		.cfi_offset 4, -12
 2351              		.cfi_offset 7, -8
 2352              		.cfi_offset 14, -4
 2353 0002 87B0     		sub	sp, sp, #28
 2354              		.cfi_def_cfa_offset 40
 2355 0004 02AF     		add	r7, sp, #8
 2356              		.cfi_def_cfa 7, 32
 2357 0006 7860     		str	r0, [r7, #4]
1769:Generated_Source\PSoC4/CapSense_CSHL.c ****         #if (CapSense_IS_DIPLEX_SLIDER)
1770:Generated_Source\PSoC4/CapSense_CSHL.c ****             const uint8 *diplex;
1771:Generated_Source\PSoC4/CapSense_CSHL.c ****         #endif /* (CapSense_IS_DIPLEX_SLIDER) */
1772:Generated_Source\PSoC4/CapSense_CSHL.c **** 
1773:Generated_Source\PSoC4/CapSense_CSHL.c ****         #if (0u != CapSense_LINEAR_SLIDERS_POS_FILTERS_MASK)
1774:Generated_Source\PSoC4/CapSense_CSHL.c ****             uint8 posIndex;
1775:Generated_Source\PSoC4/CapSense_CSHL.c ****             uint8 firstTimeIndex = CapSense_posFiltersData[widget];
ARM GAS  C:\Users\poornima\AppData\Local\Temp\ccCVn41A.s 			page 74


1776:Generated_Source\PSoC4/CapSense_CSHL.c ****             uint8 posFiltersMask = CapSense_posFiltersMask[widget];
1777:Generated_Source\PSoC4/CapSense_CSHL.c ****         #endif /* (0u != CapSense_LINEAR_SLIDERS_POS_FILTERS_MASK) */
1778:Generated_Source\PSoC4/CapSense_CSHL.c **** 
1779:Generated_Source\PSoC4/CapSense_CSHL.c ****         #if ((0u != (CapSense_MEDIAN_FILTER & CapSense_LINEAR_SLIDERS_POS_FILTERS_MASK)) || \
1780:Generated_Source\PSoC4/CapSense_CSHL.c ****              (0u != (CapSense_AVERAGING_FILTER & CapSense_LINEAR_SLIDERS_POS_FILTERS_MASK)))
1781:Generated_Source\PSoC4/CapSense_CSHL.c ****             uint8 tempPos;
1782:Generated_Source\PSoC4/CapSense_CSHL.c ****         #endif /* ((0u != (CapSense_MEDIAN_FILTER & CapSense_LINEAR_SLIDERS_POS_FILTERS_MASK)) || \
1783:Generated_Source\PSoC4/CapSense_CSHL.c ****                *   (0u != (CapSense_AVERAGING_FILTER & CapSense_LINEAR_SLIDERS_POS_FILTERS_MASK)))
1784:Generated_Source\PSoC4/CapSense_CSHL.c ****                */
1785:Generated_Source\PSoC4/CapSense_CSHL.c **** 
1786:Generated_Source\PSoC4/CapSense_CSHL.c ****         uint8 maximum;
1787:Generated_Source\PSoC4/CapSense_CSHL.c ****         uint16 position;
1788:Generated_Source\PSoC4/CapSense_CSHL.c ****         uint8 offset = CapSense_rawDataIndex[widget];
 2358              		.loc 1 1788 0
 2359 0008 0D23     		mov	r3, #13
 2360 000a FB18     		add	r3, r7, r3
 2361 000c 2349     		ldr	r1, .L148
 2362 000e 7A68     		ldr	r2, [r7, #4]
 2363 0010 8A18     		add	r2, r1, r2
 2364 0012 1278     		ldrb	r2, [r2]
 2365 0014 1A70     		strb	r2, [r3]
1789:Generated_Source\PSoC4/CapSense_CSHL.c ****         uint8 count = CapSense_numberOfSensors[widget];
 2366              		.loc 1 1789 0
 2367 0016 0C23     		mov	r3, #12
 2368 0018 FB18     		add	r3, r7, r3
 2369 001a 2149     		ldr	r1, .L148+4
 2370 001c 7A68     		ldr	r2, [r7, #4]
 2371 001e 8A18     		add	r2, r1, r2
 2372 0020 1278     		ldrb	r2, [r2]
 2373 0022 1A70     		strb	r2, [r3]
1790:Generated_Source\PSoC4/CapSense_CSHL.c **** 
1791:Generated_Source\PSoC4/CapSense_CSHL.c ****         #if (CapSense_IS_DIPLEX_SLIDER)
1792:Generated_Source\PSoC4/CapSense_CSHL.c ****             if(widget < CapSense_TOTAL_DIPLEXED_SLIDERS_COUNT)
1793:Generated_Source\PSoC4/CapSense_CSHL.c ****             {
1794:Generated_Source\PSoC4/CapSense_CSHL.c ****                 maximum = CapSense_diplexTable[widget];
1795:Generated_Source\PSoC4/CapSense_CSHL.c ****                 diplex = &CapSense_diplexTable[maximum];
1796:Generated_Source\PSoC4/CapSense_CSHL.c ****             }
1797:Generated_Source\PSoC4/CapSense_CSHL.c ****             else
1798:Generated_Source\PSoC4/CapSense_CSHL.c ****             {
1799:Generated_Source\PSoC4/CapSense_CSHL.c ****                 diplex = 0u;
1800:Generated_Source\PSoC4/CapSense_CSHL.c ****             }
1801:Generated_Source\PSoC4/CapSense_CSHL.c ****         #endif /* (CapSense_IS_DIPLEX_SLIDER) */
1802:Generated_Source\PSoC4/CapSense_CSHL.c **** 
1803:Generated_Source\PSoC4/CapSense_CSHL.c ****         /* Find Maximum within centroid */
1804:Generated_Source\PSoC4/CapSense_CSHL.c ****         #if (CapSense_IS_DIPLEX_SLIDER)
1805:Generated_Source\PSoC4/CapSense_CSHL.c ****             maximum = CapSense_FindMaximum(offset, count, (uint8)CapSense_fingerThreshold[widget], 
1806:Generated_Source\PSoC4/CapSense_CSHL.c ****         #else
1807:Generated_Source\PSoC4/CapSense_CSHL.c ****             maximum = CapSense_FindMaximum(offset, count, (uint8)CapSense_fingerThreshold[widget]);
 2374              		.loc 1 1807 0
 2375 0024 1F4A     		ldr	r2, .L148+8
 2376 0026 7B68     		ldr	r3, [r7, #4]
 2377 0028 D318     		add	r3, r2, r3
 2378 002a 1A78     		ldrb	r2, [r3]
 2379 002c 0B23     		mov	r3, #11
 2380 002e FC18     		add	r4, r7, r3
 2381 0030 0D23     		mov	r3, #13
 2382 0032 FB18     		add	r3, r7, r3
ARM GAS  C:\Users\poornima\AppData\Local\Temp\ccCVn41A.s 			page 75


 2383 0034 1978     		ldrb	r1, [r3]
 2384 0036 0C23     		mov	r3, #12
 2385 0038 FB18     		add	r3, r7, r3
 2386 003a 1B78     		ldrb	r3, [r3]
 2387 003c 081C     		mov	r0, r1
 2388 003e 191C     		mov	r1, r3
 2389 0040 FFF7FEFF 		bl	CapSense_FindMaximum
 2390 0044 031C     		mov	r3, r0
 2391 0046 2370     		strb	r3, [r4]
1808:Generated_Source\PSoC4/CapSense_CSHL.c ****         #endif /* (CapSense_IS_DIPLEX_SLIDER) */
1809:Generated_Source\PSoC4/CapSense_CSHL.c **** 
1810:Generated_Source\PSoC4/CapSense_CSHL.c ****         if (maximum != 0xFFu)
 2392              		.loc 1 1810 0
 2393 0048 0B23     		mov	r3, #11
 2394 004a FB18     		add	r3, r7, r3
 2395 004c 1B78     		ldrb	r3, [r3]
 2396 004e FF2B     		cmp	r3, #255
 2397 0050 18D0     		beq	.L145
1811:Generated_Source\PSoC4/CapSense_CSHL.c ****         {
1812:Generated_Source\PSoC4/CapSense_CSHL.c ****             /* Calculate centroid */
1813:Generated_Source\PSoC4/CapSense_CSHL.c ****             position = (uint16) CapSense_CalcCentroid(maximum,
 2398              		.loc 1 1813 0
 2399 0052 A023     		mov	r3, #160
 2400 0054 5C01     		lsl	r4, r3, #5
 2401 0056 144A     		ldr	r2, .L148+12
 2402 0058 7B68     		ldr	r3, [r7, #4]
 2403 005a D318     		add	r3, r2, r3
 2404 005c 1B78     		ldrb	r3, [r3]
