ARM GAS  C:\Users\poornima\AppData\Local\Temp\cchPcYdf.s 			page 1


   1              		.cpu cortex-m0
   2              		.fpu softvfp
   3              		.eabi_attribute 20, 1
   4              		.eabi_attribute 21, 1
   5              		.eabi_attribute 23, 3
   6              		.eabi_attribute 24, 1
   7              		.eabi_attribute 25, 1
   8              		.eabi_attribute 26, 1
   9              		.eabi_attribute 30, 6
  10              		.eabi_attribute 34, 0
  11              		.eabi_attribute 18, 4
  12              		.code	16
  13              		.file	"main.c"
  14              		.text
  15              	.Ltext0:
  16              		.cfi_sections	.debug_frame
  17              		.global	cache
  18              		.bss
  19              		.align	2
  20              		.type	cache, %object
  21              		.size	cache, 128
  22              	cache:
  23 0000 00000000 		.space	128
  23      00000000 
  23      00000000 
  23      00000000 
  23      00000000 
  24              		.global	update
  25              		.align	2
  26              		.type	update, %object
  27              		.size	update, 128
  28              	update:
  29 0080 00000000 		.space	128
  29      00000000 
  29      00000000 
  29      00000000 
  29      00000000 
  30              		.comm	curPos1,2,2
  31              		.comm	oldCurPos1,2,2
  32              		.comm	sock1,4,4
  33              		.comm	but1,4,4
  34              		.comm	but2,4,4
  35              		.comm	but3,4,4
  36              		.comm	oldSock1,4,4
  37              		.comm	oldBut1,4,4
  38              		.comm	oldBut2,4,4
  39              		.comm	oldBut3,4,4
  40              		.comm	temp1,1,1
  41              		.comm	temp2,1,1
  42              		.comm	temp3,1,1
  43              		.comm	temp4,1,1
  44              		.comm	i2cReadBuffer,2,4
  45              		.comm	i2cWriteBuffer,4,4
  46              		.global	compare
  47              		.data
  48              		.align	2
  49              		.type	compare, %object
ARM GAS  C:\Users\poornima\AppData\Local\Temp\cchPcYdf.s 			page 2


  50              		.size	compare, 2
  51              	compare:
  52 0000 52       		.byte	82
  53 0001 44       		.byte	68
  54 0002 0000     		.section	.rodata
  55              		.align	2
  56              	.LC3:
  57 0000 4D61696E 		.ascii	"Main Loop Started \012\000"
  57      204C6F6F 
  57      70205374 
  57      61727465 
  57      64200A00 
  58              		.align	2
  59              	.LC5:
  60 0014 696E7369 		.ascii	"inside I2C_Slave_I2CSlaveStatus \012\000"
  60      64652049 
  60      32435F53 
  60      6C617665 
  60      5F493243 
  61 0036 0000     		.align	2
  62              	.LC7:
  63 0038 696E7369 		.ascii	"inside I2C_Slave_I2CSlaveGetWriteBufSize \012\000"
  63      64652049 
  63      32435F53 
  63      6C617665 
  63      5F493243 
  64 0063 00       		.align	2
  65              	.LC9:
  66 0064 6265666F 		.ascii	"before ExecuteCommand \012\000"
  66      72652045 
  66      78656375 
  66      7465436F 
  66      6D6D616E 
  67              		.align	2
  68              	.LC11:
  69 007c 53747269 		.ascii	"String cmp pass \012\000"
  69      6E672063 
  69      6D702070 
  69      61737320 
  69      0A00
  70              		.section	.text.main,"ax",%progbits
  71              		.align	2
  72              		.global	main
  73              		.code	16
  74              		.thumb_func
  75              		.type	main, %function
  76              	main:
  77              	.LFB36:
  78              		.file 1 "main.c"
   1:main.c        **** /*******************************************************************************
   2:main.c        **** * File Name: main.c
   3:main.c        **** *
   4:main.c        **** * Version: 1.30
   5:main.c        **** *
   6:main.c        **** * Description:
   7:main.c        **** *  The project explains the usage of CapSense CSD component. The 2 buttons and
   8:main.c        **** *  linear sliders are used as sensing elements. LED displays buttons active
ARM GAS  C:\Users\poornima\AppData\Local\Temp\cchPcYdf.s 			page 3


   9:main.c        **** *  state and slider position is shown on LCD.
  10:main.c        **** *
  11:main.c        **** ********************************************************************************
  12:main.c        **** * Copyright 2013, Cypress Semiconductor Corporation. All rights reserved.
  13:main.c        **** * This software is owned by Cypress Semiconductor Corporation and is protected
  14:main.c        **** * by and subject to worldwide patent and copyright laws and treaties.
  15:main.c        **** * Therefore, you may use this software only as provided in the license agreement
  16:main.c        **** * accompanying the software package from which you obtained this software.
  17:main.c        **** * CYPRESS AND ITS SUPPLIERS MAKE NO WARRANTY OF ANY KIND, EXPRESS OR IMPLIED,
  18:main.c        **** * WITH REGARD TO THIS SOFTWARE, INCLUDING, BUT NOT LIMITED TO, NONINFRINGEMENT,
  19:main.c        **** * IMPLIED WARRANTIES OF MERCHANTABILITY AND FITNESS FOR A PARTICULAR PURPOSE.
  20:main.c        **** *******************************************************************************/
  21:main.c        **** 
  22:main.c        **** #include <main.h>
  23:main.c        **** #include <CyFlash.h>
  24:main.c        **** 
  25:main.c        **** /* CapSense Slider resoluton is set to 127 (7 bits).
  26:main.c        **** *  Since PWM has 16 bit resolution, slider position value should be shifted left
  27:main.c        **** *  by 9 bits.
  28:main.c        **** */
  29:main.c        **** #define SLIDER_POS_TO_COMPARE_SHIFT    (9u)
  30:main.c        **** 
  31:main.c        **** 
  32:main.c        **** 
  33:main.c        **** /*Defining a Flash Row ,that is to be used for caching the latest status*/
  34:main.c        **** /* Defines second ROW from the last ROW */
  35:main.c        **** #define CY_TEST_FLASH_ROW       (CY_FLASH_NUMBER_ROWS - 2u)
  36:main.c        **** 
  37:main.c        **** /* Defines absolut address of ROW */
  38:main.c        **** #define CY_TEST_FLASH_ADDR      (CY_TEST_FLASH_ROW * CY_FLASH_SIZEOF_ROW)
  39:main.c        **** 
  40:main.c        **** /* Defines ID of the array to write */
  41:main.c        **** #define ARRAY_ID                ((uint8)(CY_TEST_FLASH_ROW / CY_FLASH_SIZEOF_ROW))
  42:main.c        **** 
  43:main.c        **** /* Defines second ROW from the last ROW in the defined array */
  44:main.c        **** #define ARRAY_ID_ROW_ADDR   ((uint16)(CY_FLASH_SIZEOF_ROW - 2u))
  45:main.c        **** 
  46:main.c        **** uint8 cache[CY_FLASH_SIZEOF_ROW]={0};
  47:main.c        **** uint8 update[CY_FLASH_SIZEOF_ROW]={0};
  48:main.c        **** uint16 curPos1, oldCurPos1;
  49:main.c        **** uint32 sock1, but1, but2, but3, oldSock1, oldBut1, oldBut2, oldBut3;
  50:main.c        **** uint8 temp1,temp2,temp3,temp4;
  51:main.c        **** 
  52:main.c        **** /* I2C slave read and write buffers */
  53:main.c        **** //uint8 i2cReadBuffer [BUFFER_SIZE] = {PACKET_SOP, STS_CMD_FAIL, PACKET_EOP};
  54:main.c        **** uint8 i2cReadBuffer [READ_BUFFER_SIZE]; // we need to change this value according to our pwm buffer
  55:main.c        **** uint8 i2cWriteBuffer[BUFFER_SIZE];
  56:main.c        **** 
  57:main.c        **** uint8 compare[2]={0x52,0x44};
  58:main.c        ****                   /*R ,D*/
  59:main.c        **** 
  60:main.c        **** 
  61:main.c        **** int main()
  62:main.c        **** {  uint8 i;
  79              		.loc 1 62 0
  80              		.cfi_startproc
  81 0000 80B5     		push	{r7, lr}
ARM GAS  C:\Users\poornima\AppData\Local\Temp\cchPcYdf.s 			page 4


  82              		.cfi_def_cfa_offset 8
  83              		.cfi_offset 7, -8
  84              		.cfi_offset 14, -4
  85 0002 82B0     		sub	sp, sp, #8
  86              		.cfi_def_cfa_offset 16
  87 0004 00AF     		add	r7, sp, #0
  88              		.cfi_def_cfa_register 7
  63:main.c        ****     
  64:main.c        ****     /* Start UART(SCB mode)*/ 
  65:main.c        ****     UART_Start();
  89              		.loc 1 65 0
  90 0006 FFF7FEFF 		bl	UART_Start
  66:main.c        ****    
  67:main.c        ****     
  68:main.c        ****     /* Start I2C slave (SCB mode) */
  69:main.c        ****     I2C_Slave_I2CSlaveInitReadBuf(i2cReadBuffer,  3);
  91              		.loc 1 69 0
  92 000a 734B     		ldr	r3, .L20
  93 000c 181C     		mov	r0, r3
  94 000e 0321     		mov	r1, #3
  95 0010 FFF7FEFF 		bl	I2C_Slave_I2CSlaveInitReadBuf
  70:main.c        ****     I2C_Slave_I2CSlaveInitWriteBuf(i2cWriteBuffer, BUFFER_SIZE);
  96              		.loc 1 70 0
  97 0014 714B     		ldr	r3, .L20+4
  98 0016 181C     		mov	r0, r3
  99 0018 0421     		mov	r1, #4
 100 001a FFF7FEFF 		bl	I2C_Slave_I2CSlaveInitWriteBuf
  71:main.c        ****     I2C_Slave_Start();
 101              		.loc 1 71 0
 102 001e FFF7FEFF 		bl	I2C_Slave_Start
  72:main.c        ****    
  73:main.c        ****     
  74:main.c        ****     /* Enable global interrupts */
  75:main.c        ****     CyGlobalIntEnable;
 103              		.loc 1 75 0
 104              	@ 75 "main.c" 1
 105 0022 62B6     		CPSIE   i
 106              	@ 0 "" 2
  76:main.c        **** 
  77:main.c        ****     /* Start PWM and CapSense components */
  78:main.c        ****     LED_CONTROL1_Start();
 107              		.loc 1 78 0
 108              		.code	16
 109 0024 FFF7FEFF 		bl	LED_CONTROL1_Start
  79:main.c        ****     
  80:main.c        **** 
  81:main.c        ****     CapSense_Start();
 110              		.loc 1 81 0
 111 0028 FFF7FEFF 		bl	CapSense_Start
  82:main.c        **** 
  83:main.c        ****     /* Initialize baselines */
  84:main.c        ****     CapSense_InitializeAllBaselines();
 112              		.loc 1 84 0
 113 002c FFF7FEFF 		bl	CapSense_InitializeAllBaselines
  85:main.c        ****     
  86:main.c        ****     
  87:main.c        ****     //UART_UartPutString("UPDATING THE STATUS \n\r");
ARM GAS  C:\Users\poornima\AppData\Local\Temp\cchPcYdf.s 			page 5


  88:main.c        ****     
  89:main.c        ****     /* Reading from the Flash memory and setting up the widgets to previous status(status before th
  90:main.c        ****     for(i=0;i<4;i++){
 114              		.loc 1 90 0
 115 0030 FB1D     		add	r3, r7, #7
 116 0032 0022     		mov	r2, #0
 117 0034 1A70     		strb	r2, [r3]
 118 0036 0EE0     		b	.L2
 119              	.L3:
  91:main.c        ****         update[i]=(*((uint8 *) (CY_TEST_FLASH_ADDR + i)));
 120              		.loc 1 91 0 discriminator 3
 121 0038 FB1D     		add	r3, r7, #7
 122 003a 1B78     		ldrb	r3, [r3]
 123 003c FA1D     		add	r2, r7, #7
 124 003e 1278     		ldrb	r2, [r2]
 125 0040 6749     		ldr	r1, .L20+8
 126 0042 8C46     		mov	ip, r1
 127 0044 6244     		add	r2, r2, ip
 128 0046 1178     		ldrb	r1, [r2]
 129 0048 664A     		ldr	r2, .L20+12
 130 004a D154     		strb	r1, [r2, r3]
  90:main.c        ****         update[i]=(*((uint8 *) (CY_TEST_FLASH_ADDR + i)));
 131              		.loc 1 90 0 discriminator 3
 132 004c FB1D     		add	r3, r7, #7
 133 004e 1A78     		ldrb	r2, [r3]
 134 0050 FB1D     		add	r3, r7, #7
 135 0052 0132     		add	r2, r2, #1
 136 0054 1A70     		strb	r2, [r3]
 137              	.L2:
  90:main.c        ****         update[i]=(*((uint8 *) (CY_TEST_FLASH_ADDR + i)));
 138              		.loc 1 90 0 is_stmt 0 discriminator 1
 139 0056 FB1D     		add	r3, r7, #7
 140 0058 1B78     		ldrb	r3, [r3]
 141 005a 032B     		cmp	r3, #3
 142 005c ECD9     		bls	.L3
  92:main.c        ****     }
  93:main.c        ****       
  94:main.c        ****     for(i=0;i<4;i++){
 143              		.loc 1 94 0 is_stmt 1
 144 005e FB1D     		add	r3, r7, #7
 145 0060 0022     		mov	r2, #0
 146 0062 1A70     		strb	r2, [r3]
 147 0064 11E0     		b	.L4
 148              	.L5:
  95:main.c        ****        //UART_UartPutChar(update[i]); 
  96:main.c        ****        //UART_UartPutString("\n\r");
  97:main.c        ****        ExecuteCommand(i,update[i]);
 149              		.loc 1 97 0 discriminator 3
 150 0066 FB1D     		add	r3, r7, #7
 151 0068 1978     		ldrb	r1, [r3]
 152 006a FB1D     		add	r3, r7, #7
 153 006c 1B78     		ldrb	r3, [r3]
 154 006e 5D4A     		ldr	r2, .L20+12
 155 0070 D35C     		ldrb	r3, [r2, r3]
 156 0072 081C     		mov	r0, r1
 157 0074 191C     		mov	r1, r3
 158 0076 FFF7FEFF 		bl	ExecuteCommand
ARM GAS  C:\Users\poornima\AppData\Local\Temp\cchPcYdf.s 			page 6


  98:main.c        ****        CyDelay(50);
 159              		.loc 1 98 0 discriminator 3
 160 007a 3220     		mov	r0, #50
 161 007c FFF7FEFF 		bl	CyDelay
  94:main.c        ****        //UART_UartPutChar(update[i]); 
 162              		.loc 1 94 0 discriminator 3
 163 0080 FB1D     		add	r3, r7, #7
 164 0082 1A78     		ldrb	r2, [r3]
 165 0084 FB1D     		add	r3, r7, #7
 166 0086 0132     		add	r2, r2, #1
 167 0088 1A70     		strb	r2, [r3]
 168              	.L4:
  94:main.c        ****        //UART_UartPutChar(update[i]); 
 169              		.loc 1 94 0 is_stmt 0 discriminator 1
 170 008a FB1D     		add	r3, r7, #7
 171 008c 1B78     		ldrb	r3, [r3]
 172 008e 032B     		cmp	r3, #3
 173 0090 E9D9     		bls	.L5
  99:main.c        ****     }
 100:main.c        ****     //UART_UartPutString("update finihsed \n\r");
 101:main.c        ****     
 102:main.c        ****     //Capsense Loop
 103:main.c        ****     UART_UartPutString("Main Loop Started \n");
 174              		.loc 1 103 0 is_stmt 1
 175 0092 554B     		ldr	r3, .L20+16
 176 0094 181C     		mov	r0, r3
 177 0096 FFF7FEFF 		bl	UART_UartPutString
 178              	.L19:
 104:main.c        ****     while(1u)
 105:main.c        ****     {
 106:main.c        ****         //UART_UartPutString("before I2C_Slave_I2CSlaveStatus \n");
 107:main.c        ****         /* Write complete: parse command packet */
 108:main.c        ****         if (0u != (I2C_Slave_I2CSlaveStatus() & I2C_Slave_I2C_SSTAT_WR_CMPLT))
 179              		.loc 1 108 0
 180 009a FFF7FEFF 		bl	I2C_Slave_I2CSlaveStatus
 181 009e 021C     		mov	r2, r0
 182 00a0 1023     		mov	r3, #16
 183 00a2 1340     		and	r3, r2
 184 00a4 00D1     		bne	.LCB93
 185 00a6 81E0     		b	.L6	@long jump
 186              	.LCB93:
 109:main.c        ****         {
 110:main.c        ****             UART_UartPutString("inside I2C_Slave_I2CSlaveStatus \n");
 187              		.loc 1 110 0
 188 00a8 504B     		ldr	r3, .L20+20
 189 00aa 181C     		mov	r0, r3
 190 00ac FFF7FEFF 		bl	UART_UartPutString
 111:main.c        ****             /* Check packet length */
 112:main.c        ****             if (1u <= I2C_Slave_I2CSlaveGetWriteBufSize())
 191              		.loc 1 112 0
 192 00b0 FFF7FEFF 		bl	I2C_Slave_I2CSlaveGetWriteBufSize
 193 00b4 031E     		sub	r3, r0, #0
 194 00b6 00D1     		bne	.LCB100
 195 00b8 74E0     		b	.L7	@long jump
 196              	.LCB100:
 113:main.c        ****             {
 114:main.c        ****                 UART_UartPutString("inside I2C_Slave_I2CSlaveGetWriteBufSize \n");
ARM GAS  C:\Users\poornima\AppData\Local\Temp\cchPcYdf.s 			page 7


 197              		.loc 1 114 0
 198 00ba 4D4B     		ldr	r3, .L20+24
 199 00bc 181C     		mov	r0, r3
 200 00be FFF7FEFF 		bl	UART_UartPutString
 115:main.c        ****                 UART_UartPutString("before ExecuteCommand \n");
 201              		.loc 1 115 0
 202 00c2 4C4B     		ldr	r3, .L20+28
 203 00c4 181C     		mov	r0, r3
 204 00c6 FFF7FEFF 		bl	UART_UartPutString
 116:main.c        ****                 UART_UartPutString("String cmp pass \n");
 205              		.loc 1 116 0
 206 00ca 4B4B     		ldr	r3, .L20+32
 207 00cc 181C     		mov	r0, r3
 208 00ce FFF7FEFF 		bl	UART_UartPutString
 117:main.c        ****               
 118:main.c        ****                 
 119:main.c        ****                 /*Sendind master a ready ack*/
 120:main.c        ****                 if(i2cWriteBuffer[0]==0x52 && i2cWriteBuffer[1]==0x44 )
 209              		.loc 1 120 0
 210 00d2 424B     		ldr	r3, .L20+4
 211 00d4 1B78     		ldrb	r3, [r3]
 212 00d6 522B     		cmp	r3, #82
 213 00d8 1DD1     		bne	.L8
 214              		.loc 1 120 0 is_stmt 0 discriminator 1
 215 00da 404B     		ldr	r3, .L20+4
 216 00dc 5B78     		ldrb	r3, [r3, #1]
 217 00de 442B     		cmp	r3, #68
 218 00e0 19D1     		bne	.L8
 121:main.c        ****                 {   
 122:main.c        ****                     //UART_UartPutString("ready ack sent \n\r");
 123:main.c        ****                     
 124:main.c        ****                     i2cReadBuffer[0] = 0x52;
 219              		.loc 1 124 0 is_stmt 1
 220 00e2 3D4B     		ldr	r3, .L20
 221 00e4 5222     		mov	r2, #82
 222 00e6 1A70     		strb	r2, [r3]
 125:main.c        ****                     i2cReadBuffer[1] = 0x44;
 223              		.loc 1 125 0
 224 00e8 3B4B     		ldr	r3, .L20
 225 00ea 4422     		mov	r2, #68
 226 00ec 5A70     		strb	r2, [r3, #1]
 126:main.c        ****                     
 127:main.c        ****                     InterPin_Write(~InterPin_Read());
 227              		.loc 1 127 0
 228 00ee FFF7FEFF 		bl	InterPin_Read
 229 00f2 031C     		mov	r3, r0
 230 00f4 DB43     		mvn	r3, r3
 231 00f6 DBB2     		uxtb	r3, r3
 232 00f8 181C     		mov	r0, r3
 233 00fa FFF7FEFF 		bl	InterPin_Write
 128:main.c        ****                     CyDelay(100);
 234              		.loc 1 128 0
 235 00fe 6420     		mov	r0, #100
 236 0100 FFF7FEFF 		bl	CyDelay
 129:main.c        ****                     InterPin_Write(~InterPin_Read());
 237              		.loc 1 129 0
 238 0104 FFF7FEFF 		bl	InterPin_Read
ARM GAS  C:\Users\poornima\AppData\Local\Temp\cchPcYdf.s 			page 8


 239 0108 031C     		mov	r3, r0
 240 010a DB43     		mvn	r3, r3
 241 010c DBB2     		uxtb	r3, r3
 242 010e 181C     		mov	r0, r3
 243 0110 FFF7FEFF 		bl	InterPin_Write
 244 0114 46E0     		b	.L7
 245              	.L8:
 130:main.c        ****                     
 131:main.c        ****                 }
 132:main.c        ****                 /*Sending data according to master request*/
 133:main.c        ****                 else if( i2cWriteBuffer[1]==0x72)
 246              		.loc 1 133 0
 247 0116 314B     		ldr	r3, .L20+4
 248 0118 5B78     		ldrb	r3, [r3, #1]
 249 011a 722B     		cmp	r3, #114
 250 011c 39D1     		bne	.L9
 134:main.c        ****                 {   i2cReadBuffer[0] = i2cWriteBuffer[0];
 251              		.loc 1 134 0
 252 011e 2F4B     		ldr	r3, .L20+4
 253 0120 1A78     		ldrb	r2, [r3]
 254 0122 2D4B     		ldr	r3, .L20
 255 0124 1A70     		strb	r2, [r3]
 135:main.c        ****                     switch(i2cWriteBuffer[1])
 256              		.loc 1 135 0
 257 0126 2D4B     		ldr	r3, .L20+4
 258 0128 5B78     		ldrb	r3, [r3, #1]
 259 012a 042B     		cmp	r3, #4
 260 012c 1DD8     		bhi	.L10
 261 012e 9A00     		lsl	r2, r3, #2
 262 0130 324B     		ldr	r3, .L20+36
 263 0132 D318     		add	r3, r2, r3
 264 0134 1B68     		ldr	r3, [r3]
 265 0136 9F46     		mov	pc, r3
 266              		.section	.rodata
 267 008e 0000     		.align	2
 268              	.L12:
 269 0090 38010000 		.word	.L11
 270 0094 42010000 		.word	.L13
 271 0098 4C010000 		.word	.L14
 272 009c 56010000 		.word	.L15
 273 00a0 60010000 		.word	.L16
 274              		.section	.text.main
 275              	.L11:
 136:main.c        ****                     {
 137:main.c        ****                         case FAN1: i2cReadBuffer[1]=update[FAN1];
 276              		.loc 1 137 0
 277 0138 2A4B     		ldr	r3, .L20+12
 278 013a 1A78     		ldrb	r2, [r3]
 279 013c 264B     		ldr	r3, .L20
 280 013e 5A70     		strb	r2, [r3, #1]
 138:main.c        ****                                     break;
 281              		.loc 1 138 0
 282 0140 13E0     		b	.L10
 283              	.L13:
 139:main.c        ****                         case SWITCH1: i2cReadBuffer[1]=update[SWITCH1];
 284              		.loc 1 139 0
 285 0142 284B     		ldr	r3, .L20+12
ARM GAS  C:\Users\poornima\AppData\Local\Temp\cchPcYdf.s 			page 9


 286 0144 5A78     		ldrb	r2, [r3, #1]
 287 0146 244B     		ldr	r3, .L20
 288 0148 5A70     		strb	r2, [r3, #1]
 140:main.c        ****                                     break;
 289              		.loc 1 140 0
 290 014a 0EE0     		b	.L10
 291              	.L14:
 141:main.c        ****                         case SWITCH2:i2cReadBuffer[1]=update[SWITCH2];
 292              		.loc 1 141 0
 293 014c 254B     		ldr	r3, .L20+12
 294 014e 9A78     		ldrb	r2, [r3, #2]
 295 0150 214B     		ldr	r3, .L20
 296 0152 5A70     		strb	r2, [r3, #1]
 142:main.c        ****                                     break;
 297              		.loc 1 142 0
 298 0154 09E0     		b	.L10
 299              	.L15:
 143:main.c        ****                         case SWITCH3:i2cReadBuffer[1]=update[SWITCH3];
 300              		.loc 1 143 0
 301 0156 234B     		ldr	r3, .L20+12
 302 0158 DA78     		ldrb	r2, [r3, #3]
 303 015a 1F4B     		ldr	r3, .L20
 304 015c 5A70     		strb	r2, [r3, #1]
 144:main.c        ****                                     break;
 305              		.loc 1 144 0
 306 015e 04E0     		b	.L10
 307              	.L16:
 145:main.c        ****                         case SOCKET1:i2cReadBuffer[1]=update[SOCKET1];
 308              		.loc 1 145 0
 309 0160 204B     		ldr	r3, .L20+12
 310 0162 1A79     		ldrb	r2, [r3, #4]
 311 0164 1C4B     		ldr	r3, .L20
 312 0166 5A70     		strb	r2, [r3, #1]
 146:main.c        ****                                     break;
 313              		.loc 1 146 0
 314 0168 C046     		mov	r8, r8
 315              	.L10:
 147:main.c        ****                     }
 148:main.c        ****                     InterPin_Write(~InterPin_Read());
 316              		.loc 1 148 0
 317 016a FFF7FEFF 		bl	InterPin_Read
 318 016e 031C     		mov	r3, r0
 319 0170 DB43     		mvn	r3, r3
 320 0172 DBB2     		uxtb	r3, r3
 321 0174 181C     		mov	r0, r3
 322 0176 FFF7FEFF 		bl	InterPin_Write
 149:main.c        ****                     CyDelay(50);
 323              		.loc 1 149 0
 324 017a 3220     		mov	r0, #50
 325 017c FFF7FEFF 		bl	CyDelay
 150:main.c        ****                     InterPin_Write(~InterPin_Read());
 326              		.loc 1 150 0
 327 0180 FFF7FEFF 		bl	InterPin_Read
 328 0184 031C     		mov	r3, r0
 329 0186 DB43     		mvn	r3, r3
 330 0188 DBB2     		uxtb	r3, r3
 331 018a 181C     		mov	r0, r3
ARM GAS  C:\Users\poornima\AppData\Local\Temp\cchPcYdf.s 			page 10


 332 018c FFF7FEFF 		bl	InterPin_Write
 333 0190 08E0     		b	.L7
 334              	.L9:
 151:main.c        ****                     
 152:main.c        ****                 }
 153:main.c        ****                else
 154:main.c        ****                 {
 155:main.c        ****                 //UART_UartPutString("excecuting the master commands \n\r");
 156:main.c        ****                 ExecuteCommand(i2cWriteBuffer[0], i2cWriteBuffer[1]);
 335              		.loc 1 156 0
 336 0192 124B     		ldr	r3, .L20+4
 337 0194 1B78     		ldrb	r3, [r3]
 338 0196 1A1C     		mov	r2, r3
 339 0198 104B     		ldr	r3, .L20+4
 340 019a 5B78     		ldrb	r3, [r3, #1]
 341 019c 101C     		mov	r0, r2
 342 019e 191C     		mov	r1, r3
 343 01a0 FFF7FEFF 		bl	ExecuteCommand
 344              	.L7:
 157:main.c        ****                 }
 158:main.c        ****             }
 159:main.c        **** 
 160:main.c        ****             /* Clear slave write buffer and status */
 161:main.c        ****             I2C_Slave_I2CSlaveClearWriteBuf();
 345              		.loc 1 161 0
 346 01a4 FFF7FEFF 		bl	I2C_Slave_I2CSlaveClearWriteBuf
 162:main.c        ****             (void) I2C_Slave_I2CSlaveClearWriteStatus();
 347              		.loc 1 162 0
 348 01a8 FFF7FEFF 		bl	I2C_Slave_I2CSlaveClearWriteStatus
 349              	.L6:
 163:main.c        ****         }
 164:main.c        **** 
 165:main.c        **** 
 166:main.c        ****         /* Read complete: expose buffer to master */
 167:main.c        ****         if (0u != (I2C_Slave_I2CSlaveStatus() & I2C_Slave_I2C_SSTAT_RD_CMPLT))
 350              		.loc 1 167 0
 351 01ac FFF7FEFF 		bl	I2C_Slave_I2CSlaveStatus
 352 01b0 021C     		mov	r2, r0
 353 01b2 0123     		mov	r3, #1
 354 01b4 1340     		and	r3, r2
 355 01b6 03D0     		beq	.L17
 168:main.c        ****         {
 169:main.c        ****             /* Clear slave read buffer and status */
 170:main.c        ****             I2C_Slave_I2CSlaveClearReadBuf();
 356              		.loc 1 170 0
 357 01b8 FFF7FEFF 		bl	I2C_Slave_I2CSlaveClearReadBuf
 171:main.c        ****             (void) I2C_Slave_I2CSlaveClearReadStatus();
 358              		.loc 1 171 0
 359 01bc FFF7FEFF 		bl	I2C_Slave_I2CSlaveClearReadStatus
 360              	.L17:
 172:main.c        ****         }
 173:main.c        ****         
 174:main.c        ****         /* Check whether the scanning of all enabled widgets is completed. */
 175:main.c        ****         if(0u == CapSense_IsBusy())
 361              		.loc 1 175 0
 362 01c0 FFF7FEFF 		bl	CapSense_IsBusy
 363 01c4 031E     		sub	r3, r0, #0
ARM GAS  C:\Users\poornima\AppData\Local\Temp\cchPcYdf.s 			page 11


 364 01c6 03D1     		bne	.L18
 176:main.c        ****         {
 177:main.c        ****             /* Update all baselines */
 178:main.c        ****             CapSense_UpdateEnabledBaselines();
 365              		.loc 1 178 0
 366 01c8 FFF7FEFF 		bl	CapSense_UpdateEnabledBaselines
 179:main.c        **** 
 180:main.c        ****             /* Start scanning all enabled sensors */
 181:main.c        ****             CapSense_ScanEnabledWidgets();
 367              		.loc 1 181 0
 368 01cc FFF7FEFF 		bl	CapSense_ScanEnabledWidgets
 369              	.L18:
 182:main.c        ****         }
 183:main.c        **** 
 184:main.c        ****         /* Display CapSense state using LEDs */
 185:main.c        ****         CapSense_DisplayState();
 370              		.loc 1 185 0
 371 01d0 FFF7FEFF 		bl	CapSense_DisplayState
 186:main.c        ****     }
 372              		.loc 1 186 0
 373 01d4 61E7     		b	.L19
 374              	.L21:
 375 01d6 C046     		.align	2
 376              	.L20:
 377 01d8 00000000 		.word	i2cReadBuffer
 378 01dc 00000000 		.word	i2cWriteBuffer
 379 01e0 00FF0100 		.word	130816
 380 01e4 00000000 		.word	update
 381 01e8 00000000 		.word	.LC3
 382 01ec 14000000 		.word	.LC5
 383 01f0 38000000 		.word	.LC7
 384 01f4 64000000 		.word	.LC9
 385 01f8 7C000000 		.word	.LC11
 386 01fc 90000000 		.word	.L12
 387              		.cfi_endproc
 388              	.LFE36:
 389              		.size	main, .-main
 390              		.section	.text.CapSense_DisplayState,"ax",%progbits
 391              		.align	2
 392              		.global	CapSense_DisplayState
 393              		.code	16
 394              		.thumb_func
 395              		.type	CapSense_DisplayState, %function
 396              	CapSense_DisplayState:
 397              	.LFB37:
 187:main.c        **** }
 188:main.c        **** 
 189:main.c        **** 
 190:main.c        **** void CapSense_DisplayState(void)
 191:main.c        **** {
 398              		.loc 1 191 0
 399              		.cfi_startproc
 400 0000 80B5     		push	{r7, lr}
 401              		.cfi_def_cfa_offset 8
 402              		.cfi_offset 7, -8
 403              		.cfi_offset 14, -4
 404 0002 00AF     		add	r7, sp, #0
ARM GAS  C:\Users\poornima\AppData\Local\Temp\cchPcYdf.s 			page 12


 405              		.cfi_def_cfa_register 7
 192:main.c        ****     /* Find Radial Slider Position */
 193:main.c        ****     curPos1 = CapSense_GetRadialCentroidPos(CapSense_RADIALSLIDER0__RS);
 406              		.loc 1 193 0
 407 0004 0020     		mov	r0, #0
 408 0006 FFF7FEFF 		bl	CapSense_GetRadialCentroidPos
 409 000a 031C     		mov	r3, r0
 410 000c 1A1C     		mov	r2, r3
 411 000e AA4B     		ldr	r3, .L41
 412 0010 1A80     		strh	r2, [r3]
 194:main.c        ****   
 195:main.c        ****     
 196:main.c        ****     /* Switch 1 - 5 and Socket 1Control Code */
 197:main.c        ****     but1 = CapSense_CheckIsSensorActive(CapSense_BUTTON0__BTN);
 413              		.loc 1 197 0
 414 0012 0120     		mov	r0, #1
 415 0014 FFF7FEFF 		bl	CapSense_CheckIsSensorActive
 416 0018 021C     		mov	r2, r0
 417 001a A84B     		ldr	r3, .L41+4
 418 001c 1A60     		str	r2, [r3]
 198:main.c        ****     but2 = CapSense_CheckIsWidgetActive(CapSense_BUTTON1__BTN);
 419              		.loc 1 198 0
 420 001e 0220     		mov	r0, #2
 421 0020 FFF7FEFF 		bl	CapSense_CheckIsWidgetActive
 422 0024 021C     		mov	r2, r0
 423 0026 A64B     		ldr	r3, .L41+8
 424 0028 1A60     		str	r2, [r3]
 199:main.c        ****     but3 = CapSense_CheckIsWidgetActive(CapSense_BUTTON2__BTN);
 425              		.loc 1 199 0
 426 002a 0320     		mov	r0, #3
 427 002c FFF7FEFF 		bl	CapSense_CheckIsWidgetActive
 428 0030 021C     		mov	r2, r0
 429 0032 A44B     		ldr	r3, .L41+12
 430 0034 1A60     		str	r2, [r3]
 200:main.c        ****   
 201:main.c        ****     sock1 = CapSense_CheckIsWidgetActive(CapSense_BUTTON3__BTN);
 431              		.loc 1 201 0
 432 0036 0420     		mov	r0, #4
 433 0038 FFF7FEFF 		bl	CapSense_CheckIsWidgetActive
 434 003c 021C     		mov	r2, r0
 435 003e A24B     		ldr	r3, .L41+16
 436 0040 1A60     		str	r2, [r3]
 202:main.c        ****     
 203:main.c        ****     //CyDelay(50);
 204:main.c        ****     /* Switch 1 Control Code */
 205:main.c        ****   if(but1==1 && temp1==1)
 437              		.loc 1 205 0
 438 0042 9E4B     		ldr	r3, .L41+4
 439 0044 1B68     		ldr	r3, [r3]
 440 0046 012B     		cmp	r3, #1
 441 0048 36D1     		bne	.L23
 442              		.loc 1 205 0 is_stmt 0 discriminator 1
 443 004a A04B     		ldr	r3, .L41+20
 444 004c 1B78     		ldrb	r3, [r3]
 445 004e 012B     		cmp	r3, #1
 446 0050 32D1     		bne	.L23
 206:main.c        ****     {
ARM GAS  C:\Users\poornima\AppData\Local\Temp\cchPcYdf.s 			page 13


 207:main.c        ****             if(oldBut1==0)
 447              		.loc 1 207 0 is_stmt 1
 448 0052 9F4B     		ldr	r3, .L41+24
 449 0054 1B68     		ldr	r3, [r3]
 450 0056 002B     		cmp	r3, #0
 451 0058 0AD1     		bne	.L24
 208:main.c        ****             {
 209:main.c        ****                 //UART_UartPutString("in CapSense_DisplayState :: Switch 1, value 100 \n\r");
 210:main.c        ****                 UpdateSwitchLeds(SWITCH1, 100);
 452              		.loc 1 210 0
 453 005a 0120     		mov	r0, #1
 454 005c 6421     		mov	r1, #100
 455 005e FFF7FEFF 		bl	UpdateSwitchLeds
 211:main.c        ****                 i2cReadBuffer[1] = 100u;
 456              		.loc 1 211 0
 457 0062 9C4B     		ldr	r3, .L41+28
 458 0064 6422     		mov	r2, #100
 459 0066 5A70     		strb	r2, [r3, #1]
 212:main.c        ****                 oldBut1=1;
 460              		.loc 1 212 0
 461 0068 994B     		ldr	r3, .L41+24
 462 006a 0122     		mov	r2, #1
 463 006c 1A60     		str	r2, [r3]
 464 006e 09E0     		b	.L25
 465              	.L24:
 213:main.c        ****             }
 214:main.c        ****             
 215:main.c        ****             else
 216:main.c        ****             {
 217:main.c        ****                 //UART_UartPutString("in CapSense_DisplayState :: Switch 1, value 0  \n\r");
 218:main.c        ****                 UpdateSwitchLeds(SWITCH1, 0);
 466              		.loc 1 218 0
 467 0070 0120     		mov	r0, #1
 468 0072 0021     		mov	r1, #0
 469 0074 FFF7FEFF 		bl	UpdateSwitchLeds
 219:main.c        ****                 i2cReadBuffer[1] = 0u;
 470              		.loc 1 219 0
 471 0078 964B     		ldr	r3, .L41+28
 472 007a 0022     		mov	r2, #0
 473 007c 5A70     		strb	r2, [r3, #1]
 220:main.c        ****                 oldBut1=0;
 474              		.loc 1 220 0
 475 007e 944B     		ldr	r3, .L41+24
 476 0080 0022     		mov	r2, #0
 477 0082 1A60     		str	r2, [r3]
 478              	.L25:
 221:main.c        ****             }
 222:main.c        ****         temp1=0;
 479              		.loc 1 222 0
 480 0084 914B     		ldr	r3, .L41+20
 481 0086 0022     		mov	r2, #0
 482 0088 1A70     		strb	r2, [r3]
 223:main.c        ****         i2cReadBuffer[0] = SWITCH1;
 483              		.loc 1 223 0
 484 008a 924B     		ldr	r3, .L41+28
 485 008c 0122     		mov	r2, #1
 486 008e 1A70     		strb	r2, [r3]
ARM GAS  C:\Users\poornima\AppData\Local\Temp\cchPcYdf.s 			page 14


 224:main.c        ****        
 225:main.c        ****         InterPin_Write(~InterPin_Read());
 487              		.loc 1 225 0
 488 0090 FFF7FEFF 		bl	InterPin_Read
 489 0094 031C     		mov	r3, r0
 490 0096 DB43     		mvn	r3, r3
 491 0098 DBB2     		uxtb	r3, r3
 492 009a 181C     		mov	r0, r3
 493 009c FFF7FEFF 		bl	InterPin_Write
 226:main.c        ****         CyDelay(50);
 494              		.loc 1 226 0
 495 00a0 3220     		mov	r0, #50
 496 00a2 FFF7FEFF 		bl	CyDelay
 227:main.c        ****         InterPin_Write(~InterPin_Read());
 497              		.loc 1 227 0
 498 00a6 FFF7FEFF 		bl	InterPin_Read
 499 00aa 031C     		mov	r3, r0
 500 00ac DB43     		mvn	r3, r3
 501 00ae DBB2     		uxtb	r3, r3
 502 00b0 181C     		mov	r0, r3
 503 00b2 FFF7FEFF 		bl	InterPin_Write
 504 00b6 06E0     		b	.L26
 505              	.L23:
 228:main.c        ****             
 229:main.c        ****     }          
 230:main.c        ****     else if (but1==0)
 506              		.loc 1 230 0
 507 00b8 804B     		ldr	r3, .L41+4
 508 00ba 1B68     		ldr	r3, [r3]
 509 00bc 002B     		cmp	r3, #0
 510 00be 02D1     		bne	.L26
 231:main.c        ****     {
 232:main.c        ****         temp1=1;   
 511              		.loc 1 232 0
 512 00c0 824B     		ldr	r3, .L41+20
 513 00c2 0122     		mov	r2, #1
 514 00c4 1A70     		strb	r2, [r3]
 515              	.L26:
 233:main.c        ****     }
 234:main.c        ****         
 235:main.c        ****     /* Switch 2 Control Code */ 
 236:main.c        ****     if(but2==1 && temp2==1)
 516              		.loc 1 236 0
 517 00c6 7E4B     		ldr	r3, .L41+8
 518 00c8 1B68     		ldr	r3, [r3]
 519 00ca 012B     		cmp	r3, #1
 520 00cc 36D1     		bne	.L27
 521              		.loc 1 236 0 is_stmt 0 discriminator 1
 522 00ce 824B     		ldr	r3, .L41+32
 523 00d0 1B78     		ldrb	r3, [r3]
 524 00d2 012B     		cmp	r3, #1
 525 00d4 32D1     		bne	.L27
 237:main.c        ****    {
 238:main.c        ****             if(oldBut2==0)
 526              		.loc 1 238 0 is_stmt 1
 527 00d6 814B     		ldr	r3, .L41+36
 528 00d8 1B68     		ldr	r3, [r3]
ARM GAS  C:\Users\poornima\AppData\Local\Temp\cchPcYdf.s 			page 15


 529 00da 002B     		cmp	r3, #0
 530 00dc 0AD1     		bne	.L28
 239:main.c        ****             {
 240:main.c        ****                // UART_UartPutString("in CapSense_DisplayState :: Switch 2, value 100  \n\r");
 241:main.c        ****                 UpdateSwitchLeds(SWITCH2, 100);
 531              		.loc 1 241 0
 532 00de 0220     		mov	r0, #2
 533 00e0 6421     		mov	r1, #100
 534 00e2 FFF7FEFF 		bl	UpdateSwitchLeds
 242:main.c        ****                 i2cReadBuffer[1] = 100u;
 535              		.loc 1 242 0
 536 00e6 7B4B     		ldr	r3, .L41+28
 537 00e8 6422     		mov	r2, #100
 538 00ea 5A70     		strb	r2, [r3, #1]
 243:main.c        ****                 oldBut2=1;
 539              		.loc 1 243 0
 540 00ec 7B4B     		ldr	r3, .L41+36
 541 00ee 0122     		mov	r2, #1
 542 00f0 1A60     		str	r2, [r3]
 543 00f2 09E0     		b	.L29
 544              	.L28:
 244:main.c        ****             }
 245:main.c        ****             else
 246:main.c        ****             {
 247:main.c        ****                 //UART_UartPutString("in CapSense_DisplayState :: Switch 2, value 0  \n\r");
 248:main.c        ****                 UpdateSwitchLeds(SWITCH2, 0);
 545              		.loc 1 248 0
 546 00f4 0220     		mov	r0, #2
 547 00f6 0021     		mov	r1, #0
 548 00f8 FFF7FEFF 		bl	UpdateSwitchLeds
 249:main.c        ****                 i2cReadBuffer[1] = 0u;
 549              		.loc 1 249 0
 550 00fc 754B     		ldr	r3, .L41+28
 551 00fe 0022     		mov	r2, #0
 552 0100 5A70     		strb	r2, [r3, #1]
 250:main.c        ****                 oldBut2=0;
 553              		.loc 1 250 0
 554 0102 764B     		ldr	r3, .L41+36
 555 0104 0022     		mov	r2, #0
 556 0106 1A60     		str	r2, [r3]
 557              	.L29:
 251:main.c        ****                 
 252:main.c        ****             }
 253:main.c        ****              
 254:main.c        ****         temp2=0;
 558              		.loc 1 254 0
 559 0108 734B     		ldr	r3, .L41+32
 560 010a 0022     		mov	r2, #0
 561 010c 1A70     		strb	r2, [r3]
 255:main.c        ****         i2cReadBuffer[0] = SWITCH2;
 562              		.loc 1 255 0
 563 010e 714B     		ldr	r3, .L41+28
 564 0110 0222     		mov	r2, #2
 565 0112 1A70     		strb	r2, [r3]
 256:main.c        ****        
 257:main.c        ****         InterPin_Write(~InterPin_Read());
 566              		.loc 1 257 0
ARM GAS  C:\Users\poornima\AppData\Local\Temp\cchPcYdf.s 			page 16


 567 0114 FFF7FEFF 		bl	InterPin_Read
 568 0118 031C     		mov	r3, r0
 569 011a DB43     		mvn	r3, r3
 570 011c DBB2     		uxtb	r3, r3
 571 011e 181C     		mov	r0, r3
 572 0120 FFF7FEFF 		bl	InterPin_Write
 258:main.c        ****         CyDelay(50);
 573              		.loc 1 258 0
 574 0124 3220     		mov	r0, #50
 575 0126 FFF7FEFF 		bl	CyDelay
 259:main.c        ****         InterPin_Write(~InterPin_Read());
 576              		.loc 1 259 0
 577 012a FFF7FEFF 		bl	InterPin_Read
 578 012e 031C     		mov	r3, r0
 579 0130 DB43     		mvn	r3, r3
 580 0132 DBB2     		uxtb	r3, r3
 581 0134 181C     		mov	r0, r3
 582 0136 FFF7FEFF 		bl	InterPin_Write
 583 013a 06E0     		b	.L30
 584              	.L27:
 260:main.c        ****     }          
 261:main.c        ****     else if (but2==0)
 585              		.loc 1 261 0
 586 013c 604B     		ldr	r3, .L41+8
 587 013e 1B68     		ldr	r3, [r3]
 588 0140 002B     		cmp	r3, #0
 589 0142 02D1     		bne	.L30
 262:main.c        ****     {
 263:main.c        ****         temp2=1;   
 590              		.loc 1 263 0
 591 0144 644B     		ldr	r3, .L41+32
 592 0146 0122     		mov	r2, #1
 593 0148 1A70     		strb	r2, [r3]
 594              	.L30:
 264:main.c        ****     }
 265:main.c        ****     
 266:main.c        ****     /* Switch 3 Control Code */
 267:main.c        ****    if(but3==1 && temp3==1)
 595              		.loc 1 267 0
 596 014a 5E4B     		ldr	r3, .L41+12
 597 014c 1B68     		ldr	r3, [r3]
 598 014e 012B     		cmp	r3, #1
 599 0150 36D1     		bne	.L31
 600              		.loc 1 267 0 is_stmt 0 discriminator 1
 601 0152 634B     		ldr	r3, .L41+40
 602 0154 1B78     		ldrb	r3, [r3]
 603 0156 012B     		cmp	r3, #1
 604 0158 32D1     		bne	.L31
 268:main.c        ****         {
 269:main.c        ****             if(oldBut3==0)
 605              		.loc 1 269 0 is_stmt 1
 606 015a 624B     		ldr	r3, .L41+44
 607 015c 1B68     		ldr	r3, [r3]
 608 015e 002B     		cmp	r3, #0
 609 0160 0AD1     		bne	.L32
 270:main.c        ****             {
 271:main.c        ****                // UART_UartPutString("in CapSense_DisplayState :: Switch 3, value 100   A\n\r");
ARM GAS  C:\Users\poornima\AppData\Local\Temp\cchPcYdf.s 			page 17


 272:main.c        ****                 UpdateSwitchLeds(SWITCH3, 100);
 610              		.loc 1 272 0
 611 0162 0320     		mov	r0, #3
 612 0164 6421     		mov	r1, #100
 613 0166 FFF7FEFF 		bl	UpdateSwitchLeds
 273:main.c        ****                 i2cReadBuffer[1] = 1u;
 614              		.loc 1 273 0
 615 016a 5A4B     		ldr	r3, .L41+28
 616 016c 0122     		mov	r2, #1
 617 016e 5A70     		strb	r2, [r3, #1]
 274:main.c        ****                 oldBut3=1;
 618              		.loc 1 274 0
 619 0170 5C4B     		ldr	r3, .L41+44
 620 0172 0122     		mov	r2, #1
 621 0174 1A60     		str	r2, [r3]
 622 0176 09E0     		b	.L33
 623              	.L32:
 275:main.c        ****             }
 276:main.c        ****             
 277:main.c        ****             else
 278:main.c        ****             {
 279:main.c        ****                // UART_UartPutString("in CapSense_DisplayState :: Switch 3, value 0   A\n\r");
 280:main.c        ****                 UpdateSwitchLeds(SWITCH3, 0);
 624              		.loc 1 280 0
 625 0178 0320     		mov	r0, #3
 626 017a 0021     		mov	r1, #0
 627 017c FFF7FEFF 		bl	UpdateSwitchLeds
 281:main.c        ****                 i2cReadBuffer[1] = 0u;
 628              		.loc 1 281 0
 629 0180 544B     		ldr	r3, .L41+28
 630 0182 0022     		mov	r2, #0
 631 0184 5A70     		strb	r2, [r3, #1]
 282:main.c        ****                 oldBut3=0;
 632              		.loc 1 282 0
 633 0186 574B     		ldr	r3, .L41+44
 634 0188 0022     		mov	r2, #0
 635 018a 1A60     		str	r2, [r3]
 636              	.L33:
 283:main.c        ****                 
 284:main.c        ****             }
 285:main.c        ****         temp3=0;
 637              		.loc 1 285 0
 638 018c 544B     		ldr	r3, .L41+40
 639 018e 0022     		mov	r2, #0
 640 0190 1A70     		strb	r2, [r3]
 286:main.c        ****         i2cReadBuffer[0] = SWITCH3;
 641              		.loc 1 286 0
 642 0192 504B     		ldr	r3, .L41+28
 643 0194 0322     		mov	r2, #3
 644 0196 1A70     		strb	r2, [r3]
 287:main.c        ****        
 288:main.c        ****         InterPin_Write(~InterPin_Read());
 645              		.loc 1 288 0
 646 0198 FFF7FEFF 		bl	InterPin_Read
 647 019c 031C     		mov	r3, r0
 648 019e DB43     		mvn	r3, r3
 649 01a0 DBB2     		uxtb	r3, r3
ARM GAS  C:\Users\poornima\AppData\Local\Temp\cchPcYdf.s 			page 18


 650 01a2 181C     		mov	r0, r3
 651 01a4 FFF7FEFF 		bl	InterPin_Write
 289:main.c        ****         CyDelay(50);
 652              		.loc 1 289 0
 653 01a8 3220     		mov	r0, #50
 654 01aa FFF7FEFF 		bl	CyDelay
 290:main.c        ****         InterPin_Write(~InterPin_Read());
 655              		.loc 1 290 0
 656 01ae FFF7FEFF 		bl	InterPin_Read
 657 01b2 031C     		mov	r3, r0
 658 01b4 DB43     		mvn	r3, r3
 659 01b6 DBB2     		uxtb	r3, r3
 660 01b8 181C     		mov	r0, r3
 661 01ba FFF7FEFF 		bl	InterPin_Write
 662 01be 06E0     		b	.L34
 663              	.L31:
 291:main.c        ****         }          
 292:main.c        ****    else if (but3==0)
 664              		.loc 1 292 0
 665 01c0 404B     		ldr	r3, .L41+12
 666 01c2 1B68     		ldr	r3, [r3]
 667 01c4 002B     		cmp	r3, #0
 668 01c6 02D1     		bne	.L34
 293:main.c        ****    {
 294:main.c        ****     temp3=1;   
 669              		.loc 1 294 0
 670 01c8 454B     		ldr	r3, .L41+40
 671 01ca 0122     		mov	r2, #1
 672 01cc 1A70     		strb	r2, [r3]
 673              	.L34:
 295:main.c        ****    }
 296:main.c        **** 
 297:main.c        **** /* Socket 1 Control Code */
 298:main.c        ****    if(sock1==1 && temp4==1)
 674              		.loc 1 298 0
 675 01ce 3E4B     		ldr	r3, .L41+16
 676 01d0 1B68     		ldr	r3, [r3]
 677 01d2 012B     		cmp	r3, #1
 678 01d4 36D1     		bne	.L35
 679              		.loc 1 298 0 is_stmt 0 discriminator 1
 680 01d6 444B     		ldr	r3, .L41+48
 681 01d8 1B78     		ldrb	r3, [r3]
 682 01da 012B     		cmp	r3, #1
 683 01dc 32D1     		bne	.L35
 299:main.c        ****         {
 300:main.c        ****             if(oldSock1==0)
 684              		.loc 1 300 0 is_stmt 1
 685 01de 434B     		ldr	r3, .L41+52
 686 01e0 1B68     		ldr	r3, [r3]
 687 01e2 002B     		cmp	r3, #0
 688 01e4 0AD1     		bne	.L36
 301:main.c        ****             {
 302:main.c        ****                // UART_UartPutString("in CapSense_DisplayState :: Switch 5, value 0  \n\r");
 303:main.c        ****                 UpdateSwitchLeds(SOCKET1, 100);
 689              		.loc 1 303 0
 690 01e6 0420     		mov	r0, #4
 691 01e8 6421     		mov	r1, #100
ARM GAS  C:\Users\poornima\AppData\Local\Temp\cchPcYdf.s 			page 19


 692 01ea FFF7FEFF 		bl	UpdateSwitchLeds
 304:main.c        ****                 i2cReadBuffer[1] = 100u;
 693              		.loc 1 304 0
 694 01ee 394B     		ldr	r3, .L41+28
 695 01f0 6422     		mov	r2, #100
 696 01f2 5A70     		strb	r2, [r3, #1]
 305:main.c        ****                 oldSock1=1;
 697              		.loc 1 305 0
 698 01f4 3D4B     		ldr	r3, .L41+52
 699 01f6 0122     		mov	r2, #1
 700 01f8 1A60     		str	r2, [r3]
 701 01fa 09E0     		b	.L37
 702              	.L36:
 306:main.c        ****             }
 307:main.c        ****             
 308:main.c        ****             else
 309:main.c        ****             {
 310:main.c        ****                // UART_UartPutString("in CapSense_DisplayState :: Switch 5, value 0  \n\r");
 311:main.c        ****                 UpdateSwitchLeds(SOCKET1, 0);
 703              		.loc 1 311 0
 704 01fc 0420     		mov	r0, #4
 705 01fe 0021     		mov	r1, #0
 706 0200 FFF7FEFF 		bl	UpdateSwitchLeds
 312:main.c        ****                 i2cReadBuffer[1] = 0u;
 707              		.loc 1 312 0
 708 0204 334B     		ldr	r3, .L41+28
 709 0206 0022     		mov	r2, #0
 710 0208 5A70     		strb	r2, [r3, #1]
 313:main.c        ****                 oldSock1=0;
 711              		.loc 1 313 0
 712 020a 384B     		ldr	r3, .L41+52
 713 020c 0022     		mov	r2, #0
 714 020e 1A60     		str	r2, [r3]
 715              	.L37:
 314:main.c        ****                 
 315:main.c        ****             }
 316:main.c        ****         temp4=0;
 716              		.loc 1 316 0
 717 0210 354B     		ldr	r3, .L41+48
 718 0212 0022     		mov	r2, #0
 719 0214 1A70     		strb	r2, [r3]
 317:main.c        ****         i2cReadBuffer[0] = SOCKET1;
 720              		.loc 1 317 0
 721 0216 2F4B     		ldr	r3, .L41+28
 722 0218 0422     		mov	r2, #4
 723 021a 1A70     		strb	r2, [r3]
 318:main.c        ****         
 319:main.c        ****         InterPin_Write(~InterPin_Read());
 724              		.loc 1 319 0
 725 021c FFF7FEFF 		bl	InterPin_Read
 726 0220 031C     		mov	r3, r0
 727 0222 DB43     		mvn	r3, r3
 728 0224 DBB2     		uxtb	r3, r3
 729 0226 181C     		mov	r0, r3
 730 0228 FFF7FEFF 		bl	InterPin_Write
 320:main.c        ****         CyDelay(50);
 731              		.loc 1 320 0
ARM GAS  C:\Users\poornima\AppData\Local\Temp\cchPcYdf.s 			page 20


 732 022c 3220     		mov	r0, #50
 733 022e FFF7FEFF 		bl	CyDelay
 321:main.c        ****         InterPin_Write(~InterPin_Read());
 734              		.loc 1 321 0
 735 0232 FFF7FEFF 		bl	InterPin_Read
 736 0236 031C     		mov	r3, r0
 737 0238 DB43     		mvn	r3, r3
 738 023a DBB2     		uxtb	r3, r3
 739 023c 181C     		mov	r0, r3
 740 023e FFF7FEFF 		bl	InterPin_Write
 741 0242 06E0     		b	.L38
 742              	.L35:
 322:main.c        ****         }          
 323:main.c        ****    else if (sock1==0)
 743              		.loc 1 323 0
 744 0244 204B     		ldr	r3, .L41+16
 745 0246 1B68     		ldr	r3, [r3]
 746 0248 002B     		cmp	r3, #0
 747 024a 02D1     		bne	.L38
 324:main.c        ****     {
 325:main.c        ****          temp4=1;   
 748              		.loc 1 325 0
 749 024c 264B     		ldr	r3, .L41+48
 750 024e 0122     		mov	r2, #1
 751 0250 1A70     		strb	r2, [r3]
 752              	.L38:
 326:main.c        ****     }
 327:main.c        ****     
 328:main.c        ****     /* Fan 1 Control Code */
 329:main.c        ****     /* Reset position - FAN1 */
 330:main.c        ****     if(curPos1 == 0xFFFFu)
 753              		.loc 1 330 0
 754 0252 194B     		ldr	r3, .L41
 755 0254 1B88     		ldrh	r3, [r3]
 756 0256 264A     		ldr	r2, .L41+56
 757 0258 9342     		cmp	r3, r2
 758 025a 02D1     		bne	.L39
 331:main.c        ****     {
 332:main.c        ****         curPos1 = 0u;
 759              		.loc 1 332 0
 760 025c 164B     		ldr	r3, .L41
 761 025e 0022     		mov	r2, #0
 762 0260 1A80     		strh	r2, [r3]
 763              	.L39:
 333:main.c        ****     }
 334:main.c        ****     
 335:main.c        ****     /* Move bargraph */
 336:main.c        ****     if (curPos1 != oldCurPos1)
 764              		.loc 1 336 0
 765 0262 154B     		ldr	r3, .L41
 766 0264 1A88     		ldrh	r2, [r3]
 767 0266 234B     		ldr	r3, .L41+60
 768 0268 1B88     		ldrh	r3, [r3]
 769 026a 9A42     		cmp	r2, r3
 770 026c 22D0     		beq	.L22
 337:main.c        ****     {
 338:main.c        ****        // UART_UartPutString("in CapSense_DisplayState :: Fan 1\n");
ARM GAS  C:\Users\poornima\AppData\Local\Temp\cchPcYdf.s 			page 21


 339:main.c        ****         oldCurPos1 = curPos1;
 771              		.loc 1 339 0
 772 026e 124B     		ldr	r3, .L41
 773 0270 1A88     		ldrh	r2, [r3]
 774 0272 204B     		ldr	r3, .L41+60
 775 0274 1A80     		strh	r2, [r3]
 340:main.c        ****         /* Display Slider bargraph */
 341:main.c        ****         if (curPos1 != 0u)
 776              		.loc 1 341 0
 777 0276 104B     		ldr	r3, .L41
 778 0278 1B88     		ldrh	r3, [r3]
 779 027a 002B     		cmp	r3, #0
 780 027c 1AD0     		beq	.L22
 342:main.c        ****         {
 343:main.c        ****             LED_CONTROL1_WriteCompare((uint32)curPos1 << SLIDER_POS_TO_COMPARE_SHIFT);       
 781              		.loc 1 343 0
 782 027e 0E4B     		ldr	r3, .L41
 783 0280 1B88     		ldrh	r3, [r3]
 784 0282 5B02     		lsl	r3, r3, #9
 785 0284 181C     		mov	r0, r3
 786 0286 FFF7FEFF 		bl	LED_CONTROL1_WriteCompare
 344:main.c        ****             i2cReadBuffer[0] = FAN1;
 787              		.loc 1 344 0
 788 028a 124B     		ldr	r3, .L41+28
 789 028c 0022     		mov	r2, #0
 790 028e 1A70     		strb	r2, [r3]
 345:main.c        ****             i2cReadBuffer[1] = curPos1;
 791              		.loc 1 345 0
 792 0290 094B     		ldr	r3, .L41
 793 0292 1B88     		ldrh	r3, [r3]
 794 0294 DAB2     		uxtb	r2, r3
 795 0296 0F4B     		ldr	r3, .L41+28
 796 0298 5A70     		strb	r2, [r3, #1]
 346:main.c        ****             UpdateLedsFan1(curPos1);
 797              		.loc 1 346 0
 798 029a 074B     		ldr	r3, .L41
 799 029c 1B88     		ldrh	r3, [r3]
 800 029e 181C     		mov	r0, r3
 801 02a0 FFF7FEFF 		bl	UpdateLedsFan1
 347:main.c        ****             InterPin_Write(~InterPin_Read());
 802              		.loc 1 347 0
 803 02a4 FFF7FEFF 		bl	InterPin_Read
 804 02a8 031C     		mov	r3, r0
 805 02aa DB43     		mvn	r3, r3
 806 02ac DBB2     		uxtb	r3, r3
 807 02ae 181C     		mov	r0, r3
 808 02b0 FFF7FEFF 		bl	InterPin_Write
 809              	.L22:
 348:main.c        ****         }
 349:main.c        ****     }
 350:main.c        ****     
 351:main.c        **** 
 352:main.c        **** }
 810              		.loc 1 352 0
 811 02b4 BD46     		mov	sp, r7
 812              		@ sp needed
 813 02b6 80BD     		pop	{r7, pc}
ARM GAS  C:\Users\poornima\AppData\Local\Temp\cchPcYdf.s 			page 22


 814              	.L42:
 815              		.align	2
 816              	.L41:
 817 02b8 00000000 		.word	curPos1
 818 02bc 00000000 		.word	but1
 819 02c0 00000000 		.word	but2
 820 02c4 00000000 		.word	but3
 821 02c8 00000000 		.word	sock1
 822 02cc 00000000 		.word	temp1
 823 02d0 00000000 		.word	oldBut1
 824 02d4 00000000 		.word	i2cReadBuffer
 825 02d8 00000000 		.word	temp2
 826 02dc 00000000 		.word	oldBut2
 827 02e0 00000000 		.word	temp3
 828 02e4 00000000 		.word	oldBut3
 829 02e8 00000000 		.word	temp4
 830 02ec 00000000 		.word	oldSock1
 831 02f0 FFFF0000 		.word	65535
 832 02f4 00000000 		.word	oldCurPos1
 833              		.cfi_endproc
 834              	.LFE37:
 835              		.size	CapSense_DisplayState, .-CapSense_DisplayState
 836              		.section	.text.ExecuteCommand,"ax",%progbits
 837              		.align	2
 838              		.global	ExecuteCommand
 839              		.code	16
 840              		.thumb_func
 841              		.type	ExecuteCommand, %function
 842              	ExecuteCommand:
 843              	.LFB38:
 353:main.c        **** 
 354:main.c        **** 
 355:main.c        **** uint8 ExecuteCommand(uint32 cmd, uint32 value)
 356:main.c        **** {
 844              		.loc 1 356 0
 845              		.cfi_startproc
 846 0000 80B5     		push	{r7, lr}
 847              		.cfi_def_cfa_offset 8
 848              		.cfi_offset 7, -8
 849              		.cfi_offset 14, -4
 850 0002 84B0     		sub	sp, sp, #16
 851              		.cfi_def_cfa_offset 24
 852 0004 00AF     		add	r7, sp, #0
 853              		.cfi_def_cfa_register 7
 854 0006 7860     		str	r0, [r7, #4]
 855 0008 3960     		str	r1, [r7]
 357:main.c        ****    // UART_UartPutString("in ExecuteCommand \n");
 358:main.c        ****     uint8 status;
 359:main.c        ****     status = STS_CMD_DONE;
 856              		.loc 1 359 0
 857 000a 0F23     		mov	r3, #15
 858 000c FB18     		add	r3, r7, r3
 859 000e 0022     		mov	r2, #0
 860 0010 1A70     		strb	r2, [r3]
 360:main.c        **** 
 361:main.c        ****     /* Execute received command */
 362:main.c        ****     switch (cmd)
ARM GAS  C:\Users\poornima\AppData\Local\Temp\cchPcYdf.s 			page 23


 861              		.loc 1 362 0
 862 0012 7B68     		ldr	r3, [r7, #4]
 863 0014 002B     		cmp	r3, #0
 864 0016 02D0     		beq	.L45
 865 0018 042B     		cmp	r3, #4
 866 001a 0FD8     		bhi	.L44
 867 001c 05E0     		b	.L49
 868              	.L45:
 363:main.c        ****     {
 364:main.c        ****         case FAN1:
 365:main.c        ****            // UART_UartPutString("in ExecuteCommand :: FAN1\n");
 366:main.c        ****             UpdateLedsFan1(value);
 869              		.loc 1 366 0
 870 001e 3B68     		ldr	r3, [r7]
 871 0020 9BB2     		uxth	r3, r3
 872 0022 181C     		mov	r0, r3
 873 0024 FFF7FEFF 		bl	UpdateLedsFan1
 367:main.c        ****             break;
 874              		.loc 1 367 0
 875 0028 0DE0     		b	.L47
 876              	.L49:
 368:main.c        ****       
 369:main.c        ****         case SWITCH1:
 370:main.c        ****         case SWITCH2:
 371:main.c        ****         case SWITCH3:
 372:main.c        ****         case SOCKET1:
 373:main.c        ****            // UART_UartPutString("in ExecuteCommand :: Switch & Socket\n");
 374:main.c        ****             UpdateSwitchLeds(cmd, value);
 877              		.loc 1 374 0
 878 002a 7B68     		ldr	r3, [r7, #4]
 879 002c 9AB2     		uxth	r2, r3
 880 002e 3B68     		ldr	r3, [r7]
 881 0030 9BB2     		uxth	r3, r3
 882 0032 101C     		mov	r0, r2
 883 0034 191C     		mov	r1, r3
 884 0036 FFF7FEFF 		bl	UpdateSwitchLeds
 375:main.c        ****             break;
 885              		.loc 1 375 0
 886 003a 04E0     		b	.L47
 887              	.L44:
 376:main.c        ****         default:
 377:main.c        ****            // UART_UartPutString("in ExecuteCommand :: default\n");
 378:main.c        ****             status = STS_CMD_FAIL;
 888              		.loc 1 378 0
 889 003c 0F23     		mov	r3, #15
 890 003e FB18     		add	r3, r7, r3
 891 0040 FF22     		mov	r2, #255
 892 0042 1A70     		strb	r2, [r3]
 379:main.c        ****             break;
 893              		.loc 1 379 0
 894 0044 C046     		mov	r8, r8
 895              	.L47:
 380:main.c        ****     }
 381:main.c        **** 
 382:main.c        ****     return (status);
 896              		.loc 1 382 0
 897 0046 0F23     		mov	r3, #15
ARM GAS  C:\Users\poornima\AppData\Local\Temp\cchPcYdf.s 			page 24


 898 0048 FB18     		add	r3, r7, r3
 899 004a 1B78     		ldrb	r3, [r3]
 383:main.c        **** }
 900              		.loc 1 383 0
 901 004c 181C     		mov	r0, r3
 902 004e BD46     		mov	sp, r7
 903 0050 04B0     		add	sp, sp, #16
 904              		@ sp needed
 905 0052 80BD     		pop	{r7, pc}
 906              		.cfi_endproc
 907              	.LFE38:
 908              		.size	ExecuteCommand, .-ExecuteCommand
 909              		.section	.text.UpdateSwitchLeds,"ax",%progbits
 910              		.align	2
 911              		.global	UpdateSwitchLeds
 912              		.code	16
 913              		.thumb_func
 914              		.type	UpdateSwitchLeds, %function
 915              	UpdateSwitchLeds:
 916              	.LFB39:
 384:main.c        **** 
 385:main.c        **** void UpdateSwitchLeds(uint16 res, uint16 curPos)
 386:main.c        **** {
 917              		.loc 1 386 0
 918              		.cfi_startproc
 919 0000 80B5     		push	{r7, lr}
 920              		.cfi_def_cfa_offset 8
 921              		.cfi_offset 7, -8
 922              		.cfi_offset 14, -4
 923 0002 82B0     		sub	sp, sp, #8
 924              		.cfi_def_cfa_offset 16
 925 0004 00AF     		add	r7, sp, #0
 926              		.cfi_def_cfa_register 7
 927 0006 021C     		mov	r2, r0
 928 0008 BB1D     		add	r3, r7, #6
 929 000a 1A80     		strh	r2, [r3]
 930 000c 3B1D     		add	r3, r7, #4
 931 000e 0A1C     		add	r2, r1, #0
 932 0010 1A80     		strh	r2, [r3]
 387:main.c        ****    //UART_UartPutString("in UpdateSwitchLeds\n");
 388:main.c        ****    
 389:main.c        ****     
 390:main.c        ****     switch(res)
 933              		.loc 1 390 0
 934 0012 BB1D     		add	r3, r7, #6
 935 0014 1B88     		ldrh	r3, [r3]
 936 0016 022B     		cmp	r3, #2
 937 0018 31D0     		beq	.L52
 938 001a 02DC     		bgt	.L53
 939 001c 012B     		cmp	r3, #1
 940 001e 06D0     		beq	.L54
 941 0020 A5E0     		b	.L51
 942              	.L53:
 943 0022 032B     		cmp	r3, #3
 944 0024 53D0     		beq	.L55
 945 0026 042B     		cmp	r3, #4
 946 0028 00D1     		bne	.LCB762
ARM GAS  C:\Users\poornima\AppData\Local\Temp\cchPcYdf.s 			page 25


 947 002a 78E0     		b	.L56	@long jump
 948              	.LCB762:
 949 002c 9FE0     		b	.L51
 950              	.L54:
 391:main.c        ****     {
 392:main.c        ****             case SWITCH1:
 393:main.c        ****                 if(curPos == 100)
 951              		.loc 1 393 0
 952 002e 3B1D     		add	r3, r7, #4
 953 0030 1B88     		ldrh	r3, [r3]
 954 0032 642B     		cmp	r3, #100
 955 0034 11D1     		bne	.L57
 394:main.c        ****                 {
 395:main.c        ****                    // UART_UartPutString("in UpdateSwitchLeds :: switch1 :: on \n");
 396:main.c        ****                     LED11_Write(1);
 956              		.loc 1 396 0
 957 0036 0120     		mov	r0, #1
 958 0038 FFF7FEFF 		bl	LED11_Write
 397:main.c        ****                     Triac2_Write(1);
 959              		.loc 1 397 0
 960 003c 0120     		mov	r0, #1
 961 003e FFF7FEFF 		bl	Triac2_Write
 398:main.c        ****                     cache[1]=curPos;
 962              		.loc 1 398 0
 963 0042 3B1D     		add	r3, r7, #4
 964 0044 1B88     		ldrh	r3, [r3]
 965 0046 DAB2     		uxtb	r2, r3
 966 0048 574B     		ldr	r3, .L66
 967 004a 5A70     		strb	r2, [r3, #1]
 399:main.c        ****                     CySysFlashWriteRow(CY_TEST_FLASH_ROW, cache);
 968              		.loc 1 399 0
 969 004c 574A     		ldr	r2, .L66+4
 970 004e 564B     		ldr	r3, .L66
 971 0050 101C     		mov	r0, r2
 972 0052 191C     		mov	r1, r3
 973 0054 FFF7FEFF 		bl	CySysFlashWriteRow
 400:main.c        ****                 }
 401:main.c        ****                 else
 402:main.c        ****                 {
 403:main.c        ****                    // UART_UartPutString("in UpdateSwitchLeds :: switch1 :: off \n");
 404:main.c        ****                     LED11_Write(0);
 405:main.c        ****                     Triac2_Write(0);
 406:main.c        ****                    
 407:main.c        ****                     cache[1]=curPos;
 408:main.c        ****                     CySysFlashWriteRow(CY_TEST_FLASH_ROW, cache);
 409:main.c        ****                 }
 410:main.c        ****                 break;
 974              		.loc 1 410 0
 975 0058 A2E0     		b	.L50
 976              	.L57:
 404:main.c        ****                     Triac2_Write(0);
 977              		.loc 1 404 0
 978 005a 0020     		mov	r0, #0
 979 005c FFF7FEFF 		bl	LED11_Write
 405:main.c        ****                    
 980              		.loc 1 405 0
 981 0060 0020     		mov	r0, #0
ARM GAS  C:\Users\poornima\AppData\Local\Temp\cchPcYdf.s 			page 26


 982 0062 FFF7FEFF 		bl	Triac2_Write
 407:main.c        ****                     CySysFlashWriteRow(CY_TEST_FLASH_ROW, cache);
 983              		.loc 1 407 0
 984 0066 3B1D     		add	r3, r7, #4
 985 0068 1B88     		ldrh	r3, [r3]
 986 006a DAB2     		uxtb	r2, r3
 987 006c 4E4B     		ldr	r3, .L66
 988 006e 5A70     		strb	r2, [r3, #1]
 408:main.c        ****                 }
 989              		.loc 1 408 0
 990 0070 4E4A     		ldr	r2, .L66+4
 991 0072 4D4B     		ldr	r3, .L66
 992 0074 101C     		mov	r0, r2
 993 0076 191C     		mov	r1, r3
 994 0078 FFF7FEFF 		bl	CySysFlashWriteRow
 995              		.loc 1 410 0
 996 007c 90E0     		b	.L50
 997              	.L52:
 411:main.c        ****             case SWITCH2:
 412:main.c        ****                 if(curPos == 100)
 998              		.loc 1 412 0
 999 007e 3B1D     		add	r3, r7, #4
 1000 0080 1B88     		ldrh	r3, [r3]
 1001 0082 642B     		cmp	r3, #100
 1002 0084 11D1     		bne	.L60
 413:main.c        ****                 {
 414:main.c        ****                    // UART_UartPutString("in UpdateSwitchLeds :: switch2 :: on \n");
 415:main.c        ****                     LED12_Write(1);
 1003              		.loc 1 415 0
 1004 0086 0120     		mov	r0, #1
 1005 0088 FFF7FEFF 		bl	LED12_Write
 416:main.c        ****                     Triac3_Write(1);
 1006              		.loc 1 416 0
 1007 008c 0120     		mov	r0, #1
 1008 008e FFF7FEFF 		bl	Triac3_Write
 417:main.c        ****                     
 418:main.c        ****                     cache[2]=curPos;
 1009              		.loc 1 418 0
 1010 0092 3B1D     		add	r3, r7, #4
 1011 0094 1B88     		ldrh	r3, [r3]
 1012 0096 DAB2     		uxtb	r2, r3
 1013 0098 434B     		ldr	r3, .L66
 1014 009a 9A70     		strb	r2, [r3, #2]
 419:main.c        ****                     CySysFlashWriteRow(CY_TEST_FLASH_ROW, cache);
 1015              		.loc 1 419 0
 1016 009c 434A     		ldr	r2, .L66+4
 1017 009e 424B     		ldr	r3, .L66
 1018 00a0 101C     		mov	r0, r2
 1019 00a2 191C     		mov	r1, r3
 1020 00a4 FFF7FEFF 		bl	CySysFlashWriteRow
 420:main.c        ****                 }
 421:main.c        ****                 else
 422:main.c        ****                 {
 423:main.c        ****                    // UART_UartPutString("in UpdateSwitchLeds :: switch2 :: off \n");
 424:main.c        ****                     LED12_Write(0);
 425:main.c        ****                     Triac3_Write(0);
 426:main.c        ****                     
ARM GAS  C:\Users\poornima\AppData\Local\Temp\cchPcYdf.s 			page 27


 427:main.c        ****                     cache[2]=curPos;
 428:main.c        ****                     CySysFlashWriteRow(CY_TEST_FLASH_ROW, cache);
 429:main.c        ****                 }
 430:main.c        ****                 break;
 1021              		.loc 1 430 0
 1022 00a8 7AE0     		b	.L50
 1023              	.L60:
 424:main.c        ****                     Triac3_Write(0);
 1024              		.loc 1 424 0
 1025 00aa 0020     		mov	r0, #0
 1026 00ac FFF7FEFF 		bl	LED12_Write
 425:main.c        ****                     
 1027              		.loc 1 425 0
 1028 00b0 0020     		mov	r0, #0
 1029 00b2 FFF7FEFF 		bl	Triac3_Write
 427:main.c        ****                     CySysFlashWriteRow(CY_TEST_FLASH_ROW, cache);
 1030              		.loc 1 427 0
 1031 00b6 3B1D     		add	r3, r7, #4
 1032 00b8 1B88     		ldrh	r3, [r3]
 1033 00ba DAB2     		uxtb	r2, r3
 1034 00bc 3A4B     		ldr	r3, .L66
 1035 00be 9A70     		strb	r2, [r3, #2]
 428:main.c        ****                 }
 1036              		.loc 1 428 0
 1037 00c0 3A4A     		ldr	r2, .L66+4
 1038 00c2 394B     		ldr	r3, .L66
 1039 00c4 101C     		mov	r0, r2
 1040 00c6 191C     		mov	r1, r3
 1041 00c8 FFF7FEFF 		bl	CySysFlashWriteRow
 1042              		.loc 1 430 0
 1043 00cc 68E0     		b	.L50
 1044              	.L55:
 431:main.c        ****             case SWITCH3:
 432:main.c        ****                 if(curPos == 100)
 1045              		.loc 1 432 0
 1046 00ce 3B1D     		add	r3, r7, #4
 1047 00d0 1B88     		ldrh	r3, [r3]
 1048 00d2 642B     		cmp	r3, #100
 1049 00d4 11D1     		bne	.L62
 433:main.c        ****                 {
 434:main.c        ****                   //  UART_UartPutString("in UpdateSwitchLeds :: switch3 :: on \n");
 435:main.c        ****                     LED13_Write(1);
 1050              		.loc 1 435 0
 1051 00d6 0120     		mov	r0, #1
 1052 00d8 FFF7FEFF 		bl	LED13_Write
 436:main.c        ****                     Triac4_Write(1);
 1053              		.loc 1 436 0
 1054 00dc 0120     		mov	r0, #1
 1055 00de FFF7FEFF 		bl	Triac4_Write
 437:main.c        ****                   
 438:main.c        ****                     cache[3]=curPos;
 1056              		.loc 1 438 0
 1057 00e2 3B1D     		add	r3, r7, #4
 1058 00e4 1B88     		ldrh	r3, [r3]
 1059 00e6 DAB2     		uxtb	r2, r3
 1060 00e8 2F4B     		ldr	r3, .L66
 1061 00ea DA70     		strb	r2, [r3, #3]
ARM GAS  C:\Users\poornima\AppData\Local\Temp\cchPcYdf.s 			page 28


 439:main.c        ****                     CySysFlashWriteRow(CY_TEST_FLASH_ROW, cache);
 1062              		.loc 1 439 0
 1063 00ec 2F4A     		ldr	r2, .L66+4
 1064 00ee 2E4B     		ldr	r3, .L66
 1065 00f0 101C     		mov	r0, r2
 1066 00f2 191C     		mov	r1, r3
 1067 00f4 FFF7FEFF 		bl	CySysFlashWriteRow
 440:main.c        ****                 }
 441:main.c        ****                 else
 442:main.c        ****                 {
 443:main.c        ****                    // UART_UartPutString("in UpdateSwitchLeds :: switch3 :: off \n");
 444:main.c        ****                     LED13_Write(0);
 445:main.c        ****                     Triac4_Write(0);
 446:main.c        ****                   
 447:main.c        ****                     cache[3]=curPos;
 448:main.c        ****                     CySysFlashWriteRow(CY_TEST_FLASH_ROW, cache);
 449:main.c        ****                 }
 450:main.c        ****                 break;
 1068              		.loc 1 450 0
 1069 00f8 52E0     		b	.L50
 1070              	.L62:
 444:main.c        ****                     Triac4_Write(0);
 1071              		.loc 1 444 0
 1072 00fa 0020     		mov	r0, #0
 1073 00fc FFF7FEFF 		bl	LED13_Write
 445:main.c        ****                   
 1074              		.loc 1 445 0
 1075 0100 0020     		mov	r0, #0
 1076 0102 FFF7FEFF 		bl	Triac4_Write
 447:main.c        ****                     CySysFlashWriteRow(CY_TEST_FLASH_ROW, cache);
 1077              		.loc 1 447 0
 1078 0106 3B1D     		add	r3, r7, #4
 1079 0108 1B88     		ldrh	r3, [r3]
 1080 010a DAB2     		uxtb	r2, r3
 1081 010c 264B     		ldr	r3, .L66
 1082 010e DA70     		strb	r2, [r3, #3]
 448:main.c        ****                 }
 1083              		.loc 1 448 0
 1084 0110 264A     		ldr	r2, .L66+4
 1085 0112 254B     		ldr	r3, .L66
 1086 0114 101C     		mov	r0, r2
 1087 0116 191C     		mov	r1, r3
 1088 0118 FFF7FEFF 		bl	CySysFlashWriteRow
 1089              		.loc 1 450 0
 1090 011c 40E0     		b	.L50
 1091              	.L56:
 451:main.c        ****             
 452:main.c        ****             case SOCKET1:
 453:main.c        ****                 if(curPos == 100)
 1092              		.loc 1 453 0
 1093 011e 3B1D     		add	r3, r7, #4
 1094 0120 1B88     		ldrh	r3, [r3]
 1095 0122 642B     		cmp	r3, #100
 1096 0124 11D1     		bne	.L64
 454:main.c        ****                 {
 455:main.c        ****                   //  UART_UartPutString("in UpdateSwitchLeds :: socket1 :: on \n");
 456:main.c        ****                     LED14_Write(1);
ARM GAS  C:\Users\poornima\AppData\Local\Temp\cchPcYdf.s 			page 29


 1097              		.loc 1 456 0
 1098 0126 0120     		mov	r0, #1
 1099 0128 FFF7FEFF 		bl	LED14_Write
 457:main.c        ****                     Triac5_Write(1);
 1100              		.loc 1 457 0
 1101 012c 0120     		mov	r0, #1
 1102 012e FFF7FEFF 		bl	Triac5_Write
 458:main.c        ****                     
 459:main.c        ****                     cache[4]=curPos;
 1103              		.loc 1 459 0
 1104 0132 3B1D     		add	r3, r7, #4
 1105 0134 1B88     		ldrh	r3, [r3]
 1106 0136 DAB2     		uxtb	r2, r3
 1107 0138 1B4B     		ldr	r3, .L66
 1108 013a 1A71     		strb	r2, [r3, #4]
 460:main.c        ****                     CySysFlashWriteRow(CY_TEST_FLASH_ROW, cache);
 1109              		.loc 1 460 0
 1110 013c 1B4A     		ldr	r2, .L66+4
 1111 013e 1A4B     		ldr	r3, .L66
 1112 0140 101C     		mov	r0, r2
 1113 0142 191C     		mov	r1, r3
 1114 0144 FFF7FEFF 		bl	CySysFlashWriteRow
 461:main.c        ****                 }
 462:main.c        ****                 else
 463:main.c        ****                 {
 464:main.c        ****                    // UART_UartPutString("in UpdateSwitchLeds :: socket1 :: off \n");
 465:main.c        ****                     LED14_Write(0);
 466:main.c        ****                     Triac5_Write(0);
 467:main.c        ****                   
 468:main.c        ****                     cache[4]=curPos;
 469:main.c        ****                     CySysFlashWriteRow(CY_TEST_FLASH_ROW, cache);
 470:main.c        ****                 }
 471:main.c        ****                 break;
 1115              		.loc 1 471 0
 1116 0148 2AE0     		b	.L50
 1117              	.L64:
 465:main.c        ****                     Triac5_Write(0);
 1118              		.loc 1 465 0
 1119 014a 0020     		mov	r0, #0
 1120 014c FFF7FEFF 		bl	LED14_Write
 466:main.c        ****                   
 1121              		.loc 1 466 0
 1122 0150 0020     		mov	r0, #0
 1123 0152 FFF7FEFF 		bl	Triac5_Write
 468:main.c        ****                     CySysFlashWriteRow(CY_TEST_FLASH_ROW, cache);
 1124              		.loc 1 468 0
 1125 0156 3B1D     		add	r3, r7, #4
 1126 0158 1B88     		ldrh	r3, [r3]
 1127 015a DAB2     		uxtb	r2, r3
 1128 015c 124B     		ldr	r3, .L66
 1129 015e 1A71     		strb	r2, [r3, #4]
 469:main.c        ****                 }
 1130              		.loc 1 469 0
 1131 0160 124A     		ldr	r2, .L66+4
 1132 0162 114B     		ldr	r3, .L66
 1133 0164 101C     		mov	r0, r2
 1134 0166 191C     		mov	r1, r3
ARM GAS  C:\Users\poornima\AppData\Local\Temp\cchPcYdf.s 			page 30


 1135 0168 FFF7FEFF 		bl	CySysFlashWriteRow
 1136              		.loc 1 471 0
 1137 016c 18E0     		b	.L50
 1138              	.L51:
 472:main.c        ****             default:
 473:main.c        ****                // UART_UartPutString("in UpdateSwitchLeds :: All :: on \n");
 474:main.c        ****                 LED11_Write(1);
 1139              		.loc 1 474 0
 1140 016e 0120     		mov	r0, #1
 1141 0170 FFF7FEFF 		bl	LED11_Write
 475:main.c        ****                 LED12_Write(1);
 1142              		.loc 1 475 0
 1143 0174 0120     		mov	r0, #1
 1144 0176 FFF7FEFF 		bl	LED12_Write
 476:main.c        ****                 LED13_Write(1);
 1145              		.loc 1 476 0
 1146 017a 0120     		mov	r0, #1
 1147 017c FFF7FEFF 		bl	LED13_Write
 477:main.c        ****                 LED14_Write(1);
 1148              		.loc 1 477 0
 1149 0180 0120     		mov	r0, #1
 1150 0182 FFF7FEFF 		bl	LED14_Write
 478:main.c        ****             
 479:main.c        ****                 Triac2_Write(1);
 1151              		.loc 1 479 0
 1152 0186 0120     		mov	r0, #1
 1153 0188 FFF7FEFF 		bl	Triac2_Write
 480:main.c        ****                 Triac3_Write(1);
 1154              		.loc 1 480 0
 1155 018c 0120     		mov	r0, #1
 1156 018e FFF7FEFF 		bl	Triac3_Write
 481:main.c        ****                 Triac4_Write(1);
 1157              		.loc 1 481 0
 1158 0192 0120     		mov	r0, #1
 1159 0194 FFF7FEFF 		bl	Triac4_Write
 482:main.c        ****                 Triac5_Write(1);
 1160              		.loc 1 482 0
 1161 0198 0120     		mov	r0, #1
 1162 019a FFF7FEFF 		bl	Triac5_Write
 483:main.c        ****               
 484:main.c        ****                 break;
 1163              		.loc 1 484 0
 1164 019e C046     		mov	r8, r8
 1165              	.L50:
 485:main.c        ****     }
 486:main.c        **** }
 1166              		.loc 1 486 0
 1167 01a0 BD46     		mov	sp, r7
 1168 01a2 02B0     		add	sp, sp, #8
 1169              		@ sp needed
 1170 01a4 80BD     		pop	{r7, pc}
 1171              	.L67:
 1172 01a6 C046     		.align	2
 1173              	.L66:
 1174 01a8 00000000 		.word	cache
 1175 01ac FE030000 		.word	1022
 1176              		.cfi_endproc
ARM GAS  C:\Users\poornima\AppData\Local\Temp\cchPcYdf.s 			page 31


 1177              	.LFE39:
 1178              		.size	UpdateSwitchLeds, .-UpdateSwitchLeds
 1179              		.section	.text.UpdateLedsFan1,"ax",%progbits
 1180              		.align	2
 1181              		.global	UpdateLedsFan1
 1182              		.code	16
 1183              		.thumb_func
 1184              		.type	UpdateLedsFan1, %function
 1185              	UpdateLedsFan1:
 1186              	.LFB40:
 487:main.c        **** 
 488:main.c        **** // FAN - updating LED
 489:main.c        **** void UpdateLedsFan1(uint16 curPos)
 490:main.c        **** {
 1187              		.loc 1 490 0
 1188              		.cfi_startproc
 1189 0000 80B5     		push	{r7, lr}
 1190              		.cfi_def_cfa_offset 8
 1191              		.cfi_offset 7, -8
 1192              		.cfi_offset 14, -4
 1193 0002 82B0     		sub	sp, sp, #8
 1194              		.cfi_def_cfa_offset 16
 1195 0004 00AF     		add	r7, sp, #0
 1196              		.cfi_def_cfa_register 7
 1197 0006 021C     		mov	r2, r0
 1198 0008 BB1D     		add	r3, r7, #6
 1199 000a 1A80     		strh	r2, [r3]
 491:main.c        ****     /* Turn of all LEDs first */
 492:main.c        ****     LED1_Write(0);
 1200              		.loc 1 492 0
 1201 000c 0020     		mov	r0, #0
 1202 000e FFF7FEFF 		bl	LED1_Write
 493:main.c        ****     LED2_Write(0);
 1203              		.loc 1 493 0
 1204 0012 0020     		mov	r0, #0
 1205 0014 FFF7FEFF 		bl	LED2_Write
 494:main.c        ****     LED3_Write(0);
 1206              		.loc 1 494 0
 1207 0018 0020     		mov	r0, #0
 1208 001a FFF7FEFF 		bl	LED3_Write
 495:main.c        ****     LED4_Write(0);
 1209              		.loc 1 495 0
 1210 001e 0020     		mov	r0, #0
 1211 0020 FFF7FEFF 		bl	LED4_Write
 496:main.c        ****     LED5_Write(0);
 1212              		.loc 1 496 0
 1213 0024 0020     		mov	r0, #0
 1214 0026 FFF7FEFF 		bl	LED5_Write
 497:main.c        ****     Triac1_Write(0);
 1215              		.loc 1 497 0
 1216 002a 0020     		mov	r0, #0
 1217 002c FFF7FEFF 		bl	Triac1_Write
 498:main.c        ****    // UART_UartPutString("in UpdateLedsFan2\n");
 499:main.c        ****     
 500:main.c        ****     if(curPos<10)
 1218              		.loc 1 500 0
 1219 0030 BB1D     		add	r3, r7, #6
ARM GAS  C:\Users\poornima\AppData\Local\Temp\cchPcYdf.s 			page 32


 1220 0032 1B88     		ldrh	r3, [r3]
 1221 0034 092B     		cmp	r3, #9
 1222 0036 0AD8     		bhi	.L69
 501:main.c        ****     {
 502:main.c        ****         cache[0]=curPos;
 1223              		.loc 1 502 0
 1224 0038 BB1D     		add	r3, r7, #6
 1225 003a 1B88     		ldrh	r3, [r3]
 1226 003c DAB2     		uxtb	r2, r3
 1227 003e 3A4B     		ldr	r3, .L75
 1228 0040 1A70     		strb	r2, [r3]
 503:main.c        ****         CySysFlashWriteRow(CY_TEST_FLASH_ROW, cache);
 1229              		.loc 1 503 0
 1230 0042 3A4A     		ldr	r2, .L75+4
 1231 0044 384B     		ldr	r3, .L75
 1232 0046 101C     		mov	r0, r2
 1233 0048 191C     		mov	r1, r3
 1234 004a FFF7FEFF 		bl	CySysFlashWriteRow
 1235              	.L69:
 504:main.c        ****     }
 505:main.c        ****        
 506:main.c        ****     if (curPos > 10)
 1236              		.loc 1 506 0
 1237 004e BB1D     		add	r3, r7, #6
 1238 0050 1B88     		ldrh	r3, [r3]
 1239 0052 0A2B     		cmp	r3, #10
 1240 0054 10D9     		bls	.L70
 507:main.c        ****     {
 508:main.c        ****      //   UART_UartPutString("in UpdateLedsFan2 :: range >10\n");
 509:main.c        ****         LED1_Write(1);
 1241              		.loc 1 509 0
 1242 0056 0120     		mov	r0, #1
 1243 0058 FFF7FEFF 		bl	LED1_Write
 510:main.c        ****         Triac1_Write(1);
 1244              		.loc 1 510 0
 1245 005c 0120     		mov	r0, #1
 1246 005e FFF7FEFF 		bl	Triac1_Write
 511:main.c        ****         cache[0]=curPos;
 1247              		.loc 1 511 0
 1248 0062 BB1D     		add	r3, r7, #6
 1249 0064 1B88     		ldrh	r3, [r3]
 1250 0066 DAB2     		uxtb	r2, r3
 1251 0068 2F4B     		ldr	r3, .L75
 1252 006a 1A70     		strb	r2, [r3]
 512:main.c        ****         CySysFlashWriteRow(CY_TEST_FLASH_ROW, cache);
 1253              		.loc 1 512 0
 1254 006c 2F4A     		ldr	r2, .L75+4
 1255 006e 2E4B     		ldr	r3, .L75
 1256 0070 101C     		mov	r0, r2
 1257 0072 191C     		mov	r1, r3
 1258 0074 FFF7FEFF 		bl	CySysFlashWriteRow
 1259              	.L70:
 513:main.c        ****                     
 514:main.c        ****     }
 515:main.c        ****     
 516:main.c        ****     if (curPos > 20)
 1260              		.loc 1 516 0
ARM GAS  C:\Users\poornima\AppData\Local\Temp\cchPcYdf.s 			page 33


 1261 0078 BB1D     		add	r3, r7, #6
 1262 007a 1B88     		ldrh	r3, [r3]
 1263 007c 142B     		cmp	r3, #20
 1264 007e 10D9     		bls	.L71
 517:main.c        ****     {
 518:main.c        ****       //  UART_UartPutString("in UpdateLedsFan2 :: range >20\n");
 519:main.c        ****         LED2_Write(1);
 1265              		.loc 1 519 0
 1266 0080 0120     		mov	r0, #1
 1267 0082 FFF7FEFF 		bl	LED2_Write
 520:main.c        ****         Triac1_Write(1);
 1268              		.loc 1 520 0
 1269 0086 0120     		mov	r0, #1
 1270 0088 FFF7FEFF 		bl	Triac1_Write
 521:main.c        ****         cache[0]=curPos;
 1271              		.loc 1 521 0
 1272 008c BB1D     		add	r3, r7, #6
 1273 008e 1B88     		ldrh	r3, [r3]
 1274 0090 DAB2     		uxtb	r2, r3
 1275 0092 254B     		ldr	r3, .L75
 1276 0094 1A70     		strb	r2, [r3]
 522:main.c        ****         CySysFlashWriteRow(CY_TEST_FLASH_ROW, cache);
 1277              		.loc 1 522 0
 1278 0096 254A     		ldr	r2, .L75+4
 1279 0098 234B     		ldr	r3, .L75
 1280 009a 101C     		mov	r0, r2
 1281 009c 191C     		mov	r1, r3
 1282 009e FFF7FEFF 		bl	CySysFlashWriteRow
 1283              	.L71:
 523:main.c        ****                     
 524:main.c        ****     }
 525:main.c        ****     
 526:main.c        ****     if (curPos > 40)
 1284              		.loc 1 526 0
 1285 00a2 BB1D     		add	r3, r7, #6
 1286 00a4 1B88     		ldrh	r3, [r3]
 1287 00a6 282B     		cmp	r3, #40
 1288 00a8 10D9     		bls	.L72
 527:main.c        ****     {
 528:main.c        ****        // UART_UartPutString("in UpdateLedsFan2 :: range >40\n");
 529:main.c        ****         LED3_Write(1);
 1289              		.loc 1 529 0
 1290 00aa 0120     		mov	r0, #1
 1291 00ac FFF7FEFF 		bl	LED3_Write
 530:main.c        ****         Triac1_Write(1);
 1292              		.loc 1 530 0
 1293 00b0 0120     		mov	r0, #1
 1294 00b2 FFF7FEFF 		bl	Triac1_Write
 531:main.c        ****         cache[0]=curPos;
 1295              		.loc 1 531 0
 1296 00b6 BB1D     		add	r3, r7, #6
 1297 00b8 1B88     		ldrh	r3, [r3]
 1298 00ba DAB2     		uxtb	r2, r3
 1299 00bc 1A4B     		ldr	r3, .L75
 1300 00be 1A70     		strb	r2, [r3]
 532:main.c        ****         CySysFlashWriteRow(CY_TEST_FLASH_ROW, cache);
 1301              		.loc 1 532 0
ARM GAS  C:\Users\poornima\AppData\Local\Temp\cchPcYdf.s 			page 34


 1302 00c0 1A4A     		ldr	r2, .L75+4
 1303 00c2 194B     		ldr	r3, .L75
 1304 00c4 101C     		mov	r0, r2
 1305 00c6 191C     		mov	r1, r3
 1306 00c8 FFF7FEFF 		bl	CySysFlashWriteRow
 1307              	.L72:
 533:main.c        ****                     
 534:main.c        ****     }
 535:main.c        ****     
 536:main.c        ****     if (curPos > 60)
 1308              		.loc 1 536 0
 1309 00cc BB1D     		add	r3, r7, #6
 1310 00ce 1B88     		ldrh	r3, [r3]
 1311 00d0 3C2B     		cmp	r3, #60
 1312 00d2 10D9     		bls	.L73
 537:main.c        ****     {
 538:main.c        ****        // UART_UartPutString("in UpdateLedsFan2 :: range > 60\n");
 539:main.c        ****         LED4_Write(1);
 1313              		.loc 1 539 0
 1314 00d4 0120     		mov	r0, #1
 1315 00d6 FFF7FEFF 		bl	LED4_Write
 540:main.c        ****         Triac1_Write(1);
 1316              		.loc 1 540 0
 1317 00da 0120     		mov	r0, #1
 1318 00dc FFF7FEFF 		bl	Triac1_Write
 541:main.c        ****         cache[0]=curPos;
 1319              		.loc 1 541 0
 1320 00e0 BB1D     		add	r3, r7, #6
 1321 00e2 1B88     		ldrh	r3, [r3]
 1322 00e4 DAB2     		uxtb	r2, r3
 1323 00e6 104B     		ldr	r3, .L75
 1324 00e8 1A70     		strb	r2, [r3]
 542:main.c        ****         CySysFlashWriteRow(CY_TEST_FLASH_ROW, cache);
 1325              		.loc 1 542 0
 1326 00ea 104A     		ldr	r2, .L75+4
 1327 00ec 0E4B     		ldr	r3, .L75
 1328 00ee 101C     		mov	r0, r2
 1329 00f0 191C     		mov	r1, r3
 1330 00f2 FFF7FEFF 		bl	CySysFlashWriteRow
 1331              	.L73:
 543:main.c        ****     }
 544:main.c        ****     
 545:main.c        ****     if (curPos > 80)
 1332              		.loc 1 545 0
 1333 00f6 BB1D     		add	r3, r7, #6
 1334 00f8 1B88     		ldrh	r3, [r3]
 1335 00fa 502B     		cmp	r3, #80
 1336 00fc 10D9     		bls	.L68
 546:main.c        ****     {
 547:main.c        ****        // UART_UartPutString("in UpdateLedsFan2 :: range > 80\n");
 548:main.c        ****         LED5_Write(1);
 1337              		.loc 1 548 0
 1338 00fe 0120     		mov	r0, #1
 1339 0100 FFF7FEFF 		bl	LED5_Write
 549:main.c        ****         Triac1_Write(1);
 1340              		.loc 1 549 0
 1341 0104 0120     		mov	r0, #1
ARM GAS  C:\Users\poornima\AppData\Local\Temp\cchPcYdf.s 			page 35


 1342 0106 FFF7FEFF 		bl	Triac1_Write
 550:main.c        ****         cache[0]=curPos;
 1343              		.loc 1 550 0
 1344 010a BB1D     		add	r3, r7, #6
 1345 010c 1B88     		ldrh	r3, [r3]
 1346 010e DAB2     		uxtb	r2, r3
 1347 0110 054B     		ldr	r3, .L75
 1348 0112 1A70     		strb	r2, [r3]
 551:main.c        ****         CySysFlashWriteRow(CY_TEST_FLASH_ROW, cache);
 1349              		.loc 1 551 0
 1350 0114 054A     		ldr	r2, .L75+4
 1351 0116 044B     		ldr	r3, .L75
 1352 0118 101C     		mov	r0, r2
 1353 011a 191C     		mov	r1, r3
 1354 011c FFF7FEFF 		bl	CySysFlashWriteRow
 1355              	.L68:
 552:main.c        ****     }
 553:main.c        **** }
 1356              		.loc 1 553 0
 1357 0120 BD46     		mov	sp, r7
 1358 0122 02B0     		add	sp, sp, #8
 1359              		@ sp needed
 1360 0124 80BD     		pop	{r7, pc}
 1361              	.L76:
 1362 0126 C046     		.align	2
 1363              	.L75:
 1364 0128 00000000 		.word	cache
 1365 012c FE030000 		.word	1022
 1366              		.cfi_endproc
 1367              	.LFE40:
 1368              		.size	UpdateLedsFan1, .-UpdateLedsFan1
 1369              		.text
 1370              	.Letext0:
 1371              		.file 2 "Generated_Source\\PSoC4/cytypes.h"